
/home/jenkins/workspace/RUI_Release/rui-v3/image/RUI_fuota_stack_1.0.0:     file format elf32-littlearm


Disassembly of section .text:

0801e000 <strlen>:
 801e000:	4603      	mov	r3, r0
 801e002:	f813 2b01 	ldrb.w	r2, [r3], #1
 801e006:	2a00      	cmp	r2, #0
 801e008:	d1fb      	bne.n	801e002 <strlen+0x2>
 801e00a:	1a18      	subs	r0, r3, r0
 801e00c:	3801      	subs	r0, #1
 801e00e:	4770      	bx	lr

0801e010 <__aeabi_drsub>:
 801e010:	f081 4100 	eor.w	r1, r1, #2147483648	; 0x80000000
 801e014:	e002      	b.n	801e01c <__adddf3>
 801e016:	bf00      	nop

0801e018 <__aeabi_dsub>:
 801e018:	f083 4300 	eor.w	r3, r3, #2147483648	; 0x80000000

0801e01c <__adddf3>:
 801e01c:	b530      	push	{r4, r5, lr}
 801e01e:	ea4f 0441 	mov.w	r4, r1, lsl #1
 801e022:	ea4f 0543 	mov.w	r5, r3, lsl #1
 801e026:	ea94 0f05 	teq	r4, r5
 801e02a:	bf08      	it	eq
 801e02c:	ea90 0f02 	teqeq	r0, r2
 801e030:	bf1f      	itttt	ne
 801e032:	ea54 0c00 	orrsne.w	ip, r4, r0
 801e036:	ea55 0c02 	orrsne.w	ip, r5, r2
 801e03a:	ea7f 5c64 	mvnsne.w	ip, r4, asr #21
 801e03e:	ea7f 5c65 	mvnsne.w	ip, r5, asr #21
 801e042:	f000 80e2 	beq.w	801e20a <__adddf3+0x1ee>
 801e046:	ea4f 5454 	mov.w	r4, r4, lsr #21
 801e04a:	ebd4 5555 	rsbs	r5, r4, r5, lsr #21
 801e04e:	bfb8      	it	lt
 801e050:	426d      	neglt	r5, r5
 801e052:	dd0c      	ble.n	801e06e <__adddf3+0x52>
 801e054:	442c      	add	r4, r5
 801e056:	ea80 0202 	eor.w	r2, r0, r2
 801e05a:	ea81 0303 	eor.w	r3, r1, r3
 801e05e:	ea82 0000 	eor.w	r0, r2, r0
 801e062:	ea83 0101 	eor.w	r1, r3, r1
 801e066:	ea80 0202 	eor.w	r2, r0, r2
 801e06a:	ea81 0303 	eor.w	r3, r1, r3
 801e06e:	2d36      	cmp	r5, #54	; 0x36
 801e070:	bf88      	it	hi
 801e072:	bd30      	pophi	{r4, r5, pc}
 801e074:	f011 4f00 	tst.w	r1, #2147483648	; 0x80000000
 801e078:	ea4f 3101 	mov.w	r1, r1, lsl #12
 801e07c:	f44f 1c80 	mov.w	ip, #1048576	; 0x100000
 801e080:	ea4c 3111 	orr.w	r1, ip, r1, lsr #12
 801e084:	d002      	beq.n	801e08c <__adddf3+0x70>
 801e086:	4240      	negs	r0, r0
 801e088:	eb61 0141 	sbc.w	r1, r1, r1, lsl #1
 801e08c:	f013 4f00 	tst.w	r3, #2147483648	; 0x80000000
 801e090:	ea4f 3303 	mov.w	r3, r3, lsl #12
 801e094:	ea4c 3313 	orr.w	r3, ip, r3, lsr #12
 801e098:	d002      	beq.n	801e0a0 <__adddf3+0x84>
 801e09a:	4252      	negs	r2, r2
 801e09c:	eb63 0343 	sbc.w	r3, r3, r3, lsl #1
 801e0a0:	ea94 0f05 	teq	r4, r5
 801e0a4:	f000 80a7 	beq.w	801e1f6 <__adddf3+0x1da>
 801e0a8:	f1a4 0401 	sub.w	r4, r4, #1
 801e0ac:	f1d5 0e20 	rsbs	lr, r5, #32
 801e0b0:	db0d      	blt.n	801e0ce <__adddf3+0xb2>
 801e0b2:	fa02 fc0e 	lsl.w	ip, r2, lr
 801e0b6:	fa22 f205 	lsr.w	r2, r2, r5
 801e0ba:	1880      	adds	r0, r0, r2
 801e0bc:	f141 0100 	adc.w	r1, r1, #0
 801e0c0:	fa03 f20e 	lsl.w	r2, r3, lr
 801e0c4:	1880      	adds	r0, r0, r2
 801e0c6:	fa43 f305 	asr.w	r3, r3, r5
 801e0ca:	4159      	adcs	r1, r3
 801e0cc:	e00e      	b.n	801e0ec <__adddf3+0xd0>
 801e0ce:	f1a5 0520 	sub.w	r5, r5, #32
 801e0d2:	f10e 0e20 	add.w	lr, lr, #32
 801e0d6:	2a01      	cmp	r2, #1
 801e0d8:	fa03 fc0e 	lsl.w	ip, r3, lr
 801e0dc:	bf28      	it	cs
 801e0de:	f04c 0c02 	orrcs.w	ip, ip, #2
 801e0e2:	fa43 f305 	asr.w	r3, r3, r5
 801e0e6:	18c0      	adds	r0, r0, r3
 801e0e8:	eb51 71e3 	adcs.w	r1, r1, r3, asr #31
 801e0ec:	f001 4500 	and.w	r5, r1, #2147483648	; 0x80000000
 801e0f0:	d507      	bpl.n	801e102 <__adddf3+0xe6>
 801e0f2:	f04f 0e00 	mov.w	lr, #0
 801e0f6:	f1dc 0c00 	rsbs	ip, ip, #0
 801e0fa:	eb7e 0000 	sbcs.w	r0, lr, r0
 801e0fe:	eb6e 0101 	sbc.w	r1, lr, r1
 801e102:	f5b1 1f80 	cmp.w	r1, #1048576	; 0x100000
 801e106:	d31b      	bcc.n	801e140 <__adddf3+0x124>
 801e108:	f5b1 1f00 	cmp.w	r1, #2097152	; 0x200000
 801e10c:	d30c      	bcc.n	801e128 <__adddf3+0x10c>
 801e10e:	0849      	lsrs	r1, r1, #1
 801e110:	ea5f 0030 	movs.w	r0, r0, rrx
 801e114:	ea4f 0c3c 	mov.w	ip, ip, rrx
 801e118:	f104 0401 	add.w	r4, r4, #1
 801e11c:	ea4f 5244 	mov.w	r2, r4, lsl #21
 801e120:	f512 0f80 	cmn.w	r2, #4194304	; 0x400000
 801e124:	f080 809a 	bcs.w	801e25c <__adddf3+0x240>
 801e128:	f1bc 4f00 	cmp.w	ip, #2147483648	; 0x80000000
 801e12c:	bf08      	it	eq
 801e12e:	ea5f 0c50 	movseq.w	ip, r0, lsr #1
 801e132:	f150 0000 	adcs.w	r0, r0, #0
 801e136:	eb41 5104 	adc.w	r1, r1, r4, lsl #20
 801e13a:	ea41 0105 	orr.w	r1, r1, r5
 801e13e:	bd30      	pop	{r4, r5, pc}
 801e140:	ea5f 0c4c 	movs.w	ip, ip, lsl #1
 801e144:	4140      	adcs	r0, r0
 801e146:	eb41 0101 	adc.w	r1, r1, r1
 801e14a:	3c01      	subs	r4, #1
 801e14c:	bf28      	it	cs
 801e14e:	f5b1 1f80 	cmpcs.w	r1, #1048576	; 0x100000
 801e152:	d2e9      	bcs.n	801e128 <__adddf3+0x10c>
 801e154:	f091 0f00 	teq	r1, #0
 801e158:	bf04      	itt	eq
 801e15a:	4601      	moveq	r1, r0
 801e15c:	2000      	moveq	r0, #0
 801e15e:	fab1 f381 	clz	r3, r1
 801e162:	bf08      	it	eq
 801e164:	3320      	addeq	r3, #32
 801e166:	f1a3 030b 	sub.w	r3, r3, #11
 801e16a:	f1b3 0220 	subs.w	r2, r3, #32
 801e16e:	da0c      	bge.n	801e18a <__adddf3+0x16e>
 801e170:	320c      	adds	r2, #12
 801e172:	dd08      	ble.n	801e186 <__adddf3+0x16a>
 801e174:	f102 0c14 	add.w	ip, r2, #20
 801e178:	f1c2 020c 	rsb	r2, r2, #12
 801e17c:	fa01 f00c 	lsl.w	r0, r1, ip
 801e180:	fa21 f102 	lsr.w	r1, r1, r2
 801e184:	e00c      	b.n	801e1a0 <__adddf3+0x184>
 801e186:	f102 0214 	add.w	r2, r2, #20
 801e18a:	bfd8      	it	le
 801e18c:	f1c2 0c20 	rsble	ip, r2, #32
 801e190:	fa01 f102 	lsl.w	r1, r1, r2
 801e194:	fa20 fc0c 	lsr.w	ip, r0, ip
 801e198:	bfdc      	itt	le
 801e19a:	ea41 010c 	orrle.w	r1, r1, ip
 801e19e:	4090      	lslle	r0, r2
 801e1a0:	1ae4      	subs	r4, r4, r3
 801e1a2:	bfa2      	ittt	ge
 801e1a4:	eb01 5104 	addge.w	r1, r1, r4, lsl #20
 801e1a8:	4329      	orrge	r1, r5
 801e1aa:	bd30      	popge	{r4, r5, pc}
 801e1ac:	ea6f 0404 	mvn.w	r4, r4
 801e1b0:	3c1f      	subs	r4, #31
 801e1b2:	da1c      	bge.n	801e1ee <__adddf3+0x1d2>
 801e1b4:	340c      	adds	r4, #12
 801e1b6:	dc0e      	bgt.n	801e1d6 <__adddf3+0x1ba>
 801e1b8:	f104 0414 	add.w	r4, r4, #20
 801e1bc:	f1c4 0220 	rsb	r2, r4, #32
 801e1c0:	fa20 f004 	lsr.w	r0, r0, r4
 801e1c4:	fa01 f302 	lsl.w	r3, r1, r2
 801e1c8:	ea40 0003 	orr.w	r0, r0, r3
 801e1cc:	fa21 f304 	lsr.w	r3, r1, r4
 801e1d0:	ea45 0103 	orr.w	r1, r5, r3
 801e1d4:	bd30      	pop	{r4, r5, pc}
 801e1d6:	f1c4 040c 	rsb	r4, r4, #12
 801e1da:	f1c4 0220 	rsb	r2, r4, #32
 801e1de:	fa20 f002 	lsr.w	r0, r0, r2
 801e1e2:	fa01 f304 	lsl.w	r3, r1, r4
 801e1e6:	ea40 0003 	orr.w	r0, r0, r3
 801e1ea:	4629      	mov	r1, r5
 801e1ec:	bd30      	pop	{r4, r5, pc}
 801e1ee:	fa21 f004 	lsr.w	r0, r1, r4
 801e1f2:	4629      	mov	r1, r5
 801e1f4:	bd30      	pop	{r4, r5, pc}
 801e1f6:	f094 0f00 	teq	r4, #0
 801e1fa:	f483 1380 	eor.w	r3, r3, #1048576	; 0x100000
 801e1fe:	bf06      	itte	eq
 801e200:	f481 1180 	eoreq.w	r1, r1, #1048576	; 0x100000
 801e204:	3401      	addeq	r4, #1
 801e206:	3d01      	subne	r5, #1
 801e208:	e74e      	b.n	801e0a8 <__adddf3+0x8c>
 801e20a:	ea7f 5c64 	mvns.w	ip, r4, asr #21
 801e20e:	bf18      	it	ne
 801e210:	ea7f 5c65 	mvnsne.w	ip, r5, asr #21
 801e214:	d029      	beq.n	801e26a <__adddf3+0x24e>
 801e216:	ea94 0f05 	teq	r4, r5
 801e21a:	bf08      	it	eq
 801e21c:	ea90 0f02 	teqeq	r0, r2
 801e220:	d005      	beq.n	801e22e <__adddf3+0x212>
 801e222:	ea54 0c00 	orrs.w	ip, r4, r0
 801e226:	bf04      	itt	eq
 801e228:	4619      	moveq	r1, r3
 801e22a:	4610      	moveq	r0, r2
 801e22c:	bd30      	pop	{r4, r5, pc}
 801e22e:	ea91 0f03 	teq	r1, r3
 801e232:	bf1e      	ittt	ne
 801e234:	2100      	movne	r1, #0
 801e236:	2000      	movne	r0, #0
 801e238:	bd30      	popne	{r4, r5, pc}
 801e23a:	ea5f 5c54 	movs.w	ip, r4, lsr #21
 801e23e:	d105      	bne.n	801e24c <__adddf3+0x230>
 801e240:	0040      	lsls	r0, r0, #1
 801e242:	4149      	adcs	r1, r1
 801e244:	bf28      	it	cs
 801e246:	f041 4100 	orrcs.w	r1, r1, #2147483648	; 0x80000000
 801e24a:	bd30      	pop	{r4, r5, pc}
 801e24c:	f514 0480 	adds.w	r4, r4, #4194304	; 0x400000
 801e250:	bf3c      	itt	cc
 801e252:	f501 1180 	addcc.w	r1, r1, #1048576	; 0x100000
 801e256:	bd30      	popcc	{r4, r5, pc}
 801e258:	f001 4500 	and.w	r5, r1, #2147483648	; 0x80000000
 801e25c:	f045 41fe 	orr.w	r1, r5, #2130706432	; 0x7f000000
 801e260:	f441 0170 	orr.w	r1, r1, #15728640	; 0xf00000
 801e264:	f04f 0000 	mov.w	r0, #0
 801e268:	bd30      	pop	{r4, r5, pc}
 801e26a:	ea7f 5c64 	mvns.w	ip, r4, asr #21
 801e26e:	bf1a      	itte	ne
 801e270:	4619      	movne	r1, r3
 801e272:	4610      	movne	r0, r2
 801e274:	ea7f 5c65 	mvnseq.w	ip, r5, asr #21
 801e278:	bf1c      	itt	ne
 801e27a:	460b      	movne	r3, r1
 801e27c:	4602      	movne	r2, r0
 801e27e:	ea50 3401 	orrs.w	r4, r0, r1, lsl #12
 801e282:	bf06      	itte	eq
 801e284:	ea52 3503 	orrseq.w	r5, r2, r3, lsl #12
 801e288:	ea91 0f03 	teqeq	r1, r3
 801e28c:	f441 2100 	orrne.w	r1, r1, #524288	; 0x80000
 801e290:	bd30      	pop	{r4, r5, pc}
 801e292:	bf00      	nop

0801e294 <__aeabi_ui2d>:
 801e294:	f090 0f00 	teq	r0, #0
 801e298:	bf04      	itt	eq
 801e29a:	2100      	moveq	r1, #0
 801e29c:	4770      	bxeq	lr
 801e29e:	b530      	push	{r4, r5, lr}
 801e2a0:	f44f 6480 	mov.w	r4, #1024	; 0x400
 801e2a4:	f104 0432 	add.w	r4, r4, #50	; 0x32
 801e2a8:	f04f 0500 	mov.w	r5, #0
 801e2ac:	f04f 0100 	mov.w	r1, #0
 801e2b0:	e750      	b.n	801e154 <__adddf3+0x138>
 801e2b2:	bf00      	nop

0801e2b4 <__aeabi_i2d>:
 801e2b4:	f090 0f00 	teq	r0, #0
 801e2b8:	bf04      	itt	eq
 801e2ba:	2100      	moveq	r1, #0
 801e2bc:	4770      	bxeq	lr
 801e2be:	b530      	push	{r4, r5, lr}
 801e2c0:	f44f 6480 	mov.w	r4, #1024	; 0x400
 801e2c4:	f104 0432 	add.w	r4, r4, #50	; 0x32
 801e2c8:	f010 4500 	ands.w	r5, r0, #2147483648	; 0x80000000
 801e2cc:	bf48      	it	mi
 801e2ce:	4240      	negmi	r0, r0
 801e2d0:	f04f 0100 	mov.w	r1, #0
 801e2d4:	e73e      	b.n	801e154 <__adddf3+0x138>
 801e2d6:	bf00      	nop

0801e2d8 <__aeabi_f2d>:
 801e2d8:	0042      	lsls	r2, r0, #1
 801e2da:	ea4f 01e2 	mov.w	r1, r2, asr #3
 801e2de:	ea4f 0131 	mov.w	r1, r1, rrx
 801e2e2:	ea4f 7002 	mov.w	r0, r2, lsl #28
 801e2e6:	bf1f      	itttt	ne
 801e2e8:	f012 437f 	andsne.w	r3, r2, #4278190080	; 0xff000000
 801e2ec:	f093 4f7f 	teqne	r3, #4278190080	; 0xff000000
 801e2f0:	f081 5160 	eorne.w	r1, r1, #939524096	; 0x38000000
 801e2f4:	4770      	bxne	lr
 801e2f6:	f032 427f 	bics.w	r2, r2, #4278190080	; 0xff000000
 801e2fa:	bf08      	it	eq
 801e2fc:	4770      	bxeq	lr
 801e2fe:	f093 4f7f 	teq	r3, #4278190080	; 0xff000000
 801e302:	bf04      	itt	eq
 801e304:	f441 2100 	orreq.w	r1, r1, #524288	; 0x80000
 801e308:	4770      	bxeq	lr
 801e30a:	b530      	push	{r4, r5, lr}
 801e30c:	f44f 7460 	mov.w	r4, #896	; 0x380
 801e310:	f001 4500 	and.w	r5, r1, #2147483648	; 0x80000000
 801e314:	f021 4100 	bic.w	r1, r1, #2147483648	; 0x80000000
 801e318:	e71c      	b.n	801e154 <__adddf3+0x138>
 801e31a:	bf00      	nop

0801e31c <__aeabi_ul2d>:
 801e31c:	ea50 0201 	orrs.w	r2, r0, r1
 801e320:	bf08      	it	eq
 801e322:	4770      	bxeq	lr
 801e324:	b530      	push	{r4, r5, lr}
 801e326:	f04f 0500 	mov.w	r5, #0
 801e32a:	e00a      	b.n	801e342 <__aeabi_l2d+0x16>

0801e32c <__aeabi_l2d>:
 801e32c:	ea50 0201 	orrs.w	r2, r0, r1
 801e330:	bf08      	it	eq
 801e332:	4770      	bxeq	lr
 801e334:	b530      	push	{r4, r5, lr}
 801e336:	f011 4500 	ands.w	r5, r1, #2147483648	; 0x80000000
 801e33a:	d502      	bpl.n	801e342 <__aeabi_l2d+0x16>
 801e33c:	4240      	negs	r0, r0
 801e33e:	eb61 0141 	sbc.w	r1, r1, r1, lsl #1
 801e342:	f44f 6480 	mov.w	r4, #1024	; 0x400
 801e346:	f104 0432 	add.w	r4, r4, #50	; 0x32
 801e34a:	ea5f 5c91 	movs.w	ip, r1, lsr #22
 801e34e:	f43f aed8 	beq.w	801e102 <__adddf3+0xe6>
 801e352:	f04f 0203 	mov.w	r2, #3
 801e356:	ea5f 0cdc 	movs.w	ip, ip, lsr #3
 801e35a:	bf18      	it	ne
 801e35c:	3203      	addne	r2, #3
 801e35e:	ea5f 0cdc 	movs.w	ip, ip, lsr #3
 801e362:	bf18      	it	ne
 801e364:	3203      	addne	r2, #3
 801e366:	eb02 02dc 	add.w	r2, r2, ip, lsr #3
 801e36a:	f1c2 0320 	rsb	r3, r2, #32
 801e36e:	fa00 fc03 	lsl.w	ip, r0, r3
 801e372:	fa20 f002 	lsr.w	r0, r0, r2
 801e376:	fa01 fe03 	lsl.w	lr, r1, r3
 801e37a:	ea40 000e 	orr.w	r0, r0, lr
 801e37e:	fa21 f102 	lsr.w	r1, r1, r2
 801e382:	4414      	add	r4, r2
 801e384:	e6bd      	b.n	801e102 <__adddf3+0xe6>
 801e386:	bf00      	nop

0801e388 <__gedf2>:
 801e388:	f04f 3cff 	mov.w	ip, #4294967295	; 0xffffffff
 801e38c:	e006      	b.n	801e39c <__cmpdf2+0x4>
 801e38e:	bf00      	nop

0801e390 <__ledf2>:
 801e390:	f04f 0c01 	mov.w	ip, #1
 801e394:	e002      	b.n	801e39c <__cmpdf2+0x4>
 801e396:	bf00      	nop

0801e398 <__cmpdf2>:
 801e398:	f04f 0c01 	mov.w	ip, #1
 801e39c:	f84d cd04 	str.w	ip, [sp, #-4]!
 801e3a0:	ea4f 0c41 	mov.w	ip, r1, lsl #1
 801e3a4:	ea7f 5c6c 	mvns.w	ip, ip, asr #21
 801e3a8:	ea4f 0c43 	mov.w	ip, r3, lsl #1
 801e3ac:	bf18      	it	ne
 801e3ae:	ea7f 5c6c 	mvnsne.w	ip, ip, asr #21
 801e3b2:	d01b      	beq.n	801e3ec <__cmpdf2+0x54>
 801e3b4:	b001      	add	sp, #4
 801e3b6:	ea50 0c41 	orrs.w	ip, r0, r1, lsl #1
 801e3ba:	bf0c      	ite	eq
 801e3bc:	ea52 0c43 	orrseq.w	ip, r2, r3, lsl #1
 801e3c0:	ea91 0f03 	teqne	r1, r3
 801e3c4:	bf02      	ittt	eq
 801e3c6:	ea90 0f02 	teqeq	r0, r2
 801e3ca:	2000      	moveq	r0, #0
 801e3cc:	4770      	bxeq	lr
 801e3ce:	f110 0f00 	cmn.w	r0, #0
 801e3d2:	ea91 0f03 	teq	r1, r3
 801e3d6:	bf58      	it	pl
 801e3d8:	4299      	cmppl	r1, r3
 801e3da:	bf08      	it	eq
 801e3dc:	4290      	cmpeq	r0, r2
 801e3de:	bf2c      	ite	cs
 801e3e0:	17d8      	asrcs	r0, r3, #31
 801e3e2:	ea6f 70e3 	mvncc.w	r0, r3, asr #31
 801e3e6:	f040 0001 	orr.w	r0, r0, #1
 801e3ea:	4770      	bx	lr
 801e3ec:	ea4f 0c41 	mov.w	ip, r1, lsl #1
 801e3f0:	ea7f 5c6c 	mvns.w	ip, ip, asr #21
 801e3f4:	d102      	bne.n	801e3fc <__cmpdf2+0x64>
 801e3f6:	ea50 3c01 	orrs.w	ip, r0, r1, lsl #12
 801e3fa:	d107      	bne.n	801e40c <__cmpdf2+0x74>
 801e3fc:	ea4f 0c43 	mov.w	ip, r3, lsl #1
 801e400:	ea7f 5c6c 	mvns.w	ip, ip, asr #21
 801e404:	d1d6      	bne.n	801e3b4 <__cmpdf2+0x1c>
 801e406:	ea52 3c03 	orrs.w	ip, r2, r3, lsl #12
 801e40a:	d0d3      	beq.n	801e3b4 <__cmpdf2+0x1c>
 801e40c:	f85d 0b04 	ldr.w	r0, [sp], #4
 801e410:	4770      	bx	lr
 801e412:	bf00      	nop

0801e414 <__aeabi_cdrcmple>:
 801e414:	4684      	mov	ip, r0
 801e416:	4610      	mov	r0, r2
 801e418:	4662      	mov	r2, ip
 801e41a:	468c      	mov	ip, r1
 801e41c:	4619      	mov	r1, r3
 801e41e:	4663      	mov	r3, ip
 801e420:	e000      	b.n	801e424 <__aeabi_cdcmpeq>
 801e422:	bf00      	nop

0801e424 <__aeabi_cdcmpeq>:
 801e424:	b501      	push	{r0, lr}
 801e426:	f7ff ffb7 	bl	801e398 <__cmpdf2>
 801e42a:	2800      	cmp	r0, #0
 801e42c:	bf48      	it	mi
 801e42e:	f110 0f00 	cmnmi.w	r0, #0
 801e432:	bd01      	pop	{r0, pc}

0801e434 <__aeabi_dcmpeq>:
 801e434:	f84d ed08 	str.w	lr, [sp, #-8]!
 801e438:	f7ff fff4 	bl	801e424 <__aeabi_cdcmpeq>
 801e43c:	bf0c      	ite	eq
 801e43e:	2001      	moveq	r0, #1
 801e440:	2000      	movne	r0, #0
 801e442:	f85d fb08 	ldr.w	pc, [sp], #8
 801e446:	bf00      	nop

0801e448 <__aeabi_dcmplt>:
 801e448:	f84d ed08 	str.w	lr, [sp, #-8]!
 801e44c:	f7ff ffea 	bl	801e424 <__aeabi_cdcmpeq>
 801e450:	bf34      	ite	cc
 801e452:	2001      	movcc	r0, #1
 801e454:	2000      	movcs	r0, #0
 801e456:	f85d fb08 	ldr.w	pc, [sp], #8
 801e45a:	bf00      	nop

0801e45c <__aeabi_dcmple>:
 801e45c:	f84d ed08 	str.w	lr, [sp, #-8]!
 801e460:	f7ff ffe0 	bl	801e424 <__aeabi_cdcmpeq>
 801e464:	bf94      	ite	ls
 801e466:	2001      	movls	r0, #1
 801e468:	2000      	movhi	r0, #0
 801e46a:	f85d fb08 	ldr.w	pc, [sp], #8
 801e46e:	bf00      	nop

0801e470 <__aeabi_dcmpge>:
 801e470:	f84d ed08 	str.w	lr, [sp, #-8]!
 801e474:	f7ff ffce 	bl	801e414 <__aeabi_cdrcmple>
 801e478:	bf94      	ite	ls
 801e47a:	2001      	movls	r0, #1
 801e47c:	2000      	movhi	r0, #0
 801e47e:	f85d fb08 	ldr.w	pc, [sp], #8
 801e482:	bf00      	nop

0801e484 <__aeabi_dcmpgt>:
 801e484:	f84d ed08 	str.w	lr, [sp, #-8]!
 801e488:	f7ff ffc4 	bl	801e414 <__aeabi_cdrcmple>
 801e48c:	bf34      	ite	cc
 801e48e:	2001      	movcc	r0, #1
 801e490:	2000      	movcs	r0, #0
 801e492:	f85d fb08 	ldr.w	pc, [sp], #8
 801e496:	bf00      	nop

0801e498 <__aeabi_d2iz>:
 801e498:	ea4f 0241 	mov.w	r2, r1, lsl #1
 801e49c:	f512 1200 	adds.w	r2, r2, #2097152	; 0x200000
 801e4a0:	d215      	bcs.n	801e4ce <__aeabi_d2iz+0x36>
 801e4a2:	d511      	bpl.n	801e4c8 <__aeabi_d2iz+0x30>
 801e4a4:	f46f 7378 	mvn.w	r3, #992	; 0x3e0
 801e4a8:	ebb3 5262 	subs.w	r2, r3, r2, asr #21
 801e4ac:	d912      	bls.n	801e4d4 <__aeabi_d2iz+0x3c>
 801e4ae:	ea4f 23c1 	mov.w	r3, r1, lsl #11
 801e4b2:	f043 4300 	orr.w	r3, r3, #2147483648	; 0x80000000
 801e4b6:	ea43 5350 	orr.w	r3, r3, r0, lsr #21
 801e4ba:	f011 4f00 	tst.w	r1, #2147483648	; 0x80000000
 801e4be:	fa23 f002 	lsr.w	r0, r3, r2
 801e4c2:	bf18      	it	ne
 801e4c4:	4240      	negne	r0, r0
 801e4c6:	4770      	bx	lr
 801e4c8:	f04f 0000 	mov.w	r0, #0
 801e4cc:	4770      	bx	lr
 801e4ce:	ea50 3001 	orrs.w	r0, r0, r1, lsl #12
 801e4d2:	d105      	bne.n	801e4e0 <__aeabi_d2iz+0x48>
 801e4d4:	f011 4000 	ands.w	r0, r1, #2147483648	; 0x80000000
 801e4d8:	bf08      	it	eq
 801e4da:	f06f 4000 	mvneq.w	r0, #2147483648	; 0x80000000
 801e4de:	4770      	bx	lr
 801e4e0:	f04f 0000 	mov.w	r0, #0
 801e4e4:	4770      	bx	lr
 801e4e6:	bf00      	nop

0801e4e8 <__aeabi_frsub>:
 801e4e8:	f080 4000 	eor.w	r0, r0, #2147483648	; 0x80000000
 801e4ec:	e002      	b.n	801e4f4 <__addsf3>
 801e4ee:	bf00      	nop

0801e4f0 <__aeabi_fsub>:
 801e4f0:	f081 4100 	eor.w	r1, r1, #2147483648	; 0x80000000

0801e4f4 <__addsf3>:
 801e4f4:	0042      	lsls	r2, r0, #1
 801e4f6:	bf1f      	itttt	ne
 801e4f8:	ea5f 0341 	movsne.w	r3, r1, lsl #1
 801e4fc:	ea92 0f03 	teqne	r2, r3
 801e500:	ea7f 6c22 	mvnsne.w	ip, r2, asr #24
 801e504:	ea7f 6c23 	mvnsne.w	ip, r3, asr #24
 801e508:	d06a      	beq.n	801e5e0 <__addsf3+0xec>
 801e50a:	ea4f 6212 	mov.w	r2, r2, lsr #24
 801e50e:	ebd2 6313 	rsbs	r3, r2, r3, lsr #24
 801e512:	bfc1      	itttt	gt
 801e514:	18d2      	addgt	r2, r2, r3
 801e516:	4041      	eorgt	r1, r0
 801e518:	4048      	eorgt	r0, r1
 801e51a:	4041      	eorgt	r1, r0
 801e51c:	bfb8      	it	lt
 801e51e:	425b      	neglt	r3, r3
 801e520:	2b19      	cmp	r3, #25
 801e522:	bf88      	it	hi
 801e524:	4770      	bxhi	lr
 801e526:	f010 4f00 	tst.w	r0, #2147483648	; 0x80000000
 801e52a:	f440 0000 	orr.w	r0, r0, #8388608	; 0x800000
 801e52e:	f020 407f 	bic.w	r0, r0, #4278190080	; 0xff000000
 801e532:	bf18      	it	ne
 801e534:	4240      	negne	r0, r0
 801e536:	f011 4f00 	tst.w	r1, #2147483648	; 0x80000000
 801e53a:	f441 0100 	orr.w	r1, r1, #8388608	; 0x800000
 801e53e:	f021 417f 	bic.w	r1, r1, #4278190080	; 0xff000000
 801e542:	bf18      	it	ne
 801e544:	4249      	negne	r1, r1
 801e546:	ea92 0f03 	teq	r2, r3
 801e54a:	d03f      	beq.n	801e5cc <__addsf3+0xd8>
 801e54c:	f1a2 0201 	sub.w	r2, r2, #1
 801e550:	fa41 fc03 	asr.w	ip, r1, r3
 801e554:	eb10 000c 	adds.w	r0, r0, ip
 801e558:	f1c3 0320 	rsb	r3, r3, #32
 801e55c:	fa01 f103 	lsl.w	r1, r1, r3
 801e560:	f000 4300 	and.w	r3, r0, #2147483648	; 0x80000000
 801e564:	d502      	bpl.n	801e56c <__addsf3+0x78>
 801e566:	4249      	negs	r1, r1
 801e568:	eb60 0040 	sbc.w	r0, r0, r0, lsl #1
 801e56c:	f5b0 0f00 	cmp.w	r0, #8388608	; 0x800000
 801e570:	d313      	bcc.n	801e59a <__addsf3+0xa6>
 801e572:	f1b0 7f80 	cmp.w	r0, #16777216	; 0x1000000
 801e576:	d306      	bcc.n	801e586 <__addsf3+0x92>
 801e578:	0840      	lsrs	r0, r0, #1
 801e57a:	ea4f 0131 	mov.w	r1, r1, rrx
 801e57e:	f102 0201 	add.w	r2, r2, #1
 801e582:	2afe      	cmp	r2, #254	; 0xfe
 801e584:	d251      	bcs.n	801e62a <__addsf3+0x136>
 801e586:	f1b1 4f00 	cmp.w	r1, #2147483648	; 0x80000000
 801e58a:	eb40 50c2 	adc.w	r0, r0, r2, lsl #23
 801e58e:	bf08      	it	eq
 801e590:	f020 0001 	biceq.w	r0, r0, #1
 801e594:	ea40 0003 	orr.w	r0, r0, r3
 801e598:	4770      	bx	lr
 801e59a:	0049      	lsls	r1, r1, #1
 801e59c:	eb40 0000 	adc.w	r0, r0, r0
 801e5a0:	3a01      	subs	r2, #1
 801e5a2:	bf28      	it	cs
 801e5a4:	f5b0 0f00 	cmpcs.w	r0, #8388608	; 0x800000
 801e5a8:	d2ed      	bcs.n	801e586 <__addsf3+0x92>
 801e5aa:	fab0 fc80 	clz	ip, r0
 801e5ae:	f1ac 0c08 	sub.w	ip, ip, #8
 801e5b2:	ebb2 020c 	subs.w	r2, r2, ip
 801e5b6:	fa00 f00c 	lsl.w	r0, r0, ip
 801e5ba:	bfaa      	itet	ge
 801e5bc:	eb00 50c2 	addge.w	r0, r0, r2, lsl #23
 801e5c0:	4252      	neglt	r2, r2
 801e5c2:	4318      	orrge	r0, r3
 801e5c4:	bfbc      	itt	lt
 801e5c6:	40d0      	lsrlt	r0, r2
 801e5c8:	4318      	orrlt	r0, r3
 801e5ca:	4770      	bx	lr
 801e5cc:	f092 0f00 	teq	r2, #0
 801e5d0:	f481 0100 	eor.w	r1, r1, #8388608	; 0x800000
 801e5d4:	bf06      	itte	eq
 801e5d6:	f480 0000 	eoreq.w	r0, r0, #8388608	; 0x800000
 801e5da:	3201      	addeq	r2, #1
 801e5dc:	3b01      	subne	r3, #1
 801e5de:	e7b5      	b.n	801e54c <__addsf3+0x58>
 801e5e0:	ea4f 0341 	mov.w	r3, r1, lsl #1
 801e5e4:	ea7f 6c22 	mvns.w	ip, r2, asr #24
 801e5e8:	bf18      	it	ne
 801e5ea:	ea7f 6c23 	mvnsne.w	ip, r3, asr #24
 801e5ee:	d021      	beq.n	801e634 <__addsf3+0x140>
 801e5f0:	ea92 0f03 	teq	r2, r3
 801e5f4:	d004      	beq.n	801e600 <__addsf3+0x10c>
 801e5f6:	f092 0f00 	teq	r2, #0
 801e5fa:	bf08      	it	eq
 801e5fc:	4608      	moveq	r0, r1
 801e5fe:	4770      	bx	lr
 801e600:	ea90 0f01 	teq	r0, r1
 801e604:	bf1c      	itt	ne
 801e606:	2000      	movne	r0, #0
 801e608:	4770      	bxne	lr
 801e60a:	f012 4f7f 	tst.w	r2, #4278190080	; 0xff000000
 801e60e:	d104      	bne.n	801e61a <__addsf3+0x126>
 801e610:	0040      	lsls	r0, r0, #1
 801e612:	bf28      	it	cs
 801e614:	f040 4000 	orrcs.w	r0, r0, #2147483648	; 0x80000000
 801e618:	4770      	bx	lr
 801e61a:	f112 7200 	adds.w	r2, r2, #33554432	; 0x2000000
 801e61e:	bf3c      	itt	cc
 801e620:	f500 0000 	addcc.w	r0, r0, #8388608	; 0x800000
 801e624:	4770      	bxcc	lr
 801e626:	f000 4300 	and.w	r3, r0, #2147483648	; 0x80000000
 801e62a:	f043 40fe 	orr.w	r0, r3, #2130706432	; 0x7f000000
 801e62e:	f440 0000 	orr.w	r0, r0, #8388608	; 0x800000
 801e632:	4770      	bx	lr
 801e634:	ea7f 6222 	mvns.w	r2, r2, asr #24
 801e638:	bf16      	itet	ne
 801e63a:	4608      	movne	r0, r1
 801e63c:	ea7f 6323 	mvnseq.w	r3, r3, asr #24
 801e640:	4601      	movne	r1, r0
 801e642:	0242      	lsls	r2, r0, #9
 801e644:	bf06      	itte	eq
 801e646:	ea5f 2341 	movseq.w	r3, r1, lsl #9
 801e64a:	ea90 0f01 	teqeq	r0, r1
 801e64e:	f440 0080 	orrne.w	r0, r0, #4194304	; 0x400000
 801e652:	4770      	bx	lr

0801e654 <__aeabi_ui2f>:
 801e654:	f04f 0300 	mov.w	r3, #0
 801e658:	e004      	b.n	801e664 <__aeabi_i2f+0x8>
 801e65a:	bf00      	nop

0801e65c <__aeabi_i2f>:
 801e65c:	f010 4300 	ands.w	r3, r0, #2147483648	; 0x80000000
 801e660:	bf48      	it	mi
 801e662:	4240      	negmi	r0, r0
 801e664:	ea5f 0c00 	movs.w	ip, r0
 801e668:	bf08      	it	eq
 801e66a:	4770      	bxeq	lr
 801e66c:	f043 4396 	orr.w	r3, r3, #1258291200	; 0x4b000000
 801e670:	4601      	mov	r1, r0
 801e672:	f04f 0000 	mov.w	r0, #0
 801e676:	e01c      	b.n	801e6b2 <__aeabi_l2f+0x2a>

0801e678 <__aeabi_ul2f>:
 801e678:	ea50 0201 	orrs.w	r2, r0, r1
 801e67c:	bf08      	it	eq
 801e67e:	4770      	bxeq	lr
 801e680:	f04f 0300 	mov.w	r3, #0
 801e684:	e00a      	b.n	801e69c <__aeabi_l2f+0x14>
 801e686:	bf00      	nop

0801e688 <__aeabi_l2f>:
 801e688:	ea50 0201 	orrs.w	r2, r0, r1
 801e68c:	bf08      	it	eq
 801e68e:	4770      	bxeq	lr
 801e690:	f011 4300 	ands.w	r3, r1, #2147483648	; 0x80000000
 801e694:	d502      	bpl.n	801e69c <__aeabi_l2f+0x14>
 801e696:	4240      	negs	r0, r0
 801e698:	eb61 0141 	sbc.w	r1, r1, r1, lsl #1
 801e69c:	ea5f 0c01 	movs.w	ip, r1
 801e6a0:	bf02      	ittt	eq
 801e6a2:	4684      	moveq	ip, r0
 801e6a4:	4601      	moveq	r1, r0
 801e6a6:	2000      	moveq	r0, #0
 801e6a8:	f043 43b6 	orr.w	r3, r3, #1526726656	; 0x5b000000
 801e6ac:	bf08      	it	eq
 801e6ae:	f1a3 5380 	subeq.w	r3, r3, #268435456	; 0x10000000
 801e6b2:	f5a3 0300 	sub.w	r3, r3, #8388608	; 0x800000
 801e6b6:	fabc f28c 	clz	r2, ip
 801e6ba:	3a08      	subs	r2, #8
 801e6bc:	eba3 53c2 	sub.w	r3, r3, r2, lsl #23
 801e6c0:	db10      	blt.n	801e6e4 <__aeabi_l2f+0x5c>
 801e6c2:	fa01 fc02 	lsl.w	ip, r1, r2
 801e6c6:	4463      	add	r3, ip
 801e6c8:	fa00 fc02 	lsl.w	ip, r0, r2
 801e6cc:	f1c2 0220 	rsb	r2, r2, #32
 801e6d0:	f1bc 4f00 	cmp.w	ip, #2147483648	; 0x80000000
 801e6d4:	fa20 f202 	lsr.w	r2, r0, r2
 801e6d8:	eb43 0002 	adc.w	r0, r3, r2
 801e6dc:	bf08      	it	eq
 801e6de:	f020 0001 	biceq.w	r0, r0, #1
 801e6e2:	4770      	bx	lr
 801e6e4:	f102 0220 	add.w	r2, r2, #32
 801e6e8:	fa01 fc02 	lsl.w	ip, r1, r2
 801e6ec:	f1c2 0220 	rsb	r2, r2, #32
 801e6f0:	ea50 004c 	orrs.w	r0, r0, ip, lsl #1
 801e6f4:	fa21 f202 	lsr.w	r2, r1, r2
 801e6f8:	eb43 0002 	adc.w	r0, r3, r2
 801e6fc:	bf08      	it	eq
 801e6fe:	ea20 70dc 	biceq.w	r0, r0, ip, lsr #31
 801e702:	4770      	bx	lr

0801e704 <__gesf2>:
 801e704:	f04f 3cff 	mov.w	ip, #4294967295	; 0xffffffff
 801e708:	e006      	b.n	801e718 <__cmpsf2+0x4>
 801e70a:	bf00      	nop

0801e70c <__lesf2>:
 801e70c:	f04f 0c01 	mov.w	ip, #1
 801e710:	e002      	b.n	801e718 <__cmpsf2+0x4>
 801e712:	bf00      	nop

0801e714 <__cmpsf2>:
 801e714:	f04f 0c01 	mov.w	ip, #1
 801e718:	f84d cd04 	str.w	ip, [sp, #-4]!
 801e71c:	ea4f 0240 	mov.w	r2, r0, lsl #1
 801e720:	ea4f 0341 	mov.w	r3, r1, lsl #1
 801e724:	ea7f 6c22 	mvns.w	ip, r2, asr #24
 801e728:	bf18      	it	ne
 801e72a:	ea7f 6c23 	mvnsne.w	ip, r3, asr #24
 801e72e:	d011      	beq.n	801e754 <__cmpsf2+0x40>
 801e730:	b001      	add	sp, #4
 801e732:	ea52 0c53 	orrs.w	ip, r2, r3, lsr #1
 801e736:	bf18      	it	ne
 801e738:	ea90 0f01 	teqne	r0, r1
 801e73c:	bf58      	it	pl
 801e73e:	ebb2 0003 	subspl.w	r0, r2, r3
 801e742:	bf88      	it	hi
 801e744:	17c8      	asrhi	r0, r1, #31
 801e746:	bf38      	it	cc
 801e748:	ea6f 70e1 	mvncc.w	r0, r1, asr #31
 801e74c:	bf18      	it	ne
 801e74e:	f040 0001 	orrne.w	r0, r0, #1
 801e752:	4770      	bx	lr
 801e754:	ea7f 6c22 	mvns.w	ip, r2, asr #24
 801e758:	d102      	bne.n	801e760 <__cmpsf2+0x4c>
 801e75a:	ea5f 2c40 	movs.w	ip, r0, lsl #9
 801e75e:	d105      	bne.n	801e76c <__cmpsf2+0x58>
 801e760:	ea7f 6c23 	mvns.w	ip, r3, asr #24
 801e764:	d1e4      	bne.n	801e730 <__cmpsf2+0x1c>
 801e766:	ea5f 2c41 	movs.w	ip, r1, lsl #9
 801e76a:	d0e1      	beq.n	801e730 <__cmpsf2+0x1c>
 801e76c:	f85d 0b04 	ldr.w	r0, [sp], #4
 801e770:	4770      	bx	lr
 801e772:	bf00      	nop

0801e774 <__aeabi_cfrcmple>:
 801e774:	4684      	mov	ip, r0
 801e776:	4608      	mov	r0, r1
 801e778:	4661      	mov	r1, ip
 801e77a:	e7ff      	b.n	801e77c <__aeabi_cfcmpeq>

0801e77c <__aeabi_cfcmpeq>:
 801e77c:	b50f      	push	{r0, r1, r2, r3, lr}
 801e77e:	f7ff ffc9 	bl	801e714 <__cmpsf2>
 801e782:	2800      	cmp	r0, #0
 801e784:	bf48      	it	mi
 801e786:	f110 0f00 	cmnmi.w	r0, #0
 801e78a:	bd0f      	pop	{r0, r1, r2, r3, pc}

0801e78c <__aeabi_fcmpeq>:
 801e78c:	f84d ed08 	str.w	lr, [sp, #-8]!
 801e790:	f7ff fff4 	bl	801e77c <__aeabi_cfcmpeq>
 801e794:	bf0c      	ite	eq
 801e796:	2001      	moveq	r0, #1
 801e798:	2000      	movne	r0, #0
 801e79a:	f85d fb08 	ldr.w	pc, [sp], #8
 801e79e:	bf00      	nop

0801e7a0 <__aeabi_fcmplt>:
 801e7a0:	f84d ed08 	str.w	lr, [sp, #-8]!
 801e7a4:	f7ff ffea 	bl	801e77c <__aeabi_cfcmpeq>
 801e7a8:	bf34      	ite	cc
 801e7aa:	2001      	movcc	r0, #1
 801e7ac:	2000      	movcs	r0, #0
 801e7ae:	f85d fb08 	ldr.w	pc, [sp], #8
 801e7b2:	bf00      	nop

0801e7b4 <__aeabi_fcmple>:
 801e7b4:	f84d ed08 	str.w	lr, [sp, #-8]!
 801e7b8:	f7ff ffe0 	bl	801e77c <__aeabi_cfcmpeq>
 801e7bc:	bf94      	ite	ls
 801e7be:	2001      	movls	r0, #1
 801e7c0:	2000      	movhi	r0, #0
 801e7c2:	f85d fb08 	ldr.w	pc, [sp], #8
 801e7c6:	bf00      	nop

0801e7c8 <__aeabi_fcmpge>:
 801e7c8:	f84d ed08 	str.w	lr, [sp, #-8]!
 801e7cc:	f7ff ffd2 	bl	801e774 <__aeabi_cfrcmple>
 801e7d0:	bf94      	ite	ls
 801e7d2:	2001      	movls	r0, #1
 801e7d4:	2000      	movhi	r0, #0
 801e7d6:	f85d fb08 	ldr.w	pc, [sp], #8
 801e7da:	bf00      	nop

0801e7dc <__aeabi_fcmpgt>:
 801e7dc:	f84d ed08 	str.w	lr, [sp, #-8]!
 801e7e0:	f7ff ffc8 	bl	801e774 <__aeabi_cfrcmple>
 801e7e4:	bf34      	ite	cc
 801e7e6:	2001      	movcc	r0, #1
 801e7e8:	2000      	movcs	r0, #0
 801e7ea:	f85d fb08 	ldr.w	pc, [sp], #8
 801e7ee:	bf00      	nop

0801e7f0 <__aeabi_ldivmod>:
 801e7f0:	b97b      	cbnz	r3, 801e812 <__aeabi_ldivmod+0x22>
 801e7f2:	b972      	cbnz	r2, 801e812 <__aeabi_ldivmod+0x22>
 801e7f4:	2900      	cmp	r1, #0
 801e7f6:	bfbe      	ittt	lt
 801e7f8:	2000      	movlt	r0, #0
 801e7fa:	f04f 4100 	movlt.w	r1, #2147483648	; 0x80000000
 801e7fe:	e006      	blt.n	801e80e <__aeabi_ldivmod+0x1e>
 801e800:	bf08      	it	eq
 801e802:	2800      	cmpeq	r0, #0
 801e804:	bf1c      	itt	ne
 801e806:	f06f 4100 	mvnne.w	r1, #2147483648	; 0x80000000
 801e80a:	f04f 30ff 	movne.w	r0, #4294967295	; 0xffffffff
 801e80e:	f000 b9bf 	b.w	801eb90 <__aeabi_idiv0>
 801e812:	f1ad 0c08 	sub.w	ip, sp, #8
 801e816:	e96d ce04 	strd	ip, lr, [sp, #-16]!
 801e81a:	2900      	cmp	r1, #0
 801e81c:	db09      	blt.n	801e832 <__aeabi_ldivmod+0x42>
 801e81e:	2b00      	cmp	r3, #0
 801e820:	db1a      	blt.n	801e858 <__aeabi_ldivmod+0x68>
 801e822:	f000 f84d 	bl	801e8c0 <__udivmoddi4>
 801e826:	f8dd e004 	ldr.w	lr, [sp, #4]
 801e82a:	e9dd 2302 	ldrd	r2, r3, [sp, #8]
 801e82e:	b004      	add	sp, #16
 801e830:	4770      	bx	lr
 801e832:	4240      	negs	r0, r0
 801e834:	eb61 0141 	sbc.w	r1, r1, r1, lsl #1
 801e838:	2b00      	cmp	r3, #0
 801e83a:	db1b      	blt.n	801e874 <__aeabi_ldivmod+0x84>
 801e83c:	f000 f840 	bl	801e8c0 <__udivmoddi4>
 801e840:	f8dd e004 	ldr.w	lr, [sp, #4]
 801e844:	e9dd 2302 	ldrd	r2, r3, [sp, #8]
 801e848:	b004      	add	sp, #16
 801e84a:	4240      	negs	r0, r0
 801e84c:	eb61 0141 	sbc.w	r1, r1, r1, lsl #1
 801e850:	4252      	negs	r2, r2
 801e852:	eb63 0343 	sbc.w	r3, r3, r3, lsl #1
 801e856:	4770      	bx	lr
 801e858:	4252      	negs	r2, r2
 801e85a:	eb63 0343 	sbc.w	r3, r3, r3, lsl #1
 801e85e:	f000 f82f 	bl	801e8c0 <__udivmoddi4>
 801e862:	f8dd e004 	ldr.w	lr, [sp, #4]
 801e866:	e9dd 2302 	ldrd	r2, r3, [sp, #8]
 801e86a:	b004      	add	sp, #16
 801e86c:	4240      	negs	r0, r0
 801e86e:	eb61 0141 	sbc.w	r1, r1, r1, lsl #1
 801e872:	4770      	bx	lr
 801e874:	4252      	negs	r2, r2
 801e876:	eb63 0343 	sbc.w	r3, r3, r3, lsl #1
 801e87a:	f000 f821 	bl	801e8c0 <__udivmoddi4>
 801e87e:	f8dd e004 	ldr.w	lr, [sp, #4]
 801e882:	e9dd 2302 	ldrd	r2, r3, [sp, #8]
 801e886:	b004      	add	sp, #16
 801e888:	4252      	negs	r2, r2
 801e88a:	eb63 0343 	sbc.w	r3, r3, r3, lsl #1
 801e88e:	4770      	bx	lr

0801e890 <__aeabi_uldivmod>:
 801e890:	b953      	cbnz	r3, 801e8a8 <__aeabi_uldivmod+0x18>
 801e892:	b94a      	cbnz	r2, 801e8a8 <__aeabi_uldivmod+0x18>
 801e894:	2900      	cmp	r1, #0
 801e896:	bf08      	it	eq
 801e898:	2800      	cmpeq	r0, #0
 801e89a:	bf1c      	itt	ne
 801e89c:	f04f 31ff 	movne.w	r1, #4294967295	; 0xffffffff
 801e8a0:	f04f 30ff 	movne.w	r0, #4294967295	; 0xffffffff
 801e8a4:	f000 b974 	b.w	801eb90 <__aeabi_idiv0>
 801e8a8:	f1ad 0c08 	sub.w	ip, sp, #8
 801e8ac:	e96d ce04 	strd	ip, lr, [sp, #-16]!
 801e8b0:	f000 f806 	bl	801e8c0 <__udivmoddi4>
 801e8b4:	f8dd e004 	ldr.w	lr, [sp, #4]
 801e8b8:	e9dd 2302 	ldrd	r2, r3, [sp, #8]
 801e8bc:	b004      	add	sp, #16
 801e8be:	4770      	bx	lr

0801e8c0 <__udivmoddi4>:
 801e8c0:	e92d 47f0 	stmdb	sp!, {r4, r5, r6, r7, r8, r9, sl, lr}
 801e8c4:	9e08      	ldr	r6, [sp, #32]
 801e8c6:	460d      	mov	r5, r1
 801e8c8:	4604      	mov	r4, r0
 801e8ca:	4688      	mov	r8, r1
 801e8cc:	2b00      	cmp	r3, #0
 801e8ce:	d14d      	bne.n	801e96c <__udivmoddi4+0xac>
 801e8d0:	428a      	cmp	r2, r1
 801e8d2:	4694      	mov	ip, r2
 801e8d4:	d968      	bls.n	801e9a8 <__udivmoddi4+0xe8>
 801e8d6:	fab2 f282 	clz	r2, r2
 801e8da:	b152      	cbz	r2, 801e8f2 <__udivmoddi4+0x32>
 801e8dc:	fa01 f302 	lsl.w	r3, r1, r2
 801e8e0:	f1c2 0120 	rsb	r1, r2, #32
 801e8e4:	fa20 f101 	lsr.w	r1, r0, r1
 801e8e8:	fa0c fc02 	lsl.w	ip, ip, r2
 801e8ec:	ea41 0803 	orr.w	r8, r1, r3
 801e8f0:	4094      	lsls	r4, r2
 801e8f2:	ea4f 451c 	mov.w	r5, ip, lsr #16
 801e8f6:	0c21      	lsrs	r1, r4, #16
 801e8f8:	fbb8 fef5 	udiv	lr, r8, r5
 801e8fc:	fa1f f78c 	uxth.w	r7, ip
 801e900:	fb05 831e 	mls	r3, r5, lr, r8
 801e904:	ea41 4303 	orr.w	r3, r1, r3, lsl #16
 801e908:	fb0e f107 	mul.w	r1, lr, r7
 801e90c:	4299      	cmp	r1, r3
 801e90e:	d90b      	bls.n	801e928 <__udivmoddi4+0x68>
 801e910:	eb1c 0303 	adds.w	r3, ip, r3
 801e914:	f10e 30ff 	add.w	r0, lr, #4294967295	; 0xffffffff
 801e918:	f080 811e 	bcs.w	801eb58 <__udivmoddi4+0x298>
 801e91c:	4299      	cmp	r1, r3
 801e91e:	f240 811b 	bls.w	801eb58 <__udivmoddi4+0x298>
 801e922:	f1ae 0e02 	sub.w	lr, lr, #2
 801e926:	4463      	add	r3, ip
 801e928:	1a5b      	subs	r3, r3, r1
 801e92a:	b2a4      	uxth	r4, r4
 801e92c:	fbb3 f0f5 	udiv	r0, r3, r5
 801e930:	fb05 3310 	mls	r3, r5, r0, r3
 801e934:	ea44 4403 	orr.w	r4, r4, r3, lsl #16
 801e938:	fb00 f707 	mul.w	r7, r0, r7
 801e93c:	42a7      	cmp	r7, r4
 801e93e:	d90a      	bls.n	801e956 <__udivmoddi4+0x96>
 801e940:	eb1c 0404 	adds.w	r4, ip, r4
 801e944:	f100 33ff 	add.w	r3, r0, #4294967295	; 0xffffffff
 801e948:	f080 8108 	bcs.w	801eb5c <__udivmoddi4+0x29c>
 801e94c:	42a7      	cmp	r7, r4
 801e94e:	f240 8105 	bls.w	801eb5c <__udivmoddi4+0x29c>
 801e952:	4464      	add	r4, ip
 801e954:	3802      	subs	r0, #2
 801e956:	1be4      	subs	r4, r4, r7
 801e958:	ea40 400e 	orr.w	r0, r0, lr, lsl #16
 801e95c:	2100      	movs	r1, #0
 801e95e:	b11e      	cbz	r6, 801e968 <__udivmoddi4+0xa8>
 801e960:	40d4      	lsrs	r4, r2
 801e962:	2300      	movs	r3, #0
 801e964:	e9c6 4300 	strd	r4, r3, [r6]
 801e968:	e8bd 87f0 	ldmia.w	sp!, {r4, r5, r6, r7, r8, r9, sl, pc}
 801e96c:	428b      	cmp	r3, r1
 801e96e:	d908      	bls.n	801e982 <__udivmoddi4+0xc2>
 801e970:	2e00      	cmp	r6, #0
 801e972:	f000 80ee 	beq.w	801eb52 <__udivmoddi4+0x292>
 801e976:	2100      	movs	r1, #0
 801e978:	e9c6 0500 	strd	r0, r5, [r6]
 801e97c:	4608      	mov	r0, r1
 801e97e:	e8bd 87f0 	ldmia.w	sp!, {r4, r5, r6, r7, r8, r9, sl, pc}
 801e982:	fab3 f183 	clz	r1, r3
 801e986:	2900      	cmp	r1, #0
 801e988:	d14a      	bne.n	801ea20 <__udivmoddi4+0x160>
 801e98a:	42ab      	cmp	r3, r5
 801e98c:	d302      	bcc.n	801e994 <__udivmoddi4+0xd4>
 801e98e:	4282      	cmp	r2, r0
 801e990:	f200 80f9 	bhi.w	801eb86 <__udivmoddi4+0x2c6>
 801e994:	1a84      	subs	r4, r0, r2
 801e996:	eb65 0303 	sbc.w	r3, r5, r3
 801e99a:	2001      	movs	r0, #1
 801e99c:	4698      	mov	r8, r3
 801e99e:	2e00      	cmp	r6, #0
 801e9a0:	d0e2      	beq.n	801e968 <__udivmoddi4+0xa8>
 801e9a2:	e9c6 4800 	strd	r4, r8, [r6]
 801e9a6:	e7df      	b.n	801e968 <__udivmoddi4+0xa8>
 801e9a8:	b902      	cbnz	r2, 801e9ac <__udivmoddi4+0xec>
 801e9aa:	deff      	udf	#255	; 0xff
 801e9ac:	fab2 f282 	clz	r2, r2
 801e9b0:	2a00      	cmp	r2, #0
 801e9b2:	f040 8091 	bne.w	801ead8 <__udivmoddi4+0x218>
 801e9b6:	eba1 050c 	sub.w	r5, r1, ip
 801e9ba:	ea4f 471c 	mov.w	r7, ip, lsr #16
 801e9be:	fa1f fe8c 	uxth.w	lr, ip
 801e9c2:	2101      	movs	r1, #1
 801e9c4:	fbb5 f3f7 	udiv	r3, r5, r7
 801e9c8:	fb07 5013 	mls	r0, r7, r3, r5
 801e9cc:	0c25      	lsrs	r5, r4, #16
 801e9ce:	ea45 4500 	orr.w	r5, r5, r0, lsl #16
 801e9d2:	fb0e f003 	mul.w	r0, lr, r3
 801e9d6:	42a8      	cmp	r0, r5
 801e9d8:	d908      	bls.n	801e9ec <__udivmoddi4+0x12c>
 801e9da:	eb1c 0505 	adds.w	r5, ip, r5
 801e9de:	f103 38ff 	add.w	r8, r3, #4294967295	; 0xffffffff
 801e9e2:	d202      	bcs.n	801e9ea <__udivmoddi4+0x12a>
 801e9e4:	42a8      	cmp	r0, r5
 801e9e6:	f200 80cb 	bhi.w	801eb80 <__udivmoddi4+0x2c0>
 801e9ea:	4643      	mov	r3, r8
 801e9ec:	1a2d      	subs	r5, r5, r0
 801e9ee:	b2a4      	uxth	r4, r4
 801e9f0:	fbb5 f0f7 	udiv	r0, r5, r7
 801e9f4:	fb07 5510 	mls	r5, r7, r0, r5
 801e9f8:	ea44 4405 	orr.w	r4, r4, r5, lsl #16
 801e9fc:	fb0e fe00 	mul.w	lr, lr, r0
 801ea00:	45a6      	cmp	lr, r4
 801ea02:	d908      	bls.n	801ea16 <__udivmoddi4+0x156>
 801ea04:	eb1c 0404 	adds.w	r4, ip, r4
 801ea08:	f100 35ff 	add.w	r5, r0, #4294967295	; 0xffffffff
 801ea0c:	d202      	bcs.n	801ea14 <__udivmoddi4+0x154>
 801ea0e:	45a6      	cmp	lr, r4
 801ea10:	f200 80bb 	bhi.w	801eb8a <__udivmoddi4+0x2ca>
 801ea14:	4628      	mov	r0, r5
 801ea16:	eba4 040e 	sub.w	r4, r4, lr
 801ea1a:	ea40 4003 	orr.w	r0, r0, r3, lsl #16
 801ea1e:	e79e      	b.n	801e95e <__udivmoddi4+0x9e>
 801ea20:	f1c1 0720 	rsb	r7, r1, #32
 801ea24:	408b      	lsls	r3, r1
 801ea26:	fa22 fc07 	lsr.w	ip, r2, r7
 801ea2a:	ea4c 0c03 	orr.w	ip, ip, r3
 801ea2e:	fa20 f407 	lsr.w	r4, r0, r7
 801ea32:	fa05 f301 	lsl.w	r3, r5, r1
 801ea36:	431c      	orrs	r4, r3
 801ea38:	40fd      	lsrs	r5, r7
 801ea3a:	ea4f 491c 	mov.w	r9, ip, lsr #16
 801ea3e:	fa00 f301 	lsl.w	r3, r0, r1
 801ea42:	fbb5 f8f9 	udiv	r8, r5, r9
 801ea46:	0c20      	lsrs	r0, r4, #16
 801ea48:	fa1f fe8c 	uxth.w	lr, ip
 801ea4c:	fb09 5518 	mls	r5, r9, r8, r5
 801ea50:	ea40 4505 	orr.w	r5, r0, r5, lsl #16
 801ea54:	fb08 f00e 	mul.w	r0, r8, lr
 801ea58:	42a8      	cmp	r0, r5
 801ea5a:	fa02 f201 	lsl.w	r2, r2, r1
 801ea5e:	d90b      	bls.n	801ea78 <__udivmoddi4+0x1b8>
 801ea60:	eb1c 0505 	adds.w	r5, ip, r5
 801ea64:	f108 3aff 	add.w	sl, r8, #4294967295	; 0xffffffff
 801ea68:	f080 8088 	bcs.w	801eb7c <__udivmoddi4+0x2bc>
 801ea6c:	42a8      	cmp	r0, r5
 801ea6e:	f240 8085 	bls.w	801eb7c <__udivmoddi4+0x2bc>
 801ea72:	f1a8 0802 	sub.w	r8, r8, #2
 801ea76:	4465      	add	r5, ip
 801ea78:	1a2d      	subs	r5, r5, r0
 801ea7a:	b2a4      	uxth	r4, r4
 801ea7c:	fbb5 f0f9 	udiv	r0, r5, r9
 801ea80:	fb09 5510 	mls	r5, r9, r0, r5
 801ea84:	ea44 4505 	orr.w	r5, r4, r5, lsl #16
 801ea88:	fb00 fe0e 	mul.w	lr, r0, lr
 801ea8c:	45ae      	cmp	lr, r5
 801ea8e:	d908      	bls.n	801eaa2 <__udivmoddi4+0x1e2>
 801ea90:	eb1c 0505 	adds.w	r5, ip, r5
 801ea94:	f100 34ff 	add.w	r4, r0, #4294967295	; 0xffffffff
 801ea98:	d26c      	bcs.n	801eb74 <__udivmoddi4+0x2b4>
 801ea9a:	45ae      	cmp	lr, r5
 801ea9c:	d96a      	bls.n	801eb74 <__udivmoddi4+0x2b4>
 801ea9e:	3802      	subs	r0, #2
 801eaa0:	4465      	add	r5, ip
 801eaa2:	ea40 4008 	orr.w	r0, r0, r8, lsl #16
 801eaa6:	fba0 9402 	umull	r9, r4, r0, r2
 801eaaa:	eba5 050e 	sub.w	r5, r5, lr
 801eaae:	42a5      	cmp	r5, r4
 801eab0:	46c8      	mov	r8, r9
 801eab2:	46a6      	mov	lr, r4
 801eab4:	d356      	bcc.n	801eb64 <__udivmoddi4+0x2a4>
 801eab6:	d053      	beq.n	801eb60 <__udivmoddi4+0x2a0>
 801eab8:	b15e      	cbz	r6, 801ead2 <__udivmoddi4+0x212>
 801eaba:	ebb3 0208 	subs.w	r2, r3, r8
 801eabe:	eb65 050e 	sbc.w	r5, r5, lr
 801eac2:	fa05 f707 	lsl.w	r7, r5, r7
 801eac6:	fa22 f301 	lsr.w	r3, r2, r1
 801eaca:	40cd      	lsrs	r5, r1
 801eacc:	431f      	orrs	r7, r3
 801eace:	e9c6 7500 	strd	r7, r5, [r6]
 801ead2:	2100      	movs	r1, #0
 801ead4:	e8bd 87f0 	ldmia.w	sp!, {r4, r5, r6, r7, r8, r9, sl, pc}
 801ead8:	f1c2 0320 	rsb	r3, r2, #32
 801eadc:	fa20 f103 	lsr.w	r1, r0, r3
 801eae0:	fa0c fc02 	lsl.w	ip, ip, r2
 801eae4:	fa25 f303 	lsr.w	r3, r5, r3
 801eae8:	4095      	lsls	r5, r2
 801eaea:	430d      	orrs	r5, r1
 801eaec:	ea4f 471c 	mov.w	r7, ip, lsr #16
 801eaf0:	fa1f fe8c 	uxth.w	lr, ip
 801eaf4:	fbb3 f1f7 	udiv	r1, r3, r7
 801eaf8:	fb07 3011 	mls	r0, r7, r1, r3
 801eafc:	0c2b      	lsrs	r3, r5, #16
 801eafe:	ea43 4300 	orr.w	r3, r3, r0, lsl #16
 801eb02:	fb01 f00e 	mul.w	r0, r1, lr
 801eb06:	4298      	cmp	r0, r3
 801eb08:	fa04 f402 	lsl.w	r4, r4, r2
 801eb0c:	d908      	bls.n	801eb20 <__udivmoddi4+0x260>
 801eb0e:	eb1c 0303 	adds.w	r3, ip, r3
 801eb12:	f101 38ff 	add.w	r8, r1, #4294967295	; 0xffffffff
 801eb16:	d22f      	bcs.n	801eb78 <__udivmoddi4+0x2b8>
 801eb18:	4298      	cmp	r0, r3
 801eb1a:	d92d      	bls.n	801eb78 <__udivmoddi4+0x2b8>
 801eb1c:	3902      	subs	r1, #2
 801eb1e:	4463      	add	r3, ip
 801eb20:	1a1b      	subs	r3, r3, r0
 801eb22:	b2ad      	uxth	r5, r5
 801eb24:	fbb3 f0f7 	udiv	r0, r3, r7
 801eb28:	fb07 3310 	mls	r3, r7, r0, r3
 801eb2c:	ea45 4503 	orr.w	r5, r5, r3, lsl #16
 801eb30:	fb00 f30e 	mul.w	r3, r0, lr
 801eb34:	42ab      	cmp	r3, r5
 801eb36:	d908      	bls.n	801eb4a <__udivmoddi4+0x28a>
 801eb38:	eb1c 0505 	adds.w	r5, ip, r5
 801eb3c:	f100 38ff 	add.w	r8, r0, #4294967295	; 0xffffffff
 801eb40:	d216      	bcs.n	801eb70 <__udivmoddi4+0x2b0>
 801eb42:	42ab      	cmp	r3, r5
 801eb44:	d914      	bls.n	801eb70 <__udivmoddi4+0x2b0>
 801eb46:	3802      	subs	r0, #2
 801eb48:	4465      	add	r5, ip
 801eb4a:	1aed      	subs	r5, r5, r3
 801eb4c:	ea40 4101 	orr.w	r1, r0, r1, lsl #16
 801eb50:	e738      	b.n	801e9c4 <__udivmoddi4+0x104>
 801eb52:	4631      	mov	r1, r6
 801eb54:	4630      	mov	r0, r6
 801eb56:	e707      	b.n	801e968 <__udivmoddi4+0xa8>
 801eb58:	4686      	mov	lr, r0
 801eb5a:	e6e5      	b.n	801e928 <__udivmoddi4+0x68>
 801eb5c:	4618      	mov	r0, r3
 801eb5e:	e6fa      	b.n	801e956 <__udivmoddi4+0x96>
 801eb60:	454b      	cmp	r3, r9
 801eb62:	d2a9      	bcs.n	801eab8 <__udivmoddi4+0x1f8>
 801eb64:	ebb9 0802 	subs.w	r8, r9, r2
 801eb68:	eb64 0e0c 	sbc.w	lr, r4, ip
 801eb6c:	3801      	subs	r0, #1
 801eb6e:	e7a3      	b.n	801eab8 <__udivmoddi4+0x1f8>
 801eb70:	4640      	mov	r0, r8
 801eb72:	e7ea      	b.n	801eb4a <__udivmoddi4+0x28a>
 801eb74:	4620      	mov	r0, r4
 801eb76:	e794      	b.n	801eaa2 <__udivmoddi4+0x1e2>
 801eb78:	4641      	mov	r1, r8
 801eb7a:	e7d1      	b.n	801eb20 <__udivmoddi4+0x260>
 801eb7c:	46d0      	mov	r8, sl
 801eb7e:	e77b      	b.n	801ea78 <__udivmoddi4+0x1b8>
 801eb80:	3b02      	subs	r3, #2
 801eb82:	4465      	add	r5, ip
 801eb84:	e732      	b.n	801e9ec <__udivmoddi4+0x12c>
 801eb86:	4608      	mov	r0, r1
 801eb88:	e709      	b.n	801e99e <__udivmoddi4+0xde>
 801eb8a:	4464      	add	r4, ip
 801eb8c:	3802      	subs	r0, #2
 801eb8e:	e742      	b.n	801ea16 <__udivmoddi4+0x156>

0801eb90 <__aeabi_idiv0>:
 801eb90:	4770      	bx	lr
 801eb92:	bf00      	nop

0801eb94 <MX_SUBGHZ_Init>:
 801eb94:	4805      	ldr	r0, [pc, #20]	; (801ebac <MX_SUBGHZ_Init+0x18>)
 801eb96:	b508      	push	{r3, lr}
 801eb98:	2308      	movs	r3, #8
 801eb9a:	6003      	str	r3, [r0, #0]
 801eb9c:	f00a faee 	bl	802917c <HAL_SUBGHZ_Init>
 801eba0:	b118      	cbz	r0, 801ebaa <MX_SUBGHZ_Init+0x16>
 801eba2:	e8bd 4008 	ldmia.w	sp!, {r3, lr}
 801eba6:	f002 bd5b 	b.w	8021660 <Error_Handler>
 801ebaa:	bd08      	pop	{r3, pc}
 801ebac:	200002d0 	.word	0x200002d0

0801ebb0 <HAL_SUBGHZ_MspInit>:
 801ebb0:	b507      	push	{r0, r1, r2, lr}
 801ebb2:	f04f 43b0 	mov.w	r3, #1476395008	; 0x58000000
 801ebb6:	2032      	movs	r0, #50	; 0x32
 801ebb8:	6e5a      	ldr	r2, [r3, #100]	; 0x64
 801ebba:	f042 0201 	orr.w	r2, r2, #1
 801ebbe:	665a      	str	r2, [r3, #100]	; 0x64
 801ebc0:	6e5b      	ldr	r3, [r3, #100]	; 0x64
 801ebc2:	2200      	movs	r2, #0
 801ebc4:	f003 0301 	and.w	r3, r3, #1
 801ebc8:	9301      	str	r3, [sp, #4]
 801ebca:	4611      	mov	r1, r2
 801ebcc:	9b01      	ldr	r3, [sp, #4]
 801ebce:	f004 f91d 	bl	8022e0c <HAL_NVIC_SetPriority>
 801ebd2:	2032      	movs	r0, #50	; 0x32
 801ebd4:	b003      	add	sp, #12
 801ebd6:	f85d eb04 	ldr.w	lr, [sp], #4
 801ebda:	f004 b949 	b.w	8022e70 <HAL_NVIC_EnableIRQ>

0801ebde <HAL_SUBGHZ_MspDeInit>:
 801ebde:	f04f 42b0 	mov.w	r2, #1476395008	; 0x58000000
 801ebe2:	2032      	movs	r0, #50	; 0x32
 801ebe4:	6e53      	ldr	r3, [r2, #100]	; 0x64
 801ebe6:	f023 0301 	bic.w	r3, r3, #1
 801ebea:	6653      	str	r3, [r2, #100]	; 0x64
 801ebec:	f004 b94e 	b.w	8022e8c <HAL_NVIC_DisableIRQ>

0801ebf0 <LL_AHB2_GRP1_EnableClock>:
 801ebf0:	f04f 43b0 	mov.w	r3, #1476395008	; 0x58000000
 801ebf4:	b082      	sub	sp, #8
 801ebf6:	6cda      	ldr	r2, [r3, #76]	; 0x4c
 801ebf8:	4302      	orrs	r2, r0
 801ebfa:	64da      	str	r2, [r3, #76]	; 0x4c
 801ebfc:	6cdb      	ldr	r3, [r3, #76]	; 0x4c
 801ebfe:	4018      	ands	r0, r3
 801ec00:	9001      	str	r0, [sp, #4]
 801ec02:	9b01      	ldr	r3, [sp, #4]
 801ec04:	b002      	add	sp, #8
 801ec06:	4770      	bx	lr

0801ec08 <RBI_Init>:
 801ec08:	e92d 41f0 	stmdb	sp!, {r4, r5, r6, r7, r8, lr}
 801ec0c:	b086      	sub	sp, #24
 801ec0e:	2214      	movs	r2, #20
 801ec10:	2100      	movs	r1, #0
 801ec12:	a801      	add	r0, sp, #4
 801ec14:	f01c fc7e 	bl	803b514 <memset>
 801ec18:	2002      	movs	r0, #2
 801ec1a:	f7ff ffe9 	bl	801ebf0 <LL_AHB2_GRP1_EnableClock>
 801ec1e:	4d14      	ldr	r5, [pc, #80]	; (801ec70 <RBI_Init+0x68>)
 801ec20:	4f14      	ldr	r7, [pc, #80]	; (801ec74 <RBI_Init+0x6c>)
 801ec22:	2004      	movs	r0, #4
 801ec24:	f7ff ffe4 	bl	801ebf0 <LL_AHB2_GRP1_EnableClock>
 801ec28:	f44f 7680 	mov.w	r6, #256	; 0x100
 801ec2c:	2301      	movs	r3, #1
 801ec2e:	2400      	movs	r4, #0
 801ec30:	e9cd 6301 	strd	r6, r3, [sp, #4]
 801ec34:	a901      	add	r1, sp, #4
 801ec36:	2303      	movs	r3, #3
 801ec38:	4628      	mov	r0, r5
 801ec3a:	e9cd 4303 	strd	r4, r3, [sp, #12]
 801ec3e:	f44f 5800 	mov.w	r8, #8192	; 0x2000
 801ec42:	f00a fd81 	bl	8029748 <HAL_GPIO_Init>
 801ec46:	a901      	add	r1, sp, #4
 801ec48:	4638      	mov	r0, r7
 801ec4a:	f8cd 8004 	str.w	r8, [sp, #4]
 801ec4e:	f00a fd7b 	bl	8029748 <HAL_GPIO_Init>
 801ec52:	4622      	mov	r2, r4
 801ec54:	4641      	mov	r1, r8
 801ec56:	4638      	mov	r0, r7
 801ec58:	f00a fea2 	bl	80299a0 <HAL_GPIO_WritePin>
 801ec5c:	4628      	mov	r0, r5
 801ec5e:	4622      	mov	r2, r4
 801ec60:	4631      	mov	r1, r6
 801ec62:	f00a fe9d 	bl	80299a0 <HAL_GPIO_WritePin>
 801ec66:	4620      	mov	r0, r4
 801ec68:	b006      	add	sp, #24
 801ec6a:	e8bd 81f0 	ldmia.w	sp!, {r4, r5, r6, r7, r8, pc}
 801ec6e:	bf00      	nop
 801ec70:	48000400 	.word	0x48000400
 801ec74:	48000800 	.word	0x48000800

0801ec78 <RBI_DeInit>:
 801ec78:	b538      	push	{r3, r4, r5, lr}
 801ec7a:	2002      	movs	r0, #2
 801ec7c:	4d0f      	ldr	r5, [pc, #60]	; (801ecbc <RBI_DeInit+0x44>)
 801ec7e:	4c10      	ldr	r4, [pc, #64]	; (801ecc0 <RBI_DeInit+0x48>)
 801ec80:	f7ff ffb6 	bl	801ebf0 <LL_AHB2_GRP1_EnableClock>
 801ec84:	2004      	movs	r0, #4
 801ec86:	f7ff ffb3 	bl	801ebf0 <LL_AHB2_GRP1_EnableClock>
 801ec8a:	f44f 7180 	mov.w	r1, #256	; 0x100
 801ec8e:	4628      	mov	r0, r5
 801ec90:	2200      	movs	r2, #0
 801ec92:	f00a fe85 	bl	80299a0 <HAL_GPIO_WritePin>
 801ec96:	2200      	movs	r2, #0
 801ec98:	4620      	mov	r0, r4
 801ec9a:	f44f 5100 	mov.w	r1, #8192	; 0x2000
 801ec9e:	f00a fe7f 	bl	80299a0 <HAL_GPIO_WritePin>
 801eca2:	4628      	mov	r0, r5
 801eca4:	f44f 7180 	mov.w	r1, #256	; 0x100
 801eca8:	f00a fe00 	bl	80298ac <HAL_GPIO_DeInit>
 801ecac:	4620      	mov	r0, r4
 801ecae:	f44f 5100 	mov.w	r1, #8192	; 0x2000
 801ecb2:	f00a fdfb 	bl	80298ac <HAL_GPIO_DeInit>
 801ecb6:	2000      	movs	r0, #0
 801ecb8:	bd38      	pop	{r3, r4, r5, pc}
 801ecba:	bf00      	nop
 801ecbc:	48000400 	.word	0x48000400
 801ecc0:	48000800 	.word	0x48000800

0801ecc4 <RBI_ConfigRFSwitch>:
 801ecc4:	2803      	cmp	r0, #3
 801ecc6:	b510      	push	{r4, lr}
 801ecc8:	d80e      	bhi.n	801ece8 <RBI_ConfigRFSwitch+0x24>
 801ecca:	2801      	cmp	r0, #1
 801eccc:	d810      	bhi.n	801ecf0 <RBI_ConfigRFSwitch+0x2c>
 801ecce:	b968      	cbnz	r0, 801ecec <RBI_ConfigRFSwitch+0x28>
 801ecd0:	4602      	mov	r2, r0
 801ecd2:	480b      	ldr	r0, [pc, #44]	; (801ed00 <RBI_ConfigRFSwitch+0x3c>)
 801ecd4:	f44f 7180 	mov.w	r1, #256	; 0x100
 801ecd8:	f00a fe62 	bl	80299a0 <HAL_GPIO_WritePin>
 801ecdc:	2200      	movs	r2, #0
 801ecde:	4809      	ldr	r0, [pc, #36]	; (801ed04 <RBI_ConfigRFSwitch+0x40>)
 801ece0:	f44f 5100 	mov.w	r1, #8192	; 0x2000
 801ece4:	f00a fe5c 	bl	80299a0 <HAL_GPIO_WritePin>
 801ece8:	2000      	movs	r0, #0
 801ecea:	bd10      	pop	{r4, pc}
 801ecec:	2201      	movs	r2, #1
 801ecee:	e7f0      	b.n	801ecd2 <RBI_ConfigRFSwitch+0xe>
 801ecf0:	2200      	movs	r2, #0
 801ecf2:	4803      	ldr	r0, [pc, #12]	; (801ed00 <RBI_ConfigRFSwitch+0x3c>)
 801ecf4:	f44f 7180 	mov.w	r1, #256	; 0x100
 801ecf8:	f00a fe52 	bl	80299a0 <HAL_GPIO_WritePin>
 801ecfc:	2201      	movs	r2, #1
 801ecfe:	e7ee      	b.n	801ecde <RBI_ConfigRFSwitch+0x1a>
 801ed00:	48000400 	.word	0x48000400
 801ed04:	48000800 	.word	0x48000800

0801ed08 <RBI_GetTxConfig>:
 801ed08:	2002      	movs	r0, #2
 801ed0a:	4770      	bx	lr

0801ed0c <RBI_IsTCXO>:
 801ed0c:	2000      	movs	r0, #0
 801ed0e:	4770      	bx	lr

0801ed10 <RBI_IsDCDC>:
 801ed10:	2001      	movs	r0, #1
 801ed12:	4770      	bx	lr

0801ed14 <TIMER_IF_SetTimerContext>:
 801ed14:	4b02      	ldr	r3, [pc, #8]	; (801ed20 <TIMER_IF_SetTimerContext+0xc>)
 801ed16:	6898      	ldr	r0, [r3, #8]
 801ed18:	4b02      	ldr	r3, [pc, #8]	; (801ed24 <TIMER_IF_SetTimerContext+0x10>)
 801ed1a:	43c0      	mvns	r0, r0
 801ed1c:	6018      	str	r0, [r3, #0]
 801ed1e:	4770      	bx	lr
 801ed20:	40002800 	.word	0x40002800
 801ed24:	200002e0 	.word	0x200002e0

0801ed28 <TIMER_IF_GetTimerContext>:
 801ed28:	4b01      	ldr	r3, [pc, #4]	; (801ed30 <TIMER_IF_GetTimerContext+0x8>)
 801ed2a:	6818      	ldr	r0, [r3, #0]
 801ed2c:	4770      	bx	lr
 801ed2e:	bf00      	nop
 801ed30:	200002e0 	.word	0x200002e0

0801ed34 <TIMER_IF_GetTimerElapsedTime>:
 801ed34:	4b03      	ldr	r3, [pc, #12]	; (801ed44 <TIMER_IF_GetTimerElapsedTime+0x10>)
 801ed36:	4a04      	ldr	r2, [pc, #16]	; (801ed48 <TIMER_IF_GetTimerElapsedTime+0x14>)
 801ed38:	689b      	ldr	r3, [r3, #8]
 801ed3a:	6810      	ldr	r0, [r2, #0]
 801ed3c:	43db      	mvns	r3, r3
 801ed3e:	1a18      	subs	r0, r3, r0
 801ed40:	4770      	bx	lr
 801ed42:	bf00      	nop
 801ed44:	40002800 	.word	0x40002800
 801ed48:	200002e0 	.word	0x200002e0

0801ed4c <TIMER_IF_GetTimerValue>:
 801ed4c:	4b03      	ldr	r3, [pc, #12]	; (801ed5c <TIMER_IF_GetTimerValue+0x10>)
 801ed4e:	7818      	ldrb	r0, [r3, #0]
 801ed50:	b110      	cbz	r0, 801ed58 <TIMER_IF_GetTimerValue+0xc>
 801ed52:	4b03      	ldr	r3, [pc, #12]	; (801ed60 <TIMER_IF_GetTimerValue+0x14>)
 801ed54:	6898      	ldr	r0, [r3, #8]
 801ed56:	43c0      	mvns	r0, r0
 801ed58:	4770      	bx	lr
 801ed5a:	bf00      	nop
 801ed5c:	200002dc 	.word	0x200002dc
 801ed60:	40002800 	.word	0x40002800

0801ed64 <TIMER_IF_GetMinimumTimeout>:
 801ed64:	2003      	movs	r0, #3
 801ed66:	4770      	bx	lr

0801ed68 <TIMER_IF_Convert_ms2Tick>:
 801ed68:	b508      	push	{r3, lr}
 801ed6a:	4601      	mov	r1, r0
 801ed6c:	f44f 727a 	mov.w	r2, #1000	; 0x3e8
 801ed70:	2300      	movs	r3, #0
 801ed72:	03c0      	lsls	r0, r0, #15
 801ed74:	0c49      	lsrs	r1, r1, #17
 801ed76:	f7ff fd8b 	bl	801e890 <__aeabi_uldivmod>
 801ed7a:	bd08      	pop	{r3, pc}

0801ed7c <TIMER_IF_Convert_Tick2ms>:
 801ed7c:	f44f 737a 	mov.w	r3, #1000	; 0x3e8
 801ed80:	fba0 3003 	umull	r3, r0, r0, r3
 801ed84:	0bdb      	lsrs	r3, r3, #15
 801ed86:	ea43 4040 	orr.w	r0, r3, r0, lsl #17
 801ed8a:	4770      	bx	lr

0801ed8c <TIMER_IF_StopTimer>:
 801ed8c:	b510      	push	{r4, lr}
 801ed8e:	4b07      	ldr	r3, [pc, #28]	; (801edac <TIMER_IF_StopTimer+0x20>)
 801ed90:	4c07      	ldr	r4, [pc, #28]	; (801edb0 <TIMER_IF_StopTimer+0x24>)
 801ed92:	2201      	movs	r2, #1
 801ed94:	65da      	str	r2, [r3, #92]	; 0x5c
 801ed96:	f44f 7180 	mov.w	r1, #256	; 0x100
 801ed9a:	4620      	mov	r0, r4
 801ed9c:	f008 f8fc 	bl	8026f98 <HAL_RTC_DeactivateAlarm>
 801eda0:	f04f 33ff 	mov.w	r3, #4294967295	; 0xffffffff
 801eda4:	6323      	str	r3, [r4, #48]	; 0x30
 801eda6:	2000      	movs	r0, #0
 801eda8:	bd10      	pop	{r4, pc}
 801edaa:	bf00      	nop
 801edac:	40002800 	.word	0x40002800
 801edb0:	200044d8 	.word	0x200044d8

0801edb4 <TIMER_IF_BkUp_Write_Seconds>:
 801edb4:	4602      	mov	r2, r0
 801edb6:	2100      	movs	r1, #0
 801edb8:	4801      	ldr	r0, [pc, #4]	; (801edc0 <TIMER_IF_BkUp_Write_Seconds+0xc>)
 801edba:	f009 bb11 	b.w	80283e0 <HAL_RTCEx_BKUPWrite>
 801edbe:	bf00      	nop
 801edc0:	200044d8 	.word	0x200044d8

0801edc4 <TIMER_IF_BkUp_Write_SubSeconds>:
 801edc4:	4602      	mov	r2, r0
 801edc6:	2101      	movs	r1, #1
 801edc8:	4801      	ldr	r0, [pc, #4]	; (801edd0 <TIMER_IF_BkUp_Write_SubSeconds+0xc>)
 801edca:	f009 bb09 	b.w	80283e0 <HAL_RTCEx_BKUPWrite>
 801edce:	bf00      	nop
 801edd0:	200044d8 	.word	0x200044d8

0801edd4 <TIMER_IF_StartTimer>:
 801edd4:	b510      	push	{r4, lr}
 801edd6:	b08c      	sub	sp, #48	; 0x30
 801edd8:	222c      	movs	r2, #44	; 0x2c
 801edda:	2100      	movs	r1, #0
 801eddc:	4604      	mov	r4, r0
 801edde:	a801      	add	r0, sp, #4
 801ede0:	f01c fb98 	bl	803b514 <memset>
 801ede4:	f7ff ffd2 	bl	801ed8c <TIMER_IF_StopTimer>
 801ede8:	4b0c      	ldr	r3, [pc, #48]	; (801ee1c <TIMER_IF_StartTimer+0x48>)
 801edea:	6818      	ldr	r0, [r3, #0]
 801edec:	2300      	movs	r3, #0
 801edee:	4404      	add	r4, r0
 801edf0:	9308      	str	r3, [sp, #32]
 801edf2:	9306      	str	r3, [sp, #24]
 801edf4:	f04f 5300 	mov.w	r3, #536870912	; 0x20000000
 801edf8:	43e4      	mvns	r4, r4
 801edfa:	9307      	str	r3, [sp, #28]
 801edfc:	4808      	ldr	r0, [pc, #32]	; (801ee20 <TIMER_IF_StartTimer+0x4c>)
 801edfe:	9402      	str	r4, [sp, #8]
 801ee00:	f44f 7380 	mov.w	r3, #256	; 0x100
 801ee04:	2201      	movs	r2, #1
 801ee06:	a901      	add	r1, sp, #4
 801ee08:	930b      	str	r3, [sp, #44]	; 0x2c
 801ee0a:	f008 fb9f 	bl	802754c <HAL_RTC_SetAlarm_IT>
 801ee0e:	b108      	cbz	r0, 801ee14 <TIMER_IF_StartTimer+0x40>
 801ee10:	f002 fc26 	bl	8021660 <Error_Handler>
 801ee14:	2000      	movs	r0, #0
 801ee16:	b00c      	add	sp, #48	; 0x30
 801ee18:	bd10      	pop	{r4, pc}
 801ee1a:	bf00      	nop
 801ee1c:	200002e0 	.word	0x200002e0
 801ee20:	200044d8 	.word	0x200044d8

0801ee24 <TIMER_IF_GetTime>:
 801ee24:	b538      	push	{r3, r4, r5, lr}
 801ee26:	4b0a      	ldr	r3, [pc, #40]	; (801ee50 <TIMER_IF_GetTime+0x2c>)
 801ee28:	689c      	ldr	r4, [r3, #8]
 801ee2a:	4605      	mov	r5, r0
 801ee2c:	2102      	movs	r1, #2
 801ee2e:	4809      	ldr	r0, [pc, #36]	; (801ee54 <TIMER_IF_GetTime+0x30>)
 801ee30:	f009 fadd 	bl	80283ee <HAL_RTCEx_BKUPRead>
 801ee34:	43e3      	mvns	r3, r4
 801ee36:	f3c3 020e 	ubfx	r2, r3, #0, #15
 801ee3a:	f44f 717a 	mov.w	r1, #1000	; 0x3e8
 801ee3e:	fba2 2101 	umull	r2, r1, r2, r1
 801ee42:	0bd2      	lsrs	r2, r2, #15
 801ee44:	0bdb      	lsrs	r3, r3, #15
 801ee46:	802a      	strh	r2, [r5, #0]
 801ee48:	ea43 4040 	orr.w	r0, r3, r0, lsl #17
 801ee4c:	bd38      	pop	{r3, r4, r5, pc}
 801ee4e:	bf00      	nop
 801ee50:	40002800 	.word	0x40002800
 801ee54:	200044d8 	.word	0x200044d8

0801ee58 <TIMER_IF_BkUp_Read_Seconds>:
 801ee58:	4801      	ldr	r0, [pc, #4]	; (801ee60 <TIMER_IF_BkUp_Read_Seconds+0x8>)
 801ee5a:	2100      	movs	r1, #0
 801ee5c:	f009 bac7 	b.w	80283ee <HAL_RTCEx_BKUPRead>
 801ee60:	200044d8 	.word	0x200044d8

0801ee64 <TIMER_IF_BkUp_Read_SubSeconds>:
 801ee64:	4801      	ldr	r0, [pc, #4]	; (801ee6c <TIMER_IF_BkUp_Read_SubSeconds+0x8>)
 801ee66:	2101      	movs	r1, #1
 801ee68:	f009 bac1 	b.w	80283ee <HAL_RTCEx_BKUPRead>
 801ee6c:	200044d8 	.word	0x200044d8

0801ee70 <TIMER_IF_Init>:
 801ee70:	b5f8      	push	{r3, r4, r5, r6, r7, lr}
 801ee72:	4e11      	ldr	r6, [pc, #68]	; (801eeb8 <TIMER_IF_Init+0x48>)
 801ee74:	7835      	ldrb	r5, [r6, #0]
 801ee76:	b9e5      	cbnz	r5, 801eeb2 <TIMER_IF_Init+0x42>
 801ee78:	4c10      	ldr	r4, [pc, #64]	; (801eebc <TIMER_IF_Init+0x4c>)
 801ee7a:	462a      	mov	r2, r5
 801ee7c:	4629      	mov	r1, r5
 801ee7e:	f04f 37ff 	mov.w	r7, #4294967295	; 0xffffffff
 801ee82:	4628      	mov	r0, r5
 801ee84:	6327      	str	r7, [r4, #48]	; 0x30
 801ee86:	f003 fd8f 	bl	80229a8 <uhal_rtc_init>
 801ee8a:	f7ff ff7f 	bl	801ed8c <TIMER_IF_StopTimer>
 801ee8e:	f44f 7180 	mov.w	r1, #256	; 0x100
 801ee92:	4620      	mov	r0, r4
 801ee94:	f008 f880 	bl	8026f98 <HAL_RTC_DeactivateAlarm>
 801ee98:	4620      	mov	r0, r4
 801ee9a:	6327      	str	r7, [r4, #48]	; 0x30
 801ee9c:	f009 f85a 	bl	8027f54 <HAL_RTCEx_EnableBypassShadow>
 801eea0:	4620      	mov	r0, r4
 801eea2:	462a      	mov	r2, r5
 801eea4:	2102      	movs	r1, #2
 801eea6:	f009 fa9b 	bl	80283e0 <HAL_RTCEx_BKUPWrite>
 801eeaa:	f7ff ff33 	bl	801ed14 <TIMER_IF_SetTimerContext>
 801eeae:	2301      	movs	r3, #1
 801eeb0:	7033      	strb	r3, [r6, #0]
 801eeb2:	2000      	movs	r0, #0
 801eeb4:	bdf8      	pop	{r3, r4, r5, r6, r7, pc}
 801eeb6:	bf00      	nop
 801eeb8:	200002dc 	.word	0x200002dc
 801eebc:	200044d8 	.word	0x200044d8

0801eec0 <TIMER_IF_DelayMs>:
 801eec0:	4601      	mov	r1, r0
 801eec2:	b508      	push	{r3, lr}
 801eec4:	f44f 727a 	mov.w	r2, #1000	; 0x3e8
 801eec8:	2300      	movs	r3, #0
 801eeca:	03c0      	lsls	r0, r0, #15
 801eecc:	0c49      	lsrs	r1, r1, #17
 801eece:	f7ff fcdf 	bl	801e890 <__aeabi_uldivmod>
 801eed2:	4905      	ldr	r1, [pc, #20]	; (801eee8 <TIMER_IF_DelayMs+0x28>)
 801eed4:	688a      	ldr	r2, [r1, #8]
 801eed6:	43d2      	mvns	r2, r2
 801eed8:	688b      	ldr	r3, [r1, #8]
 801eeda:	43db      	mvns	r3, r3
 801eedc:	1a9b      	subs	r3, r3, r2
 801eede:	4283      	cmp	r3, r0
 801eee0:	d300      	bcc.n	801eee4 <TIMER_IF_DelayMs+0x24>
 801eee2:	bd08      	pop	{r3, pc}
 801eee4:	bf00      	nop
 801eee6:	e7f7      	b.n	801eed8 <TIMER_IF_DelayMs+0x18>
 801eee8:	40002800 	.word	0x40002800

0801eeec <HAL_RTC_AlarmAEventCallback>:
 801eeec:	f006 b8f0 	b.w	80250d0 <UTIL_TIMER_IRQ_Handler>

0801eef0 <HAL_RTCEx_SSRUEventCallback>:
 801eef0:	b510      	push	{r4, lr}
 801eef2:	4c06      	ldr	r4, [pc, #24]	; (801ef0c <HAL_RTCEx_SSRUEventCallback+0x1c>)
 801eef4:	2102      	movs	r1, #2
 801eef6:	4620      	mov	r0, r4
 801eef8:	f009 fa79 	bl	80283ee <HAL_RTCEx_BKUPRead>
 801eefc:	2102      	movs	r1, #2
 801eefe:	1c42      	adds	r2, r0, #1
 801ef00:	4620      	mov	r0, r4
 801ef02:	e8bd 4010 	ldmia.w	sp!, {r4, lr}
 801ef06:	f009 ba6b 	b.w	80283e0 <HAL_RTCEx_BKUPWrite>
 801ef0a:	bf00      	nop
 801ef0c:	200044d8 	.word	0x200044d8

0801ef10 <BoardGetUniqueId>:
 801ef10:	4770      	bx	lr

0801ef12 <BoardCriticalSectionBegin>:
 801ef12:	f003 bcfb 	b.w	802290c <uhal_sys_board_critical_section_begin>

0801ef16 <BoardCriticalSectionEnd>:
 801ef16:	f003 bcfe 	b.w	8022916 <uhal_sys_board_critical_section_end>

0801ef1a <BoardInitMcu>:
 801ef1a:	4770      	bx	lr

0801ef1c <BoardResetMcu>:
 801ef1c:	f3bf 8f4f 	dsb	sy
 801ef20:	4905      	ldr	r1, [pc, #20]	; (801ef38 <BoardResetMcu+0x1c>)
 801ef22:	4b06      	ldr	r3, [pc, #24]	; (801ef3c <BoardResetMcu+0x20>)
 801ef24:	68ca      	ldr	r2, [r1, #12]
 801ef26:	f402 62e0 	and.w	r2, r2, #1792	; 0x700
 801ef2a:	4313      	orrs	r3, r2
 801ef2c:	60cb      	str	r3, [r1, #12]
 801ef2e:	f3bf 8f4f 	dsb	sy
 801ef32:	bf00      	nop
 801ef34:	e7fd      	b.n	801ef32 <BoardResetMcu+0x16>
 801ef36:	bf00      	nop
 801ef38:	e000ed00 	.word	0xe000ed00
 801ef3c:	05fa0004 	.word	0x05fa0004

0801ef40 <BoardGetHardwareFreq>:
 801ef40:	b570      	push	{r4, r5, r6, lr}
 801ef42:	b086      	sub	sp, #24
 801ef44:	2210      	movs	r2, #16
 801ef46:	2100      	movs	r1, #0
 801ef48:	a802      	add	r0, sp, #8
 801ef4a:	f01c fae3 	bl	803b514 <memset>
 801ef4e:	f04f 43b0 	mov.w	r3, #1476395008	; 0x58000000
 801ef52:	4d0e      	ldr	r5, [pc, #56]	; (801ef8c <BoardGetHardwareFreq+0x4c>)
 801ef54:	6cda      	ldr	r2, [r3, #76]	; 0x4c
 801ef56:	f042 0202 	orr.w	r2, r2, #2
 801ef5a:	64da      	str	r2, [r3, #76]	; 0x4c
 801ef5c:	6cdb      	ldr	r3, [r3, #76]	; 0x4c
 801ef5e:	f003 0302 	and.w	r3, r3, #2
 801ef62:	f44f 5680 	mov.w	r6, #4096	; 0x1000
 801ef66:	9300      	str	r3, [sp, #0]
 801ef68:	a901      	add	r1, sp, #4
 801ef6a:	4628      	mov	r0, r5
 801ef6c:	9b00      	ldr	r3, [sp, #0]
 801ef6e:	9601      	str	r6, [sp, #4]
 801ef70:	f00a fbea 	bl	8029748 <HAL_GPIO_Init>
 801ef74:	4631      	mov	r1, r6
 801ef76:	4628      	mov	r0, r5
 801ef78:	f00a fd0c 	bl	8029994 <HAL_GPIO_ReadPin>
 801ef7c:	4631      	mov	r1, r6
 801ef7e:	4604      	mov	r4, r0
 801ef80:	4628      	mov	r0, r5
 801ef82:	f00a fc93 	bl	80298ac <HAL_GPIO_DeInit>
 801ef86:	4620      	mov	r0, r4
 801ef88:	b006      	add	sp, #24
 801ef8a:	bd70      	pop	{r4, r5, r6, pc}
 801ef8c:	48000400 	.word	0x48000400

0801ef90 <crc_cal>:
 801ef90:	b570      	push	{r4, r5, r6, lr}
 801ef92:	460c      	mov	r4, r1
 801ef94:	4606      	mov	r6, r0
 801ef96:	f00d fd79 	bl	802ca8c <Crc32Init>
 801ef9a:	2500      	movs	r5, #0
 801ef9c:	3c04      	subs	r4, #4
 801ef9e:	b2a9      	uxth	r1, r5
 801efa0:	428c      	cmp	r4, r1
 801efa2:	f105 0501 	add.w	r5, r5, #1
 801efa6:	d803      	bhi.n	801efb0 <crc_cal+0x20>
 801efa8:	e8bd 4070 	ldmia.w	sp!, {r4, r5, r6, lr}
 801efac:	f00d bd8c 	b.w	802cac8 <Crc32Finalize>
 801efb0:	2201      	movs	r2, #1
 801efb2:	4431      	add	r1, r6
 801efb4:	f00d fd6e 	bl	802ca94 <Crc32Update>
 801efb8:	e7f1      	b.n	801ef9e <crc_cal+0xe>
	...

0801efbc <rak3172_sprintf.constprop.0>:
 801efbc:	b40e      	push	{r1, r2, r3}
 801efbe:	b503      	push	{r0, r1, lr}
 801efc0:	4a05      	ldr	r2, [pc, #20]	; (801efd8 <rak3172_sprintf.constprop.0+0x1c>)
 801efc2:	ab04      	add	r3, sp, #16
 801efc4:	2118      	movs	r1, #24
 801efc6:	9301      	str	r3, [sp, #4]
 801efc8:	f006 f8c6 	bl	8025158 <tiny_vsnprintf_like>
 801efcc:	b002      	add	sp, #8
 801efce:	f85d eb04 	ldr.w	lr, [sp], #4
 801efd2:	b003      	add	sp, #12
 801efd4:	4770      	bx	lr
 801efd6:	bf00      	nop
 801efd8:	0803b8c0 	.word	0x0803b8c0

0801efdc <service_lora_get_app_eui>:
 801efdc:	f002 bed8 	b.w	8021d90 <service_nvm_get_app_eui_from_nvm>

0801efe0 <service_lora_get_app_key>:
 801efe0:	f002 befe 	b.w	8021de0 <service_nvm_get_app_key_from_nvm>

0801efe4 <service_lora_get_dev_eui>:
 801efe4:	f002 bf74 	b.w	8021ed0 <service_nvm_get_dev_eui_from_nvm>

0801efe8 <service_lora_get_nwm>:
 801efe8:	b508      	push	{r3, lr}
 801efea:	f003 f80d 	bl	8022008 <service_nvm_get_nwm_from_nvm>
 801efee:	b2c0      	uxtb	r0, r0
 801eff0:	bd08      	pop	{r3, pc}

0801eff2 <service_lora_set_nwm>:
 801eff2:	2802      	cmp	r0, #2
 801eff4:	b508      	push	{r3, lr}
 801eff6:	d803      	bhi.n	801f000 <service_lora_set_nwm+0xe>
 801eff8:	f003 f80c 	bl	8022014 <service_nvm_set_nwm_to_nvm>
 801effc:	2000      	movs	r0, #0
 801effe:	bd08      	pop	{r3, pc}
 801f000:	f06f 0006 	mvn.w	r0, #6
 801f004:	e7fb      	b.n	801effe <service_lora_set_nwm+0xc>

0801f006 <service_lora_get_njm>:
 801f006:	f003 b811 	b.w	802202c <service_nvm_get_njm_from_nvm>

0801f00a <service_lora_get_njs>:
 801f00a:	b500      	push	{lr}
 801f00c:	b08b      	sub	sp, #44	; 0x2c
 801f00e:	2301      	movs	r3, #1
 801f010:	4668      	mov	r0, sp
 801f012:	f88d 3000 	strb.w	r3, [sp]
 801f016:	f00f ff4d 	bl	802eeb4 <LoRaMacMibGetRequestConfirm>
 801f01a:	b938      	cbnz	r0, 801f02c <service_lora_get_njs+0x22>
 801f01c:	f89d 0004 	ldrb.w	r0, [sp, #4]
 801f020:	3800      	subs	r0, #0
 801f022:	bf18      	it	ne
 801f024:	2001      	movne	r0, #1
 801f026:	b00b      	add	sp, #44	; 0x2c
 801f028:	f85d fb04 	ldr.w	pc, [sp], #4
 801f02c:	2000      	movs	r0, #0
 801f02e:	e7fa      	b.n	801f026 <service_lora_get_njs+0x1c>

0801f030 <service_lora_get_app_skey>:
 801f030:	b530      	push	{r4, r5, lr}
 801f032:	b08b      	sub	sp, #44	; 0x2c
 801f034:	4605      	mov	r5, r0
 801f036:	460c      	mov	r4, r1
 801f038:	f002 fff8 	bl	802202c <service_nvm_get_njm_from_nvm>
 801f03c:	b930      	cbnz	r0, 801f04c <service_lora_get_app_skey+0x1c>
 801f03e:	4621      	mov	r1, r4
 801f040:	4628      	mov	r0, r5
 801f042:	b00b      	add	sp, #44	; 0x2c
 801f044:	e8bd 4030 	ldmia.w	sp!, {r4, r5, lr}
 801f048:	f002 bef2 	b.w	8021e30 <service_nvm_get_app_skey_from_nvm>
 801f04c:	2c0f      	cmp	r4, #15
 801f04e:	d803      	bhi.n	801f058 <service_lora_get_app_skey+0x28>
 801f050:	f06f 0006 	mvn.w	r0, #6
 801f054:	b00b      	add	sp, #44	; 0x2c
 801f056:	bd30      	pop	{r4, r5, pc}
 801f058:	f7ff ffd7 	bl	801f00a <service_lora_get_njs>
 801f05c:	4604      	mov	r4, r0
 801f05e:	b930      	cbnz	r0, 801f06e <service_lora_get_app_skey+0x3e>
 801f060:	4601      	mov	r1, r0
 801f062:	2210      	movs	r2, #16
 801f064:	4628      	mov	r0, r5
 801f066:	f01c fa55 	bl	803b514 <memset>
 801f06a:	4620      	mov	r0, r4
 801f06c:	e7f2      	b.n	801f054 <service_lora_get_app_skey+0x24>
 801f06e:	230f      	movs	r3, #15
 801f070:	4668      	mov	r0, sp
 801f072:	f88d 3000 	strb.w	r3, [sp]
 801f076:	f00f ff1d 	bl	802eeb4 <LoRaMacMibGetRequestConfirm>
 801f07a:	4604      	mov	r4, r0
 801f07c:	2800      	cmp	r0, #0
 801f07e:	d1e7      	bne.n	801f050 <service_lora_get_app_skey+0x20>
 801f080:	9901      	ldr	r1, [sp, #4]
 801f082:	2210      	movs	r2, #16
 801f084:	4628      	mov	r0, r5
 801f086:	f01c fa37 	bl	803b4f8 <memcpy>
 801f08a:	e7ee      	b.n	801f06a <service_lora_get_app_skey+0x3a>

0801f08c <service_lora_get_dev_addr>:
 801f08c:	b530      	push	{r4, r5, lr}
 801f08e:	b08b      	sub	sp, #44	; 0x2c
 801f090:	4605      	mov	r5, r0
 801f092:	460c      	mov	r4, r1
 801f094:	f002 ffca 	bl	802202c <service_nvm_get_njm_from_nvm>
 801f098:	b930      	cbnz	r0, 801f0a8 <service_lora_get_dev_addr+0x1c>
 801f09a:	4621      	mov	r1, r4
 801f09c:	4628      	mov	r0, r5
 801f09e:	b00b      	add	sp, #44	; 0x2c
 801f0a0:	e8bd 4030 	ldmia.w	sp!, {r4, r5, lr}
 801f0a4:	f002 beec 	b.w	8021e80 <service_nvm_get_dev_addr_from_nvm>
 801f0a8:	2c03      	cmp	r4, #3
 801f0aa:	d803      	bhi.n	801f0b4 <service_lora_get_dev_addr+0x28>
 801f0ac:	f06f 0006 	mvn.w	r0, #6
 801f0b0:	b00b      	add	sp, #44	; 0x2c
 801f0b2:	bd30      	pop	{r4, r5, pc}
 801f0b4:	f7ff ffa9 	bl	801f00a <service_lora_get_njs>
 801f0b8:	4604      	mov	r4, r0
 801f0ba:	b930      	cbnz	r0, 801f0ca <service_lora_get_dev_addr+0x3e>
 801f0bc:	4601      	mov	r1, r0
 801f0be:	2204      	movs	r2, #4
 801f0c0:	4628      	mov	r0, r5
 801f0c2:	f01c fa27 	bl	803b514 <memset>
 801f0c6:	4620      	mov	r0, r4
 801f0c8:	e7f2      	b.n	801f0b0 <service_lora_get_dev_addr+0x24>
 801f0ca:	2307      	movs	r3, #7
 801f0cc:	4668      	mov	r0, sp
 801f0ce:	f88d 3000 	strb.w	r3, [sp]
 801f0d2:	f00f feef 	bl	802eeb4 <LoRaMacMibGetRequestConfirm>
 801f0d6:	2800      	cmp	r0, #0
 801f0d8:	d1e8      	bne.n	801f0ac <service_lora_get_dev_addr+0x20>
 801f0da:	9b01      	ldr	r3, [sp, #4]
 801f0dc:	ba1b      	rev	r3, r3
 801f0de:	602b      	str	r3, [r5, #0]
 801f0e0:	e7e6      	b.n	801f0b0 <service_lora_get_dev_addr+0x24>

0801f0e2 <service_lora_get_retry>:
 801f0e2:	f002 bf6d 	b.w	8021fc0 <service_nvm_get_retry_from_nvm>

0801f0e6 <service_lora_set_retry>:
 801f0e6:	2807      	cmp	r0, #7
 801f0e8:	d801      	bhi.n	801f0ee <service_lora_set_retry+0x8>
 801f0ea:	f002 bf6f 	b.w	8021fcc <service_nvm_set_retry_to_nvm>
 801f0ee:	f06f 0002 	mvn.w	r0, #2
 801f0f2:	4770      	bx	lr

0801f0f4 <service_lora_get_cfm>:
 801f0f4:	f002 bf76 	b.w	8021fe4 <service_nvm_get_cfm_from_nvm>

0801f0f8 <service_lora_set_cfm>:
 801f0f8:	f002 bf7a 	b.w	8021ff0 <service_nvm_set_cfm_to_nvm>

0801f0fc <service_lora_get_nwk_skey>:
 801f0fc:	b530      	push	{r4, r5, lr}
 801f0fe:	b08b      	sub	sp, #44	; 0x2c
 801f100:	4605      	mov	r5, r0
 801f102:	460c      	mov	r4, r1
 801f104:	f002 ff92 	bl	802202c <service_nvm_get_njm_from_nvm>
 801f108:	b930      	cbnz	r0, 801f118 <service_lora_get_nwk_skey+0x1c>
 801f10a:	4621      	mov	r1, r4
 801f10c:	4628      	mov	r0, r5
 801f10e:	b00b      	add	sp, #44	; 0x2c
 801f110:	e8bd 4030 	ldmia.w	sp!, {r4, r5, lr}
 801f114:	f002 bf2c 	b.w	8021f70 <service_nvm_get_nwk_skey_from_nvm>
 801f118:	2c0f      	cmp	r4, #15
 801f11a:	d803      	bhi.n	801f124 <service_lora_get_nwk_skey+0x28>
 801f11c:	f06f 0006 	mvn.w	r0, #6
 801f120:	b00b      	add	sp, #44	; 0x2c
 801f122:	bd30      	pop	{r4, r5, pc}
 801f124:	f7ff ff71 	bl	801f00a <service_lora_get_njs>
 801f128:	4604      	mov	r4, r0
 801f12a:	b930      	cbnz	r0, 801f13a <service_lora_get_nwk_skey+0x3e>
 801f12c:	4601      	mov	r1, r0
 801f12e:	2210      	movs	r2, #16
 801f130:	4628      	mov	r0, r5
 801f132:	f01c f9ef 	bl	803b514 <memset>
 801f136:	4620      	mov	r0, r4
 801f138:	e7f2      	b.n	801f120 <service_lora_get_nwk_skey+0x24>
 801f13a:	230e      	movs	r3, #14
 801f13c:	4668      	mov	r0, sp
 801f13e:	f88d 3000 	strb.w	r3, [sp]
 801f142:	f00f feb7 	bl	802eeb4 <LoRaMacMibGetRequestConfirm>
 801f146:	4604      	mov	r4, r0
 801f148:	2800      	cmp	r0, #0
 801f14a:	d1e7      	bne.n	801f11c <service_lora_get_nwk_skey+0x20>
 801f14c:	9901      	ldr	r1, [sp, #4]
 801f14e:	2210      	movs	r2, #16
 801f150:	4628      	mov	r0, r5
 801f152:	f01c f9d1 	bl	803b4f8 <memcpy>
 801f156:	e7ee      	b.n	801f136 <service_lora_get_nwk_skey+0x3a>

0801f158 <service_lora_get_net_id>:
 801f158:	b530      	push	{r4, r5, lr}
 801f15a:	b08b      	sub	sp, #44	; 0x2c
 801f15c:	4605      	mov	r5, r0
 801f15e:	460c      	mov	r4, r1
 801f160:	f002 ff64 	bl	802202c <service_nvm_get_njm_from_nvm>
 801f164:	b930      	cbnz	r0, 801f174 <service_lora_get_net_id+0x1c>
 801f166:	4621      	mov	r1, r4
 801f168:	4628      	mov	r0, r5
 801f16a:	b00b      	add	sp, #44	; 0x2c
 801f16c:	e8bd 4030 	ldmia.w	sp!, {r4, r5, lr}
 801f170:	f002 bed6 	b.w	8021f20 <service_nvm_get_net_id_from_nvm>
 801f174:	2c03      	cmp	r4, #3
 801f176:	d803      	bhi.n	801f180 <service_lora_get_net_id+0x28>
 801f178:	f06f 0006 	mvn.w	r0, #6
 801f17c:	b00b      	add	sp, #44	; 0x2c
 801f17e:	bd30      	pop	{r4, r5, pc}
 801f180:	f7ff ff43 	bl	801f00a <service_lora_get_njs>
 801f184:	4604      	mov	r4, r0
 801f186:	b930      	cbnz	r0, 801f196 <service_lora_get_net_id+0x3e>
 801f188:	4601      	mov	r1, r0
 801f18a:	2204      	movs	r2, #4
 801f18c:	4628      	mov	r0, r5
 801f18e:	f01c f9c1 	bl	803b514 <memset>
 801f192:	4620      	mov	r0, r4
 801f194:	e7f2      	b.n	801f17c <service_lora_get_net_id+0x24>
 801f196:	2306      	movs	r3, #6
 801f198:	4668      	mov	r0, sp
 801f19a:	f88d 3000 	strb.w	r3, [sp]
 801f19e:	f00f fe89 	bl	802eeb4 <LoRaMacMibGetRequestConfirm>
 801f1a2:	4604      	mov	r4, r0
 801f1a4:	2800      	cmp	r0, #0
 801f1a6:	d1e7      	bne.n	801f178 <service_lora_get_net_id+0x20>
 801f1a8:	2204      	movs	r2, #4
 801f1aa:	eb0d 0102 	add.w	r1, sp, r2
 801f1ae:	4628      	mov	r0, r5
 801f1b0:	f01c f9a2 	bl	803b4f8 <memcpy>
 801f1b4:	e7ed      	b.n	801f192 <service_lora_get_net_id+0x3a>

0801f1b6 <service_lora_get_McRoot_key>:
 801f1b6:	4770      	bx	lr

0801f1b8 <service_lora_get_adr>:
 801f1b8:	f002 bf4a 	b.w	8022050 <service_nvm_get_adr_from_nvm>

0801f1bc <service_lora_get_class>:
 801f1bc:	f002 bf5a 	b.w	8022074 <service_nvm_get_class_from_nvm>

0801f1c0 <service_lora_get_dcs>:
 801f1c0:	b508      	push	{r3, lr}
 801f1c2:	f003 fa9d 	bl	8022700 <service_nvm_get_dcs_from_nvm>
 801f1c6:	3800      	subs	r0, #0
 801f1c8:	bf18      	it	ne
 801f1ca:	2001      	movne	r0, #1
 801f1cc:	bd08      	pop	{r3, pc}

0801f1ce <service_lora_set_dcs>:
 801f1ce:	b538      	push	{r3, r4, r5, lr}
 801f1d0:	460c      	mov	r4, r1
 801f1d2:	4605      	mov	r5, r0
 801f1d4:	f011 fc4e 	bl	8030a74 <LoRaMacTestSetDutyCycleOn>
 801f1d8:	b124      	cbz	r4, 801f1e4 <service_lora_set_dcs+0x16>
 801f1da:	4628      	mov	r0, r5
 801f1dc:	e8bd 4038 	ldmia.w	sp!, {r3, r4, r5, lr}
 801f1e0:	f003 ba82 	b.w	80226e8 <service_nvm_set_dcs_to_nvm>
 801f1e4:	4620      	mov	r0, r4
 801f1e6:	bd38      	pop	{r3, r4, r5, pc}

0801f1e8 <service_lora_get_dr>:
 801f1e8:	b500      	push	{lr}
 801f1ea:	b08b      	sub	sp, #44	; 0x2c
 801f1ec:	232d      	movs	r3, #45	; 0x2d
 801f1ee:	4668      	mov	r0, sp
 801f1f0:	f88d 3000 	strb.w	r3, [sp]
 801f1f4:	f00f fe5e 	bl	802eeb4 <LoRaMacMibGetRequestConfirm>
 801f1f8:	f89d 0004 	ldrb.w	r0, [sp, #4]
 801f1fc:	b00b      	add	sp, #44	; 0x2c
 801f1fe:	f85d fb04 	ldr.w	pc, [sp], #4

0801f202 <service_lora_get_jn1dl>:
 801f202:	f002 bf6d 	b.w	80220e0 <service_nvm_get_jn1dl_from_nvm>

0801f206 <service_lora_get_jn2dl>:
 801f206:	f002 bf7d 	b.w	8022104 <service_nvm_get_jn2dl_from_nvm>

0801f20a <service_lora_get_pub_nwk_mode>:
 801f20a:	f002 bf9f 	b.w	802214c <service_nvm_get_pub_nwk_mode_from_nvm>

0801f20e <service_lora_get_rx1dl>:
 801f20e:	b500      	push	{lr}
 801f210:	b08b      	sub	sp, #44	; 0x2c
 801f212:	f002 ff0b 	bl	802202c <service_nvm_get_njm_from_nvm>
 801f216:	2801      	cmp	r0, #1
 801f218:	d10d      	bne.n	801f236 <service_lora_get_rx1dl+0x28>
 801f21a:	f7ff fef6 	bl	801f00a <service_lora_get_njs>
 801f21e:	b150      	cbz	r0, 801f236 <service_lora_get_rx1dl+0x28>
 801f220:	2327      	movs	r3, #39	; 0x27
 801f222:	4668      	mov	r0, sp
 801f224:	f88d 3000 	strb.w	r3, [sp]
 801f228:	f00f fe44 	bl	802eeb4 <LoRaMacMibGetRequestConfirm>
 801f22c:	b900      	cbnz	r0, 801f230 <service_lora_get_rx1dl+0x22>
 801f22e:	9801      	ldr	r0, [sp, #4]
 801f230:	b00b      	add	sp, #44	; 0x2c
 801f232:	f85d fb04 	ldr.w	pc, [sp], #4
 801f236:	b00b      	add	sp, #44	; 0x2c
 801f238:	f85d eb04 	ldr.w	lr, [sp], #4
 801f23c:	f002 bf98 	b.w	8022170 <service_nvm_get_rx1dl_from_nvm>

0801f240 <service_lora_get_rx2dl>:
 801f240:	f002 bfa8 	b.w	8022194 <service_nvm_get_rx2dl_from_nvm>

0801f244 <service_lora_get_txpower>:
 801f244:	f002 bfb8 	b.w	80221b8 <service_nvm_get_txpower_from_nvm>

0801f248 <service_lora_get_ping_slot_periodicity>:
 801f248:	f002 bfda 	b.w	8022200 <service_nvm_get_ping_slot_periodicity_from_nvm>

0801f24c <service_lora_set_ping_slot_periodicity>:
 801f24c:	f002 bfde 	b.w	802220c <service_nvm_set_ping_slot_periodicity_to_nvm>

0801f250 <service_lora_get_beacon_freq>:
 801f250:	b51f      	push	{r0, r1, r2, r3, r4, lr}
 801f252:	232e      	movs	r3, #46	; 0x2e
 801f254:	f88d 3008 	strb.w	r3, [sp, #8]
 801f258:	f002 fd6a 	bl	8021d30 <service_nvm_get_band_from_nvm>
 801f25c:	a902      	add	r1, sp, #8
 801f25e:	f015 fa9e 	bl	803479e <RegionGetPhyParam>
 801f262:	b005      	add	sp, #20
 801f264:	f85d fb04 	ldr.w	pc, [sp], #4

0801f268 <service_lora_get_beacon_dr>:
 801f268:	b51f      	push	{r0, r1, r2, r3, r4, lr}
 801f26a:	2330      	movs	r3, #48	; 0x30
 801f26c:	f88d 3008 	strb.w	r3, [sp, #8]
 801f270:	f002 fd5e 	bl	8021d30 <service_nvm_get_band_from_nvm>
 801f274:	a902      	add	r1, sp, #8
 801f276:	f015 fa92 	bl	803479e <RegionGetPhyParam>
 801f27a:	b005      	add	sp, #20
 801f27c:	f85d fb04 	ldr.w	pc, [sp], #4

0801f280 <service_lora_get_local_time>:
 801f280:	b510      	push	{r4, lr}
 801f282:	b090      	sub	sp, #64	; 0x40
 801f284:	4604      	mov	r4, r0
 801f286:	a805      	add	r0, sp, #20
 801f288:	f006 f914 	bl	80254b4 <SysTimeGet>
 801f28c:	9805      	ldr	r0, [sp, #20]
 801f28e:	a907      	add	r1, sp, #28
 801f290:	3812      	subs	r0, #18
 801f292:	f006 f9d3 	bl	802563c <SysTimeLocalTime>
 801f296:	9b0c      	ldr	r3, [sp, #48]	; 0x30
 801f298:	4909      	ldr	r1, [pc, #36]	; (801f2c0 <service_lora_get_local_time+0x40>)
 801f29a:	f203 736c 	addw	r3, r3, #1900	; 0x76c
 801f29e:	9303      	str	r3, [sp, #12]
 801f2a0:	9b0a      	ldr	r3, [sp, #40]	; 0x28
 801f2a2:	9302      	str	r3, [sp, #8]
 801f2a4:	9b0b      	ldr	r3, [sp, #44]	; 0x2c
 801f2a6:	3301      	adds	r3, #1
 801f2a8:	9301      	str	r3, [sp, #4]
 801f2aa:	9b07      	ldr	r3, [sp, #28]
 801f2ac:	9300      	str	r3, [sp, #0]
 801f2ae:	4620      	mov	r0, r4
 801f2b0:	e9dd 3208 	ldrd	r3, r2, [sp, #32]
 801f2b4:	f7ff fe82 	bl	801efbc <rak3172_sprintf.constprop.0>
 801f2b8:	2000      	movs	r0, #0
 801f2ba:	b010      	add	sp, #64	; 0x40
 801f2bc:	bd10      	pop	{r4, pc}
 801f2be:	bf00      	nop
 801f2c0:	0803b8c0 	.word	0x0803b8c0

0801f2c4 <service_lora_get_rx2freq>:
 801f2c4:	b500      	push	{lr}
 801f2c6:	b08b      	sub	sp, #44	; 0x2c
 801f2c8:	231f      	movs	r3, #31
 801f2ca:	4668      	mov	r0, sp
 801f2cc:	f88d 3000 	strb.w	r3, [sp]
 801f2d0:	f00f fdf0 	bl	802eeb4 <LoRaMacMibGetRequestConfirm>
 801f2d4:	b918      	cbnz	r0, 801f2de <service_lora_get_rx2freq+0x1a>
 801f2d6:	9801      	ldr	r0, [sp, #4]
 801f2d8:	b00b      	add	sp, #44	; 0x2c
 801f2da:	f85d fb04 	ldr.w	pc, [sp], #4
 801f2de:	f06f 0006 	mvn.w	r0, #6
 801f2e2:	e7f9      	b.n	801f2d8 <service_lora_get_rx2freq+0x14>

0801f2e4 <service_lora_get_rx2dr>:
 801f2e4:	b500      	push	{lr}
 801f2e6:	b08b      	sub	sp, #44	; 0x2c
 801f2e8:	231f      	movs	r3, #31
 801f2ea:	4668      	mov	r0, sp
 801f2ec:	f88d 3000 	strb.w	r3, [sp]
 801f2f0:	f00f fde0 	bl	802eeb4 <LoRaMacMibGetRequestConfirm>
 801f2f4:	b920      	cbnz	r0, 801f300 <service_lora_get_rx2dr+0x1c>
 801f2f6:	f89d 0008 	ldrb.w	r0, [sp, #8]
 801f2fa:	b00b      	add	sp, #44	; 0x2c
 801f2fc:	f85d fb04 	ldr.w	pc, [sp], #4
 801f300:	20f9      	movs	r0, #249	; 0xf9
 801f302:	e7fa      	b.n	801f2fa <service_lora_get_rx2dr+0x16>

0801f304 <service_lora_get_linkcheck>:
 801f304:	f002 bf6a 	b.w	80221dc <service_nvm_get_linkcheck_from_nvm>

0801f308 <service_lora_set_linkcheck>:
 801f308:	2802      	cmp	r0, #2
 801f30a:	d801      	bhi.n	801f310 <service_lora_set_linkcheck+0x8>
 801f30c:	f002 bf6c 	b.w	80221e8 <service_nvm_set_linkcheck_to_nvm>
 801f310:	f06f 0002 	mvn.w	r0, #2
 801f314:	4770      	bx	lr

0801f316 <service_lora_get_join_start>:
 801f316:	f002 bf85 	b.w	8022224 <service_nvm_get_join_start_from_nvm>

0801f31a <service_lora_set_join_start>:
 801f31a:	f002 bf89 	b.w	8022230 <service_nvm_set_join_start_to_nvm>

0801f31e <service_lora_get_auto_join>:
 801f31e:	f002 bf93 	b.w	8022248 <service_nvm_get_auto_join_from_nvm>

0801f322 <service_lora_set_auto_join>:
 801f322:	f002 bf97 	b.w	8022254 <service_nvm_set_auto_join_to_nvm>

0801f326 <service_lora_get_auto_join_period>:
 801f326:	f002 bfa1 	b.w	802226c <service_nvm_get_auto_join_period_from_nvm>

0801f32a <service_lora_set_auto_join_period>:
 801f32a:	f002 bfa5 	b.w	8022278 <service_nvm_set_auto_join_period_to_nvm>

0801f32e <service_lora_get_auto_join_max_cnt>:
 801f32e:	f002 bfaf 	b.w	8022290 <service_nvm_get_auto_join_max_cnt_from_nvm>

0801f332 <service_lora_set_auto_join_max_cnt>:
 801f332:	f002 bfb3 	b.w	802229c <service_nvm_set_auto_join_max_cnt_to_nvm>

0801f336 <service_lora_get_lbt>:
 801f336:	f002 bfbd 	b.w	80222b4 <service_nvm_get_lbt_from_nvm>

0801f33a <service_lora_set_lbt>:
 801f33a:	f002 bfc1 	b.w	80222c0 <service_nvm_set_lbt_to_nvm>

0801f33e <service_lora_get_lbt_rssi>:
 801f33e:	f002 bfcb 	b.w	80222d8 <service_nvm_get_lbt_rssi_from_nvm>

0801f342 <service_lora_set_lbt_rssi>:
 801f342:	f002 bfcf 	b.w	80222e4 <service_nvm_set_lbt_rssi_to_nvm>

0801f346 <service_lora_get_lbt_scantime>:
 801f346:	f002 bfd9 	b.w	80222fc <service_nvm_get_lbt_scantime_from_nvm>

0801f34a <service_lora_set_lbt_scantime>:
 801f34a:	f002 bfdd 	b.w	8022308 <service_nvm_set_lbt_scantime_to_nvm>

0801f34e <service_lora_get_DevNonce>:
 801f34e:	f002 bfe7 	b.w	8022320 <service_nvm_get_DevNonce_from_nvm>

0801f352 <service_lora_set_DevNonce>:
 801f352:	f002 bfeb 	b.w	802232c <service_nvm_set_DevNonce_to_nvm>

0801f356 <service_lora_set_IsCertPortOn>:
 801f356:	b100      	cbz	r0, 801f35a <service_lora_set_IsCertPortOn+0x4>
 801f358:	2001      	movs	r0, #1
 801f35a:	f002 bff3 	b.w	8022344 <service_nvm_set_IsCertPortOn_to_nvm>

0801f35e <service_lora_get_IsCertPortOn>:
 801f35e:	f002 bffd 	b.w	802235c <service_nvm_get_IsCertPortOn_from_nvm>

0801f362 <service_lora_get_band>:
 801f362:	f002 bce5 	b.w	8021d30 <service_nvm_get_band_from_nvm>

0801f366 <service_lora_get_chs>:
 801f366:	b508      	push	{r3, lr}
 801f368:	f002 fce2 	bl	8021d30 <service_nvm_get_band_from_nvm>
 801f36c:	1e43      	subs	r3, r0, #1
 801f36e:	b2db      	uxtb	r3, r3
 801f370:	2b01      	cmp	r3, #1
 801f372:	d903      	bls.n	801f37c <service_lora_get_chs+0x16>
 801f374:	f000 00fd 	and.w	r0, r0, #253	; 0xfd
 801f378:	2808      	cmp	r0, #8
 801f37a:	d103      	bne.n	801f384 <service_lora_get_chs+0x1e>
 801f37c:	e8bd 4008 	ldmia.w	sp!, {r3, lr}
 801f380:	f003 b8a4 	b.w	80224cc <service_nvm_get_chs_from_nvm>
 801f384:	f06f 0006 	mvn.w	r0, #6
 801f388:	bd08      	pop	{r3, pc}

0801f38a <service_lora_region_isActive>:
 801f38a:	b510      	push	{r4, lr}
 801f38c:	4604      	mov	r4, r0
 801f38e:	f015 fa01 	bl	8034794 <RegionIsActive>
 801f392:	b940      	cbnz	r0, 801f3a6 <service_lora_region_isActive+0x1c>
 801f394:	b114      	cbz	r4, 801f39c <service_lora_region_isActive+0x12>
 801f396:	3c14      	subs	r4, #20
 801f398:	2c02      	cmp	r4, #2
 801f39a:	d804      	bhi.n	801f3a6 <service_lora_region_isActive+0x1c>
 801f39c:	e8bd 4010 	ldmia.w	sp!, {r4, lr}
 801f3a0:	2000      	movs	r0, #0
 801f3a2:	f015 b9f7 	b.w	8034794 <RegionIsActive>
 801f3a6:	bd10      	pop	{r4, pc}

0801f3a8 <service_lora_set_app_eui>:
 801f3a8:	b530      	push	{r4, r5, lr}
 801f3aa:	b08b      	sub	sp, #44	; 0x2c
 801f3ac:	460d      	mov	r5, r1
 801f3ae:	4604      	mov	r4, r0
 801f3b0:	f002 fcbe 	bl	8021d30 <service_nvm_get_band_from_nvm>
 801f3b4:	f7ff ffe9 	bl	801f38a <service_lora_region_isActive>
 801f3b8:	b1a0      	cbz	r0, 801f3e4 <service_lora_set_app_eui+0x3c>
 801f3ba:	2303      	movs	r3, #3
 801f3bc:	4668      	mov	r0, sp
 801f3be:	f88d 3000 	strb.w	r3, [sp]
 801f3c2:	9401      	str	r4, [sp, #4]
 801f3c4:	f00f fec4 	bl	802f150 <LoRaMacMibSetRequestConfirm>
 801f3c8:	b138      	cbz	r0, 801f3da <service_lora_set_app_eui+0x32>
 801f3ca:	2801      	cmp	r0, #1
 801f3cc:	bf0c      	ite	eq
 801f3ce:	f06f 0005 	mvneq.w	r0, #5
 801f3d2:	f06f 0006 	mvnne.w	r0, #6
 801f3d6:	b00b      	add	sp, #44	; 0x2c
 801f3d8:	bd30      	pop	{r4, r5, pc}
 801f3da:	4629      	mov	r1, r5
 801f3dc:	4620      	mov	r0, r4
 801f3de:	f002 fce5 	bl	8021dac <service_nvm_set_app_eui_to_nvm>
 801f3e2:	e7f8      	b.n	801f3d6 <service_lora_set_app_eui+0x2e>
 801f3e4:	f06f 0010 	mvn.w	r0, #16
 801f3e8:	e7f5      	b.n	801f3d6 <service_lora_set_app_eui+0x2e>

0801f3ea <service_lora_set_app_key>:
 801f3ea:	b530      	push	{r4, r5, lr}
 801f3ec:	b08b      	sub	sp, #44	; 0x2c
 801f3ee:	460d      	mov	r5, r1
 801f3f0:	4604      	mov	r4, r0
 801f3f2:	f002 fc9d 	bl	8021d30 <service_nvm_get_band_from_nvm>
 801f3f6:	f7ff ffc8 	bl	801f38a <service_lora_region_isActive>
 801f3fa:	b1e8      	cbz	r0, 801f438 <service_lora_set_app_key+0x4e>
 801f3fc:	2308      	movs	r3, #8
 801f3fe:	4668      	mov	r0, sp
 801f400:	f88d 3000 	strb.w	r3, [sp]
 801f404:	9401      	str	r4, [sp, #4]
 801f406:	f00f fea3 	bl	802f150 <LoRaMacMibSetRequestConfirm>
 801f40a:	b138      	cbz	r0, 801f41c <service_lora_set_app_key+0x32>
 801f40c:	2801      	cmp	r0, #1
 801f40e:	bf0c      	ite	eq
 801f410:	f06f 0005 	mvneq.w	r0, #5
 801f414:	f06f 0006 	mvnne.w	r0, #6
 801f418:	b00b      	add	sp, #44	; 0x2c
 801f41a:	bd30      	pop	{r4, r5, pc}
 801f41c:	2309      	movs	r3, #9
 801f41e:	4668      	mov	r0, sp
 801f420:	f88d 3000 	strb.w	r3, [sp]
 801f424:	9401      	str	r4, [sp, #4]
 801f426:	f00f fe93 	bl	802f150 <LoRaMacMibSetRequestConfirm>
 801f42a:	2800      	cmp	r0, #0
 801f42c:	d1ee      	bne.n	801f40c <service_lora_set_app_key+0x22>
 801f42e:	4629      	mov	r1, r5
 801f430:	4620      	mov	r0, r4
 801f432:	f002 fce3 	bl	8021dfc <service_nvm_set_app_key_to_nvm>
 801f436:	e7ef      	b.n	801f418 <service_lora_set_app_key+0x2e>
 801f438:	f06f 0010 	mvn.w	r0, #16
 801f43c:	e7ec      	b.n	801f418 <service_lora_set_app_key+0x2e>

0801f43e <service_lora_set_dev_eui>:
 801f43e:	b530      	push	{r4, r5, lr}
 801f440:	b08b      	sub	sp, #44	; 0x2c
 801f442:	460d      	mov	r5, r1
 801f444:	4604      	mov	r4, r0
 801f446:	f002 fc73 	bl	8021d30 <service_nvm_get_band_from_nvm>
 801f44a:	f7ff ff9e 	bl	801f38a <service_lora_region_isActive>
 801f44e:	b1d8      	cbz	r0, 801f488 <service_lora_set_dev_eui+0x4a>
 801f450:	f002 fdda 	bl	8022008 <service_nvm_get_nwm_from_nvm>
 801f454:	b2c0      	uxtb	r0, r0
 801f456:	2801      	cmp	r0, #1
 801f458:	d10f      	bne.n	801f47a <service_lora_set_dev_eui+0x3c>
 801f45a:	2302      	movs	r3, #2
 801f45c:	4668      	mov	r0, sp
 801f45e:	f88d 3000 	strb.w	r3, [sp]
 801f462:	9401      	str	r4, [sp, #4]
 801f464:	f00f fe74 	bl	802f150 <LoRaMacMibSetRequestConfirm>
 801f468:	b138      	cbz	r0, 801f47a <service_lora_set_dev_eui+0x3c>
 801f46a:	2801      	cmp	r0, #1
 801f46c:	bf0c      	ite	eq
 801f46e:	f06f 0005 	mvneq.w	r0, #5
 801f472:	f06f 0006 	mvnne.w	r0, #6
 801f476:	b00b      	add	sp, #44	; 0x2c
 801f478:	bd30      	pop	{r4, r5, pc}
 801f47a:	4629      	mov	r1, r5
 801f47c:	4620      	mov	r0, r4
 801f47e:	b00b      	add	sp, #44	; 0x2c
 801f480:	e8bd 4030 	ldmia.w	sp!, {r4, r5, lr}
 801f484:	f002 bd32 	b.w	8021eec <service_nvm_set_dev_eui_to_nvm>
 801f488:	f06f 0010 	mvn.w	r0, #16
 801f48c:	e7f3      	b.n	801f476 <service_lora_set_dev_eui+0x38>

0801f48e <service_lora_set_adr>:
 801f48e:	b530      	push	{r4, r5, lr}
 801f490:	b08b      	sub	sp, #44	; 0x2c
 801f492:	460c      	mov	r4, r1
 801f494:	4605      	mov	r5, r0
 801f496:	f002 fc4b 	bl	8021d30 <service_nvm_get_band_from_nvm>
 801f49a:	f7ff ff76 	bl	801f38a <service_lora_region_isActive>
 801f49e:	b188      	cbz	r0, 801f4c4 <service_lora_set_adr+0x36>
 801f4a0:	2305      	movs	r3, #5
 801f4a2:	4668      	mov	r0, sp
 801f4a4:	f88d 3000 	strb.w	r3, [sp]
 801f4a8:	f88d 5004 	strb.w	r5, [sp, #4]
 801f4ac:	f00f fe50 	bl	802f150 <LoRaMacMibSetRequestConfirm>
 801f4b0:	2803      	cmp	r0, #3
 801f4b2:	d00a      	beq.n	801f4ca <service_lora_set_adr+0x3c>
 801f4b4:	2801      	cmp	r0, #1
 801f4b6:	d00b      	beq.n	801f4d0 <service_lora_set_adr+0x42>
 801f4b8:	b16c      	cbz	r4, 801f4d6 <service_lora_set_adr+0x48>
 801f4ba:	4628      	mov	r0, r5
 801f4bc:	f002 fdce 	bl	802205c <service_nvm_set_adr_to_nvm>
 801f4c0:	b00b      	add	sp, #44	; 0x2c
 801f4c2:	bd30      	pop	{r4, r5, pc}
 801f4c4:	f06f 0010 	mvn.w	r0, #16
 801f4c8:	e7fa      	b.n	801f4c0 <service_lora_set_adr+0x32>
 801f4ca:	f06f 0002 	mvn.w	r0, #2
 801f4ce:	e7f7      	b.n	801f4c0 <service_lora_set_adr+0x32>
 801f4d0:	f06f 0005 	mvn.w	r0, #5
 801f4d4:	e7f4      	b.n	801f4c0 <service_lora_set_adr+0x32>
 801f4d6:	4620      	mov	r0, r4
 801f4d8:	e7f2      	b.n	801f4c0 <service_lora_set_adr+0x32>

0801f4da <service_lora_set_jn1dl>:
 801f4da:	b530      	push	{r4, r5, lr}
 801f4dc:	b08b      	sub	sp, #44	; 0x2c
 801f4de:	460c      	mov	r4, r1
 801f4e0:	4605      	mov	r5, r0
 801f4e2:	f002 fc25 	bl	8021d30 <service_nvm_get_band_from_nvm>
 801f4e6:	f7ff ff50 	bl	801f38a <service_lora_region_isActive>
 801f4ea:	b168      	cbz	r0, 801f508 <service_lora_set_jn1dl+0x2e>
 801f4ec:	2329      	movs	r3, #41	; 0x29
 801f4ee:	4668      	mov	r0, sp
 801f4f0:	f88d 3000 	strb.w	r3, [sp]
 801f4f4:	9501      	str	r5, [sp, #4]
 801f4f6:	f00f fe2b 	bl	802f150 <LoRaMacMibSetRequestConfirm>
 801f4fa:	b940      	cbnz	r0, 801f50e <service_lora_set_jn1dl+0x34>
 801f4fc:	b154      	cbz	r4, 801f514 <service_lora_set_jn1dl+0x3a>
 801f4fe:	4628      	mov	r0, r5
 801f500:	f002 fdf4 	bl	80220ec <service_nvm_set_jn1dl_to_nvm>
 801f504:	b00b      	add	sp, #44	; 0x2c
 801f506:	bd30      	pop	{r4, r5, pc}
 801f508:	f06f 0010 	mvn.w	r0, #16
 801f50c:	e7fa      	b.n	801f504 <service_lora_set_jn1dl+0x2a>
 801f50e:	f06f 0006 	mvn.w	r0, #6
 801f512:	e7f7      	b.n	801f504 <service_lora_set_jn1dl+0x2a>
 801f514:	4620      	mov	r0, r4
 801f516:	e7f5      	b.n	801f504 <service_lora_set_jn1dl+0x2a>

0801f518 <service_lora_set_jn2dl>:
 801f518:	b530      	push	{r4, r5, lr}
 801f51a:	b08b      	sub	sp, #44	; 0x2c
 801f51c:	460c      	mov	r4, r1
 801f51e:	4605      	mov	r5, r0
 801f520:	f002 fc06 	bl	8021d30 <service_nvm_get_band_from_nvm>
 801f524:	f7ff ff31 	bl	801f38a <service_lora_region_isActive>
 801f528:	b168      	cbz	r0, 801f546 <service_lora_set_jn2dl+0x2e>
 801f52a:	232a      	movs	r3, #42	; 0x2a
 801f52c:	4668      	mov	r0, sp
 801f52e:	f88d 3000 	strb.w	r3, [sp]
 801f532:	9501      	str	r5, [sp, #4]
 801f534:	f00f fe0c 	bl	802f150 <LoRaMacMibSetRequestConfirm>
 801f538:	b940      	cbnz	r0, 801f54c <service_lora_set_jn2dl+0x34>
 801f53a:	b154      	cbz	r4, 801f552 <service_lora_set_jn2dl+0x3a>
 801f53c:	4628      	mov	r0, r5
 801f53e:	f002 fde7 	bl	8022110 <service_nvm_set_jn2dl_to_nvm>
 801f542:	b00b      	add	sp, #44	; 0x2c
 801f544:	bd30      	pop	{r4, r5, pc}
 801f546:	f06f 0010 	mvn.w	r0, #16
 801f54a:	e7fa      	b.n	801f542 <service_lora_set_jn2dl+0x2a>
 801f54c:	f06f 0006 	mvn.w	r0, #6
 801f550:	e7f7      	b.n	801f542 <service_lora_set_jn2dl+0x2a>
 801f552:	4620      	mov	r0, r4
 801f554:	e7f5      	b.n	801f542 <service_lora_set_jn2dl+0x2a>

0801f556 <service_lora_set_pub_nwk_mode>:
 801f556:	b530      	push	{r4, r5, lr}
 801f558:	b08b      	sub	sp, #44	; 0x2c
 801f55a:	460c      	mov	r4, r1
 801f55c:	4605      	mov	r5, r0
 801f55e:	f002 fbe7 	bl	8021d30 <service_nvm_get_band_from_nvm>
 801f562:	f7ff ff12 	bl	801f38a <service_lora_region_isActive>
 801f566:	b170      	cbz	r0, 801f586 <service_lora_set_pub_nwk_mode+0x30>
 801f568:	231d      	movs	r3, #29
 801f56a:	4668      	mov	r0, sp
 801f56c:	f88d 3000 	strb.w	r3, [sp]
 801f570:	f88d 5004 	strb.w	r5, [sp, #4]
 801f574:	f00f fdec 	bl	802f150 <LoRaMacMibSetRequestConfirm>
 801f578:	b940      	cbnz	r0, 801f58c <service_lora_set_pub_nwk_mode+0x36>
 801f57a:	b154      	cbz	r4, 801f592 <service_lora_set_pub_nwk_mode+0x3c>
 801f57c:	4628      	mov	r0, r5
 801f57e:	f002 fdeb 	bl	8022158 <service_nvm_set_pub_nwk_mode_to_nvm>
 801f582:	b00b      	add	sp, #44	; 0x2c
 801f584:	bd30      	pop	{r4, r5, pc}
 801f586:	f06f 0010 	mvn.w	r0, #16
 801f58a:	e7fa      	b.n	801f582 <service_lora_set_pub_nwk_mode+0x2c>
 801f58c:	f06f 0006 	mvn.w	r0, #6
 801f590:	e7f7      	b.n	801f582 <service_lora_set_pub_nwk_mode+0x2c>
 801f592:	4620      	mov	r0, r4
 801f594:	e7f5      	b.n	801f582 <service_lora_set_pub_nwk_mode+0x2c>

0801f596 <service_lora_set_rx1dl>:
 801f596:	b570      	push	{r4, r5, r6, lr}
 801f598:	b08a      	sub	sp, #40	; 0x28
 801f59a:	460c      	mov	r4, r1
 801f59c:	4605      	mov	r5, r0
 801f59e:	f002 fbc7 	bl	8021d30 <service_nvm_get_band_from_nvm>
 801f5a2:	f7ff fef2 	bl	801f38a <service_lora_region_isActive>
 801f5a6:	b300      	cbz	r0, 801f5ea <service_lora_set_rx1dl+0x54>
 801f5a8:	2327      	movs	r3, #39	; 0x27
 801f5aa:	4668      	mov	r0, sp
 801f5ac:	f88d 3000 	strb.w	r3, [sp]
 801f5b0:	9501      	str	r5, [sp, #4]
 801f5b2:	f00f fdcd 	bl	802f150 <LoRaMacMibSetRequestConfirm>
 801f5b6:	b118      	cbz	r0, 801f5c0 <service_lora_set_rx1dl+0x2a>
 801f5b8:	f06f 0006 	mvn.w	r0, #6
 801f5bc:	b00a      	add	sp, #40	; 0x28
 801f5be:	bd70      	pop	{r4, r5, r6, pc}
 801f5c0:	2328      	movs	r3, #40	; 0x28
 801f5c2:	f505 767a 	add.w	r6, r5, #1000	; 0x3e8
 801f5c6:	4668      	mov	r0, sp
 801f5c8:	f88d 3000 	strb.w	r3, [sp]
 801f5cc:	9601      	str	r6, [sp, #4]
 801f5ce:	f00f fdbf 	bl	802f150 <LoRaMacMibSetRequestConfirm>
 801f5d2:	2800      	cmp	r0, #0
 801f5d4:	d1f0      	bne.n	801f5b8 <service_lora_set_rx1dl+0x22>
 801f5d6:	b15c      	cbz	r4, 801f5f0 <service_lora_set_rx1dl+0x5a>
 801f5d8:	4630      	mov	r0, r6
 801f5da:	f002 fde1 	bl	80221a0 <service_nvm_set_rx2dl_to_nvm>
 801f5de:	2800      	cmp	r0, #0
 801f5e0:	d1ec      	bne.n	801f5bc <service_lora_set_rx1dl+0x26>
 801f5e2:	4628      	mov	r0, r5
 801f5e4:	f002 fdca 	bl	802217c <service_nvm_set_rx1dl_to_nvm>
 801f5e8:	e7e8      	b.n	801f5bc <service_lora_set_rx1dl+0x26>
 801f5ea:	f06f 0010 	mvn.w	r0, #16
 801f5ee:	e7e5      	b.n	801f5bc <service_lora_set_rx1dl+0x26>
 801f5f0:	4620      	mov	r0, r4
 801f5f2:	e7e3      	b.n	801f5bc <service_lora_set_rx1dl+0x26>

0801f5f4 <service_lora_set_rx2dl>:
 801f5f4:	b570      	push	{r4, r5, r6, lr}
 801f5f6:	b08a      	sub	sp, #40	; 0x28
 801f5f8:	460c      	mov	r4, r1
 801f5fa:	4605      	mov	r5, r0
 801f5fc:	f002 fb98 	bl	8021d30 <service_nvm_get_band_from_nvm>
 801f600:	f7ff fec3 	bl	801f38a <service_lora_region_isActive>
 801f604:	b300      	cbz	r0, 801f648 <service_lora_set_rx2dl+0x54>
 801f606:	2328      	movs	r3, #40	; 0x28
 801f608:	4668      	mov	r0, sp
 801f60a:	f88d 3000 	strb.w	r3, [sp]
 801f60e:	9501      	str	r5, [sp, #4]
 801f610:	f00f fd9e 	bl	802f150 <LoRaMacMibSetRequestConfirm>
 801f614:	b118      	cbz	r0, 801f61e <service_lora_set_rx2dl+0x2a>
 801f616:	f06f 0006 	mvn.w	r0, #6
 801f61a:	b00a      	add	sp, #40	; 0x28
 801f61c:	bd70      	pop	{r4, r5, r6, pc}
 801f61e:	2327      	movs	r3, #39	; 0x27
 801f620:	f5a5 767a 	sub.w	r6, r5, #1000	; 0x3e8
 801f624:	4668      	mov	r0, sp
 801f626:	f88d 3000 	strb.w	r3, [sp]
 801f62a:	9601      	str	r6, [sp, #4]
 801f62c:	f00f fd90 	bl	802f150 <LoRaMacMibSetRequestConfirm>
 801f630:	2800      	cmp	r0, #0
 801f632:	d1f0      	bne.n	801f616 <service_lora_set_rx2dl+0x22>
 801f634:	b15c      	cbz	r4, 801f64e <service_lora_set_rx2dl+0x5a>
 801f636:	4630      	mov	r0, r6
 801f638:	f002 fda0 	bl	802217c <service_nvm_set_rx1dl_to_nvm>
 801f63c:	2800      	cmp	r0, #0
 801f63e:	d1ec      	bne.n	801f61a <service_lora_set_rx2dl+0x26>
 801f640:	4628      	mov	r0, r5
 801f642:	f002 fdad 	bl	80221a0 <service_nvm_set_rx2dl_to_nvm>
 801f646:	e7e8      	b.n	801f61a <service_lora_set_rx2dl+0x26>
 801f648:	f06f 0010 	mvn.w	r0, #16
 801f64c:	e7e5      	b.n	801f61a <service_lora_set_rx2dl+0x26>
 801f64e:	4620      	mov	r0, r4
 801f650:	e7e3      	b.n	801f61a <service_lora_set_rx2dl+0x26>

0801f652 <service_lora_set_rx2freq>:
 801f652:	b530      	push	{r4, r5, lr}
 801f654:	b08b      	sub	sp, #44	; 0x2c
 801f656:	460c      	mov	r4, r1
 801f658:	4605      	mov	r5, r0
 801f65a:	f002 fb69 	bl	8021d30 <service_nvm_get_band_from_nvm>
 801f65e:	f7ff fe94 	bl	801f38a <service_lora_region_isActive>
 801f662:	b188      	cbz	r0, 801f688 <service_lora_set_rx2freq+0x36>
 801f664:	231f      	movs	r3, #31
 801f666:	4668      	mov	r0, sp
 801f668:	f88d 3000 	strb.w	r3, [sp]
 801f66c:	f00f fc22 	bl	802eeb4 <LoRaMacMibGetRequestConfirm>
 801f670:	b968      	cbnz	r0, 801f68e <service_lora_set_rx2freq+0x3c>
 801f672:	4668      	mov	r0, sp
 801f674:	9501      	str	r5, [sp, #4]
 801f676:	f00f fd6b 	bl	802f150 <LoRaMacMibSetRequestConfirm>
 801f67a:	b958      	cbnz	r0, 801f694 <service_lora_set_rx2freq+0x42>
 801f67c:	b16c      	cbz	r4, 801f69a <service_lora_set_rx2freq+0x48>
 801f67e:	4628      	mov	r0, r5
 801f680:	f002 fd52 	bl	8022128 <service_nvm_set_rx2fq_to_nvm>
 801f684:	b00b      	add	sp, #44	; 0x2c
 801f686:	bd30      	pop	{r4, r5, pc}
 801f688:	f06f 0010 	mvn.w	r0, #16
 801f68c:	e7fa      	b.n	801f684 <service_lora_set_rx2freq+0x32>
 801f68e:	f06f 0006 	mvn.w	r0, #6
 801f692:	e7f7      	b.n	801f684 <service_lora_set_rx2freq+0x32>
 801f694:	f06f 0002 	mvn.w	r0, #2
 801f698:	e7f4      	b.n	801f684 <service_lora_set_rx2freq+0x32>
 801f69a:	4620      	mov	r0, r4
 801f69c:	e7f2      	b.n	801f684 <service_lora_set_rx2freq+0x32>

0801f69e <service_lora_set_rx2dr>:
 801f69e:	b570      	push	{r4, r5, r6, lr}
 801f6a0:	b08a      	sub	sp, #40	; 0x28
 801f6a2:	460c      	mov	r4, r1
 801f6a4:	4605      	mov	r5, r0
 801f6a6:	f002 fb43 	bl	8021d30 <service_nvm_get_band_from_nvm>
 801f6aa:	f7ff fe6e 	bl	801f38a <service_lora_region_isActive>
 801f6ae:	b330      	cbz	r0, 801f6fe <service_lora_set_rx2dr+0x60>
 801f6b0:	261f      	movs	r6, #31
 801f6b2:	4668      	mov	r0, sp
 801f6b4:	f88d 6000 	strb.w	r6, [sp]
 801f6b8:	f00f fbfc 	bl	802eeb4 <LoRaMacMibGetRequestConfirm>
 801f6bc:	b9b8      	cbnz	r0, 801f6ee <service_lora_set_rx2dr+0x50>
 801f6be:	2321      	movs	r3, #33	; 0x21
 801f6c0:	4668      	mov	r0, sp
 801f6c2:	f88d 3000 	strb.w	r3, [sp]
 801f6c6:	f88d 5008 	strb.w	r5, [sp, #8]
 801f6ca:	f00f fd41 	bl	802f150 <LoRaMacMibSetRequestConfirm>
 801f6ce:	4668      	mov	r0, sp
 801f6d0:	f88d 6000 	strb.w	r6, [sp]
 801f6d4:	f88d 5008 	strb.w	r5, [sp, #8]
 801f6d8:	f00f fd3a 	bl	802f150 <LoRaMacMibSetRequestConfirm>
 801f6dc:	b928      	cbnz	r0, 801f6ea <service_lora_set_rx2dr+0x4c>
 801f6de:	b14c      	cbz	r4, 801f6f4 <service_lora_set_rx2dr+0x56>
 801f6e0:	4628      	mov	r0, r5
 801f6e2:	f002 fcf1 	bl	80220c8 <service_nvm_set_rx2dr_to_nvm>
 801f6e6:	b00a      	add	sp, #40	; 0x28
 801f6e8:	bd70      	pop	{r4, r5, r6, pc}
 801f6ea:	2803      	cmp	r0, #3
 801f6ec:	d004      	beq.n	801f6f8 <service_lora_set_rx2dr+0x5a>
 801f6ee:	f06f 0006 	mvn.w	r0, #6
 801f6f2:	e7f8      	b.n	801f6e6 <service_lora_set_rx2dr+0x48>
 801f6f4:	4620      	mov	r0, r4
 801f6f6:	e7f6      	b.n	801f6e6 <service_lora_set_rx2dr+0x48>
 801f6f8:	f06f 0002 	mvn.w	r0, #2
 801f6fc:	e7f3      	b.n	801f6e6 <service_lora_set_rx2dr+0x48>
 801f6fe:	f06f 0010 	mvn.w	r0, #16
 801f702:	e7f0      	b.n	801f6e6 <service_lora_set_rx2dr+0x48>

0801f704 <restore_abp_config>:
 801f704:	e92d 43f0 	stmdb	sp!, {r4, r5, r6, r7, r8, r9, lr}
 801f708:	b08b      	sub	sp, #44	; 0x2c
 801f70a:	2334      	movs	r3, #52	; 0x34
 801f70c:	4668      	mov	r0, sp
 801f70e:	f88d 3000 	strb.w	r3, [sp]
 801f712:	f00f fbcf 	bl	802eeb4 <LoRaMacMibGetRequestConfirm>
 801f716:	9c01      	ldr	r4, [sp, #4]
 801f718:	f002 fe3a 	bl	8022390 <service_nvm_get_crypto_from_nvm>
 801f71c:	4680      	mov	r8, r0
 801f71e:	f002 fe4f 	bl	80223c0 <service_nvm_get_macgroup1_from_nvm>
 801f722:	4607      	mov	r7, r0
 801f724:	f002 fe66 	bl	80223f4 <service_nvm_get_macgroup2_from_nvm>
 801f728:	4606      	mov	r6, r0
 801f72a:	f002 fe7d 	bl	8022428 <service_nvm_get_sec_element_from_nvm>
 801f72e:	4605      	mov	r5, r0
 801f730:	f002 fe94 	bl	802245c <service_nvm_get_regionchannels_from_nvm>
 801f734:	2138      	movs	r1, #56	; 0x38
 801f736:	4681      	mov	r9, r0
 801f738:	4640      	mov	r0, r8
 801f73a:	f7ff fc29 	bl	801ef90 <crc_cal>
 801f73e:	f8d8 3034 	ldr.w	r3, [r8, #52]	; 0x34
 801f742:	4298      	cmp	r0, r3
 801f744:	d104      	bne.n	801f750 <restore_abp_config+0x4c>
 801f746:	2238      	movs	r2, #56	; 0x38
 801f748:	4641      	mov	r1, r8
 801f74a:	4620      	mov	r0, r4
 801f74c:	f01b fed4 	bl	803b4f8 <memcpy>
 801f750:	2120      	movs	r1, #32
 801f752:	4638      	mov	r0, r7
 801f754:	f7ff fc1c 	bl	801ef90 <crc_cal>
 801f758:	69fb      	ldr	r3, [r7, #28]
 801f75a:	4298      	cmp	r0, r3
 801f75c:	d105      	bne.n	801f76a <restore_abp_config+0x66>
 801f75e:	2220      	movs	r2, #32
 801f760:	4639      	mov	r1, r7
 801f762:	f104 0038 	add.w	r0, r4, #56	; 0x38
 801f766:	f01b fec7 	bl	803b4f8 <memcpy>
 801f76a:	f44f 71c2 	mov.w	r1, #388	; 0x184
 801f76e:	4630      	mov	r0, r6
 801f770:	f7ff fc0e 	bl	801ef90 <crc_cal>
 801f774:	f8d6 3180 	ldr.w	r3, [r6, #384]	; 0x180
 801f778:	4298      	cmp	r0, r3
 801f77a:	d106      	bne.n	801f78a <restore_abp_config+0x86>
 801f77c:	f44f 72c2 	mov.w	r2, #388	; 0x184
 801f780:	4631      	mov	r1, r6
 801f782:	f104 0058 	add.w	r0, r4, #88	; 0x58
 801f786:	f01b feb7 	bl	803b4f8 <memcpy>
 801f78a:	f44f 71d0 	mov.w	r1, #416	; 0x1a0
 801f78e:	4628      	mov	r0, r5
 801f790:	f7ff fbfe 	bl	801ef90 <crc_cal>
 801f794:	f8d5 319c 	ldr.w	r3, [r5, #412]	; 0x19c
 801f798:	4298      	cmp	r0, r3
 801f79a:	d106      	bne.n	801f7aa <restore_abp_config+0xa6>
 801f79c:	f44f 72d0 	mov.w	r2, #416	; 0x1a0
 801f7a0:	4629      	mov	r1, r5
 801f7a2:	f504 70ee 	add.w	r0, r4, #476	; 0x1dc
 801f7a6:	f01b fea7 	bl	803b4f8 <memcpy>
 801f7aa:	2300      	movs	r3, #0
 801f7ac:	f109 0204 	add.w	r2, r9, #4
 801f7b0:	f504 7465 	add.w	r4, r4, #916	; 0x394
 801f7b4:	f859 1023 	ldr.w	r1, [r9, r3, lsl #2]
 801f7b8:	b119      	cbz	r1, 801f7c2 <restore_abp_config+0xbe>
 801f7ba:	f852 1023 	ldr.w	r1, [r2, r3, lsl #2]
 801f7be:	f844 1023 	str.w	r1, [r4, r3, lsl #2]
 801f7c2:	3303      	adds	r3, #3
 801f7c4:	f5b3 7f90 	cmp.w	r3, #288	; 0x120
 801f7c8:	d1f4      	bne.n	801f7b4 <restore_abp_config+0xb0>
 801f7ca:	b00b      	add	sp, #44	; 0x2c
 801f7cc:	e8bd 83f0 	ldmia.w	sp!, {r4, r5, r6, r7, r8, r9, pc}

0801f7d0 <service_lora_set_app_skey>:
 801f7d0:	b530      	push	{r4, r5, lr}
 801f7d2:	b08b      	sub	sp, #44	; 0x2c
 801f7d4:	460d      	mov	r5, r1
 801f7d6:	4604      	mov	r4, r0
 801f7d8:	f002 faaa 	bl	8021d30 <service_nvm_get_band_from_nvm>
 801f7dc:	f7ff fdd5 	bl	801f38a <service_lora_region_isActive>
 801f7e0:	b1d0      	cbz	r0, 801f818 <service_lora_set_app_skey+0x48>
 801f7e2:	230f      	movs	r3, #15
 801f7e4:	4668      	mov	r0, sp
 801f7e6:	f88d 3000 	strb.w	r3, [sp]
 801f7ea:	9401      	str	r4, [sp, #4]
 801f7ec:	f00f fcb0 	bl	802f150 <LoRaMacMibSetRequestConfirm>
 801f7f0:	b138      	cbz	r0, 801f802 <service_lora_set_app_skey+0x32>
 801f7f2:	2801      	cmp	r0, #1
 801f7f4:	bf0c      	ite	eq
 801f7f6:	f06f 0005 	mvneq.w	r0, #5
 801f7fa:	f06f 0006 	mvnne.w	r0, #6
 801f7fe:	b00b      	add	sp, #44	; 0x2c
 801f800:	bd30      	pop	{r4, r5, pc}
 801f802:	f002 f877 	bl	80218f4 <service_lora_mac_nvm_data_reset>
 801f806:	f002 f86b 	bl	80218e0 <service_nvm_set_lora_nvm_data_to_nvm>
 801f80a:	f7ff ff7b 	bl	801f704 <restore_abp_config>
 801f80e:	4629      	mov	r1, r5
 801f810:	4620      	mov	r0, r4
 801f812:	f002 fb1b 	bl	8021e4c <service_nvm_set_app_skey_to_nvm>
 801f816:	e7f2      	b.n	801f7fe <service_lora_set_app_skey+0x2e>
 801f818:	f06f 0010 	mvn.w	r0, #16
 801f81c:	e7ef      	b.n	801f7fe <service_lora_set_app_skey+0x2e>

0801f81e <service_lora_set_dev_addr>:
 801f81e:	b530      	push	{r4, r5, lr}
 801f820:	b08b      	sub	sp, #44	; 0x2c
 801f822:	460d      	mov	r5, r1
 801f824:	4604      	mov	r4, r0
 801f826:	f002 fa83 	bl	8021d30 <service_nvm_get_band_from_nvm>
 801f82a:	f7ff fdae 	bl	801f38a <service_lora_region_isActive>
 801f82e:	b1e0      	cbz	r0, 801f86a <service_lora_set_dev_addr+0x4c>
 801f830:	2307      	movs	r3, #7
 801f832:	f88d 3000 	strb.w	r3, [sp]
 801f836:	6823      	ldr	r3, [r4, #0]
 801f838:	4668      	mov	r0, sp
 801f83a:	ba1b      	rev	r3, r3
 801f83c:	9301      	str	r3, [sp, #4]
 801f83e:	f00f fc87 	bl	802f150 <LoRaMacMibSetRequestConfirm>
 801f842:	b138      	cbz	r0, 801f854 <service_lora_set_dev_addr+0x36>
 801f844:	2801      	cmp	r0, #1
 801f846:	bf0c      	ite	eq
 801f848:	f06f 0005 	mvneq.w	r0, #5
 801f84c:	f06f 0006 	mvnne.w	r0, #6
 801f850:	b00b      	add	sp, #44	; 0x2c
 801f852:	bd30      	pop	{r4, r5, pc}
 801f854:	f002 f84e 	bl	80218f4 <service_lora_mac_nvm_data_reset>
 801f858:	f002 f842 	bl	80218e0 <service_nvm_set_lora_nvm_data_to_nvm>
 801f85c:	f7ff ff52 	bl	801f704 <restore_abp_config>
 801f860:	4629      	mov	r1, r5
 801f862:	4620      	mov	r0, r4
 801f864:	f002 fb1a 	bl	8021e9c <service_nvm_set_dev_addr_to_nvm>
 801f868:	e7f2      	b.n	801f850 <service_lora_set_dev_addr+0x32>
 801f86a:	f06f 0010 	mvn.w	r0, #16
 801f86e:	e7ef      	b.n	801f850 <service_lora_set_dev_addr+0x32>

0801f870 <service_lora_set_nwk_skey>:
 801f870:	b530      	push	{r4, r5, lr}
 801f872:	b08b      	sub	sp, #44	; 0x2c
 801f874:	460d      	mov	r5, r1
 801f876:	4604      	mov	r4, r0
 801f878:	f002 fa5a 	bl	8021d30 <service_nvm_get_band_from_nvm>
 801f87c:	f7ff fd85 	bl	801f38a <service_lora_region_isActive>
 801f880:	b360      	cbz	r0, 801f8dc <service_lora_set_nwk_skey+0x6c>
 801f882:	230c      	movs	r3, #12
 801f884:	4668      	mov	r0, sp
 801f886:	f88d 3000 	strb.w	r3, [sp]
 801f88a:	9401      	str	r4, [sp, #4]
 801f88c:	f00f fc60 	bl	802f150 <LoRaMacMibSetRequestConfirm>
 801f890:	b138      	cbz	r0, 801f8a2 <service_lora_set_nwk_skey+0x32>
 801f892:	2801      	cmp	r0, #1
 801f894:	bf0c      	ite	eq
 801f896:	f06f 0005 	mvneq.w	r0, #5
 801f89a:	f06f 0006 	mvnne.w	r0, #6
 801f89e:	b00b      	add	sp, #44	; 0x2c
 801f8a0:	bd30      	pop	{r4, r5, pc}
 801f8a2:	230d      	movs	r3, #13
 801f8a4:	4668      	mov	r0, sp
 801f8a6:	f88d 3000 	strb.w	r3, [sp]
 801f8aa:	9401      	str	r4, [sp, #4]
 801f8ac:	f00f fc50 	bl	802f150 <LoRaMacMibSetRequestConfirm>
 801f8b0:	2800      	cmp	r0, #0
 801f8b2:	d1ee      	bne.n	801f892 <service_lora_set_nwk_skey+0x22>
 801f8b4:	230e      	movs	r3, #14
 801f8b6:	4668      	mov	r0, sp
 801f8b8:	f88d 3000 	strb.w	r3, [sp]
 801f8bc:	9401      	str	r4, [sp, #4]
 801f8be:	f00f fc47 	bl	802f150 <LoRaMacMibSetRequestConfirm>
 801f8c2:	2800      	cmp	r0, #0
 801f8c4:	d1e5      	bne.n	801f892 <service_lora_set_nwk_skey+0x22>
 801f8c6:	f002 f815 	bl	80218f4 <service_lora_mac_nvm_data_reset>
 801f8ca:	f002 f809 	bl	80218e0 <service_nvm_set_lora_nvm_data_to_nvm>
 801f8ce:	f7ff ff19 	bl	801f704 <restore_abp_config>
 801f8d2:	4629      	mov	r1, r5
 801f8d4:	4620      	mov	r0, r4
 801f8d6:	f002 fb59 	bl	8021f8c <service_nvm_set_nwk_skey_to_nvm>
 801f8da:	e7e0      	b.n	801f89e <service_lora_set_nwk_skey+0x2e>
 801f8dc:	f06f 0010 	mvn.w	r0, #16
 801f8e0:	e7dd      	b.n	801f89e <service_lora_set_nwk_skey+0x2e>
	...

0801f8e4 <LmHandlerFuotaPackagesProcess>:
 801f8e4:	b538      	push	{r3, r4, r5, lr}
 801f8e6:	4d0b      	ldr	r5, [pc, #44]	; (801f914 <LmHandlerFuotaPackagesProcess+0x30>)
 801f8e8:	2404      	movs	r4, #4
 801f8ea:	f855 3b04 	ldr.w	r3, [r5], #4
 801f8ee:	b15b      	cbz	r3, 801f908 <LmHandlerFuotaPackagesProcess+0x24>
 801f8f0:	691b      	ldr	r3, [r3, #16]
 801f8f2:	b14b      	cbz	r3, 801f908 <LmHandlerFuotaPackagesProcess+0x24>
 801f8f4:	f855 3c04 	ldr.w	r3, [r5, #-4]
 801f8f8:	689b      	ldr	r3, [r3, #8]
 801f8fa:	b12b      	cbz	r3, 801f908 <LmHandlerFuotaPackagesProcess+0x24>
 801f8fc:	4798      	blx	r3
 801f8fe:	b118      	cbz	r0, 801f908 <LmHandlerFuotaPackagesProcess+0x24>
 801f900:	f855 3c04 	ldr.w	r3, [r5, #-4]
 801f904:	691b      	ldr	r3, [r3, #16]
 801f906:	4798      	blx	r3
 801f908:	3c01      	subs	r4, #1
 801f90a:	f014 04ff 	ands.w	r4, r4, #255	; 0xff
 801f90e:	d1ec      	bne.n	801f8ea <LmHandlerFuotaPackagesProcess+0x6>
 801f910:	bd38      	pop	{r3, r4, r5, pc}
 801f912:	bf00      	nop
 801f914:	200002e8 	.word	0x200002e8

0801f918 <service_fuota_nvm_init>:
 801f918:	4a02      	ldr	r2, [pc, #8]	; (801f924 <service_fuota_nvm_init+0xc>)
 801f91a:	4803      	ldr	r0, [pc, #12]	; (801f928 <service_fuota_nvm_init+0x10>)
 801f91c:	f44f 7125 	mov.w	r1, #660	; 0x294
 801f920:	f001 bd54 	b.w	80213cc <udrv_flash_read>
 801f924:	20004220 	.word	0x20004220
 801f928:	0803f000 	.word	0x0803f000

0801f92c <service_lora_fuota_join>:
 801f92c:	b510      	push	{r4, lr}
 801f92e:	b090      	sub	sp, #64	; 0x40
 801f930:	2401      	movs	r4, #1
 801f932:	f88d 4004 	strb.w	r4, [sp, #4]
 801f936:	f002 fbaf 	bl	8022098 <service_nvm_get_dr_from_nvm>
 801f93a:	2302      	movs	r3, #2
 801f93c:	f88d 0009 	strb.w	r0, [sp, #9]
 801f940:	a801      	add	r0, sp, #4
 801f942:	f88d 3008 	strb.w	r3, [sp, #8]
 801f946:	f010 f8fd 	bl	802fb44 <LoRaMacMlmeRequest>
 801f94a:	b960      	cbnz	r0, 801f966 <service_lora_fuota_join+0x3a>
 801f94c:	2334      	movs	r3, #52	; 0x34
 801f94e:	a806      	add	r0, sp, #24
 801f950:	f88d 3018 	strb.w	r3, [sp, #24]
 801f954:	f00f faae 	bl	802eeb4 <LoRaMacMibGetRequestConfirm>
 801f958:	9b07      	ldr	r3, [sp, #28]
 801f95a:	8898      	ldrh	r0, [r3, #4]
 801f95c:	f7ff fcf9 	bl	801f352 <service_lora_set_DevNonce>
 801f960:	4620      	mov	r0, r4
 801f962:	b010      	add	sp, #64	; 0x40
 801f964:	bd10      	pop	{r4, pc}
 801f966:	2000      	movs	r0, #0
 801f968:	e7fb      	b.n	801f962 <service_lora_fuota_join+0x36>

0801f96a <service_lora_fuota_get_band>:
 801f96a:	b508      	push	{r3, lr}
 801f96c:	f002 f9e0 	bl	8021d30 <service_nvm_get_band_from_nvm>
 801f970:	b128      	cbz	r0, 801f97e <service_lora_fuota_get_band+0x14>
 801f972:	f1a0 0314 	sub.w	r3, r0, #20
 801f976:	b2db      	uxtb	r3, r3
 801f978:	2b02      	cmp	r3, #2
 801f97a:	bf98      	it	ls
 801f97c:	2000      	movls	r0, #0
 801f97e:	bd08      	pop	{r3, pc}

0801f980 <service_fuota_lora_config>:
 801f980:	b570      	push	{r4, r5, r6, lr}
 801f982:	b092      	sub	sp, #72	; 0x48
 801f984:	2335      	movs	r3, #53	; 0x35
 801f986:	f88d 3020 	strb.w	r3, [sp, #32]
 801f98a:	a808      	add	r0, sp, #32
 801f98c:	4b7b      	ldr	r3, [pc, #492]	; (801fb7c <service_fuota_lora_config+0x1fc>)
 801f98e:	9309      	str	r3, [sp, #36]	; 0x24
 801f990:	f00f fbde 	bl	802f150 <LoRaMacMibSetRequestConfirm>
 801f994:	4604      	mov	r4, r0
 801f996:	2800      	cmp	r0, #0
 801f998:	f040 80d7 	bne.w	801fb4a <service_fuota_lora_config+0x1ca>
 801f99c:	f7ff ffe5 	bl	801f96a <service_lora_fuota_get_band>
 801f9a0:	ad01      	add	r5, sp, #4
 801f9a2:	2805      	cmp	r0, #5
 801f9a4:	e9c5 4401 	strd	r4, r4, [r5, #4]
 801f9a8:	9401      	str	r4, [sp, #4]
 801f9aa:	d106      	bne.n	801f9ba <service_fuota_lora_config+0x3a>
 801f9ac:	f002 fd8e 	bl	80224cc <service_nvm_get_chs_from_nvm>
 801f9b0:	2800      	cmp	r0, #0
 801f9b2:	d152      	bne.n	801fa5a <service_fuota_lora_config+0xda>
 801f9b4:	2307      	movs	r3, #7
 801f9b6:	f8ad 3004 	strh.w	r3, [sp, #4]
 801f9ba:	2301      	movs	r3, #1
 801f9bc:	a808      	add	r0, sp, #32
 801f9be:	f88d 3020 	strb.w	r3, [sp, #32]
 801f9c2:	f00f fa77 	bl	802eeb4 <LoRaMacMibGetRequestConfirm>
 801f9c6:	b928      	cbnz	r0, 801f9d4 <service_fuota_lora_config+0x54>
 801f9c8:	f89d 3024 	ldrb.w	r3, [sp, #36]	; 0x24
 801f9cc:	2b01      	cmp	r3, #1
 801f9ce:	bf08      	it	eq
 801f9d0:	f88d 0024 	strbeq.w	r0, [sp, #36]	; 0x24
 801f9d4:	ac04      	add	r4, sp, #16
 801f9d6:	a808      	add	r0, sp, #32
 801f9d8:	f00f fbba 	bl	802f150 <LoRaMacMibSetRequestConfirm>
 801f9dc:	2108      	movs	r1, #8
 801f9de:	4620      	mov	r0, r4
 801f9e0:	f002 fa76 	bl	8021ed0 <service_nvm_get_dev_eui_from_nvm>
 801f9e4:	2302      	movs	r3, #2
 801f9e6:	a808      	add	r0, sp, #32
 801f9e8:	f88d 3020 	strb.w	r3, [sp, #32]
 801f9ec:	9409      	str	r4, [sp, #36]	; 0x24
 801f9ee:	f00f fbaf 	bl	802f150 <LoRaMacMibSetRequestConfirm>
 801f9f2:	2800      	cmp	r0, #0
 801f9f4:	f040 80b2 	bne.w	801fb5c <service_fuota_lora_config+0x1dc>
 801f9f8:	2108      	movs	r1, #8
 801f9fa:	4620      	mov	r0, r4
 801f9fc:	f002 f9c8 	bl	8021d90 <service_nvm_get_app_eui_from_nvm>
 801fa00:	2303      	movs	r3, #3
 801fa02:	a808      	add	r0, sp, #32
 801fa04:	f88d 3020 	strb.w	r3, [sp, #32]
 801fa08:	9409      	str	r4, [sp, #36]	; 0x24
 801fa0a:	f00f fba1 	bl	802f150 <LoRaMacMibSetRequestConfirm>
 801fa0e:	2800      	cmp	r0, #0
 801fa10:	f040 80a7 	bne.w	801fb62 <service_fuota_lora_config+0x1e2>
 801fa14:	2110      	movs	r1, #16
 801fa16:	4620      	mov	r0, r4
 801fa18:	f002 f9e2 	bl	8021de0 <service_nvm_get_app_key_from_nvm>
 801fa1c:	2308      	movs	r3, #8
 801fa1e:	a808      	add	r0, sp, #32
 801fa20:	f88d 3020 	strb.w	r3, [sp, #32]
 801fa24:	9409      	str	r4, [sp, #36]	; 0x24
 801fa26:	f00f fb93 	bl	802f150 <LoRaMacMibSetRequestConfirm>
 801fa2a:	2800      	cmp	r0, #0
 801fa2c:	f040 809c 	bne.w	801fb68 <service_fuota_lora_config+0x1e8>
 801fa30:	2309      	movs	r3, #9
 801fa32:	a808      	add	r0, sp, #32
 801fa34:	9409      	str	r4, [sp, #36]	; 0x24
 801fa36:	f88d 3020 	strb.w	r3, [sp, #32]
 801fa3a:	f00f fb89 	bl	802f150 <LoRaMacMibSetRequestConfirm>
 801fa3e:	4604      	mov	r4, r0
 801fa40:	2800      	cmp	r0, #0
 801fa42:	f040 8094 	bne.w	801fb6e <service_fuota_lora_config+0x1ee>
 801fa46:	f000 fa24 	bl	801fe92 <service_lora_setup_multicast>
 801fa4a:	f88d 4020 	strb.w	r4, [sp, #32]
 801fa4e:	f002 fb11 	bl	8022074 <service_nvm_get_class_from_nvm>
 801fa52:	bb78      	cbnz	r0, 801fab4 <service_fuota_lora_config+0x134>
 801fa54:	f88d 0024 	strb.w	r0, [sp, #36]	; 0x24
 801fa58:	e034      	b.n	801fac4 <service_fuota_lora_config+0x144>
 801fa5a:	231e      	movs	r3, #30
 801fa5c:	a808      	add	r0, sp, #32
 801fa5e:	f88d 3020 	strb.w	r3, [sp, #32]
 801fa62:	f00f fa27 	bl	802eeb4 <LoRaMacMibGetRequestConfirm>
 801fa66:	260c      	movs	r6, #12
 801fa68:	f7ff fc7d 	bl	801f366 <service_lora_get_chs>
 801fa6c:	9a09      	ldr	r2, [sp, #36]	; 0x24
 801fa6e:	fb06 f304 	mul.w	r3, r6, r4
 801fa72:	58d3      	ldr	r3, [r2, r3]
 801fa74:	4298      	cmp	r0, r3
 801fa76:	d119      	bne.n	801faac <service_fuota_lora_config+0x12c>
 801fa78:	2001      	movs	r0, #1
 801fa7a:	fa00 f404 	lsl.w	r4, r0, r4
 801fa7e:	2323      	movs	r3, #35	; 0x23
 801fa80:	a808      	add	r0, sp, #32
 801fa82:	f8ad 4004 	strh.w	r4, [sp, #4]
 801fa86:	f88d 3020 	strb.w	r3, [sp, #32]
 801fa8a:	9509      	str	r5, [sp, #36]	; 0x24
 801fa8c:	f00f fb60 	bl	802f150 <LoRaMacMibSetRequestConfirm>
 801fa90:	2800      	cmp	r0, #0
 801fa92:	d15d      	bne.n	801fb50 <service_fuota_lora_config+0x1d0>
 801fa94:	2324      	movs	r3, #36	; 0x24
 801fa96:	a808      	add	r0, sp, #32
 801fa98:	f88d 3020 	strb.w	r3, [sp, #32]
 801fa9c:	9509      	str	r5, [sp, #36]	; 0x24
 801fa9e:	f00f fb57 	bl	802f150 <LoRaMacMibSetRequestConfirm>
 801faa2:	2800      	cmp	r0, #0
 801faa4:	d089      	beq.n	801f9ba <service_fuota_lora_config+0x3a>
 801faa6:	f06f 0003 	mvn.w	r0, #3
 801faaa:	e04c      	b.n	801fb46 <service_fuota_lora_config+0x1c6>
 801faac:	2c03      	cmp	r4, #3
 801faae:	d052      	beq.n	801fb56 <service_fuota_lora_config+0x1d6>
 801fab0:	3401      	adds	r4, #1
 801fab2:	e7d9      	b.n	801fa68 <service_fuota_lora_config+0xe8>
 801fab4:	f002 fade 	bl	8022074 <service_nvm_get_class_from_nvm>
 801fab8:	2801      	cmp	r0, #1
 801faba:	d0cb      	beq.n	801fa54 <service_fuota_lora_config+0xd4>
 801fabc:	f002 fada 	bl	8022074 <service_nvm_get_class_from_nvm>
 801fac0:	2802      	cmp	r0, #2
 801fac2:	d0c7      	beq.n	801fa54 <service_fuota_lora_config+0xd4>
 801fac4:	a808      	add	r0, sp, #32
 801fac6:	f00f fb43 	bl	802f150 <LoRaMacMibSetRequestConfirm>
 801faca:	4604      	mov	r4, r0
 801facc:	2800      	cmp	r0, #0
 801face:	d151      	bne.n	801fb74 <service_fuota_lora_config+0x1f4>
 801fad0:	f002 fabe 	bl	8022050 <service_nvm_get_adr_from_nvm>
 801fad4:	4621      	mov	r1, r4
 801fad6:	f7ff fcda 	bl	801f48e <service_lora_set_adr>
 801fada:	f002 faef 	bl	80220bc <service_nvm_get_rx2dr_from_nvm>
 801fade:	4621      	mov	r1, r4
 801fae0:	f7ff fddd 	bl	801f69e <service_lora_set_rx2dr>
 801fae4:	f002 fb2c 	bl	8022140 <service_nvm_get_rx2fq_from_nvm>
 801fae8:	4621      	mov	r1, r4
 801faea:	f7ff fdb2 	bl	801f652 <service_lora_set_rx2freq>
 801faee:	f002 faf7 	bl	80220e0 <service_nvm_get_jn1dl_from_nvm>
 801faf2:	4621      	mov	r1, r4
 801faf4:	f7ff fcf1 	bl	801f4da <service_lora_set_jn1dl>
 801faf8:	f002 fb28 	bl	802214c <service_nvm_get_pub_nwk_mode_from_nvm>
 801fafc:	4621      	mov	r1, r4
 801fafe:	f7ff fd2a 	bl	801f556 <service_lora_set_pub_nwk_mode>
 801fb02:	f002 fb35 	bl	8022170 <service_nvm_get_rx1dl_from_nvm>
 801fb06:	4621      	mov	r1, r4
 801fb08:	f7ff fd45 	bl	801f596 <service_lora_set_rx1dl>
 801fb0c:	f002 fdf8 	bl	8022700 <service_nvm_get_dcs_from_nvm>
 801fb10:	f010 ffb0 	bl	8030a74 <LoRaMacTestSetDutyCycleOn>
 801fb14:	2334      	movs	r3, #52	; 0x34
 801fb16:	a808      	add	r0, sp, #32
 801fb18:	f88d 3020 	strb.w	r3, [sp, #32]
 801fb1c:	f00f f9ca 	bl	802eeb4 <LoRaMacMibGetRequestConfirm>
 801fb20:	9c09      	ldr	r4, [sp, #36]	; 0x24
 801fb22:	f002 fbfd 	bl	8022320 <service_nvm_get_DevNonce_from_nvm>
 801fb26:	80a0      	strh	r0, [r4, #4]
 801fb28:	f002 fc18 	bl	802235c <service_nvm_get_IsCertPortOn_from_nvm>
 801fb2c:	3800      	subs	r0, #0
 801fb2e:	bf18      	it	ne
 801fb30:	2001      	movne	r0, #1
 801fb32:	2330      	movs	r3, #48	; 0x30
 801fb34:	f884 01af 	strb.w	r0, [r4, #431]	; 0x1af
 801fb38:	f88d 3020 	strb.w	r3, [sp, #32]
 801fb3c:	a808      	add	r0, sp, #32
 801fb3e:	2319      	movs	r3, #25
 801fb40:	9309      	str	r3, [sp, #36]	; 0x24
 801fb42:	f00f fb05 	bl	802f150 <LoRaMacMibSetRequestConfirm>
 801fb46:	b012      	add	sp, #72	; 0x48
 801fb48:	bd70      	pop	{r4, r5, r6, pc}
 801fb4a:	f04f 30ff 	mov.w	r0, #4294967295	; 0xffffffff
 801fb4e:	e7fa      	b.n	801fb46 <service_fuota_lora_config+0x1c6>
 801fb50:	f06f 0002 	mvn.w	r0, #2
 801fb54:	e7f7      	b.n	801fb46 <service_fuota_lora_config+0x1c6>
 801fb56:	f06f 0001 	mvn.w	r0, #1
 801fb5a:	e7f4      	b.n	801fb46 <service_fuota_lora_config+0x1c6>
 801fb5c:	f06f 0004 	mvn.w	r0, #4
 801fb60:	e7f1      	b.n	801fb46 <service_fuota_lora_config+0x1c6>
 801fb62:	f06f 0005 	mvn.w	r0, #5
 801fb66:	e7ee      	b.n	801fb46 <service_fuota_lora_config+0x1c6>
 801fb68:	f06f 0006 	mvn.w	r0, #6
 801fb6c:	e7eb      	b.n	801fb46 <service_fuota_lora_config+0x1c6>
 801fb6e:	f06f 0007 	mvn.w	r0, #7
 801fb72:	e7e8      	b.n	801fb46 <service_fuota_lora_config+0x1c6>
 801fb74:	f06f 0008 	mvn.w	r0, #8
 801fb78:	e7e5      	b.n	801fb46 <service_fuota_lora_config+0x1c6>
 801fb7a:	bf00      	nop
 801fb7c:	01000400 	.word	0x01000400

0801fb80 <LmHandlerSend>:
 801fb80:	b530      	push	{r4, r5, lr}
 801fb82:	b08d      	sub	sp, #52	; 0x34
 801fb84:	460d      	mov	r5, r1
 801fb86:	4604      	mov	r4, r0
 801fb88:	f002 fa86 	bl	8022098 <service_nvm_get_dr_from_nvm>
 801fb8c:	3d00      	subs	r5, #0
 801fb8e:	bf18      	it	ne
 801fb90:	2501      	movne	r5, #1
 801fb92:	f88d 0016 	strb.w	r0, [sp, #22]
 801fb96:	a901      	add	r1, sp, #4
 801fb98:	7860      	ldrb	r0, [r4, #1]
 801fb9a:	f88d 5008 	strb.w	r5, [sp, #8]
 801fb9e:	f00f f929 	bl	802edf4 <LoRaMacQueryTxPossible>
 801fba2:	b1a0      	cbz	r0, 801fbce <LmHandlerSend+0x4e>
 801fba4:	2300      	movs	r3, #0
 801fba6:	f88d 3008 	strb.w	r3, [sp, #8]
 801fbaa:	9304      	str	r3, [sp, #16]
 801fbac:	f8ad 3014 	strh.w	r3, [sp, #20]
 801fbb0:	2309      	movs	r3, #9
 801fbb2:	a807      	add	r0, sp, #28
 801fbb4:	f88d 301c 	strb.w	r3, [sp, #28]
 801fbb8:	f00f ffc4 	bl	802fb44 <LoRaMacMlmeRequest>
 801fbbc:	a802      	add	r0, sp, #8
 801fbbe:	f010 fe95 	bl	80308ec <LoRaMacMcpsRequest>
 801fbc2:	3800      	subs	r0, #0
 801fbc4:	bf18      	it	ne
 801fbc6:	2001      	movne	r0, #1
 801fbc8:	4240      	negs	r0, r0
 801fbca:	b00d      	add	sp, #52	; 0x34
 801fbcc:	bd30      	pop	{r4, r5, pc}
 801fbce:	7823      	ldrb	r3, [r4, #0]
 801fbd0:	f88d 300c 	strb.w	r3, [sp, #12]
 801fbd4:	7863      	ldrb	r3, [r4, #1]
 801fbd6:	f8ad 3014 	strh.w	r3, [sp, #20]
 801fbda:	6863      	ldr	r3, [r4, #4]
 801fbdc:	9304      	str	r3, [sp, #16]
 801fbde:	e7e7      	b.n	801fbb0 <LmHandlerSend+0x30>

0801fbe0 <service_lora_addmulc>:
 801fbe0:	b084      	sub	sp, #16
 801fbe2:	b5f0      	push	{r4, r5, r6, r7, lr}
 801fbe4:	b08b      	sub	sp, #44	; 0x2c
 801fbe6:	ac10      	add	r4, sp, #64	; 0x40
 801fbe8:	e884 000f 	stmia.w	r4, {r0, r1, r2, r3}
 801fbec:	4d68      	ldr	r5, [pc, #416]	; (801fd90 <service_lora_addmulc+0x1b0>)
 801fbee:	2300      	movs	r3, #0
 801fbf0:	f88d 3003 	strb.w	r3, [sp, #3]
 801fbf4:	460a      	mov	r2, r1
 801fbf6:	eb05 0183 	add.w	r1, r5, r3, lsl #2
 801fbfa:	6849      	ldr	r1, [r1, #4]
 801fbfc:	428a      	cmp	r2, r1
 801fbfe:	f000 80c4 	beq.w	801fd8a <service_lora_addmulc+0x1aa>
 801fc02:	330d      	adds	r3, #13
 801fc04:	2b34      	cmp	r3, #52	; 0x34
 801fc06:	d1f6      	bne.n	801fbf6 <service_lora_addmulc+0x16>
 801fc08:	4b61      	ldr	r3, [pc, #388]	; (801fd90 <service_lora_addmulc+0x1b0>)
 801fc0a:	2400      	movs	r4, #0
 801fc0c:	6858      	ldr	r0, [r3, #4]
 801fc0e:	b2e6      	uxtb	r6, r4
 801fc10:	2800      	cmp	r0, #0
 801fc12:	f040 80af 	bne.w	801fd74 <service_lora_addmulc+0x194>
 801fc16:	ab10      	add	r3, sp, #64	; 0x40
 801fc18:	f44f 7780 	mov.w	r7, #256	; 0x100
 801fc1c:	f813 1b08 	ldrb.w	r1, [r3], #8
 801fc20:	f88d 4070 	strb.w	r4, [sp, #112]	; 0x70
 801fc24:	e9cd 2302 	strd	r2, r3, [sp, #8]
 801fc28:	ab16      	add	r3, sp, #88	; 0x58
 801fc2a:	e9cd 3004 	strd	r3, r0, [sp, #16]
 801fc2e:	2902      	cmp	r1, #2
 801fc30:	f64f 73ff 	movw	r3, #65535	; 0xffff
 801fc34:	9306      	str	r3, [sp, #24]
 801fc36:	f88d 101c 	strb.w	r1, [sp, #28]
 801fc3a:	9b1a      	ldr	r3, [sp, #104]	; 0x68
 801fc3c:	f8ad 7004 	strh.w	r7, [sp, #4]
 801fc40:	f88d 6006 	strb.w	r6, [sp, #6]
 801fc44:	d159      	bne.n	801fcfa <service_lora_addmulc+0x11a>
 801fc46:	b363      	cbz	r3, 801fca2 <service_lora_addmulc+0xc2>
 801fc48:	9308      	str	r3, [sp, #32]
 801fc4a:	f89d 306c 	ldrb.w	r3, [sp, #108]	; 0x6c
 801fc4e:	f88d 3024 	strb.w	r3, [sp, #36]	; 0x24
 801fc52:	a801      	add	r0, sp, #4
 801fc54:	f00f fe08 	bl	802f868 <LoRaMacMcChannelSetup>
 801fc58:	2800      	cmp	r0, #0
 801fc5a:	f040 8096 	bne.w	801fd8a <service_lora_addmulc+0x1aa>
 801fc5e:	f89d 0006 	ldrb.w	r0, [sp, #6]
 801fc62:	f10d 0203 	add.w	r2, sp, #3
 801fc66:	a907      	add	r1, sp, #28
 801fc68:	f00f feba 	bl	802f9e0 <LoRaMacMcChannelSetupRxParams>
 801fc6c:	f89d 3003 	ldrb.w	r3, [sp, #3]
 801fc70:	f023 0303 	bic.w	r3, r3, #3
 801fc74:	4318      	orrs	r0, r3
 801fc76:	b2c0      	uxtb	r0, r0
 801fc78:	2800      	cmp	r0, #0
 801fc7a:	f040 8086 	bne.w	801fd8a <service_lora_addmulc+0x1aa>
 801fc7e:	2234      	movs	r2, #52	; 0x34
 801fc80:	a910      	add	r1, sp, #64	; 0x40
 801fc82:	fb02 5004 	mla	r0, r2, r4, r5
 801fc86:	f01b fc37 	bl	803b4f8 <memcpy>
 801fc8a:	4841      	ldr	r0, [pc, #260]	; (801fd90 <service_lora_addmulc+0x1b0>)
 801fc8c:	f002 fbee 	bl	802246c <service_nvm_set_multicast_to_nvm>
 801fc90:	2800      	cmp	r0, #0
 801fc92:	bf18      	it	ne
 801fc94:	f06f 0006 	mvnne.w	r0, #6
 801fc98:	b00b      	add	sp, #44	; 0x2c
 801fc9a:	e8bd 40f0 	ldmia.w	sp!, {r4, r5, r6, r7, lr}
 801fc9e:	b004      	add	sp, #16
 801fca0:	4770      	bx	lr
 801fca2:	f7ff fb5e 	bl	801f362 <service_lora_get_band>
 801fca6:	280a      	cmp	r0, #10
 801fca8:	d86f      	bhi.n	801fd8a <service_lora_addmulc+0x1aa>
 801fcaa:	e8df f000 	tbb	[pc, r0]
 801fcae:	0a06      	.short	0x0a06
 801fcb0:	1e1c1a16 	.word	0x1e1c1a16
 801fcb4:	240a2220 	.word	0x240a2220
 801fcb8:	0a          	.byte	0x0a
 801fcb9:	00          	.byte	0x00
 801fcba:	4b36      	ldr	r3, [pc, #216]	; (801fd94 <service_lora_addmulc+0x1b4>)
 801fcbc:	9308      	str	r3, [sp, #32]
 801fcbe:	2302      	movs	r3, #2
 801fcc0:	e002      	b.n	801fcc8 <service_lora_addmulc+0xe8>
 801fcc2:	4b35      	ldr	r3, [pc, #212]	; (801fd98 <service_lora_addmulc+0x1b8>)
 801fcc4:	9308      	str	r3, [sp, #32]
 801fcc6:	2308      	movs	r3, #8
 801fcc8:	f88d 3024 	strb.w	r3, [sp, #36]	; 0x24
 801fccc:	9b08      	ldr	r3, [sp, #32]
 801fcce:	931a      	str	r3, [sp, #104]	; 0x68
 801fcd0:	f89d 3024 	ldrb.w	r3, [sp, #36]	; 0x24
 801fcd4:	f88d 306c 	strb.w	r3, [sp, #108]	; 0x6c
 801fcd8:	e7bb      	b.n	801fc52 <service_lora_addmulc+0x72>
 801fcda:	4b30      	ldr	r3, [pc, #192]	; (801fd9c <service_lora_addmulc+0x1bc>)
 801fcdc:	9308      	str	r3, [sp, #32]
 801fcde:	2300      	movs	r3, #0
 801fce0:	e7f2      	b.n	801fcc8 <service_lora_addmulc+0xe8>
 801fce2:	4b2f      	ldr	r3, [pc, #188]	; (801fda0 <service_lora_addmulc+0x1c0>)
 801fce4:	e7fa      	b.n	801fcdc <service_lora_addmulc+0xfc>
 801fce6:	4b2f      	ldr	r3, [pc, #188]	; (801fda4 <service_lora_addmulc+0x1c4>)
 801fce8:	e7f8      	b.n	801fcdc <service_lora_addmulc+0xfc>
 801fcea:	4b2f      	ldr	r3, [pc, #188]	; (801fda8 <service_lora_addmulc+0x1c8>)
 801fcec:	e7f6      	b.n	801fcdc <service_lora_addmulc+0xfc>
 801fcee:	4b2f      	ldr	r3, [pc, #188]	; (801fdac <service_lora_addmulc+0x1cc>)
 801fcf0:	e7f4      	b.n	801fcdc <service_lora_addmulc+0xfc>
 801fcf2:	4b2f      	ldr	r3, [pc, #188]	; (801fdb0 <service_lora_addmulc+0x1d0>)
 801fcf4:	e7e2      	b.n	801fcbc <service_lora_addmulc+0xdc>
 801fcf6:	4b2f      	ldr	r3, [pc, #188]	; (801fdb4 <service_lora_addmulc+0x1d4>)
 801fcf8:	e7f0      	b.n	801fcdc <service_lora_addmulc+0xfc>
 801fcfa:	b14b      	cbz	r3, 801fd10 <service_lora_addmulc+0x130>
 801fcfc:	9308      	str	r3, [sp, #32]
 801fcfe:	f89d 306c 	ldrb.w	r3, [sp, #108]	; 0x6c
 801fd02:	f88d 3024 	strb.w	r3, [sp, #36]	; 0x24
 801fd06:	f8bd 306e 	ldrh.w	r3, [sp, #110]	; 0x6e
 801fd0a:	f8ad 3026 	strh.w	r3, [sp, #38]	; 0x26
 801fd0e:	e7a0      	b.n	801fc52 <service_lora_addmulc+0x72>
 801fd10:	f7ff fb27 	bl	801f362 <service_lora_get_band>
 801fd14:	280a      	cmp	r0, #10
 801fd16:	d838      	bhi.n	801fd8a <service_lora_addmulc+0x1aa>
 801fd18:	e8df f000 	tbb	[pc, r0]
 801fd1c:	1a160a06 	.word	0x1a160a06
 801fd20:	22201e1c 	.word	0x22201e1c
 801fd24:	260a      	.short	0x260a
 801fd26:	28          	.byte	0x28
 801fd27:	00          	.byte	0x00
 801fd28:	4b23      	ldr	r3, [pc, #140]	; (801fdb8 <service_lora_addmulc+0x1d8>)
 801fd2a:	9308      	str	r3, [sp, #32]
 801fd2c:	2303      	movs	r3, #3
 801fd2e:	e002      	b.n	801fd36 <service_lora_addmulc+0x156>
 801fd30:	4b19      	ldr	r3, [pc, #100]	; (801fd98 <service_lora_addmulc+0x1b8>)
 801fd32:	9308      	str	r3, [sp, #32]
 801fd34:	2308      	movs	r3, #8
 801fd36:	f88d 3024 	strb.w	r3, [sp, #36]	; 0x24
 801fd3a:	9b08      	ldr	r3, [sp, #32]
 801fd3c:	931a      	str	r3, [sp, #104]	; 0x68
 801fd3e:	f89d 3024 	ldrb.w	r3, [sp, #36]	; 0x24
 801fd42:	f88d 306c 	strb.w	r3, [sp, #108]	; 0x6c
 801fd46:	e7de      	b.n	801fd06 <service_lora_addmulc+0x126>
 801fd48:	4b1c      	ldr	r3, [pc, #112]	; (801fdbc <service_lora_addmulc+0x1dc>)
 801fd4a:	9308      	str	r3, [sp, #32]
 801fd4c:	2302      	movs	r3, #2
 801fd4e:	e7f2      	b.n	801fd36 <service_lora_addmulc+0x156>
 801fd50:	4b1b      	ldr	r3, [pc, #108]	; (801fdc0 <service_lora_addmulc+0x1e0>)
 801fd52:	e7ea      	b.n	801fd2a <service_lora_addmulc+0x14a>
 801fd54:	4b13      	ldr	r3, [pc, #76]	; (801fda4 <service_lora_addmulc+0x1c4>)
 801fd56:	e7e8      	b.n	801fd2a <service_lora_addmulc+0x14a>
 801fd58:	4b13      	ldr	r3, [pc, #76]	; (801fda8 <service_lora_addmulc+0x1c8>)
 801fd5a:	e7e6      	b.n	801fd2a <service_lora_addmulc+0x14a>
 801fd5c:	4b19      	ldr	r3, [pc, #100]	; (801fdc4 <service_lora_addmulc+0x1e4>)
 801fd5e:	e7e4      	b.n	801fd2a <service_lora_addmulc+0x14a>
 801fd60:	4b13      	ldr	r3, [pc, #76]	; (801fdb0 <service_lora_addmulc+0x1d0>)
 801fd62:	9308      	str	r3, [sp, #32]
 801fd64:	2304      	movs	r3, #4
 801fd66:	e7e6      	b.n	801fd36 <service_lora_addmulc+0x156>
 801fd68:	4b17      	ldr	r3, [pc, #92]	; (801fdc8 <service_lora_addmulc+0x1e8>)
 801fd6a:	e7de      	b.n	801fd2a <service_lora_addmulc+0x14a>
 801fd6c:	4b0a      	ldr	r3, [pc, #40]	; (801fd98 <service_lora_addmulc+0x1b8>)
 801fd6e:	9308      	str	r3, [sp, #32]
 801fd70:	230a      	movs	r3, #10
 801fd72:	e7e0      	b.n	801fd36 <service_lora_addmulc+0x156>
 801fd74:	3401      	adds	r4, #1
 801fd76:	2c04      	cmp	r4, #4
 801fd78:	f103 0334 	add.w	r3, r3, #52	; 0x34
 801fd7c:	f47f af46 	bne.w	801fc0c <service_lora_addmulc+0x2c>
 801fd80:	4812      	ldr	r0, [pc, #72]	; (801fdcc <service_lora_addmulc+0x1ec>)
 801fd82:	2234      	movs	r2, #52	; 0x34
 801fd84:	2100      	movs	r1, #0
 801fd86:	f01b fbc5 	bl	803b514 <memset>
 801fd8a:	f06f 000f 	mvn.w	r0, #15
 801fd8e:	e783      	b.n	801fc98 <service_lora_addmulc+0xb8>
 801fd90:	200002f8 	.word	0x200002f8
 801fd94:	3706ea00 	.word	0x3706ea00
 801fd98:	370870a0 	.word	0x370870a0
 801fd9c:	1e1e4420 	.word	0x1e1e4420
 801fda0:	2ed96880 	.word	0x2ed96880
 801fda4:	19e87628 	.word	0x19e87628
 801fda8:	33d3e608 	.word	0x33d3e608
 801fdac:	36f313e0 	.word	0x36f313e0
 801fdb0:	33a680f0 	.word	0x33a680f0
 801fdb4:	33cd69e0 	.word	0x33cd69e0
 801fdb8:	3709f740 	.word	0x3709f740
 801fdbc:	1d7f9320 	.word	0x1d7f9320
 801fdc0:	2eca2640 	.word	0x2eca2640
 801fdc4:	37056360 	.word	0x37056360
 801fdc8:	052dd610 	.word	0x052dd610
 801fdcc:	200003c8 	.word	0x200003c8

0801fdd0 <service_lora_rmvmulc>:
 801fdd0:	4a10      	ldr	r2, [pc, #64]	; (801fe14 <service_lora_rmvmulc+0x44>)
 801fdd2:	b538      	push	{r3, r4, r5, lr}
 801fdd4:	2300      	movs	r3, #0
 801fdd6:	4614      	mov	r4, r2
 801fdd8:	6851      	ldr	r1, [r2, #4]
 801fdda:	4281      	cmp	r1, r0
 801fddc:	d113      	bne.n	801fe06 <service_lora_rmvmulc+0x36>
 801fdde:	2534      	movs	r5, #52	; 0x34
 801fde0:	fb05 4403 	mla	r4, r5, r3, r4
 801fde4:	f894 0030 	ldrb.w	r0, [r4, #48]	; 0x30
 801fde8:	f00f fdb8 	bl	802f95c <LoRaMacMcChannelDelete>
 801fdec:	4601      	mov	r1, r0
 801fdee:	b938      	cbnz	r0, 801fe00 <service_lora_rmvmulc+0x30>
 801fdf0:	462a      	mov	r2, r5
 801fdf2:	4620      	mov	r0, r4
 801fdf4:	f01b fb8e 	bl	803b514 <memset>
 801fdf8:	4806      	ldr	r0, [pc, #24]	; (801fe14 <service_lora_rmvmulc+0x44>)
 801fdfa:	f002 fb37 	bl	802246c <service_nvm_set_multicast_to_nvm>
 801fdfe:	b108      	cbz	r0, 801fe04 <service_lora_rmvmulc+0x34>
 801fe00:	f06f 0006 	mvn.w	r0, #6
 801fe04:	bd38      	pop	{r3, r4, r5, pc}
 801fe06:	3301      	adds	r3, #1
 801fe08:	2b04      	cmp	r3, #4
 801fe0a:	f102 0234 	add.w	r2, r2, #52	; 0x34
 801fe0e:	d1e3      	bne.n	801fdd8 <service_lora_rmvmulc+0x8>
 801fe10:	e7f6      	b.n	801fe00 <service_lora_rmvmulc+0x30>
 801fe12:	bf00      	nop
 801fe14:	200002f8 	.word	0x200002f8

0801fe18 <service_lora_lstmulc>:
 801fe18:	b5f0      	push	{r4, r5, r6, r7, lr}
 801fe1a:	b08f      	sub	sp, #60	; 0x3c
 801fe1c:	4e1b      	ldr	r6, [pc, #108]	; (801fe8c <service_lora_lstmulc+0x74>)
 801fe1e:	4605      	mov	r5, r0
 801fe20:	2234      	movs	r2, #52	; 0x34
 801fe22:	2100      	movs	r1, #0
 801fe24:	a801      	add	r0, sp, #4
 801fe26:	f01b fb75 	bl	803b514 <memset>
 801fe2a:	2301      	movs	r3, #1
 801fe2c:	f886 3031 	strb.w	r3, [r6, #49]	; 0x31
 801fe30:	2302      	movs	r3, #2
 801fe32:	f886 3065 	strb.w	r3, [r6, #101]	; 0x65
 801fe36:	2303      	movs	r3, #3
 801fe38:	f886 3099 	strb.w	r3, [r6, #153]	; 0x99
 801fe3c:	2304      	movs	r3, #4
 801fe3e:	2234      	movs	r2, #52	; 0x34
 801fe40:	eb0d 0103 	add.w	r1, sp, r3
 801fe44:	4628      	mov	r0, r5
 801fe46:	f886 30cd 	strb.w	r3, [r6, #205]	; 0xcd
 801fe4a:	f01b fb45 	bl	803b4d8 <memcmp>
 801fe4e:	b940      	cbnz	r0, 801fe62 <service_lora_lstmulc+0x4a>
 801fe50:	490e      	ldr	r1, [pc, #56]	; (801fe8c <service_lora_lstmulc+0x74>)
 801fe52:	2234      	movs	r2, #52	; 0x34
 801fe54:	4628      	mov	r0, r5
 801fe56:	f01b fb4f 	bl	803b4f8 <memcpy>
 801fe5a:	f06f 000d 	mvn.w	r0, #13
 801fe5e:	b00f      	add	sp, #60	; 0x3c
 801fe60:	bdf0      	pop	{r4, r5, r6, r7, pc}
 801fe62:	4637      	mov	r7, r6
 801fe64:	2400      	movs	r4, #0
 801fe66:	2234      	movs	r2, #52	; 0x34
 801fe68:	4639      	mov	r1, r7
 801fe6a:	4628      	mov	r0, r5
 801fe6c:	f01b fb34 	bl	803b4d8 <memcmp>
 801fe70:	b930      	cbnz	r0, 801fe80 <service_lora_lstmulc+0x68>
 801fe72:	2c03      	cmp	r4, #3
 801fe74:	d0f3      	beq.n	801fe5e <service_lora_lstmulc+0x46>
 801fe76:	2234      	movs	r2, #52	; 0x34
 801fe78:	fb04 2102 	mla	r1, r4, r2, r2
 801fe7c:	4431      	add	r1, r6
 801fe7e:	e7e9      	b.n	801fe54 <service_lora_lstmulc+0x3c>
 801fe80:	3401      	adds	r4, #1
 801fe82:	2c04      	cmp	r4, #4
 801fe84:	f107 0734 	add.w	r7, r7, #52	; 0x34
 801fe88:	d1ed      	bne.n	801fe66 <service_lora_lstmulc+0x4e>
 801fe8a:	e7e1      	b.n	801fe50 <service_lora_lstmulc+0x38>
 801fe8c:	200002f8 	.word	0x200002f8

0801fe90 <MulticastMcpsIndication>:
 801fe90:	4770      	bx	lr

0801fe92 <service_lora_setup_multicast>:
 801fe92:	e92d 43f0 	stmdb	sp!, {r4, r5, r6, r7, r8, r9, lr}
 801fe96:	b0bf      	sub	sp, #252	; 0xfc
 801fe98:	f002 fae4 	bl	8022464 <service_nvm_get_multicast_from_nvm>
 801fe9c:	22d0      	movs	r2, #208	; 0xd0
 801fe9e:	4601      	mov	r1, r0
 801fea0:	a80a      	add	r0, sp, #40	; 0x28
 801fea2:	f01b fb29 	bl	803b4f8 <memcpy>
 801fea6:	ae0a      	add	r6, sp, #40	; 0x28
 801fea8:	f04f 0800 	mov.w	r8, #0
 801feac:	f04f 0934 	mov.w	r9, #52	; 0x34
 801feb0:	6873      	ldr	r3, [r6, #4]
 801feb2:	b953      	cbnz	r3, 801feca <service_lora_setup_multicast+0x38>
 801feb4:	f108 0801 	add.w	r8, r8, #1
 801feb8:	f1b8 0f04 	cmp.w	r8, #4
 801febc:	f106 0634 	add.w	r6, r6, #52	; 0x34
 801fec0:	d1f6      	bne.n	801feb0 <service_lora_setup_multicast+0x1e>
 801fec2:	2000      	movs	r0, #0
 801fec4:	b03f      	add	sp, #252	; 0xfc
 801fec6:	e8bd 83f0 	ldmia.w	sp!, {r4, r5, r6, r7, r8, r9, pc}
 801feca:	ab3e      	add	r3, sp, #248	; 0xf8
 801fecc:	fb09 3408 	mla	r4, r9, r8, r3
 801fed0:	f1a4 07d0 	sub.w	r7, r4, #208	; 0xd0
 801fed4:	3cc0      	subs	r4, #192	; 0xc0
 801fed6:	cc0f      	ldmia	r4!, {r0, r1, r2, r3}
 801fed8:	466d      	mov	r5, sp
 801feda:	c50f      	stmia	r5!, {r0, r1, r2, r3}
 801fedc:	cc0f      	ldmia	r4!, {r0, r1, r2, r3}
 801fede:	c50f      	stmia	r5!, {r0, r1, r2, r3}
 801fee0:	6823      	ldr	r3, [r4, #0]
 801fee2:	602b      	str	r3, [r5, #0]
 801fee4:	e897 000f 	ldmia.w	r7, {r0, r1, r2, r3}
 801fee8:	f7ff fe7a 	bl	801fbe0 <service_lora_addmulc>
 801feec:	2800      	cmp	r0, #0
 801feee:	d0e1      	beq.n	801feb4 <service_lora_setup_multicast+0x22>
 801fef0:	f06f 0006 	mvn.w	r0, #6
 801fef4:	e7e6      	b.n	801fec4 <service_lora_setup_multicast+0x32>
	...

0801fef8 <service_lora_clear_multicast>:
 801fef8:	b538      	push	{r3, r4, r5, lr}
 801fefa:	4d09      	ldr	r5, [pc, #36]	; (801ff20 <service_lora_clear_multicast+0x28>)
 801fefc:	2400      	movs	r4, #0
 801fefe:	eb05 0384 	add.w	r3, r5, r4, lsl #2
 801ff02:	6858      	ldr	r0, [r3, #4]
 801ff04:	b920      	cbnz	r0, 801ff10 <service_lora_clear_multicast+0x18>
 801ff06:	340d      	adds	r4, #13
 801ff08:	2c34      	cmp	r4, #52	; 0x34
 801ff0a:	d1f8      	bne.n	801fefe <service_lora_clear_multicast+0x6>
 801ff0c:	2000      	movs	r0, #0
 801ff0e:	bd38      	pop	{r3, r4, r5, pc}
 801ff10:	f7ff ff5e 	bl	801fdd0 <service_lora_rmvmulc>
 801ff14:	2800      	cmp	r0, #0
 801ff16:	d0f6      	beq.n	801ff06 <service_lora_clear_multicast+0xe>
 801ff18:	f06f 0006 	mvn.w	r0, #6
 801ff1c:	e7f7      	b.n	801ff0e <service_lora_clear_multicast+0x16>
 801ff1e:	bf00      	nop
 801ff20:	200002f8 	.word	0x200002f8

0801ff24 <OnClassChangeNotify>:
 801ff24:	4b02      	ldr	r3, [pc, #8]	; (801ff30 <OnClassChangeNotify+0xc>)
 801ff26:	681b      	ldr	r3, [r3, #0]
 801ff28:	6adb      	ldr	r3, [r3, #44]	; 0x2c
 801ff2a:	b103      	cbz	r3, 801ff2e <OnClassChangeNotify+0xa>
 801ff2c:	4718      	bx	r3
 801ff2e:	4770      	bx	lr
 801ff30:	200003cc 	.word	0x200003cc

0801ff34 <LmHandlerPackageIsTxPending>:
 801ff34:	b570      	push	{r4, r5, r6, lr}
 801ff36:	4e11      	ldr	r6, [pc, #68]	; (801ff7c <LmHandlerPackageIsTxPending+0x48>)
 801ff38:	2404      	movs	r4, #4
 801ff3a:	f856 5b04 	ldr.w	r5, [r6], #4
 801ff3e:	b92d      	cbnz	r5, 801ff4c <LmHandlerPackageIsTxPending+0x18>
 801ff40:	3c01      	subs	r4, #1
 801ff42:	f014 04ff 	ands.w	r4, r4, #255	; 0xff
 801ff46:	d1f8      	bne.n	801ff3a <LmHandlerPackageIsTxPending+0x6>
 801ff48:	4620      	mov	r0, r4
 801ff4a:	bd70      	pop	{r4, r5, r6, pc}
 801ff4c:	f000 fa82 	bl	8020454 <LmphClockSyncPackageFactory>
 801ff50:	4285      	cmp	r5, r0
 801ff52:	d1f5      	bne.n	801ff40 <LmHandlerPackageIsTxPending+0xc>
 801ff54:	f856 5c04 	ldr.w	r5, [r6, #-4]
 801ff58:	f000 fd24 	bl	80209a4 <LmhpRemoteMcastSetupPackageFactory>
 801ff5c:	4285      	cmp	r5, r0
 801ff5e:	d1ef      	bne.n	801ff40 <LmHandlerPackageIsTxPending+0xc>
 801ff60:	f856 5c04 	ldr.w	r5, [r6, #-4]
 801ff64:	f000 ff42 	bl	8020dec <LmhpFragmentationPackageFactory>
 801ff68:	4285      	cmp	r5, r0
 801ff6a:	d1e9      	bne.n	801ff40 <LmHandlerPackageIsTxPending+0xc>
 801ff6c:	f856 3c04 	ldr.w	r3, [r6, #-4]
 801ff70:	68db      	ldr	r3, [r3, #12]
 801ff72:	4798      	blx	r3
 801ff74:	2800      	cmp	r0, #0
 801ff76:	d0e3      	beq.n	801ff40 <LmHandlerPackageIsTxPending+0xc>
 801ff78:	e7e7      	b.n	801ff4a <LmHandlerPackageIsTxPending+0x16>
 801ff7a:	bf00      	nop
 801ff7c:	200003d0 	.word	0x200003d0

0801ff80 <LmHandlerInit>:
 801ff80:	4b02      	ldr	r3, [pc, #8]	; (801ff8c <LmHandlerInit+0xc>)
 801ff82:	6019      	str	r1, [r3, #0]
 801ff84:	4b02      	ldr	r3, [pc, #8]	; (801ff90 <LmHandlerInit+0x10>)
 801ff86:	6018      	str	r0, [r3, #0]
 801ff88:	4770      	bx	lr
 801ff8a:	bf00      	nop
 801ff8c:	200003e0 	.word	0x200003e0
 801ff90:	200003cc 	.word	0x200003cc

0801ff94 <LmHandlerIsBusy>:
 801ff94:	b508      	push	{r3, lr}
 801ff96:	f00e f941 	bl	802e21c <LoRaMacIsBusy>
 801ff9a:	b918      	cbnz	r0, 801ffa4 <LmHandlerIsBusy+0x10>
 801ff9c:	e8bd 4008 	ldmia.w	sp!, {r3, lr}
 801ffa0:	f7ff bfc8 	b.w	801ff34 <LmHandlerPackageIsTxPending>
 801ffa4:	bd08      	pop	{r3, pc}
	...

0801ffa8 <LmHandlerJoin>:
 801ffa8:	b57f      	push	{r0, r1, r2, r3, r4, r5, r6, lr}
 801ffaa:	4810      	ldr	r0, [pc, #64]	; (801ffec <LmHandlerJoin+0x44>)
 801ffac:	4b10      	ldr	r3, [pc, #64]	; (801fff0 <LmHandlerJoin+0x48>)
 801ffae:	6800      	ldr	r0, [r0, #0]
 801ffb0:	7819      	ldrb	r1, [r3, #0]
 801ffb2:	78c0      	ldrb	r0, [r0, #3]
 801ffb4:	f88d 0009 	strb.w	r0, [sp, #9]
 801ffb8:	2201      	movs	r2, #1
 801ffba:	f88d 2004 	strb.w	r2, [sp, #4]
 801ffbe:	b181      	cbz	r1, 801ffe2 <LmHandlerJoin+0x3a>
 801ffc0:	2102      	movs	r1, #2
 801ffc2:	f88d 1008 	strb.w	r1, [sp, #8]
 801ffc6:	701a      	strb	r2, [r3, #0]
 801ffc8:	a801      	add	r0, sp, #4
 801ffca:	f00f fdbb 	bl	802fb44 <LoRaMacMlmeRequest>
 801ffce:	4b09      	ldr	r3, [pc, #36]	; (801fff4 <LmHandlerJoin+0x4c>)
 801ffd0:	681b      	ldr	r3, [r3, #0]
 801ffd2:	69db      	ldr	r3, [r3, #28]
 801ffd4:	b113      	cbz	r3, 801ffdc <LmHandlerJoin+0x34>
 801ffd6:	9a05      	ldr	r2, [sp, #20]
 801ffd8:	a901      	add	r1, sp, #4
 801ffda:	4798      	blx	r3
 801ffdc:	b007      	add	sp, #28
 801ffde:	f85d fb04 	ldr.w	pc, [sp], #4
 801ffe2:	f88d 2008 	strb.w	r2, [sp, #8]
 801ffe6:	7019      	strb	r1, [r3, #0]
 801ffe8:	e7ee      	b.n	801ffc8 <LmHandlerJoin+0x20>
 801ffea:	bf00      	nop
 801ffec:	200003e0 	.word	0x200003e0
 801fff0:	20000000 	.word	0x20000000
 801fff4:	200003cc 	.word	0x200003cc

0801fff8 <LmHandlerJoinStatus>:
 801fff8:	b500      	push	{lr}
 801fffa:	b08b      	sub	sp, #44	; 0x2c
 801fffc:	2301      	movs	r3, #1
 801fffe:	4668      	mov	r0, sp
 8020000:	f88d 3000 	strb.w	r3, [sp]
 8020004:	f00e ff56 	bl	802eeb4 <LoRaMacMibGetRequestConfirm>
 8020008:	b938      	cbnz	r0, 802001a <LmHandlerJoinStatus+0x22>
 802000a:	f89d 0004 	ldrb.w	r0, [sp, #4]
 802000e:	3800      	subs	r0, #0
 8020010:	bf18      	it	ne
 8020012:	2001      	movne	r0, #1
 8020014:	b00b      	add	sp, #44	; 0x2c
 8020016:	f85d fb04 	ldr.w	pc, [sp], #4
 802001a:	2000      	movs	r0, #0
 802001c:	e7fa      	b.n	8020014 <LmHandlerJoinStatus+0x1c>
	...

08020020 <LmHandlerDeviceTimeReq>:
 8020020:	b510      	push	{r4, lr}
 8020022:	b086      	sub	sp, #24
 8020024:	2309      	movs	r3, #9
 8020026:	a801      	add	r0, sp, #4
 8020028:	f88d 3004 	strb.w	r3, [sp, #4]
 802002c:	f00f fd8a 	bl	802fb44 <LoRaMacMlmeRequest>
 8020030:	4b06      	ldr	r3, [pc, #24]	; (802004c <LmHandlerDeviceTimeReq+0x2c>)
 8020032:	681b      	ldr	r3, [r3, #0]
 8020034:	69db      	ldr	r3, [r3, #28]
 8020036:	4604      	mov	r4, r0
 8020038:	b113      	cbz	r3, 8020040 <LmHandlerDeviceTimeReq+0x20>
 802003a:	9a05      	ldr	r2, [sp, #20]
 802003c:	a901      	add	r1, sp, #4
 802003e:	4798      	blx	r3
 8020040:	1e20      	subs	r0, r4, #0
 8020042:	bf18      	it	ne
 8020044:	2001      	movne	r0, #1
 8020046:	4240      	negs	r0, r0
 8020048:	b006      	add	sp, #24
 802004a:	bd10      	pop	{r4, pc}
 802004c:	200003cc 	.word	0x200003cc

08020050 <LmHandlerPingSlotReq>:
 8020050:	b510      	push	{r4, lr}
 8020052:	b088      	sub	sp, #32
 8020054:	230c      	movs	r3, #12
 8020056:	f000 0007 	and.w	r0, r0, #7
 802005a:	f88d 0010 	strb.w	r0, [sp, #16]
 802005e:	eb0d 0003 	add.w	r0, sp, r3
 8020062:	f88d 300c 	strb.w	r3, [sp, #12]
 8020066:	f00f fd6d 	bl	802fb44 <LoRaMacMlmeRequest>
 802006a:	4b0b      	ldr	r3, [pc, #44]	; (8020098 <LmHandlerPingSlotReq+0x48>)
 802006c:	681b      	ldr	r3, [r3, #0]
 802006e:	69db      	ldr	r3, [r3, #28]
 8020070:	4604      	mov	r4, r0
 8020072:	b113      	cbz	r3, 802007a <LmHandlerPingSlotReq+0x2a>
 8020074:	9a07      	ldr	r2, [sp, #28]
 8020076:	a903      	add	r1, sp, #12
 8020078:	4798      	blx	r3
 802007a:	b954      	cbnz	r4, 8020092 <LmHandlerPingSlotReq+0x42>
 802007c:	4b07      	ldr	r3, [pc, #28]	; (802009c <LmHandlerPingSlotReq+0x4c>)
 802007e:	9402      	str	r4, [sp, #8]
 8020080:	681b      	ldr	r3, [r3, #0]
 8020082:	f8ad 4004 	strh.w	r4, [sp, #4]
 8020086:	7899      	ldrb	r1, [r3, #2]
 8020088:	a801      	add	r0, sp, #4
 802008a:	f7ff fd79 	bl	801fb80 <LmHandlerSend>
 802008e:	b008      	add	sp, #32
 8020090:	bd10      	pop	{r4, pc}
 8020092:	f04f 30ff 	mov.w	r0, #4294967295	; 0xffffffff
 8020096:	e7fa      	b.n	802008e <LmHandlerPingSlotReq+0x3e>
 8020098:	200003cc 	.word	0x200003cc
 802009c:	200003e0 	.word	0x200003e0

080200a0 <LmHandlerRequestClass>:
 80200a0:	b570      	push	{r4, r5, r6, lr}
 80200a2:	b08a      	sub	sp, #40	; 0x28
 80200a4:	4605      	mov	r5, r0
 80200a6:	2600      	movs	r6, #0
 80200a8:	4668      	mov	r0, sp
 80200aa:	f88d 6000 	strb.w	r6, [sp]
 80200ae:	f00e ff01 	bl	802eeb4 <LoRaMacMibGetRequestConfirm>
 80200b2:	f89d 4004 	ldrb.w	r4, [sp, #4]
 80200b6:	42ac      	cmp	r4, r5
 80200b8:	d024      	beq.n	8020104 <LmHandlerRequestClass+0x64>
 80200ba:	2d01      	cmp	r5, #1
 80200bc:	d00f      	beq.n	80200de <LmHandlerRequestClass+0x3e>
 80200be:	2d02      	cmp	r5, #2
 80200c0:	d011      	beq.n	80200e6 <LmHandlerRequestClass+0x46>
 80200c2:	b9fd      	cbnz	r5, 8020104 <LmHandlerRequestClass+0x64>
 80200c4:	b144      	cbz	r4, 80200d8 <LmHandlerRequestClass+0x38>
 80200c6:	4668      	mov	r0, sp
 80200c8:	f88d 5004 	strb.w	r5, [sp, #4]
 80200cc:	f00f f840 	bl	802f150 <LoRaMacMibSetRequestConfirm>
 80200d0:	4604      	mov	r4, r0
 80200d2:	b1a0      	cbz	r0, 80200fe <LmHandlerRequestClass+0x5e>
 80200d4:	f04f 34ff 	mov.w	r4, #4294967295	; 0xffffffff
 80200d8:	4620      	mov	r0, r4
 80200da:	b00a      	add	sp, #40	; 0x28
 80200dc:	bd70      	pop	{r4, r5, r6, pc}
 80200de:	f7ff ff9f 	bl	8020020 <LmHandlerDeviceTimeReq>
 80200e2:	4604      	mov	r4, r0
 80200e4:	e7f8      	b.n	80200d8 <LmHandlerRequestClass+0x38>
 80200e6:	3c00      	subs	r4, #0
 80200e8:	bf18      	it	ne
 80200ea:	2401      	movne	r4, #1
 80200ec:	4668      	mov	r0, sp
 80200ee:	4264      	negs	r4, r4
 80200f0:	f88d 5004 	strb.w	r5, [sp, #4]
 80200f4:	f00f f82c 	bl	802f150 <LoRaMacMibSetRequestConfirm>
 80200f8:	2800      	cmp	r0, #0
 80200fa:	d1eb      	bne.n	80200d4 <LmHandlerRequestClass+0x34>
 80200fc:	4628      	mov	r0, r5
 80200fe:	f7ff ff11 	bl	801ff24 <OnClassChangeNotify>
 8020102:	e7e9      	b.n	80200d8 <LmHandlerRequestClass+0x38>
 8020104:	4634      	mov	r4, r6
 8020106:	e7e7      	b.n	80200d8 <LmHandlerRequestClass+0x38>

08020108 <LmHandlerGetCurrentClass>:
 8020108:	b500      	push	{lr}
 802010a:	b08b      	sub	sp, #44	; 0x2c
 802010c:	2300      	movs	r3, #0
 802010e:	4668      	mov	r0, sp
 8020110:	f88d 3000 	strb.w	r3, [sp]
 8020114:	f00e fece 	bl	802eeb4 <LoRaMacMibGetRequestConfirm>
 8020118:	f89d 0004 	ldrb.w	r0, [sp, #4]
 802011c:	b00b      	add	sp, #44	; 0x2c
 802011e:	f85d fb04 	ldr.w	pc, [sp], #4

08020122 <LmHandlerGetCurrentDatarate>:
 8020122:	b500      	push	{lr}
 8020124:	b08b      	sub	sp, #44	; 0x2c
 8020126:	232d      	movs	r3, #45	; 0x2d
 8020128:	4668      	mov	r0, sp
 802012a:	f88d 3000 	strb.w	r3, [sp]
 802012e:	f00e fec1 	bl	802eeb4 <LoRaMacMibGetRequestConfirm>
 8020132:	f99d 0004 	ldrsb.w	r0, [sp, #4]
 8020136:	b00b      	add	sp, #44	; 0x2c
 8020138:	f85d fb04 	ldr.w	pc, [sp], #4

0802013c <LmHandlerGetActiveRegion>:
 802013c:	4b01      	ldr	r3, [pc, #4]	; (8020144 <LmHandlerGetActiveRegion+0x8>)
 802013e:	681b      	ldr	r3, [r3, #0]
 8020140:	7818      	ldrb	r0, [r3, #0]
 8020142:	4770      	bx	lr
 8020144:	200003e0 	.word	0x200003e0

08020148 <LmHandlerSetSystemMaxRxError>:
 8020148:	b500      	push	{lr}
 802014a:	b08b      	sub	sp, #44	; 0x2c
 802014c:	2330      	movs	r3, #48	; 0x30
 802014e:	9001      	str	r0, [sp, #4]
 8020150:	4668      	mov	r0, sp
 8020152:	f88d 3000 	strb.w	r3, [sp]
 8020156:	f00e fffb 	bl	802f150 <LoRaMacMibSetRequestConfirm>
 802015a:	3800      	subs	r0, #0
 802015c:	bf18      	it	ne
 802015e:	2001      	movne	r0, #1
 8020160:	4240      	negs	r0, r0
 8020162:	b00b      	add	sp, #44	; 0x2c
 8020164:	f85d fb04 	ldr.w	pc, [sp], #4

08020168 <LmHandlerPackageIsInitialized>:
 8020168:	4b03      	ldr	r3, [pc, #12]	; (8020178 <LmHandlerPackageIsInitialized+0x10>)
 802016a:	f853 3020 	ldr.w	r3, [r3, r0, lsl #2]
 802016e:	6898      	ldr	r0, [r3, #8]
 8020170:	b100      	cbz	r0, 8020174 <LmHandlerPackageIsInitialized+0xc>
 8020172:	4700      	bx	r0
 8020174:	4770      	bx	lr
 8020176:	bf00      	nop
 8020178:	200003d0 	.word	0x200003d0

0802017c <LmHandlerPackagesNotify>:
 802017c:	b5f8      	push	{r3, r4, r5, r6, r7, lr}
 802017e:	4f0e      	ldr	r7, [pc, #56]	; (80201b8 <LmHandlerPackagesNotify+0x3c>)
 8020180:	4606      	mov	r6, r0
 8020182:	460c      	mov	r4, r1
 8020184:	2504      	movs	r5, #4
 8020186:	f857 3b04 	ldr.w	r3, [r7], #4
 802018a:	b14b      	cbz	r3, 80201a0 <LmHandlerPackagesNotify+0x24>
 802018c:	2e03      	cmp	r6, #3
 802018e:	d807      	bhi.n	80201a0 <LmHandlerPackagesNotify+0x24>
 8020190:	e8df f006 	tbb	[pc, r6]
 8020194:	0f0d0b02 	.word	0x0f0d0b02
 8020198:	695b      	ldr	r3, [r3, #20]
 802019a:	b10b      	cbz	r3, 80201a0 <LmHandlerPackagesNotify+0x24>
 802019c:	4620      	mov	r0, r4
 802019e:	4798      	blx	r3
 80201a0:	3d01      	subs	r5, #1
 80201a2:	f015 05ff 	ands.w	r5, r5, #255	; 0xff
 80201a6:	d1ee      	bne.n	8020186 <LmHandlerPackagesNotify+0xa>
 80201a8:	bdf8      	pop	{r3, r4, r5, r6, r7, pc}
 80201aa:	699b      	ldr	r3, [r3, #24]
 80201ac:	e7f5      	b.n	802019a <LmHandlerPackagesNotify+0x1e>
 80201ae:	69db      	ldr	r3, [r3, #28]
 80201b0:	e7f3      	b.n	802019a <LmHandlerPackagesNotify+0x1e>
 80201b2:	6a1b      	ldr	r3, [r3, #32]
 80201b4:	e7f1      	b.n	802019a <LmHandlerPackagesNotify+0x1e>
 80201b6:	bf00      	nop
 80201b8:	200003d0 	.word	0x200003d0

080201bc <LmHandlerPackagesProcess>:
 80201bc:	b538      	push	{r3, r4, r5, lr}
 80201be:	4d0b      	ldr	r5, [pc, #44]	; (80201ec <LmHandlerPackagesProcess+0x30>)
 80201c0:	2400      	movs	r4, #0
 80201c2:	f855 3b04 	ldr.w	r3, [r5], #4
 80201c6:	b2e4      	uxtb	r4, r4
 80201c8:	b14b      	cbz	r3, 80201de <LmHandlerPackagesProcess+0x22>
 80201ca:	691b      	ldr	r3, [r3, #16]
 80201cc:	b13b      	cbz	r3, 80201de <LmHandlerPackagesProcess+0x22>
 80201ce:	4620      	mov	r0, r4
 80201d0:	f7ff ffca 	bl	8020168 <LmHandlerPackageIsInitialized>
 80201d4:	b118      	cbz	r0, 80201de <LmHandlerPackagesProcess+0x22>
 80201d6:	f855 3c04 	ldr.w	r3, [r5, #-4]
 80201da:	691b      	ldr	r3, [r3, #16]
 80201dc:	4798      	blx	r3
 80201de:	3401      	adds	r4, #1
 80201e0:	b2e3      	uxtb	r3, r4
 80201e2:	2b04      	cmp	r3, #4
 80201e4:	b264      	sxtb	r4, r4
 80201e6:	d1ec      	bne.n	80201c2 <LmHandlerPackagesProcess+0x6>
 80201e8:	bd38      	pop	{r3, r4, r5, pc}
 80201ea:	bf00      	nop
 80201ec:	200003d0 	.word	0x200003d0

080201f0 <LmHandlerProcess>:
 80201f0:	4b11      	ldr	r3, [pc, #68]	; (8020238 <LmHandlerProcess+0x48>)
 80201f2:	6e1b      	ldr	r3, [r3, #96]	; 0x60
 80201f4:	b513      	push	{r0, r1, r4, lr}
 80201f6:	b103      	cbz	r3, 80201fa <LmHandlerProcess+0xa>
 80201f8:	4798      	blx	r3
 80201fa:	f00f fdb7 	bl	802fd6c <LoRaMacProcess>
 80201fe:	4b0f      	ldr	r3, [pc, #60]	; (802023c <LmHandlerProcess+0x4c>)
 8020200:	681b      	ldr	r3, [r3, #0]
 8020202:	691b      	ldr	r3, [r3, #16]
 8020204:	b113      	cbz	r3, 802020c <LmHandlerProcess+0x1c>
 8020206:	2100      	movs	r1, #0
 8020208:	2001      	movs	r0, #1
 802020a:	4798      	blx	r3
 802020c:	f7ff ffd6 	bl	80201bc <LmHandlerPackagesProcess>
 8020210:	f7ff fe90 	bl	801ff34 <LmHandlerPackageIsTxPending>
 8020214:	b968      	cbnz	r0, 8020232 <LmHandlerProcess+0x42>
 8020216:	4c0a      	ldr	r4, [pc, #40]	; (8020240 <LmHandlerProcess+0x50>)
 8020218:	7823      	ldrb	r3, [r4, #0]
 802021a:	b153      	cbz	r3, 8020232 <LmHandlerProcess+0x42>
 802021c:	4b09      	ldr	r3, [pc, #36]	; (8020244 <LmHandlerProcess+0x54>)
 802021e:	9001      	str	r0, [sp, #4]
 8020220:	681b      	ldr	r3, [r3, #0]
 8020222:	f8ad 0000 	strh.w	r0, [sp]
 8020226:	7899      	ldrb	r1, [r3, #2]
 8020228:	4668      	mov	r0, sp
 802022a:	f7ff fca9 	bl	801fb80 <LmHandlerSend>
 802022e:	b900      	cbnz	r0, 8020232 <LmHandlerProcess+0x42>
 8020230:	7020      	strb	r0, [r4, #0]
 8020232:	b002      	add	sp, #8
 8020234:	bd10      	pop	{r4, pc}
 8020236:	bf00      	nop
 8020238:	0803b9c0 	.word	0x0803b9c0
 802023c:	200003cc 	.word	0x200003cc
 8020240:	200003c8 	.word	0x200003c8
 8020244:	200003e0 	.word	0x200003e0

08020248 <LmHandlerFuotaStackPackageRegister>:
 8020248:	2802      	cmp	r0, #2
 802024a:	b510      	push	{r4, lr}
 802024c:	4604      	mov	r4, r0
 802024e:	d00b      	beq.n	8020268 <LmHandlerFuotaStackPackageRegister+0x20>
 8020250:	2803      	cmp	r0, #3
 8020252:	d00c      	beq.n	802026e <LmHandlerFuotaStackPackageRegister+0x26>
 8020254:	2801      	cmp	r0, #1
 8020256:	d10d      	bne.n	8020274 <LmHandlerFuotaStackPackageRegister+0x2c>
 8020258:	f000 f8fc 	bl	8020454 <LmphClockSyncPackageFactory>
 802025c:	b150      	cbz	r0, 8020274 <LmHandlerFuotaStackPackageRegister+0x2c>
 802025e:	4b07      	ldr	r3, [pc, #28]	; (802027c <LmHandlerFuotaStackPackageRegister+0x34>)
 8020260:	f843 0024 	str.w	r0, [r3, r4, lsl #2]
 8020264:	2000      	movs	r0, #0
 8020266:	bd10      	pop	{r4, pc}
 8020268:	f000 fb9c 	bl	80209a4 <LmhpRemoteMcastSetupPackageFactory>
 802026c:	e7f6      	b.n	802025c <LmHandlerFuotaStackPackageRegister+0x14>
 802026e:	f000 fdbd 	bl	8020dec <LmhpFragmentationPackageFactory>
 8020272:	e7f3      	b.n	802025c <LmHandlerFuotaStackPackageRegister+0x14>
 8020274:	f04f 30ff 	mov.w	r0, #4294967295	; 0xffffffff
 8020278:	e7f5      	b.n	8020266 <LmHandlerFuotaStackPackageRegister+0x1e>
 802027a:	bf00      	nop
 802027c:	200003d0 	.word	0x200003d0

08020280 <LmhpClockSyncInit>:
 8020280:	4b05      	ldr	r3, [pc, #20]	; (8020298 <LmhpClockSyncInit+0x18>)
 8020282:	b131      	cbz	r1, 8020292 <LmhpClockSyncInit+0x12>
 8020284:	709a      	strb	r2, [r3, #2]
 8020286:	2201      	movs	r2, #1
 8020288:	6059      	str	r1, [r3, #4]
 802028a:	701a      	strb	r2, [r3, #0]
 802028c:	2200      	movs	r2, #0
 802028e:	705a      	strb	r2, [r3, #1]
 8020290:	4770      	bx	lr
 8020292:	7019      	strb	r1, [r3, #0]
 8020294:	e7fa      	b.n	802028c <LmhpClockSyncInit+0xc>
 8020296:	bf00      	nop
 8020298:	200003e4 	.word	0x200003e4

0802029c <LmhpClockSyncIsInitialized>:
 802029c:	4b01      	ldr	r3, [pc, #4]	; (80202a4 <LmhpClockSyncIsInitialized+0x8>)
 802029e:	7818      	ldrb	r0, [r3, #0]
 80202a0:	4770      	bx	lr
 80202a2:	bf00      	nop
 80202a4:	200003e4 	.word	0x200003e4

080202a8 <LmhpClockSyncIsTxPending>:
 80202a8:	4b01      	ldr	r3, [pc, #4]	; (80202b0 <LmhpClockSyncIsTxPending+0x8>)
 80202aa:	7858      	ldrb	r0, [r3, #1]
 80202ac:	4770      	bx	lr
 80202ae:	bf00      	nop
 80202b0:	200003e4 	.word	0x200003e4

080202b4 <LmhpClockSyncOnMcpsIndication>:
 80202b4:	e92d 4ff7 	stmdb	sp!, {r0, r1, r2, r4, r5, r6, r7, r8, r9, sl, fp, lr}
 80202b8:	78c3      	ldrb	r3, [r0, #3]
 80202ba:	2bca      	cmp	r3, #202	; 0xca
 80202bc:	4607      	mov	r7, r0
 80202be:	f000 8094 	beq.w	80203ea <LmhpClockSyncOnMcpsIndication+0x136>
 80202c2:	b003      	add	sp, #12
 80202c4:	e8bd 8ff0 	ldmia.w	sp!, {r4, r5, r6, r7, r8, r9, sl, fp, pc}
 80202c8:	68b9      	ldr	r1, [r7, #8]
 80202ca:	5cc8      	ldrb	r0, [r1, r3]
 80202cc:	1c5a      	adds	r2, r3, #1
 80202ce:	b2d2      	uxtb	r2, r2
 80202d0:	2803      	cmp	r0, #3
 80202d2:	d80f      	bhi.n	80202f4 <LmhpClockSyncOnMcpsIndication+0x40>
 80202d4:	e8df f000 	tbb	[pc, r0]
 80202d8:	815f1002 	.word	0x815f1002
 80202dc:	6871      	ldr	r1, [r6, #4]
 80202de:	2300      	movs	r3, #0
 80202e0:	550b      	strb	r3, [r1, r4]
 80202e2:	1c60      	adds	r0, r4, #1
 80202e4:	1ca3      	adds	r3, r4, #2
 80202e6:	b2db      	uxtb	r3, r3
 80202e8:	b2c0      	uxtb	r0, r0
 80202ea:	2501      	movs	r5, #1
 80202ec:	540d      	strb	r5, [r1, r0]
 80202ee:	3403      	adds	r4, #3
 80202f0:	54cd      	strb	r5, [r1, r3]
 80202f2:	b2e4      	uxtb	r4, r4
 80202f4:	4692      	mov	sl, r2
 80202f6:	e03b      	b.n	8020370 <LmhpClockSyncOnMcpsIndication+0xbc>
 80202f8:	2000      	movs	r0, #0
 80202fa:	7370      	strb	r0, [r6, #13]
 80202fc:	7f38      	ldrb	r0, [r7, #28]
 80202fe:	f103 0a06 	add.w	sl, r3, #6
 8020302:	fa5f fa8a 	uxtb.w	sl, sl
 8020306:	2800      	cmp	r0, #0
 8020308:	d132      	bne.n	8020370 <LmhpClockSyncOnMcpsIndication+0xbc>
 802030a:	1d58      	adds	r0, r3, #5
 802030c:	b2c0      	uxtb	r0, r0
 802030e:	7a35      	ldrb	r5, [r6, #8]
 8020310:	5c08      	ldrb	r0, [r1, r0]
 8020312:	f005 050f 	and.w	r5, r5, #15
 8020316:	f000 000f 	and.w	r0, r0, #15
 802031a:	4285      	cmp	r5, r0
 802031c:	d128      	bne.n	8020370 <LmhpClockSyncOnMcpsIndication+0xbc>
 802031e:	5c8d      	ldrb	r5, [r1, r2]
 8020320:	1c9a      	adds	r2, r3, #2
 8020322:	b2d2      	uxtb	r2, r2
 8020324:	46eb      	mov	fp, sp
 8020326:	5c8a      	ldrb	r2, [r1, r2]
 8020328:	eb05 2502 	add.w	r5, r5, r2, lsl #8
 802032c:	1cda      	adds	r2, r3, #3
 802032e:	b2d2      	uxtb	r2, r2
 8020330:	3304      	adds	r3, #4
 8020332:	b2db      	uxtb	r3, r3
 8020334:	5c8a      	ldrb	r2, [r1, r2]
 8020336:	5ccb      	ldrb	r3, [r1, r3]
 8020338:	eb05 4502 	add.w	r5, r5, r2, lsl #16
 802033c:	4658      	mov	r0, fp
 802033e:	eb05 6503 	add.w	r5, r5, r3, lsl #24
 8020342:	f005 f8b7 	bl	80254b4 <SysTimeGet>
 8020346:	9b00      	ldr	r3, [sp, #0]
 8020348:	442b      	add	r3, r5
 802034a:	9300      	str	r3, [sp, #0]
 802034c:	e89b 0003 	ldmia.w	fp, {r0, r1}
 8020350:	f005 f888 	bl	8025464 <SysTimeSet>
 8020354:	7a33      	ldrb	r3, [r6, #8]
 8020356:	f3c3 0203 	ubfx	r2, r3, #0, #4
 802035a:	3201      	adds	r2, #1
 802035c:	f362 0303 	bfi	r3, r2, #0, #4
 8020360:	7233      	strb	r3, [r6, #8]
 8020362:	f8d9 3034 	ldr.w	r3, [r9, #52]	; 0x34
 8020366:	b11b      	cbz	r3, 8020370 <LmhpClockSyncOnMcpsIndication+0xbc>
 8020368:	3501      	adds	r5, #1
 802036a:	2d02      	cmp	r5, #2
 802036c:	d800      	bhi.n	8020370 <LmhpClockSyncOnMcpsIndication+0xbc>
 802036e:	4798      	blx	r3
 8020370:	4653      	mov	r3, sl
 8020372:	7b3a      	ldrb	r2, [r7, #12]
 8020374:	429a      	cmp	r2, r3
 8020376:	d8a7      	bhi.n	80202c8 <LmhpClockSyncOnMcpsIndication+0x14>
 8020378:	2c00      	cmp	r4, #0
 802037a:	d0a2      	beq.n	80202c2 <LmhpClockSyncOnMcpsIndication+0xe>
 802037c:	23ca      	movs	r3, #202	; 0xca
 802037e:	f88d 3000 	strb.w	r3, [sp]
 8020382:	4b1e      	ldr	r3, [pc, #120]	; (80203fc <LmhpClockSyncOnMcpsIndication+0x148>)
 8020384:	f88d 4001 	strb.w	r4, [sp, #1]
 8020388:	685b      	ldr	r3, [r3, #4]
 802038a:	9301      	str	r3, [sp, #4]
 802038c:	2100      	movs	r1, #0
 802038e:	4668      	mov	r0, sp
 8020390:	f7ff fbf6 	bl	801fb80 <LmHandlerSend>
 8020394:	e795      	b.n	80202c2 <LmhpClockSyncOnMcpsIndication+0xe>
 8020396:	6872      	ldr	r2, [r6, #4]
 8020398:	3302      	adds	r3, #2
 802039a:	fa5f fa83 	uxtb.w	sl, r3
 802039e:	2302      	movs	r3, #2
 80203a0:	5513      	strb	r3, [r2, r4]
 80203a2:	1c63      	adds	r3, r4, #1
 80203a4:	b2db      	uxtb	r3, r3
 80203a6:	2101      	movs	r1, #1
 80203a8:	54d1      	strb	r1, [r2, r3]
 80203aa:	4668      	mov	r0, sp
 80203ac:	f005 f882 	bl	80254b4 <SysTimeGet>
 80203b0:	9a00      	ldr	r2, [sp, #0]
 80203b2:	6873      	ldr	r3, [r6, #4]
 80203b4:	1ca1      	adds	r1, r4, #2
 80203b6:	b2c9      	uxtb	r1, r1
 80203b8:	4442      	add	r2, r8
 80203ba:	545a      	strb	r2, [r3, r1]
 80203bc:	1ce1      	adds	r1, r4, #3
 80203be:	b2c9      	uxtb	r1, r1
 80203c0:	0a10      	lsrs	r0, r2, #8
 80203c2:	5458      	strb	r0, [r3, r1]
 80203c4:	1d61      	adds	r1, r4, #5
 80203c6:	1d20      	adds	r0, r4, #4
 80203c8:	b2c9      	uxtb	r1, r1
 80203ca:	b2c0      	uxtb	r0, r0
 80203cc:	0c15      	lsrs	r5, r2, #16
 80203ce:	3406      	adds	r4, #6
 80203d0:	0e12      	lsrs	r2, r2, #24
 80203d2:	541d      	strb	r5, [r3, r0]
 80203d4:	b2e4      	uxtb	r4, r4
 80203d6:	545a      	strb	r2, [r3, r1]
 80203d8:	e7ca      	b.n	8020370 <LmhpClockSyncOnMcpsIndication+0xbc>
 80203da:	3302      	adds	r3, #2
 80203dc:	fa5f fa83 	uxtb.w	sl, r3
 80203e0:	5c8b      	ldrb	r3, [r1, r2]
 80203e2:	f003 0307 	and.w	r3, r3, #7
 80203e6:	7373      	strb	r3, [r6, #13]
 80203e8:	e7c2      	b.n	8020370 <LmhpClockSyncOnMcpsIndication+0xbc>
 80203ea:	2400      	movs	r4, #0
 80203ec:	4e03      	ldr	r6, [pc, #12]	; (80203fc <LmhpClockSyncOnMcpsIndication+0x148>)
 80203ee:	f8df 8010 	ldr.w	r8, [pc, #16]	; 8020400 <LmhpClockSyncOnMcpsIndication+0x14c>
 80203f2:	f8df 9010 	ldr.w	r9, [pc, #16]	; 8020404 <LmhpClockSyncOnMcpsIndication+0x150>
 80203f6:	4623      	mov	r3, r4
 80203f8:	e7bb      	b.n	8020372 <LmhpClockSyncOnMcpsIndication+0xbe>
 80203fa:	bf00      	nop
 80203fc:	200003e4 	.word	0x200003e4
 8020400:	ed2ac280 	.word	0xed2ac280
 8020404:	20000020 	.word	0x20000020

08020408 <LmhpClockSyncOnMcpsConfirm>:
 8020408:	b510      	push	{r4, lr}
 802040a:	4c11      	ldr	r4, [pc, #68]	; (8020450 <LmhpClockSyncOnMcpsConfirm+0x48>)
 802040c:	7a63      	ldrb	r3, [r4, #9]
 802040e:	b08a      	sub	sp, #40	; 0x28
 8020410:	b1e3      	cbz	r3, 802044c <LmhpClockSyncOnMcpsConfirm+0x44>
 8020412:	2305      	movs	r3, #5
 8020414:	f88d 3000 	strb.w	r3, [sp]
 8020418:	4668      	mov	r0, sp
 802041a:	7aa3      	ldrb	r3, [r4, #10]
 802041c:	f88d 3004 	strb.w	r3, [sp, #4]
 8020420:	f00e fe96 	bl	802f150 <LoRaMacMibSetRequestConfirm>
 8020424:	2325      	movs	r3, #37	; 0x25
 8020426:	f88d 3000 	strb.w	r3, [sp]
 802042a:	4668      	mov	r0, sp
 802042c:	7ae3      	ldrb	r3, [r4, #11]
 802042e:	f88d 3004 	strb.w	r3, [sp, #4]
 8020432:	f00e fe8d 	bl	802f150 <LoRaMacMibSetRequestConfirm>
 8020436:	232d      	movs	r3, #45	; 0x2d
 8020438:	f88d 3000 	strb.w	r3, [sp]
 802043c:	4668      	mov	r0, sp
 802043e:	7b23      	ldrb	r3, [r4, #12]
 8020440:	f88d 3004 	strb.w	r3, [sp, #4]
 8020444:	f00e fe84 	bl	802f150 <LoRaMacMibSetRequestConfirm>
 8020448:	2300      	movs	r3, #0
 802044a:	7263      	strb	r3, [r4, #9]
 802044c:	b00a      	add	sp, #40	; 0x28
 802044e:	bd10      	pop	{r4, pc}
 8020450:	200003e4 	.word	0x200003e4

08020454 <LmphClockSyncPackageFactory>:
 8020454:	4800      	ldr	r0, [pc, #0]	; (8020458 <LmphClockSyncPackageFactory+0x4>)
 8020456:	4770      	bx	lr
 8020458:	20000020 	.word	0x20000020

0802045c <LmhpClockSyncAppTimeReq>:
 802045c:	b530      	push	{r4, r5, lr}
 802045e:	b08d      	sub	sp, #52	; 0x34
 8020460:	f7ff fd98 	bl	801ff94 <LmHandlerIsBusy>
 8020464:	2800      	cmp	r0, #0
 8020466:	d14b      	bne.n	8020500 <LmhpClockSyncAppTimeReq+0xa4>
 8020468:	4c27      	ldr	r4, [pc, #156]	; (8020508 <LmhpClockSyncAppTimeReq+0xac>)
 802046a:	7a65      	ldrb	r5, [r4, #9]
 802046c:	bb3d      	cbnz	r5, 80204be <LmhpClockSyncAppTimeReq+0x62>
 802046e:	2305      	movs	r3, #5
 8020470:	a802      	add	r0, sp, #8
 8020472:	f88d 3008 	strb.w	r3, [sp, #8]
 8020476:	f00e fd1d 	bl	802eeb4 <LoRaMacMibGetRequestConfirm>
 802047a:	f89d 300c 	ldrb.w	r3, [sp, #12]
 802047e:	72a3      	strb	r3, [r4, #10]
 8020480:	a802      	add	r0, sp, #8
 8020482:	f88d 500c 	strb.w	r5, [sp, #12]
 8020486:	f00e fe63 	bl	802f150 <LoRaMacMibSetRequestConfirm>
 802048a:	2325      	movs	r3, #37	; 0x25
 802048c:	a802      	add	r0, sp, #8
 802048e:	f88d 3008 	strb.w	r3, [sp, #8]
 8020492:	f00e fd0f 	bl	802eeb4 <LoRaMacMibGetRequestConfirm>
 8020496:	f89d 300c 	ldrb.w	r3, [sp, #12]
 802049a:	72e3      	strb	r3, [r4, #11]
 802049c:	a802      	add	r0, sp, #8
 802049e:	2301      	movs	r3, #1
 80204a0:	f88d 300c 	strb.w	r3, [sp, #12]
 80204a4:	f00e fe54 	bl	802f150 <LoRaMacMibSetRequestConfirm>
 80204a8:	232d      	movs	r3, #45	; 0x2d
 80204aa:	a802      	add	r0, sp, #8
 80204ac:	f88d 3008 	strb.w	r3, [sp, #8]
 80204b0:	f00e fd00 	bl	802eeb4 <LoRaMacMibGetRequestConfirm>
 80204b4:	f89d 300c 	ldrb.w	r3, [sp, #12]
 80204b8:	7323      	strb	r3, [r4, #12]
 80204ba:	f7ff fdb1 	bl	8020020 <LmHandlerDeviceTimeReq>
 80204be:	4668      	mov	r0, sp
 80204c0:	f004 fff8 	bl	80254b4 <SysTimeGet>
 80204c4:	9a00      	ldr	r2, [sp, #0]
 80204c6:	4b11      	ldr	r3, [pc, #68]	; (802050c <LmhpClockSyncAppTimeReq+0xb0>)
 80204c8:	4413      	add	r3, r2
 80204ca:	6862      	ldr	r2, [r4, #4]
 80204cc:	0a18      	lsrs	r0, r3, #8
 80204ce:	7053      	strb	r3, [r2, #1]
 80204d0:	7090      	strb	r0, [r2, #2]
 80204d2:	0c18      	lsrs	r0, r3, #16
 80204d4:	0e1b      	lsrs	r3, r3, #24
 80204d6:	7113      	strb	r3, [r2, #4]
 80204d8:	7a23      	ldrb	r3, [r4, #8]
 80204da:	70d0      	strb	r0, [r2, #3]
 80204dc:	2101      	movs	r1, #1
 80204de:	f36f 1304 	bfc	r3, #4, #1
 80204e2:	7011      	strb	r1, [r2, #0]
 80204e4:	7153      	strb	r3, [r2, #5]
 80204e6:	7223      	strb	r3, [r4, #8]
 80204e8:	7261      	strb	r1, [r4, #9]
 80204ea:	f240 63ca 	movw	r3, #1738	; 0x6ca
 80204ee:	2100      	movs	r1, #0
 80204f0:	a802      	add	r0, sp, #8
 80204f2:	f8ad 3008 	strh.w	r3, [sp, #8]
 80204f6:	9203      	str	r2, [sp, #12]
 80204f8:	f7ff fb42 	bl	801fb80 <LmHandlerSend>
 80204fc:	b00d      	add	sp, #52	; 0x34
 80204fe:	bd30      	pop	{r4, r5, pc}
 8020500:	f04f 30ff 	mov.w	r0, #4294967295	; 0xffffffff
 8020504:	e7fa      	b.n	80204fc <LmhpClockSyncAppTimeReq+0xa0>
 8020506:	bf00      	nop
 8020508:	200003e4 	.word	0x200003e4
 802050c:	ed2ac280 	.word	0xed2ac280

08020510 <LmhpClockSyncProcess>:
 8020510:	b510      	push	{r4, lr}
 8020512:	4c05      	ldr	r4, [pc, #20]	; (8020528 <LmhpClockSyncProcess+0x18>)
 8020514:	7b63      	ldrb	r3, [r4, #13]
 8020516:	b12b      	cbz	r3, 8020524 <LmhpClockSyncProcess+0x14>
 8020518:	f7ff ffa0 	bl	802045c <LmhpClockSyncAppTimeReq>
 802051c:	b910      	cbnz	r0, 8020524 <LmhpClockSyncProcess+0x14>
 802051e:	7b63      	ldrb	r3, [r4, #13]
 8020520:	3b01      	subs	r3, #1
 8020522:	7363      	strb	r3, [r4, #13]
 8020524:	bd10      	pop	{r4, pc}
 8020526:	bf00      	nop
 8020528:	200003e4 	.word	0x200003e4

0802052c <LmhpRemoteMcastSetupIsInitialized>:
 802052c:	4b01      	ldr	r3, [pc, #4]	; (8020534 <LmhpRemoteMcastSetupIsInitialized+0x8>)
 802052e:	7818      	ldrb	r0, [r3, #0]
 8020530:	4770      	bx	lr
 8020532:	bf00      	nop
 8020534:	200003f4 	.word	0x200003f4

08020538 <LmhpRemoteMcastSetupIsTxPending>:
 8020538:	4b01      	ldr	r3, [pc, #4]	; (8020540 <LmhpRemoteMcastSetupIsTxPending+0x8>)
 802053a:	7858      	ldrb	r0, [r3, #1]
 802053c:	4770      	bx	lr
 802053e:	bf00      	nop
 8020540:	200003f4 	.word	0x200003f4

08020544 <LmhpRemoteMcastSetupInit>:
 8020544:	b537      	push	{r0, r1, r2, r4, r5, lr}
 8020546:	4c10      	ldr	r4, [pc, #64]	; (8020588 <LmhpRemoteMcastSetupInit+0x44>)
 8020548:	b1d9      	cbz	r1, 8020582 <LmhpRemoteMcastSetupInit+0x3e>
 802054a:	7825      	ldrb	r5, [r4, #0]
 802054c:	6061      	str	r1, [r4, #4]
 802054e:	70e2      	strb	r2, [r4, #3]
 8020550:	b98d      	cbnz	r5, 8020576 <LmhpRemoteMcastSetupInit+0x32>
 8020552:	2301      	movs	r3, #1
 8020554:	7023      	strb	r3, [r4, #0]
 8020556:	462a      	mov	r2, r5
 8020558:	4b0c      	ldr	r3, [pc, #48]	; (802058c <LmhpRemoteMcastSetupInit+0x48>)
 802055a:	480d      	ldr	r0, [pc, #52]	; (8020590 <LmhpRemoteMcastSetupInit+0x4c>)
 802055c:	9500      	str	r5, [sp, #0]
 802055e:	f04f 31ff 	mov.w	r1, #4294967295	; 0xffffffff
 8020562:	f004 fc6b 	bl	8024e3c <UTIL_TIMER_Create>
 8020566:	4b0b      	ldr	r3, [pc, #44]	; (8020594 <LmhpRemoteMcastSetupInit+0x50>)
 8020568:	480b      	ldr	r0, [pc, #44]	; (8020598 <LmhpRemoteMcastSetupInit+0x54>)
 802056a:	9500      	str	r5, [sp, #0]
 802056c:	462a      	mov	r2, r5
 802056e:	f04f 31ff 	mov.w	r1, #4294967295	; 0xffffffff
 8020572:	f004 fc63 	bl	8024e3c <UTIL_TIMER_Create>
 8020576:	4a09      	ldr	r2, [pc, #36]	; (802059c <LmhpRemoteMcastSetupInit+0x58>)
 8020578:	2300      	movs	r3, #0
 802057a:	7063      	strb	r3, [r4, #1]
 802057c:	6013      	str	r3, [r2, #0]
 802057e:	b003      	add	sp, #12
 8020580:	bd30      	pop	{r4, r5, pc}
 8020582:	7021      	strb	r1, [r4, #0]
 8020584:	e7f7      	b.n	8020576 <LmhpRemoteMcastSetupInit+0x32>
 8020586:	bf00      	nop
 8020588:	200003f4 	.word	0x200003f4
 802058c:	080205c1 	.word	0x080205c1
 8020590:	200004dc 	.word	0x200004dc
 8020594:	080205a1 	.word	0x080205a1
 8020598:	200004f4 	.word	0x200004f4
 802059c:	2000050c 	.word	0x2000050c

080205a0 <OnSessionStopTimer>:
 80205a0:	b508      	push	{r3, lr}
 80205a2:	4805      	ldr	r0, [pc, #20]	; (80205b8 <OnSessionStopTimer+0x18>)
 80205a4:	f004 fc6a 	bl	8024e7c <UTIL_TIMER_IsRunning>
 80205a8:	b110      	cbz	r0, 80205b0 <OnSessionStopTimer+0x10>
 80205aa:	4803      	ldr	r0, [pc, #12]	; (80205b8 <OnSessionStopTimer+0x18>)
 80205ac:	f004 fcd6 	bl	8024f5c <UTIL_TIMER_Stop>
 80205b0:	4b02      	ldr	r3, [pc, #8]	; (80205bc <OnSessionStopTimer+0x1c>)
 80205b2:	2202      	movs	r2, #2
 80205b4:	709a      	strb	r2, [r3, #2]
 80205b6:	bd08      	pop	{r3, pc}
 80205b8:	200004f4 	.word	0x200004f4
 80205bc:	200003f4 	.word	0x200003f4

080205c0 <OnSessionStartTimer>:
 80205c0:	b510      	push	{r4, lr}
 80205c2:	4808      	ldr	r0, [pc, #32]	; (80205e4 <OnSessionStartTimer+0x24>)
 80205c4:	f004 fc5a 	bl	8024e7c <UTIL_TIMER_IsRunning>
 80205c8:	b110      	cbz	r0, 80205d0 <OnSessionStartTimer+0x10>
 80205ca:	4806      	ldr	r0, [pc, #24]	; (80205e4 <OnSessionStartTimer+0x24>)
 80205cc:	f004 fcc6 	bl	8024f5c <UTIL_TIMER_Stop>
 80205d0:	4b05      	ldr	r3, [pc, #20]	; (80205e8 <OnSessionStartTimer+0x28>)
 80205d2:	4c06      	ldr	r4, [pc, #24]	; (80205ec <OnSessionStartTimer+0x2c>)
 80205d4:	2201      	movs	r2, #1
 80205d6:	709a      	strb	r2, [r3, #2]
 80205d8:	6823      	ldr	r3, [r4, #0]
 80205da:	b103      	cbz	r3, 80205de <OnSessionStartTimer+0x1e>
 80205dc:	4798      	blx	r3
 80205de:	2300      	movs	r3, #0
 80205e0:	6023      	str	r3, [r4, #0]
 80205e2:	bd10      	pop	{r4, pc}
 80205e4:	200004dc 	.word	0x200004dc
 80205e8:	200003f4 	.word	0x200003f4
 80205ec:	2000050c 	.word	0x2000050c

080205f0 <LmhpRemoteMcastSetupOnMcpsIndication>:
 80205f0:	e92d 4ff0 	stmdb	sp!, {r4, r5, r6, r7, r8, r9, sl, fp, lr}
 80205f4:	78c3      	ldrb	r3, [r0, #3]
 80205f6:	2bc8      	cmp	r3, #200	; 0xc8
 80205f8:	b091      	sub	sp, #68	; 0x44
 80205fa:	4605      	mov	r5, r0
 80205fc:	f000 819b 	beq.w	8020936 <LmhpRemoteMcastSetupOnMcpsIndication+0x346>
 8020600:	b011      	add	sp, #68	; 0x44
 8020602:	e8bd 8ff0 	ldmia.w	sp!, {r4, r5, r6, r7, r8, r9, sl, fp, pc}
 8020606:	68aa      	ldr	r2, [r5, #8]
 8020608:	5cd1      	ldrb	r1, [r2, r3]
 802060a:	1c5e      	adds	r6, r3, #1
 802060c:	b2f6      	uxtb	r6, r6
 802060e:	2904      	cmp	r1, #4
 8020610:	d814      	bhi.n	802063c <LmhpRemoteMcastSetupOnMcpsIndication+0x4c>
 8020612:	e8df f011 	tbh	[pc, r1, lsl #1]
 8020616:	0005      	.short	0x0005
 8020618:	00260013 	.word	0x00260013
 802061c:	00f000d5 	.word	0x00f000d5
 8020620:	f8d8 2004 	ldr.w	r2, [r8, #4]
 8020624:	2300      	movs	r3, #0
 8020626:	1c61      	adds	r1, r4, #1
 8020628:	5513      	strb	r3, [r2, r4]
 802062a:	b2c9      	uxtb	r1, r1
 802062c:	1ca3      	adds	r3, r4, #2
 802062e:	b2db      	uxtb	r3, r3
 8020630:	2002      	movs	r0, #2
 8020632:	5450      	strb	r0, [r2, r1]
 8020634:	2101      	movs	r1, #1
 8020636:	3403      	adds	r4, #3
 8020638:	54d1      	strb	r1, [r2, r3]
 802063a:	b2e4      	uxtb	r4, r4
 802063c:	4633      	mov	r3, r6
 802063e:	7b2a      	ldrb	r2, [r5, #12]
 8020640:	429a      	cmp	r2, r3
 8020642:	d8e0      	bhi.n	8020606 <LmhpRemoteMcastSetupOnMcpsIndication+0x16>
 8020644:	2c00      	cmp	r4, #0
 8020646:	d0db      	beq.n	8020600 <LmhpRemoteMcastSetupOnMcpsIndication+0x10>
 8020648:	23c8      	movs	r3, #200	; 0xc8
 802064a:	f88d 301c 	strb.w	r3, [sp, #28]
 802064e:	4bbc      	ldr	r3, [pc, #752]	; (8020940 <LmhpRemoteMcastSetupOnMcpsIndication+0x350>)
 8020650:	f88d 401d 	strb.w	r4, [sp, #29]
 8020654:	685b      	ldr	r3, [r3, #4]
 8020656:	9308      	str	r3, [sp, #32]
 8020658:	2100      	movs	r1, #0
 802065a:	a807      	add	r0, sp, #28
 802065c:	f7ff fa90 	bl	801fb80 <LmHandlerSend>
 8020660:	e7ce      	b.n	8020600 <LmhpRemoteMcastSetupOnMcpsIndication+0x10>
 8020662:	f812 9006 	ldrb.w	r9, [r2, r6]
 8020666:	f8df b2dc 	ldr.w	fp, [pc, #732]	; 8020944 <LmhpRemoteMcastSetupOnMcpsIndication+0x354>
 802066a:	f04f 0a38 	mov.w	sl, #56	; 0x38
 802066e:	fb0a f209 	mul.w	r2, sl, r9
 8020672:	1c99      	adds	r1, r3, #2
 8020674:	f80b 9002 	strb.w	r9, [fp, r2]
 8020678:	eb0b 0002 	add.w	r0, fp, r2
 802067c:	b2c9      	uxtb	r1, r1
 802067e:	68aa      	ldr	r2, [r5, #8]
 8020680:	5c57      	ldrb	r7, [r2, r1]
 8020682:	6047      	str	r7, [r0, #4]
 8020684:	1cd9      	adds	r1, r3, #3
 8020686:	68aa      	ldr	r2, [r5, #8]
 8020688:	b2c9      	uxtb	r1, r1
 802068a:	1d5e      	adds	r6, r3, #5
 802068c:	5c52      	ldrb	r2, [r2, r1]
 802068e:	eb07 2702 	add.w	r7, r7, r2, lsl #8
 8020692:	6047      	str	r7, [r0, #4]
 8020694:	1d19      	adds	r1, r3, #4
 8020696:	68aa      	ldr	r2, [r5, #8]
 8020698:	b2c9      	uxtb	r1, r1
 802069a:	b2f6      	uxtb	r6, r6
 802069c:	5c52      	ldrb	r2, [r2, r1]
 802069e:	eb07 4702 	add.w	r7, r7, r2, lsl #16
 80206a2:	6047      	str	r7, [r0, #4]
 80206a4:	68a9      	ldr	r1, [r5, #8]
 80206a6:	5d89      	ldrb	r1, [r1, r6]
 80206a8:	eb07 6701 	add.w	r7, r7, r1, lsl #24
 80206ac:	f100 0a08 	add.w	sl, r0, #8
 80206b0:	1d9a      	adds	r2, r3, #6
 80206b2:	6047      	str	r7, [r0, #4]
 80206b4:	f103 0016 	add.w	r0, r3, #22
 80206b8:	b2d2      	uxtb	r2, r2
 80206ba:	4656      	mov	r6, sl
 80206bc:	b2c0      	uxtb	r0, r0
 80206be:	68a9      	ldr	r1, [r5, #8]
 80206c0:	4694      	mov	ip, r2
 80206c2:	3201      	adds	r2, #1
 80206c4:	b2d2      	uxtb	r2, r2
 80206c6:	f811 100c 	ldrb.w	r1, [r1, ip]
 80206ca:	f806 1b01 	strb.w	r1, [r6], #1
 80206ce:	4282      	cmp	r2, r0
 80206d0:	d1f5      	bne.n	80206be <LmhpRemoteMcastSetupOnMcpsIndication+0xce>
 80206d2:	68a9      	ldr	r1, [r5, #8]
 80206d4:	5c88      	ldrb	r0, [r1, r2]
 80206d6:	2238      	movs	r2, #56	; 0x38
 80206d8:	fb02 f909 	mul.w	r9, r2, r9
 80206dc:	eb0b 0209 	add.w	r2, fp, r9
 80206e0:	f103 0617 	add.w	r6, r3, #23
 80206e4:	6190      	str	r0, [r2, #24]
 80206e6:	68a9      	ldr	r1, [r5, #8]
 80206e8:	b2f6      	uxtb	r6, r6
 80206ea:	5d89      	ldrb	r1, [r1, r6]
 80206ec:	eb00 2001 	add.w	r0, r0, r1, lsl #8
 80206f0:	6190      	str	r0, [r2, #24]
 80206f2:	f103 0618 	add.w	r6, r3, #24
 80206f6:	68a9      	ldr	r1, [r5, #8]
 80206f8:	b2f6      	uxtb	r6, r6
 80206fa:	5d89      	ldrb	r1, [r1, r6]
 80206fc:	eb00 4001 	add.w	r0, r0, r1, lsl #16
 8020700:	6190      	str	r0, [r2, #24]
 8020702:	f103 0619 	add.w	r6, r3, #25
 8020706:	68a9      	ldr	r1, [r5, #8]
 8020708:	b2f6      	uxtb	r6, r6
 802070a:	5d89      	ldrb	r1, [r1, r6]
 802070c:	eb00 6101 	add.w	r1, r0, r1, lsl #24
 8020710:	6191      	str	r1, [r2, #24]
 8020712:	f103 001a 	add.w	r0, r3, #26
 8020716:	9100      	str	r1, [sp, #0]
 8020718:	b2c0      	uxtb	r0, r0
 802071a:	68a9      	ldr	r1, [r5, #8]
 802071c:	5c09      	ldrb	r1, [r1, r0]
 802071e:	61d1      	str	r1, [r2, #28]
 8020720:	f103 061b 	add.w	r6, r3, #27
 8020724:	68a8      	ldr	r0, [r5, #8]
 8020726:	b2f6      	uxtb	r6, r6
 8020728:	5d80      	ldrb	r0, [r0, r6]
 802072a:	eb01 2100 	add.w	r1, r1, r0, lsl #8
 802072e:	61d1      	str	r1, [r2, #28]
 8020730:	f103 061c 	add.w	r6, r3, #28
 8020734:	68a8      	ldr	r0, [r5, #8]
 8020736:	b2f6      	uxtb	r6, r6
 8020738:	5d80      	ldrb	r0, [r0, r6]
 802073a:	eb01 4100 	add.w	r1, r1, r0, lsl #16
 802073e:	61d1      	str	r1, [r2, #28]
 8020740:	f103 061e 	add.w	r6, r3, #30
 8020744:	331d      	adds	r3, #29
 8020746:	68a8      	ldr	r0, [r5, #8]
 8020748:	b2db      	uxtb	r3, r3
 802074a:	b2f6      	uxtb	r6, r6
 802074c:	5cc3      	ldrb	r3, [r0, r3]
 802074e:	eb01 6303 	add.w	r3, r1, r3, lsl #24
 8020752:	61d3      	str	r3, [r2, #28]
 8020754:	2100      	movs	r1, #0
 8020756:	2224      	movs	r2, #36	; 0x24
 8020758:	a807      	add	r0, sp, #28
 802075a:	9301      	str	r3, [sp, #4]
 802075c:	f01a feda 	bl	803b514 <memset>
 8020760:	f81b 0009 	ldrb.w	r0, [fp, r9]
 8020764:	9b00      	ldr	r3, [sp, #0]
 8020766:	930b      	str	r3, [sp, #44]	; 0x2c
 8020768:	f240 1201 	movw	r2, #257	; 0x101
 802076c:	9b01      	ldr	r3, [sp, #4]
 802076e:	f8ad 201c 	strh.w	r2, [sp, #28]
 8020772:	f3c0 0201 	ubfx	r2, r0, #0, #2
 8020776:	f000 0003 	and.w	r0, r0, #3
 802077a:	f88d 201e 	strb.w	r2, [sp, #30]
 802077e:	930c      	str	r3, [sp, #48]	; 0x30
 8020780:	e9cd 7a08 	strd	r7, sl, [sp, #32]
 8020784:	f00f f8ea 	bl	802f95c <LoRaMacMcChannelDelete>
 8020788:	a807      	add	r0, sp, #28
 802078a:	f00f f86d 	bl	802f868 <LoRaMacMcChannelSetup>
 802078e:	f8d8 1004 	ldr.w	r1, [r8, #4]
 8020792:	2202      	movs	r2, #2
 8020794:	550a      	strb	r2, [r1, r4]
 8020796:	1c63      	adds	r3, r4, #1
 8020798:	4414      	add	r4, r2
 802079a:	1e02      	subs	r2, r0, #0
 802079c:	f81b 0009 	ldrb.w	r0, [fp, r9]
 80207a0:	b2db      	uxtb	r3, r3
 80207a2:	bf18      	it	ne
 80207a4:	2201      	movne	r2, #1
 80207a6:	f3c0 0001 	ubfx	r0, r0, #0, #2
 80207aa:	ea40 0082 	orr.w	r0, r0, r2, lsl #2
 80207ae:	54c8      	strb	r0, [r1, r3]
 80207b0:	2309      	movs	r3, #9
 80207b2:	a802      	add	r0, sp, #8
 80207b4:	b2e4      	uxtb	r4, r4
 80207b6:	f88d 3008 	strb.w	r3, [sp, #8]
 80207ba:	f00f f9c3 	bl	802fb44 <LoRaMacMlmeRequest>
 80207be:	e73d      	b.n	802063c <LmhpRemoteMcastSetupOnMcpsIndication+0x4c>
 80207c0:	5d96      	ldrb	r6, [r2, r6]
 80207c2:	3302      	adds	r3, #2
 80207c4:	b2df      	uxtb	r7, r3
 80207c6:	f8d8 3004 	ldr.w	r3, [r8, #4]
 80207ca:	f006 0603 	and.w	r6, r6, #3
 80207ce:	2203      	movs	r2, #3
 80207d0:	f104 0901 	add.w	r9, r4, #1
 80207d4:	551a      	strb	r2, [r3, r4]
 80207d6:	4630      	mov	r0, r6
 80207d8:	fa5f f989 	uxtb.w	r9, r9
 80207dc:	f00f f8be 	bl	802f95c <LoRaMacMcChannelDelete>
 80207e0:	b108      	cbz	r0, 80207e6 <LmhpRemoteMcastSetupOnMcpsIndication+0x1f6>
 80207e2:	f046 0604 	orr.w	r6, r6, #4
 80207e6:	f8d8 3004 	ldr.w	r3, [r8, #4]
 80207ea:	3402      	adds	r4, #2
 80207ec:	f803 6009 	strb.w	r6, [r3, r9]
 80207f0:	b2e4      	uxtb	r4, r4
 80207f2:	463e      	mov	r6, r7
 80207f4:	e722      	b.n	802063c <LmhpRemoteMcastSetupOnMcpsIndication+0x4c>
 80207f6:	f04f 0900 	mov.w	r9, #0
 80207fa:	f88d 9008 	strb.w	r9, [sp, #8]
 80207fe:	5d90      	ldrb	r0, [r2, r6]
 8020800:	f8df c140 	ldr.w	ip, [pc, #320]	; 8020944 <LmhpRemoteMcastSetupOnMcpsIndication+0x354>
 8020804:	f000 0003 	and.w	r0, r0, #3
 8020808:	2138      	movs	r1, #56	; 0x38
 802080a:	fb01 c700 	mla	r7, r1, r0, ip
 802080e:	2202      	movs	r2, #2
 8020810:	f887 202c 	strb.w	r2, [r7, #44]	; 0x2c
 8020814:	189e      	adds	r6, r3, r2
 8020816:	b2f6      	uxtb	r6, r6
 8020818:	68aa      	ldr	r2, [r5, #8]
 802081a:	5d96      	ldrb	r6, [r2, r6]
 802081c:	627e      	str	r6, [r7, #36]	; 0x24
 802081e:	f103 0e03 	add.w	lr, r3, #3
 8020822:	68aa      	ldr	r2, [r5, #8]
 8020824:	fa5f fe8e 	uxtb.w	lr, lr
 8020828:	4639      	mov	r1, r7
 802082a:	f812 200e 	ldrb.w	r2, [r2, lr]
 802082e:	eb06 2602 	add.w	r6, r6, r2, lsl #8
 8020832:	627e      	str	r6, [r7, #36]	; 0x24
 8020834:	f103 0e04 	add.w	lr, r3, #4
 8020838:	68aa      	ldr	r2, [r5, #8]
 802083a:	fa5f fe8e 	uxtb.w	lr, lr
 802083e:	312c      	adds	r1, #44	; 0x2c
 8020840:	f812 200e 	ldrb.w	r2, [r2, lr]
 8020844:	eb06 4602 	add.w	r6, r6, r2, lsl #16
 8020848:	627e      	str	r6, [r7, #36]	; 0x24
 802084a:	f103 0e05 	add.w	lr, r3, #5
 802084e:	68aa      	ldr	r2, [r5, #8]
 8020850:	fa5f fe8e 	uxtb.w	lr, lr
 8020854:	f812 200e 	ldrb.w	r2, [r2, lr]
 8020858:	f8df e0ec 	ldr.w	lr, [pc, #236]	; 8020948 <LmhpRemoteMcastSetupOnMcpsIndication+0x358>
 802085c:	eb0e 6202 	add.w	r2, lr, r2, lsl #24
 8020860:	4416      	add	r6, r2
 8020862:	627e      	str	r6, [r7, #36]	; 0x24
 8020864:	1d9e      	adds	r6, r3, #6
 8020866:	68aa      	ldr	r2, [r5, #8]
 8020868:	b2f6      	uxtb	r6, r6
 802086a:	f103 0e08 	add.w	lr, r3, #8
 802086e:	5d92      	ldrb	r2, [r2, r6]
 8020870:	f002 020f 	and.w	r2, r2, #15
 8020874:	f887 2028 	strb.w	r2, [r7, #40]	; 0x28
 8020878:	1dde      	adds	r6, r3, #7
 802087a:	68aa      	ldr	r2, [r5, #8]
 802087c:	b2f6      	uxtb	r6, r6
 802087e:	fa5f fe8e 	uxtb.w	lr, lr
 8020882:	5d96      	ldrb	r6, [r2, r6]
 8020884:	633e      	str	r6, [r7, #48]	; 0x30
 8020886:	68aa      	ldr	r2, [r5, #8]
 8020888:	f812 200e 	ldrb.w	r2, [r2, lr]
 802088c:	ea46 2602 	orr.w	r6, r6, r2, lsl #8
 8020890:	633e      	str	r6, [r7, #48]	; 0x30
 8020892:	f103 0e09 	add.w	lr, r3, #9
 8020896:	68aa      	ldr	r2, [r5, #8]
 8020898:	fa5f fe8e 	uxtb.w	lr, lr
 802089c:	f812 200e 	ldrb.w	r2, [r2, lr]
 80208a0:	ea46 4602 	orr.w	r6, r6, r2, lsl #16
 80208a4:	2264      	movs	r2, #100	; 0x64
 80208a6:	4356      	muls	r6, r2
 80208a8:	633e      	str	r6, [r7, #48]	; 0x30
 80208aa:	f103 060b 	add.w	r6, r3, #11
 80208ae:	330a      	adds	r3, #10
 80208b0:	68aa      	ldr	r2, [r5, #8]
 80208b2:	b2db      	uxtb	r3, r3
 80208b4:	b2f6      	uxtb	r6, r6
 80208b6:	5cd3      	ldrb	r3, [r2, r3]
 80208b8:	f887 3034 	strb.w	r3, [r7, #52]	; 0x34
 80208bc:	aa02      	add	r2, sp, #8
 80208be:	f00f f88f 	bl	802f9e0 <LoRaMacMcChannelSetupRxParams>
 80208c2:	4682      	mov	sl, r0
 80208c4:	bba0      	cbnz	r0, 8020930 <LmhpRemoteMcastSetupOnMcpsIndication+0x340>
 80208c6:	a807      	add	r0, sp, #28
 80208c8:	f004 fdf4 	bl	80254b4 <SysTimeGet>
 80208cc:	6a7f      	ldr	r7, [r7, #36]	; 0x24
 80208ce:	9b07      	ldr	r3, [sp, #28]
 80208d0:	1aff      	subs	r7, r7, r3
 80208d2:	454f      	cmp	r7, r9
 80208d4:	dd24      	ble.n	8020920 <LmhpRemoteMcastSetupOnMcpsIndication+0x330>
 80208d6:	1e7b      	subs	r3, r7, #1
 80208d8:	f44f 717a 	mov.w	r1, #1000	; 0x3e8
 80208dc:	4359      	muls	r1, r3
 80208de:	481b      	ldr	r0, [pc, #108]	; (802094c <LmhpRemoteMcastSetupOnMcpsIndication+0x35c>)
 80208e0:	f004 fbde 	bl	80250a0 <UTIL_TIMER_SetPeriod>
 80208e4:	4819      	ldr	r0, [pc, #100]	; (802094c <LmhpRemoteMcastSetupOnMcpsIndication+0x35c>)
 80208e6:	f004 fb89 	bl	8024ffc <UTIL_TIMER_Start>
 80208ea:	2001      	movs	r0, #1
 80208ec:	f8d8 3004 	ldr.w	r3, [r8, #4]
 80208f0:	2204      	movs	r2, #4
 80208f2:	551a      	strb	r2, [r3, r4]
 80208f4:	1c62      	adds	r2, r4, #1
 80208f6:	b2d2      	uxtb	r2, r2
 80208f8:	f89d c008 	ldrb.w	ip, [sp, #8]
 80208fc:	f803 c002 	strb.w	ip, [r3, r2]
 8020900:	1ca1      	adds	r1, r4, #2
 8020902:	b2c9      	uxtb	r1, r1
 8020904:	b150      	cbz	r0, 802091c <LmhpRemoteMcastSetupOnMcpsIndication+0x32c>
 8020906:	1ce2      	adds	r2, r4, #3
 8020908:	b2d2      	uxtb	r2, r2
 802090a:	545f      	strb	r7, [r3, r1]
 802090c:	1239      	asrs	r1, r7, #8
 802090e:	5499      	strb	r1, [r3, r2]
 8020910:	1d61      	adds	r1, r4, #5
 8020912:	3404      	adds	r4, #4
 8020914:	b2e4      	uxtb	r4, r4
 8020916:	143f      	asrs	r7, r7, #16
 8020918:	551f      	strb	r7, [r3, r4]
 802091a:	b2c9      	uxtb	r1, r1
 802091c:	460c      	mov	r4, r1
 802091e:	e68d      	b.n	802063c <LmhpRemoteMcastSetupOnMcpsIndication+0x4c>
 8020920:	f89d 3008 	ldrb.w	r3, [sp, #8]
 8020924:	f043 0310 	orr.w	r3, r3, #16
 8020928:	f88d 3008 	strb.w	r3, [sp, #8]
 802092c:	4650      	mov	r0, sl
 802092e:	e7dd      	b.n	80208ec <LmhpRemoteMcastSetupOnMcpsIndication+0x2fc>
 8020930:	4648      	mov	r0, r9
 8020932:	464f      	mov	r7, r9
 8020934:	e7da      	b.n	80208ec <LmhpRemoteMcastSetupOnMcpsIndication+0x2fc>
 8020936:	2400      	movs	r4, #0
 8020938:	f8df 8004 	ldr.w	r8, [pc, #4]	; 8020940 <LmhpRemoteMcastSetupOnMcpsIndication+0x350>
 802093c:	4623      	mov	r3, r4
 802093e:	e67e      	b.n	802063e <LmhpRemoteMcastSetupOnMcpsIndication+0x4e>
 8020940:	200003f4 	.word	0x200003f4
 8020944:	200003fc 	.word	0x200003fc
 8020948:	12d53d80 	.word	0x12d53d80
 802094c:	200004dc 	.word	0x200004dc

08020950 <LmhpRemoteMcastSetupProcess>:
 8020950:	b537      	push	{r0, r1, r2, r4, r5, lr}
 8020952:	a801      	add	r0, sp, #4
 8020954:	f7fe fadd 	bl	801ef12 <BoardCriticalSectionBegin>
 8020958:	4b0f      	ldr	r3, [pc, #60]	; (8020998 <LmhpRemoteMcastSetupProcess+0x48>)
 802095a:	789d      	ldrb	r5, [r3, #2]
 802095c:	2400      	movs	r4, #0
 802095e:	a801      	add	r0, sp, #4
 8020960:	709c      	strb	r4, [r3, #2]
 8020962:	f7fe fad8 	bl	801ef16 <BoardCriticalSectionEnd>
 8020966:	2d01      	cmp	r5, #1
 8020968:	d003      	beq.n	8020972 <LmhpRemoteMcastSetupProcess+0x22>
 802096a:	2d02      	cmp	r5, #2
 802096c:	d011      	beq.n	8020992 <LmhpRemoteMcastSetupProcess+0x42>
 802096e:	b003      	add	sp, #12
 8020970:	bd30      	pop	{r4, r5, pc}
 8020972:	4b0a      	ldr	r3, [pc, #40]	; (802099c <LmhpRemoteMcastSetupProcess+0x4c>)
 8020974:	480a      	ldr	r0, [pc, #40]	; (80209a0 <LmhpRemoteMcastSetupProcess+0x50>)
 8020976:	f893 3028 	ldrb.w	r3, [r3, #40]	; 0x28
 802097a:	f44f 717a 	mov.w	r1, #1000	; 0x3e8
 802097e:	4099      	lsls	r1, r3
 8020980:	f004 fb8e 	bl	80250a0 <UTIL_TIMER_SetPeriod>
 8020984:	4806      	ldr	r0, [pc, #24]	; (80209a0 <LmhpRemoteMcastSetupProcess+0x50>)
 8020986:	f004 fb39 	bl	8024ffc <UTIL_TIMER_Start>
 802098a:	2002      	movs	r0, #2
 802098c:	f7ff fb88 	bl	80200a0 <LmHandlerRequestClass>
 8020990:	e7ed      	b.n	802096e <LmhpRemoteMcastSetupProcess+0x1e>
 8020992:	4620      	mov	r0, r4
 8020994:	e7fa      	b.n	802098c <LmhpRemoteMcastSetupProcess+0x3c>
 8020996:	bf00      	nop
 8020998:	200003f4 	.word	0x200003f4
 802099c:	200003fc 	.word	0x200003fc
 80209a0:	200004f4 	.word	0x200004f4

080209a4 <LmhpRemoteMcastSetupPackageFactory>:
 80209a4:	4800      	ldr	r0, [pc, #0]	; (80209a8 <LmhpRemoteMcastSetupPackageFactory+0x4>)
 80209a6:	4770      	bx	lr
 80209a8:	20000058 	.word	0x20000058

080209ac <FUOTA_StartTime_IsRunning>:
 80209ac:	b507      	push	{r0, r1, r2, lr}
 80209ae:	f04f 33ff 	mov.w	r3, #4294967295	; 0xffffffff
 80209b2:	a901      	add	r1, sp, #4
 80209b4:	4808      	ldr	r0, [pc, #32]	; (80209d8 <FUOTA_StartTime_IsRunning+0x2c>)
 80209b6:	9301      	str	r3, [sp, #4]
 80209b8:	f004 fa8c 	bl	8024ed4 <UTIL_TIMER_GetRemainingTime>
 80209bc:	4b07      	ldr	r3, [pc, #28]	; (80209dc <FUOTA_StartTime_IsRunning+0x30>)
 80209be:	9801      	ldr	r0, [sp, #4]
 80209c0:	6a9b      	ldr	r3, [r3, #40]	; 0x28
 80209c2:	4798      	blx	r3
 80209c4:	f242 730f 	movw	r3, #9999	; 0x270f
 80209c8:	4298      	cmp	r0, r3
 80209ca:	bf8c      	ite	hi
 80209cc:	2000      	movhi	r0, #0
 80209ce:	2001      	movls	r0, #1
 80209d0:	b003      	add	sp, #12
 80209d2:	f85d fb04 	ldr.w	pc, [sp], #4
 80209d6:	bf00      	nop
 80209d8:	200004dc 	.word	0x200004dc
 80209dc:	0803b894 	.word	0x0803b894

080209e0 <LmhpRemoteMcastSetupRegisterPowersaveHandler>:
 80209e0:	4b01      	ldr	r3, [pc, #4]	; (80209e8 <LmhpRemoteMcastSetupRegisterPowersaveHandler+0x8>)
 80209e2:	6018      	str	r0, [r3, #0]
 80209e4:	4770      	bx	lr
 80209e6:	bf00      	nop
 80209e8:	2000050c 	.word	0x2000050c

080209ec <LmhpFragmentationIsInitialized>:
 80209ec:	4b01      	ldr	r3, [pc, #4]	; (80209f4 <LmhpFragmentationIsInitialized+0x8>)
 80209ee:	7818      	ldrb	r0, [r3, #0]
 80209f0:	4770      	bx	lr
 80209f2:	bf00      	nop
 80209f4:	20000594 	.word	0x20000594

080209f8 <LmhpFragmentationIsTxPending>:
 80209f8:	4b01      	ldr	r3, [pc, #4]	; (8020a00 <LmhpFragmentationIsTxPending+0x8>)
 80209fa:	7858      	ldrb	r0, [r3, #1]
 80209fc:	4770      	bx	lr
 80209fe:	bf00      	nop
 8020a00:	20000594 	.word	0x20000594

08020a04 <LmhpFragmentationInit>:
 8020a04:	b537      	push	{r0, r1, r2, r4, r5, lr}
 8020a06:	4d0e      	ldr	r5, [pc, #56]	; (8020a40 <LmhpFragmentationInit+0x3c>)
 8020a08:	4c0e      	ldr	r4, [pc, #56]	; (8020a44 <LmhpFragmentationInit+0x40>)
 8020a0a:	b1a0      	cbz	r0, 8020a36 <LmhpFragmentationInit+0x32>
 8020a0c:	b199      	cbz	r1, 8020a36 <LmhpFragmentationInit+0x32>
 8020a0e:	70e2      	strb	r2, [r4, #3]
 8020a10:	7822      	ldrb	r2, [r4, #0]
 8020a12:	6028      	str	r0, [r5, #0]
 8020a14:	6061      	str	r1, [r4, #4]
 8020a16:	b952      	cbnz	r2, 8020a2e <LmhpFragmentationInit+0x2a>
 8020a18:	2301      	movs	r3, #1
 8020a1a:	7023      	strb	r3, [r4, #0]
 8020a1c:	4b0a      	ldr	r3, [pc, #40]	; (8020a48 <LmhpFragmentationInit+0x44>)
 8020a1e:	480b      	ldr	r0, [pc, #44]	; (8020a4c <LmhpFragmentationInit+0x48>)
 8020a20:	601a      	str	r2, [r3, #0]
 8020a22:	f04f 31ff 	mov.w	r1, #4294967295	; 0xffffffff
 8020a26:	4b0a      	ldr	r3, [pc, #40]	; (8020a50 <LmhpFragmentationInit+0x4c>)
 8020a28:	9200      	str	r2, [sp, #0]
 8020a2a:	f004 fa07 	bl	8024e3c <UTIL_TIMER_Create>
 8020a2e:	2300      	movs	r3, #0
 8020a30:	7063      	strb	r3, [r4, #1]
 8020a32:	b003      	add	sp, #12
 8020a34:	bd30      	pop	{r4, r5, pc}
 8020a36:	2300      	movs	r3, #0
 8020a38:	602b      	str	r3, [r5, #0]
 8020a3a:	7023      	strb	r3, [r4, #0]
 8020a3c:	e7f7      	b.n	8020a2e <LmhpFragmentationInit+0x2a>
 8020a3e:	bf00      	nop
 8020a40:	20000590 	.word	0x20000590
 8020a44:	20000594 	.word	0x20000594
 8020a48:	200005a0 	.word	0x200005a0
 8020a4c:	20000578 	.word	0x20000578
 8020a50:	08020a55 	.word	0x08020a55

08020a54 <OnFragmentTxDelay>:
 8020a54:	b508      	push	{r3, lr}
 8020a56:	4805      	ldr	r0, [pc, #20]	; (8020a6c <OnFragmentTxDelay+0x18>)
 8020a58:	f004 fa10 	bl	8024e7c <UTIL_TIMER_IsRunning>
 8020a5c:	b110      	cbz	r0, 8020a64 <OnFragmentTxDelay+0x10>
 8020a5e:	4803      	ldr	r0, [pc, #12]	; (8020a6c <OnFragmentTxDelay+0x18>)
 8020a60:	f004 fa7c 	bl	8024f5c <UTIL_TIMER_Stop>
 8020a64:	4b02      	ldr	r3, [pc, #8]	; (8020a70 <OnFragmentTxDelay+0x1c>)
 8020a66:	2202      	movs	r2, #2
 8020a68:	709a      	strb	r2, [r3, #2]
 8020a6a:	bd08      	pop	{r3, pc}
 8020a6c:	20000578 	.word	0x20000578
 8020a70:	20000594 	.word	0x20000594

08020a74 <LmhpFragmentationOnMcpsIndication>:
 8020a74:	e92d 4ff0 	stmdb	sp!, {r4, r5, r6, r7, r8, r9, sl, fp, lr}
 8020a78:	78c3      	ldrb	r3, [r0, #3]
 8020a7a:	2bc9      	cmp	r3, #201	; 0xc9
 8020a7c:	b091      	sub	sp, #68	; 0x44
 8020a7e:	4607      	mov	r7, r0
 8020a80:	d127      	bne.n	8020ad2 <LmhpFragmentationOnMcpsIndication+0x5e>
 8020a82:	2300      	movs	r3, #0
 8020a84:	f8df 8260 	ldr.w	r8, [pc, #608]	; 8020ce8 <LmhpFragmentationOnMcpsIndication+0x274>
 8020a88:	9301      	str	r3, [sp, #4]
 8020a8a:	461e      	mov	r6, r3
 8020a8c:	461c      	mov	r4, r3
 8020a8e:	7b3a      	ldrb	r2, [r7, #12]
 8020a90:	429a      	cmp	r2, r3
 8020a92:	d821      	bhi.n	8020ad8 <LmhpFragmentationOnMcpsIndication+0x64>
 8020a94:	b1ec      	cbz	r4, 8020ad2 <LmhpFragmentationOnMcpsIndication+0x5e>
 8020a96:	4d95      	ldr	r5, [pc, #596]	; (8020cec <LmhpFragmentationOnMcpsIndication+0x278>)
 8020a98:	f88d 4029 	strb.w	r4, [sp, #41]	; 0x29
 8020a9c:	686b      	ldr	r3, [r5, #4]
 8020a9e:	930b      	str	r3, [sp, #44]	; 0x2c
 8020aa0:	23c9      	movs	r3, #201	; 0xc9
 8020aa2:	f88d 3028 	strb.w	r3, [sp, #40]	; 0x28
 8020aa6:	ac0a      	add	r4, sp, #40	; 0x28
 8020aa8:	2e00      	cmp	r6, #0
 8020aaa:	f000 816f 	beq.w	8020d8c <LmhpFragmentationOnMcpsIndication+0x318>
 8020aae:	f44f 717a 	mov.w	r1, #1000	; 0x3e8
 8020ab2:	2000      	movs	r0, #0
 8020ab4:	f00b ff9c 	bl	802c9f0 <randr>
 8020ab8:	9b01      	ldr	r3, [sp, #4]
 8020aba:	4a8d      	ldr	r2, [pc, #564]	; (8020cf0 <LmhpFragmentationOnMcpsIndication+0x27c>)
 8020abc:	3304      	adds	r3, #4
 8020abe:	fa00 f303 	lsl.w	r3, r0, r3
 8020ac2:	e894 0003 	ldmia.w	r4, {r0, r1}
 8020ac6:	6013      	str	r3, [r2, #0]
 8020ac8:	4b8a      	ldr	r3, [pc, #552]	; (8020cf4 <LmhpFragmentationOnMcpsIndication+0x280>)
 8020aca:	e883 0003 	stmia.w	r3, {r0, r1}
 8020ace:	2301      	movs	r3, #1
 8020ad0:	70ab      	strb	r3, [r5, #2]
 8020ad2:	b011      	add	sp, #68	; 0x44
 8020ad4:	e8bd 8ff0 	ldmia.w	sp!, {r4, r5, r6, r7, r8, r9, sl, fp, pc}
 8020ad8:	68b9      	ldr	r1, [r7, #8]
 8020ada:	5cca      	ldrb	r2, [r1, r3]
 8020adc:	1c5d      	adds	r5, r3, #1
 8020ade:	b2ed      	uxtb	r5, r5
 8020ae0:	2a08      	cmp	r2, #8
 8020ae2:	d81b      	bhi.n	8020b1c <LmhpFragmentationOnMcpsIndication+0xa8>
 8020ae4:	e8df f012 	tbh	[pc, r2, lsl #1]
 8020ae8:	001c0009 	.word	0x001c0009
 8020aec:	00e00059 	.word	0x00e00059
 8020af0:	001a001a 	.word	0x001a001a
 8020af4:	001a001a 	.word	0x001a001a
 8020af8:	010a      	.short	0x010a
 8020afa:	78bb      	ldrb	r3, [r7, #2]
 8020afc:	2b01      	cmp	r3, #1
 8020afe:	d00d      	beq.n	8020b1c <LmhpFragmentationOnMcpsIndication+0xa8>
 8020b00:	4b7a      	ldr	r3, [pc, #488]	; (8020cec <LmhpFragmentationOnMcpsIndication+0x278>)
 8020b02:	685a      	ldr	r2, [r3, #4]
 8020b04:	1c61      	adds	r1, r4, #1
 8020b06:	2300      	movs	r3, #0
 8020b08:	5513      	strb	r3, [r2, r4]
 8020b0a:	b2c9      	uxtb	r1, r1
 8020b0c:	1ca3      	adds	r3, r4, #2
 8020b0e:	2003      	movs	r0, #3
 8020b10:	b2db      	uxtb	r3, r3
 8020b12:	5450      	strb	r0, [r2, r1]
 8020b14:	2101      	movs	r1, #1
 8020b16:	4404      	add	r4, r0
 8020b18:	54d1      	strb	r1, [r2, r3]
 8020b1a:	b2e4      	uxtb	r4, r4
 8020b1c:	462b      	mov	r3, r5
 8020b1e:	e7b6      	b.n	8020a8e <LmhpFragmentationOnMcpsIndication+0x1a>
 8020b20:	f811 b005 	ldrb.w	fp, [r1, r5]
 8020b24:	3302      	adds	r3, #2
 8020b26:	a808      	add	r0, sp, #32
 8020b28:	ea4f 055b 	mov.w	r5, fp, lsr #1
 8020b2c:	f04f 0a18 	mov.w	sl, #24
 8020b30:	fa5f f983 	uxtb.w	r9, r3
 8020b34:	fb0a 8a05 	mla	sl, sl, r5, r8
 8020b38:	f000 fc26 	bl	8021388 <FragDecoderGetStatus>
 8020b3c:	9808      	ldr	r0, [sp, #32]
 8020b3e:	9909      	ldr	r1, [sp, #36]	; 0x24
 8020b40:	f10a 030c 	add.w	r3, sl, #12
 8020b44:	f01b 0f01 	tst.w	fp, #1
 8020b48:	c303      	stmia	r3!, {r0, r1}
 8020b4a:	d102      	bne.n	8020b52 <LmhpFragmentationOnMcpsIndication+0xde>
 8020b4c:	f8ba 300e 	ldrh.w	r3, [sl, #14]
 8020b50:	b30b      	cbz	r3, 8020b96 <LmhpFragmentationOnMcpsIndication+0x122>
 8020b52:	4b66      	ldr	r3, [pc, #408]	; (8020cec <LmhpFragmentationOnMcpsIndication+0x278>)
 8020b54:	685a      	ldr	r2, [r3, #4]
 8020b56:	2601      	movs	r6, #1
 8020b58:	2318      	movs	r3, #24
 8020b5a:	5516      	strb	r6, [r2, r4]
 8020b5c:	fb03 8305 	mla	r3, r3, r5, r8
 8020b60:	19a1      	adds	r1, r4, r6
 8020b62:	b2c9      	uxtb	r1, r1
 8020b64:	8998      	ldrh	r0, [r3, #12]
 8020b66:	5450      	strb	r0, [r2, r1]
 8020b68:	8999      	ldrh	r1, [r3, #12]
 8020b6a:	1ca0      	adds	r0, r4, #2
 8020b6c:	b2c0      	uxtb	r0, r0
 8020b6e:	f3c1 2105 	ubfx	r1, r1, #8, #6
 8020b72:	ea41 1185 	orr.w	r1, r1, r5, lsl #6
 8020b76:	5411      	strb	r1, [r2, r0]
 8020b78:	1ce0      	adds	r0, r4, #3
 8020b7a:	b2c0      	uxtb	r0, r0
 8020b7c:	89dd      	ldrh	r5, [r3, #14]
 8020b7e:	5415      	strb	r5, [r2, r0]
 8020b80:	1d21      	adds	r1, r4, #4
 8020b82:	7c98      	ldrb	r0, [r3, #18]
 8020b84:	b2c9      	uxtb	r1, r1
 8020b86:	4030      	ands	r0, r6
 8020b88:	5450      	strb	r0, [r2, r1]
 8020b8a:	795b      	ldrb	r3, [r3, #5]
 8020b8c:	3405      	adds	r4, #5
 8020b8e:	f003 0307 	and.w	r3, r3, #7
 8020b92:	b2e4      	uxtb	r4, r4
 8020b94:	9301      	str	r3, [sp, #4]
 8020b96:	464d      	mov	r5, r9
 8020b98:	e7c0      	b.n	8020b1c <LmhpFragmentationOnMcpsIndication+0xa8>
 8020b9a:	78ba      	ldrb	r2, [r7, #2]
 8020b9c:	2a01      	cmp	r2, #1
 8020b9e:	d0bd      	beq.n	8020b1c <LmhpFragmentationOnMcpsIndication+0xa8>
 8020ba0:	5d4a      	ldrb	r2, [r1, r5]
 8020ba2:	f88d 2029 	strb.w	r2, [sp, #41]	; 0x29
 8020ba6:	1cda      	adds	r2, r3, #3
 8020ba8:	b2d2      	uxtb	r2, r2
 8020baa:	f103 050b 	add.w	r5, r3, #11
 8020bae:	5c88      	ldrb	r0, [r1, r2]
 8020bb0:	1c9a      	adds	r2, r3, #2
 8020bb2:	b2d2      	uxtb	r2, r2
 8020bb4:	b2ed      	uxtb	r5, r5
 8020bb6:	5c8e      	ldrb	r6, [r1, r2]
 8020bb8:	ea46 2600 	orr.w	r6, r6, r0, lsl #8
 8020bbc:	1d98      	adds	r0, r3, #6
 8020bbe:	b2c0      	uxtb	r0, r0
 8020bc0:	1d1a      	adds	r2, r3, #4
 8020bc2:	5c08      	ldrb	r0, [r1, r0]
 8020bc4:	9002      	str	r0, [sp, #8]
 8020bc6:	1dd8      	adds	r0, r3, #7
 8020bc8:	b2c0      	uxtb	r0, r0
 8020bca:	b2d2      	uxtb	r2, r2
 8020bcc:	5c08      	ldrb	r0, [r1, r0]
 8020bce:	9003      	str	r0, [sp, #12]
 8020bd0:	f103 0008 	add.w	r0, r3, #8
 8020bd4:	f811 9002 	ldrb.w	r9, [r1, r2]
 8020bd8:	b2c0      	uxtb	r0, r0
 8020bda:	1d5a      	adds	r2, r3, #5
 8020bdc:	b2d2      	uxtb	r2, r2
 8020bde:	5c08      	ldrb	r0, [r1, r0]
 8020be0:	5c8a      	ldrb	r2, [r1, r2]
 8020be2:	9004      	str	r0, [sp, #16]
 8020be4:	f103 0009 	add.w	r0, r3, #9
 8020be8:	330a      	adds	r3, #10
 8020bea:	b2db      	uxtb	r3, r3
 8020bec:	b2c0      	uxtb	r0, r0
 8020bee:	f012 0f38 	tst.w	r2, #56	; 0x38
 8020bf2:	f811 b003 	ldrb.w	fp, [r1, r3]
 8020bf6:	5c08      	ldrb	r0, [r1, r0]
 8020bf8:	9005      	str	r0, [sp, #20]
 8020bfa:	bf14      	ite	ne
 8020bfc:	2301      	movne	r3, #1
 8020bfe:	2300      	moveq	r3, #0
 8020c00:	f5b6 6f7a 	cmp.w	r6, #4000	; 0xfa0
 8020c04:	d942      	bls.n	8020c8c <LmhpFragmentationOnMcpsIndication+0x218>
 8020c06:	f043 0302 	orr.w	r3, r3, #2
 8020c0a:	f89d c029 	ldrb.w	ip, [sp, #41]	; 0x29
 8020c0e:	f3cc 1c01 	ubfx	ip, ip, #4, #2
 8020c12:	ea43 1a8c 	orr.w	sl, r3, ip, lsl #6
 8020c16:	071b      	lsls	r3, r3, #28
 8020c18:	d12c      	bne.n	8020c74 <LmhpFragmentationOnMcpsIndication+0x200>
 8020c1a:	2301      	movs	r3, #1
 8020c1c:	f88d 3028 	strb.w	r3, [sp, #40]	; 0x28
 8020c20:	f88d 202d 	strb.w	r2, [sp, #45]	; 0x2d
 8020c24:	9b02      	ldr	r3, [sp, #8]
 8020c26:	9a05      	ldr	r2, [sp, #20]
 8020c28:	f88d 302e 	strb.w	r3, [sp, #46]	; 0x2e
 8020c2c:	ea4f 630b 	mov.w	r3, fp, lsl #24
 8020c30:	eb03 4302 	add.w	r3, r3, r2, lsl #16
 8020c34:	9a03      	ldr	r2, [sp, #12]
 8020c36:	f8ad 602a 	strh.w	r6, [sp, #42]	; 0x2a
 8020c3a:	4413      	add	r3, r2
 8020c3c:	9a04      	ldr	r2, [sp, #16]
 8020c3e:	f88d 902c 	strb.w	r9, [sp, #44]	; 0x2c
 8020c42:	eb03 2302 	add.w	r3, r3, r2, lsl #8
 8020c46:	930c      	str	r3, [sp, #48]	; 0x30
 8020c48:	f04f 33ff 	mov.w	r3, #4294967295	; 0xffffffff
 8020c4c:	930f      	str	r3, [sp, #60]	; 0x3c
 8020c4e:	f10d 0e28 	add.w	lr, sp, #40	; 0x28
 8020c52:	2318      	movs	r3, #24
 8020c54:	fb03 8c0c 	mla	ip, r3, ip, r8
 8020c58:	e8be 000f 	ldmia.w	lr!, {r0, r1, r2, r3}
 8020c5c:	e8ac 000f 	stmia.w	ip!, {r0, r1, r2, r3}
 8020c60:	e89e 0003 	ldmia.w	lr, {r0, r1}
 8020c64:	4b24      	ldr	r3, [pc, #144]	; (8020cf8 <LmhpFragmentationOnMcpsIndication+0x284>)
 8020c66:	e88c 0003 	stmia.w	ip, {r0, r1}
 8020c6a:	681a      	ldr	r2, [r3, #0]
 8020c6c:	4649      	mov	r1, r9
 8020c6e:	4630      	mov	r0, r6
 8020c70:	f000 f9b4 	bl	8020fdc <FragDecoderInit>
 8020c74:	4b1d      	ldr	r3, [pc, #116]	; (8020cec <LmhpFragmentationOnMcpsIndication+0x278>)
 8020c76:	685a      	ldr	r2, [r3, #4]
 8020c78:	1c63      	adds	r3, r4, #1
 8020c7a:	b2db      	uxtb	r3, r3
 8020c7c:	2102      	movs	r1, #2
 8020c7e:	5511      	strb	r1, [r2, r4]
 8020c80:	440c      	add	r4, r1
 8020c82:	f802 a003 	strb.w	sl, [r2, r3]
 8020c86:	b2e4      	uxtb	r4, r4
 8020c88:	2600      	movs	r6, #0
 8020c8a:	e747      	b.n	8020b1c <LmhpFragmentationOnMcpsIndication+0xa8>
 8020c8c:	f1b9 0fc8 	cmp.w	r9, #200	; 0xc8
 8020c90:	d8b9      	bhi.n	8020c06 <LmhpFragmentationOnMcpsIndication+0x192>
 8020c92:	e9cd 2306 	strd	r2, r3, [sp, #24]
 8020c96:	f000 f9cf 	bl	8021038 <FragDecoderGetMaxFileSize>
 8020c9a:	fb09 f106 	mul.w	r1, r9, r6
 8020c9e:	4281      	cmp	r1, r0
 8020ca0:	e9dd 2306 	ldrd	r2, r3, [sp, #24]
 8020ca4:	d8af      	bhi.n	8020c06 <LmhpFragmentationOnMcpsIndication+0x192>
 8020ca6:	e7b0      	b.n	8020c0a <LmhpFragmentationOnMcpsIndication+0x196>
 8020ca8:	78ba      	ldrb	r2, [r7, #2]
 8020caa:	2a01      	cmp	r2, #1
 8020cac:	f43f af36 	beq.w	8020b1c <LmhpFragmentationOnMcpsIndication+0xa8>
 8020cb0:	5d4a      	ldrb	r2, [r1, r5]
 8020cb2:	2118      	movs	r1, #24
 8020cb4:	f002 0203 	and.w	r2, r2, #3
 8020cb8:	4351      	muls	r1, r2
 8020cba:	3302      	adds	r3, #2
 8020cbc:	f818 0001 	ldrb.w	r0, [r8, r1]
 8020cc0:	b2db      	uxtb	r3, r3
 8020cc2:	b960      	cbnz	r0, 8020cde <LmhpFragmentationOnMcpsIndication+0x26a>
 8020cc4:	f042 0204 	orr.w	r2, r2, #4
 8020cc8:	4908      	ldr	r1, [pc, #32]	; (8020cec <LmhpFragmentationOnMcpsIndication+0x278>)
 8020cca:	6848      	ldr	r0, [r1, #4]
 8020ccc:	1c61      	adds	r1, r4, #1
 8020cce:	2503      	movs	r5, #3
 8020cd0:	b2c9      	uxtb	r1, r1
 8020cd2:	5505      	strb	r5, [r0, r4]
 8020cd4:	3402      	adds	r4, #2
 8020cd6:	5442      	strb	r2, [r0, r1]
 8020cd8:	b2e4      	uxtb	r4, r4
 8020cda:	461d      	mov	r5, r3
 8020cdc:	e7d4      	b.n	8020c88 <LmhpFragmentationOnMcpsIndication+0x214>
 8020cde:	2000      	movs	r0, #0
 8020ce0:	f808 0001 	strb.w	r0, [r8, r1]
 8020ce4:	e7f0      	b.n	8020cc8 <LmhpFragmentationOnMcpsIndication+0x254>
 8020ce6:	bf00      	nop
 8020ce8:	20000518 	.word	0x20000518
 8020cec:	20000594 	.word	0x20000594
 8020cf0:	200005a0 	.word	0x200005a0
 8020cf4:	20000510 	.word	0x20000510
 8020cf8:	20000590 	.word	0x20000590
 8020cfc:	f103 0a03 	add.w	sl, r3, #3
 8020d00:	3302      	adds	r3, #2
 8020d02:	b2db      	uxtb	r3, r3
 8020d04:	5d48      	ldrb	r0, [r1, r5]
 8020d06:	f811 9003 	ldrb.w	r9, [r1, r3]
 8020d0a:	2518      	movs	r5, #24
 8020d0c:	ea40 2009 	orr.w	r0, r0, r9, lsl #8
 8020d10:	ea4f 1999 	mov.w	r9, r9, lsr #6
 8020d14:	fb05 8509 	mla	r5, r5, r9, r8
 8020d18:	fa5f fa8a 	uxtb.w	sl, sl
 8020d1c:	696b      	ldr	r3, [r5, #20]
 8020d1e:	3301      	adds	r3, #1
 8020d20:	d119      	bne.n	8020d56 <LmhpFragmentationOnMcpsIndication+0x2e2>
 8020d22:	4451      	add	r1, sl
 8020d24:	f3c0 000d 	ubfx	r0, r0, #0, #14
 8020d28:	f000 f98a 	bl	8021040 <FragDecoderProcess>
 8020d2c:	6168      	str	r0, [r5, #20]
 8020d2e:	a808      	add	r0, sp, #32
 8020d30:	f000 fb2a 	bl	8021388 <FragDecoderGetStatus>
 8020d34:	9808      	ldr	r0, [sp, #32]
 8020d36:	9909      	ldr	r1, [sp, #36]	; 0x24
 8020d38:	f105 030c 	add.w	r3, r5, #12
 8020d3c:	c303      	stmia	r3!, {r0, r1}
 8020d3e:	4b16      	ldr	r3, [pc, #88]	; (8020d98 <LmhpFragmentationOnMcpsIndication+0x324>)
 8020d40:	681b      	ldr	r3, [r3, #0]
 8020d42:	f8d3 b008 	ldr.w	fp, [r3, #8]
 8020d46:	f1bb 0f00 	cmp.w	fp, #0
 8020d4a:	d004      	beq.n	8020d56 <LmhpFragmentationOnMcpsIndication+0x2e2>
 8020d4c:	89eb      	ldrh	r3, [r5, #14]
 8020d4e:	792a      	ldrb	r2, [r5, #4]
 8020d50:	8869      	ldrh	r1, [r5, #2]
 8020d52:	89a8      	ldrh	r0, [r5, #12]
 8020d54:	47d8      	blx	fp
 8020d56:	2318      	movs	r3, #24
 8020d58:	fb03 8309 	mla	r3, r3, r9, r8
 8020d5c:	695a      	ldr	r2, [r3, #20]
 8020d5e:	2a00      	cmp	r2, #0
 8020d60:	db0c      	blt.n	8020d7c <LmhpFragmentationOnMcpsIndication+0x308>
 8020d62:	4a0d      	ldr	r2, [pc, #52]	; (8020d98 <LmhpFragmentationOnMcpsIndication+0x324>)
 8020d64:	f06f 0001 	mvn.w	r0, #1
 8020d68:	6812      	ldr	r2, [r2, #0]
 8020d6a:	6158      	str	r0, [r3, #20]
 8020d6c:	68d2      	ldr	r2, [r2, #12]
 8020d6e:	b12a      	cbz	r2, 8020d7c <LmhpFragmentationOnMcpsIndication+0x308>
 8020d70:	8859      	ldrh	r1, [r3, #2]
 8020d72:	791d      	ldrb	r5, [r3, #4]
 8020d74:	799b      	ldrb	r3, [r3, #6]
 8020d76:	4369      	muls	r1, r5
 8020d78:	1ac9      	subs	r1, r1, r3
 8020d7a:	4790      	blx	r2
 8020d7c:	2318      	movs	r3, #24
 8020d7e:	fb03 8909 	mla	r9, r3, r9, r8
 8020d82:	f899 5004 	ldrb.w	r5, [r9, #4]
 8020d86:	4455      	add	r5, sl
 8020d88:	b2ed      	uxtb	r5, r5
 8020d8a:	e6c7      	b.n	8020b1c <LmhpFragmentationOnMcpsIndication+0xa8>
 8020d8c:	4631      	mov	r1, r6
 8020d8e:	4620      	mov	r0, r4
 8020d90:	f7fe fef6 	bl	801fb80 <LmHandlerSend>
 8020d94:	e69d      	b.n	8020ad2 <LmhpFragmentationOnMcpsIndication+0x5e>
 8020d96:	bf00      	nop
 8020d98:	20000590 	.word	0x20000590

08020d9c <LmhpFragmentationProcess>:
 8020d9c:	b537      	push	{r0, r1, r2, r4, r5, lr}
 8020d9e:	a801      	add	r0, sp, #4
 8020da0:	f7fe f8b7 	bl	801ef12 <BoardCriticalSectionBegin>
 8020da4:	4b0d      	ldr	r3, [pc, #52]	; (8020ddc <LmhpFragmentationProcess+0x40>)
 8020da6:	789d      	ldrb	r5, [r3, #2]
 8020da8:	2400      	movs	r4, #0
 8020daa:	a801      	add	r0, sp, #4
 8020dac:	709c      	strb	r4, [r3, #2]
 8020dae:	f7fe f8b2 	bl	801ef16 <BoardCriticalSectionEnd>
 8020db2:	2d01      	cmp	r5, #1
 8020db4:	d003      	beq.n	8020dbe <LmhpFragmentationProcess+0x22>
 8020db6:	2d02      	cmp	r5, #2
 8020db8:	d00a      	beq.n	8020dd0 <LmhpFragmentationProcess+0x34>
 8020dba:	b003      	add	sp, #12
 8020dbc:	bd30      	pop	{r4, r5, pc}
 8020dbe:	4b08      	ldr	r3, [pc, #32]	; (8020de0 <LmhpFragmentationProcess+0x44>)
 8020dc0:	4808      	ldr	r0, [pc, #32]	; (8020de4 <LmhpFragmentationProcess+0x48>)
 8020dc2:	6819      	ldr	r1, [r3, #0]
 8020dc4:	f004 f96c 	bl	80250a0 <UTIL_TIMER_SetPeriod>
 8020dc8:	4806      	ldr	r0, [pc, #24]	; (8020de4 <LmhpFragmentationProcess+0x48>)
 8020dca:	f004 f917 	bl	8024ffc <UTIL_TIMER_Start>
 8020dce:	e7f4      	b.n	8020dba <LmhpFragmentationProcess+0x1e>
 8020dd0:	4621      	mov	r1, r4
 8020dd2:	4805      	ldr	r0, [pc, #20]	; (8020de8 <LmhpFragmentationProcess+0x4c>)
 8020dd4:	f7fe fed4 	bl	801fb80 <LmHandlerSend>
 8020dd8:	e7ef      	b.n	8020dba <LmhpFragmentationProcess+0x1e>
 8020dda:	bf00      	nop
 8020ddc:	20000594 	.word	0x20000594
 8020de0:	200005a0 	.word	0x200005a0
 8020de4:	20000578 	.word	0x20000578
 8020de8:	20000510 	.word	0x20000510

08020dec <LmhpFragmentationPackageFactory>:
 8020dec:	4800      	ldr	r0, [pc, #0]	; (8020df0 <LmhpFragmentationPackageFactory+0x4>)
 8020dee:	4770      	bx	lr
 8020df0:	20000090 	.word	0x20000090

08020df4 <SetRow>:
 8020df4:	b430      	push	{r4, r5}
 8020df6:	460b      	mov	r3, r1
 8020df8:	4906      	ldr	r1, [pc, #24]	; (8020e14 <SetRow+0x20>)
 8020dfa:	6809      	ldr	r1, [r1, #0]
 8020dfc:	b139      	cbz	r1, 8020e0e <SetRow+0x1a>
 8020dfe:	680d      	ldr	r5, [r1, #0]
 8020e00:	b12d      	cbz	r5, 8020e0e <SetRow+0x1a>
 8020e02:	4601      	mov	r1, r0
 8020e04:	fb02 f003 	mul.w	r0, r2, r3
 8020e08:	462b      	mov	r3, r5
 8020e0a:	bc30      	pop	{r4, r5}
 8020e0c:	4718      	bx	r3
 8020e0e:	bc30      	pop	{r4, r5}
 8020e10:	4770      	bx	lr
 8020e12:	bf00      	nop
 8020e14:	200005a4 	.word	0x200005a4

08020e18 <GetRow>:
 8020e18:	b430      	push	{r4, r5}
 8020e1a:	460b      	mov	r3, r1
 8020e1c:	4906      	ldr	r1, [pc, #24]	; (8020e38 <GetRow+0x20>)
 8020e1e:	6809      	ldr	r1, [r1, #0]
 8020e20:	b139      	cbz	r1, 8020e32 <GetRow+0x1a>
 8020e22:	684d      	ldr	r5, [r1, #4]
 8020e24:	b12d      	cbz	r5, 8020e32 <GetRow+0x1a>
 8020e26:	4601      	mov	r1, r0
 8020e28:	fb02 f003 	mul.w	r0, r2, r3
 8020e2c:	462b      	mov	r3, r5
 8020e2e:	bc30      	pop	{r4, r5}
 8020e30:	4718      	bx	r3
 8020e32:	bc30      	pop	{r4, r5}
 8020e34:	4770      	bx	lr
 8020e36:	bf00      	nop
 8020e38:	200005a4 	.word	0x200005a4

08020e3c <GetParity>:
 8020e3c:	08c3      	lsrs	r3, r0, #3
 8020e3e:	43c0      	mvns	r0, r0
 8020e40:	5ccb      	ldrb	r3, [r1, r3]
 8020e42:	f000 0007 	and.w	r0, r0, #7
 8020e46:	fa43 f000 	asr.w	r0, r3, r0
 8020e4a:	f000 0001 	and.w	r0, r0, #1
 8020e4e:	4770      	bx	lr

08020e50 <SetParity>:
 8020e50:	43c3      	mvns	r3, r0
 8020e52:	f003 0307 	and.w	r3, r3, #7
 8020e56:	08c0      	lsrs	r0, r0, #3
 8020e58:	b510      	push	{r4, lr}
 8020e5a:	fa02 f403 	lsl.w	r4, r2, r3
 8020e5e:	2201      	movs	r2, #1
 8020e60:	fa02 f303 	lsl.w	r3, r2, r3
 8020e64:	5c0a      	ldrb	r2, [r1, r0]
 8020e66:	ea22 0203 	bic.w	r2, r2, r3
 8020e6a:	4422      	add	r2, r4
 8020e6c:	540a      	strb	r2, [r1, r0]
 8020e6e:	bd10      	pop	{r4, pc}

08020e70 <XorDataLine>:
 8020e70:	b510      	push	{r4, lr}
 8020e72:	3901      	subs	r1, #1
 8020e74:	4402      	add	r2, r0
 8020e76:	4290      	cmp	r0, r2
 8020e78:	d100      	bne.n	8020e7c <XorDataLine+0xc>
 8020e7a:	bd10      	pop	{r4, pc}
 8020e7c:	7803      	ldrb	r3, [r0, #0]
 8020e7e:	f811 4f01 	ldrb.w	r4, [r1, #1]!
 8020e82:	4063      	eors	r3, r4
 8020e84:	f800 3b01 	strb.w	r3, [r0], #1
 8020e88:	e7f5      	b.n	8020e76 <XorDataLine+0x6>

08020e8a <XorParityLine>:
 8020e8a:	b5f8      	push	{r3, r4, r5, r6, r7, lr}
 8020e8c:	4605      	mov	r5, r0
 8020e8e:	460f      	mov	r7, r1
 8020e90:	b296      	uxth	r6, r2
 8020e92:	2400      	movs	r4, #0
 8020e94:	42b4      	cmp	r4, r6
 8020e96:	d100      	bne.n	8020e9a <XorParityLine+0x10>
 8020e98:	bdf8      	pop	{r3, r4, r5, r6, r7, pc}
 8020e9a:	4629      	mov	r1, r5
 8020e9c:	4620      	mov	r0, r4
 8020e9e:	f7ff ffcd 	bl	8020e3c <GetParity>
 8020ea2:	4639      	mov	r1, r7
 8020ea4:	4602      	mov	r2, r0
 8020ea6:	4620      	mov	r0, r4
 8020ea8:	f7ff ffc8 	bl	8020e3c <GetParity>
 8020eac:	4042      	eors	r2, r0
 8020eae:	b2d2      	uxtb	r2, r2
 8020eb0:	4620      	mov	r0, r4
 8020eb2:	4629      	mov	r1, r5
 8020eb4:	3401      	adds	r4, #1
 8020eb6:	f7ff ffcb 	bl	8020e50 <SetParity>
 8020eba:	b2a4      	uxth	r4, r4
 8020ebc:	e7ea      	b.n	8020e94 <XorParityLine+0xa>
	...

08020ec0 <FragFindMissingFrags>:
 8020ec0:	b5f0      	push	{r4, r5, r6, r7, lr}
 8020ec2:	4d16      	ldr	r5, [pc, #88]	; (8020f1c <FragFindMissingFrags+0x5c>)
 8020ec4:	f505 5600 	add.w	r6, r5, #8192	; 0x2000
 8020ec8:	88a9      	ldrh	r1, [r5, #4]
 8020eca:	f8b6 7472 	ldrh.w	r7, [r6, #1138]	; 0x472
 8020ece:	f8b6 2470 	ldrh.w	r2, [r6, #1136]	; 0x470
 8020ed2:	463c      	mov	r4, r7
 8020ed4:	f04f 0c00 	mov.w	ip, #0
 8020ed8:	1e43      	subs	r3, r0, #1
 8020eda:	f505 65a4 	add.w	r5, r5, #1312	; 0x520
 8020ede:	42a3      	cmp	r3, r4
 8020ee0:	dc11      	bgt.n	8020f06 <FragFindMissingFrags+0x46>
 8020ee2:	43fb      	mvns	r3, r7
 8020ee4:	4403      	add	r3, r0
 8020ee6:	4287      	cmp	r7, r0
 8020ee8:	bf28      	it	cs
 8020eea:	2300      	movcs	r3, #0
 8020eec:	443b      	add	r3, r7
 8020eee:	f1bc 0f00 	cmp.w	ip, #0
 8020ef2:	d001      	beq.n	8020ef8 <FragFindMissingFrags+0x38>
 8020ef4:	f8a6 2470 	strh.w	r2, [r6, #1136]	; 0x470
 8020ef8:	4299      	cmp	r1, r3
 8020efa:	bfdc      	itt	le
 8020efc:	1c48      	addle	r0, r1, #1
 8020efe:	b280      	uxthle	r0, r0
 8020f00:	f8a6 0472 	strh.w	r0, [r6, #1138]	; 0x472
 8020f04:	bdf0      	pop	{r4, r5, r6, r7, pc}
 8020f06:	42a1      	cmp	r1, r4
 8020f08:	bfc1      	itttt	gt
 8020f0a:	3201      	addgt	r2, #1
 8020f0c:	b292      	uxthgt	r2, r2
 8020f0e:	f825 2014 	strhgt.w	r2, [r5, r4, lsl #1]
 8020f12:	f04f 0c01 	movgt.w	ip, #1
 8020f16:	3401      	adds	r4, #1
 8020f18:	e7e1      	b.n	8020ede <FragFindMissingFrags+0x1e>
 8020f1a:	bf00      	nop
 8020f1c:	200005a4 	.word	0x200005a4

08020f20 <FragFindMissingIndex>:
 8020f20:	b530      	push	{r4, r5, lr}
 8020f22:	4b09      	ldr	r3, [pc, #36]	; (8020f48 <FragFindMissingIndex+0x28>)
 8020f24:	2200      	movs	r2, #0
 8020f26:	889c      	ldrh	r4, [r3, #4]
 8020f28:	1c41      	adds	r1, r0, #1
 8020f2a:	f503 63a4 	add.w	r3, r3, #1312	; 0x520
 8020f2e:	b290      	uxth	r0, r2
 8020f30:	4284      	cmp	r4, r0
 8020f32:	d801      	bhi.n	8020f38 <FragFindMissingIndex+0x18>
 8020f34:	2000      	movs	r0, #0
 8020f36:	e005      	b.n	8020f44 <FragFindMissingIndex+0x24>
 8020f38:	f833 5b02 	ldrh.w	r5, [r3], #2
 8020f3c:	428d      	cmp	r5, r1
 8020f3e:	f102 0201 	add.w	r2, r2, #1
 8020f42:	d1f4      	bne.n	8020f2e <FragFindMissingIndex+0xe>
 8020f44:	bd30      	pop	{r4, r5, pc}
 8020f46:	bf00      	nop
 8020f48:	200005a4 	.word	0x200005a4

08020f4c <FragExtractLineFromBinaryMatrix>:
 8020f4c:	e92d 43f8 	stmdb	sp!, {r3, r4, r5, r6, r7, r8, r9, lr}
 8020f50:	4680      	mov	r8, r0
 8020f52:	4616      	mov	r6, r2
 8020f54:	460d      	mov	r5, r1
 8020f56:	b311      	cbz	r1, 8020f9e <FragExtractLineFromBinaryMatrix+0x52>
 8020f58:	1e4b      	subs	r3, r1, #1
 8020f5a:	434b      	muls	r3, r1
 8020f5c:	fb01 f402 	mul.w	r4, r1, r2
 8020f60:	eba4 0463 	sub.w	r4, r4, r3, asr #1
 8020f64:	4263      	negs	r3, r4
 8020f66:	f003 0307 	and.w	r3, r3, #7
 8020f6a:	ea4f 07e4 	mov.w	r7, r4, asr #3
 8020f6e:	f04f 0900 	mov.w	r9, #0
 8020f72:	f004 0407 	and.w	r4, r4, #7
 8020f76:	bf58      	it	pl
 8020f78:	425c      	negpl	r4, r3
 8020f7a:	fa1f f089 	uxth.w	r0, r9
 8020f7e:	2200      	movs	r2, #0
 8020f80:	4641      	mov	r1, r8
 8020f82:	f109 0901 	add.w	r9, r9, #1
 8020f86:	f7ff ff63 	bl	8020e50 <SetParity>
 8020f8a:	fa1f f389 	uxth.w	r3, r9
 8020f8e:	429d      	cmp	r5, r3
 8020f90:	d8f3      	bhi.n	8020f7a <FragExtractLineFromBinaryMatrix+0x2e>
 8020f92:	f8df 9038 	ldr.w	r9, [pc, #56]	; 8020fcc <FragExtractLineFromBinaryMatrix+0x80>
 8020f96:	42b5      	cmp	r5, r6
 8020f98:	d304      	bcc.n	8020fa4 <FragExtractLineFromBinaryMatrix+0x58>
 8020f9a:	e8bd 83f8 	ldmia.w	sp!, {r3, r4, r5, r6, r7, r8, r9, pc}
 8020f9e:	460c      	mov	r4, r1
 8020fa0:	460f      	mov	r7, r1
 8020fa2:	e7f6      	b.n	8020f92 <FragExtractLineFromBinaryMatrix+0x46>
 8020fa4:	eb09 0307 	add.w	r3, r9, r7
 8020fa8:	4628      	mov	r0, r5
 8020faa:	7b1a      	ldrb	r2, [r3, #12]
 8020fac:	f1c4 0307 	rsb	r3, r4, #7
 8020fb0:	411a      	asrs	r2, r3
 8020fb2:	3401      	adds	r4, #1
 8020fb4:	f002 0201 	and.w	r2, r2, #1
 8020fb8:	4641      	mov	r1, r8
 8020fba:	f7ff ff49 	bl	8020e50 <SetParity>
 8020fbe:	3501      	adds	r5, #1
 8020fc0:	2c08      	cmp	r4, #8
 8020fc2:	bf04      	itt	eq
 8020fc4:	3701      	addeq	r7, #1
 8020fc6:	2400      	moveq	r4, #0
 8020fc8:	b2ad      	uxth	r5, r5
 8020fca:	e7e4      	b.n	8020f96 <FragExtractLineFromBinaryMatrix+0x4a>
 8020fcc:	200005a4 	.word	0x200005a4

08020fd0 <FragDecoderUpdateCallback>:
 8020fd0:	4b01      	ldr	r3, [pc, #4]	; (8020fd8 <FragDecoderUpdateCallback+0x8>)
 8020fd2:	6018      	str	r0, [r3, #0]
 8020fd4:	4770      	bx	lr
 8020fd6:	bf00      	nop
 8020fd8:	200005a4 	.word	0x200005a4

08020fdc <FragDecoderInit>:
 8020fdc:	4b13      	ldr	r3, [pc, #76]	; (802102c <FragDecoderInit+0x50>)
 8020fde:	7199      	strb	r1, [r3, #6]
 8020fe0:	f503 5100 	add.w	r1, r3, #8192	; 0x2000
 8020fe4:	601a      	str	r2, [r3, #0]
 8020fe6:	2200      	movs	r2, #0
 8020fe8:	f8c1 2470 	str.w	r2, [r1, #1136]	; 0x470
 8020fec:	609a      	str	r2, [r3, #8]
 8020fee:	8098      	strh	r0, [r3, #4]
 8020ff0:	f503 62a4 	add.w	r2, r3, #1312	; 0x520
 8020ff4:	2101      	movs	r1, #1
 8020ff6:	f44f 637a 	mov.w	r3, #4000	; 0xfa0
 8020ffa:	3b01      	subs	r3, #1
 8020ffc:	b29b      	uxth	r3, r3
 8020ffe:	f822 1b02 	strh.w	r1, [r2], #2
 8021002:	2b00      	cmp	r3, #0
 8021004:	d1f9      	bne.n	8020ffa <FragDecoderInit+0x1e>
 8021006:	4a0a      	ldr	r2, [pc, #40]	; (8021030 <FragDecoderInit+0x54>)
 8021008:	4619      	mov	r1, r3
 802100a:	3301      	adds	r3, #1
 802100c:	2b0d      	cmp	r3, #13
 802100e:	f802 1b01 	strb.w	r1, [r2], #1
 8021012:	d1fa      	bne.n	802100a <FragDecoderInit+0x2e>
 8021014:	4a07      	ldr	r2, [pc, #28]	; (8021034 <FragDecoderInit+0x58>)
 8021016:	2300      	movs	r3, #0
 8021018:	20ff      	movs	r0, #255	; 0xff
 802101a:	f240 5114 	movw	r1, #1300	; 0x514
 802101e:	3301      	adds	r3, #1
 8021020:	428b      	cmp	r3, r1
 8021022:	f802 0b01 	strb.w	r0, [r2], #1
 8021026:	d1fa      	bne.n	802101e <FragDecoderInit+0x42>
 8021028:	4770      	bx	lr
 802102a:	bf00      	nop
 802102c:	200005a4 	.word	0x200005a4
 8021030:	20002a04 	.word	0x20002a04
 8021034:	200005b0 	.word	0x200005b0

08021038 <FragDecoderGetMaxFileSize>:
 8021038:	4800      	ldr	r0, [pc, #0]	; (802103c <FragDecoderGetMaxFileSize+0x4>)
 802103a:	4770      	bx	lr
 802103c:	000c3500 	.word	0x000c3500

08021040 <FragDecoderProcess>:
 8021040:	e92d 4ff0 	stmdb	sp!, {r4, r5, r6, r7, r8, r9, sl, fp, lr}
 8021044:	f5ad 7d39 	sub.w	sp, sp, #740	; 0x2e4
 8021048:	4604      	mov	r4, r0
 802104a:	f240 12f5 	movw	r2, #501	; 0x1f5
 802104e:	a83a      	add	r0, sp, #232	; 0xe8
 8021050:	4eb6      	ldr	r6, [pc, #728]	; (802132c <FragDecoderProcess+0x2ec>)
 8021052:	4688      	mov	r8, r1
 8021054:	2100      	movs	r1, #0
 8021056:	f00b fcec 	bl	802ca32 <memset1>
 802105a:	22c8      	movs	r2, #200	; 0xc8
 802105c:	2100      	movs	r1, #0
 802105e:	a808      	add	r0, sp, #32
 8021060:	f00b fce7 	bl	802ca32 <memset1>
 8021064:	f506 5700 	add.w	r7, r6, #8192	; 0x2000
 8021068:	220d      	movs	r2, #13
 802106a:	2100      	movs	r1, #0
 802106c:	4668      	mov	r0, sp
 802106e:	f00b fce0 	bl	802ca32 <memset1>
 8021072:	220d      	movs	r2, #13
 8021074:	2100      	movs	r1, #0
 8021076:	a804      	add	r0, sp, #16
 8021078:	f00b fcdb 	bl	802ca32 <memset1>
 802107c:	f8b7 3472 	ldrh.w	r3, [r7, #1138]	; 0x472
 8021080:	f8a7 446e 	strh.w	r4, [r7, #1134]	; 0x46e
 8021084:	42a3      	cmp	r3, r4
 8021086:	d905      	bls.n	8021094 <FragDecoderProcess+0x54>
 8021088:	f04f 30ff 	mov.w	r0, #4294967295	; 0xffffffff
 802108c:	f50d 7d39 	add.w	sp, sp, #740	; 0x2e4
 8021090:	e8bd 8ff0 	ldmia.w	sp!, {r4, r5, r6, r7, r8, r9, sl, fp, pc}
 8021094:	88b3      	ldrh	r3, [r6, #4]
 8021096:	42a3      	cmp	r3, r4
 8021098:	d317      	bcc.n	80210ca <FragDecoderProcess+0x8a>
 802109a:	1e61      	subs	r1, r4, #1
 802109c:	79b2      	ldrb	r2, [r6, #6]
 802109e:	b289      	uxth	r1, r1
 80210a0:	4640      	mov	r0, r8
 80210a2:	f7ff fea7 	bl	8020df4 <SetRow>
 80210a6:	f204 238f 	addw	r3, r4, #655	; 0x28f
 80210aa:	2200      	movs	r2, #0
 80210ac:	f826 2013 	strh.w	r2, [r6, r3, lsl #1]
 80210b0:	4620      	mov	r0, r4
 80210b2:	f7ff ff05 	bl	8020ec0 <FragFindMissingFrags>
 80210b6:	f8b7 3470 	ldrh.w	r3, [r7, #1136]	; 0x470
 80210ba:	2b00      	cmp	r3, #0
 80210bc:	d1e4      	bne.n	8021088 <FragDecoderProcess+0x48>
 80210be:	88b0      	ldrh	r0, [r6, #4]
 80210c0:	1b00      	subs	r0, r0, r4
 80210c2:	bf18      	it	ne
 80210c4:	f04f 30ff 	movne.w	r0, #4294967295	; 0xffffffff
 80210c8:	e7e0      	b.n	802108c <FragDecoderProcess+0x4c>
 80210ca:	f8b7 3470 	ldrh.w	r3, [r7, #1136]	; 0x470
 80210ce:	2b64      	cmp	r3, #100	; 0x64
 80210d0:	d904      	bls.n	80210dc <FragDecoderProcess+0x9c>
 80210d2:	2301      	movs	r3, #1
 80210d4:	f887 3474 	strb.w	r3, [r7, #1140]	; 0x474
 80210d8:	2000      	movs	r0, #0
 80210da:	e7d7      	b.n	802108c <FragDecoderProcess+0x4c>
 80210dc:	4620      	mov	r0, r4
 80210de:	f7ff feef 	bl	8020ec0 <FragFindMissingFrags>
 80210e2:	f8b6 9004 	ldrh.w	r9, [r6, #4]
 80210e6:	2300      	movs	r3, #0
 80210e8:	eba4 0409 	sub.w	r4, r4, r9
 80210ec:	461d      	mov	r5, r3
 80210ee:	2101      	movs	r1, #1
 80210f0:	fa01 f203 	lsl.w	r2, r1, r3
 80210f4:	ea02 0209 	and.w	r2, r2, r9
 80210f8:	40da      	lsrs	r2, r3
 80210fa:	3301      	adds	r3, #1
 80210fc:	4415      	add	r5, r2
 80210fe:	2b20      	cmp	r3, #32
 8021100:	b2ed      	uxtb	r5, r5
 8021102:	d1f5      	bne.n	80210f0 <FragDecoderProcess+0xb0>
 8021104:	1e6b      	subs	r3, r5, #1
 8021106:	425d      	negs	r5, r3
 8021108:	f240 30e9 	movw	r0, #1001	; 0x3e9
 802110c:	fb00 f404 	mul.w	r4, r0, r4
 8021110:	415d      	adcs	r5, r3
 8021112:	2300      	movs	r3, #0
 8021114:	3401      	adds	r4, #1
 8021116:	ea4f 01e9 	mov.w	r1, r9, asr #3
 802111a:	aa3a      	add	r2, sp, #232	; 0xe8
 802111c:	4618      	mov	r0, r3
 802111e:	3301      	adds	r3, #1
 8021120:	428b      	cmp	r3, r1
 8021122:	f802 0b01 	strb.w	r0, [r2], #1
 8021126:	ddfa      	ble.n	802111e <FragDecoderProcess+0xde>
 8021128:	ea4f 0b69 	mov.w	fp, r9, asr #1
 802112c:	f04f 0a00 	mov.w	sl, #0
 8021130:	444d      	add	r5, r9
 8021132:	45da      	cmp	sl, fp
 8021134:	d10e      	bne.n	8021154 <FragDecoderProcess+0x114>
 8021136:	2400      	movs	r4, #0
 8021138:	f8df a1f4 	ldr.w	sl, [pc, #500]	; 8021330 <FragDecoderProcess+0x2f0>
 802113c:	46a1      	mov	r9, r4
 802113e:	88b3      	ldrh	r3, [r6, #4]
 8021140:	42a3      	cmp	r3, r4
 8021142:	dc1c      	bgt.n	802117e <FragDecoderProcess+0x13e>
 8021144:	f8b7 5470 	ldrh.w	r5, [r7, #1136]	; 0x470
 8021148:	2200      	movs	r2, #0
 802114a:	b294      	uxth	r4, r2
 802114c:	42a5      	cmp	r5, r4
 802114e:	d839      	bhi.n	80211c4 <FragDecoderProcess+0x184>
 8021150:	2400      	movs	r4, #0
 8021152:	e03f      	b.n	80211d4 <FragDecoderProcess+0x194>
 8021154:	ea84 1364 	eor.w	r3, r4, r4, asr #5
 8021158:	059b      	lsls	r3, r3, #22
 802115a:	f403 0380 	and.w	r3, r3, #4194304	; 0x400000
 802115e:	eb03 0464 	add.w	r4, r3, r4, asr #1
 8021162:	fb94 f0f5 	sdiv	r0, r4, r5
 8021166:	fb05 4010 	mls	r0, r5, r0, r4
 802116a:	4581      	cmp	r9, r0
 802116c:	ddf2      	ble.n	8021154 <FragDecoderProcess+0x114>
 802116e:	2201      	movs	r2, #1
 8021170:	a93a      	add	r1, sp, #232	; 0xe8
 8021172:	b280      	uxth	r0, r0
 8021174:	f7ff fe6c 	bl	8020e50 <SetParity>
 8021178:	f10a 0a01 	add.w	sl, sl, #1
 802117c:	e7d9      	b.n	8021132 <FragDecoderProcess+0xf2>
 802117e:	fa1f fb84 	uxth.w	fp, r4
 8021182:	a93a      	add	r1, sp, #232	; 0xe8
 8021184:	4658      	mov	r0, fp
 8021186:	f7ff fe59 	bl	8020e3c <GetParity>
 802118a:	2801      	cmp	r0, #1
 802118c:	4605      	mov	r5, r0
 802118e:	d10f      	bne.n	80211b0 <FragDecoderProcess+0x170>
 8021190:	f83a 2014 	ldrh.w	r2, [sl, r4, lsl #1]
 8021194:	b972      	cbnz	r2, 80211b4 <FragDecoderProcess+0x174>
 8021196:	4658      	mov	r0, fp
 8021198:	f7ff fe5a 	bl	8020e50 <SetParity>
 802119c:	79b2      	ldrb	r2, [r6, #6]
 802119e:	4659      	mov	r1, fp
 80211a0:	a808      	add	r0, sp, #32
 80211a2:	f7ff fe39 	bl	8020e18 <GetRow>
 80211a6:	79b2      	ldrb	r2, [r6, #6]
 80211a8:	a908      	add	r1, sp, #32
 80211aa:	4640      	mov	r0, r8
 80211ac:	f7ff fe60 	bl	8020e70 <XorDataLine>
 80211b0:	3401      	adds	r4, #1
 80211b2:	e7c4      	b.n	802113e <FragDecoderProcess+0xfe>
 80211b4:	1e50      	subs	r0, r2, #1
 80211b6:	4669      	mov	r1, sp
 80211b8:	462a      	mov	r2, r5
 80211ba:	b280      	uxth	r0, r0
 80211bc:	f7ff fe48 	bl	8020e50 <SetParity>
 80211c0:	46a9      	mov	r9, r5
 80211c2:	e7f5      	b.n	80211b0 <FragDecoderProcess+0x170>
 80211c4:	4669      	mov	r1, sp
 80211c6:	4620      	mov	r0, r4
 80211c8:	f7ff fe38 	bl	8020e3c <GetParity>
 80211cc:	2801      	cmp	r0, #1
 80211ce:	f102 0201 	add.w	r2, r2, #1
 80211d2:	d1ba      	bne.n	802114a <FragDecoderProcess+0x10a>
 80211d4:	f1b9 0f00 	cmp.w	r9, #0
 80211d8:	f43f af56 	beq.w	8021088 <FragDecoderProcess+0x48>
 80211dc:	4d55      	ldr	r5, [pc, #340]	; (8021334 <FragDecoderProcess+0x2f4>)
 80211de:	4629      	mov	r1, r5
 80211e0:	4620      	mov	r0, r4
 80211e2:	f7ff fe2b 	bl	8020e3c <GetParity>
 80211e6:	2801      	cmp	r0, #1
 80211e8:	f8b7 2470 	ldrh.w	r2, [r7, #1136]	; 0x470
 80211ec:	d004      	beq.n	80211f8 <FragDecoderProcess+0x1b8>
 80211ee:	2c00      	cmp	r4, #0
 80211f0:	d15d      	bne.n	80212ae <FragDecoderProcess+0x26e>
 80211f2:	4625      	mov	r5, r4
 80211f4:	46a2      	mov	sl, r4
 80211f6:	e069      	b.n	80212cc <FragDecoderProcess+0x28c>
 80211f8:	4621      	mov	r1, r4
 80211fa:	a804      	add	r0, sp, #16
 80211fc:	f7ff fea6 	bl	8020f4c <FragExtractLineFromBinaryMatrix>
 8021200:	f8b7 2470 	ldrh.w	r2, [r7, #1136]	; 0x470
 8021204:	a904      	add	r1, sp, #16
 8021206:	4668      	mov	r0, sp
 8021208:	f7ff fe3f 	bl	8020e8a <XorParityLine>
 802120c:	4620      	mov	r0, r4
 802120e:	f7ff fe87 	bl	8020f20 <FragFindMissingIndex>
 8021212:	79b2      	ldrb	r2, [r6, #6]
 8021214:	4601      	mov	r1, r0
 8021216:	a808      	add	r0, sp, #32
 8021218:	f7ff fdfe 	bl	8020e18 <GetRow>
 802121c:	79b2      	ldrb	r2, [r6, #6]
 802121e:	a908      	add	r1, sp, #32
 8021220:	4640      	mov	r0, r8
 8021222:	f7ff fe25 	bl	8020e70 <XorDataLine>
 8021226:	f8b7 9470 	ldrh.w	r9, [r7, #1136]	; 0x470
 802122a:	2200      	movs	r2, #0
 802122c:	b290      	uxth	r0, r2
 802122e:	4581      	cmp	r9, r0
 8021230:	d827      	bhi.n	8021282 <FragDecoderProcess+0x242>
 8021232:	f8b7 3470 	ldrh.w	r3, [r7, #1136]	; 0x470
 8021236:	68b4      	ldr	r4, [r6, #8]
 8021238:	429c      	cmp	r4, r3
 802123a:	f47f af25 	bne.w	8021088 <FragDecoderProcess+0x48>
 802123e:	2c01      	cmp	r4, #1
 8021240:	4620      	mov	r0, r4
 8021242:	f67f af23 	bls.w	802108c <FragDecoderProcess+0x4c>
 8021246:	4f39      	ldr	r7, [pc, #228]	; (802132c <FragDecoderProcess+0x2ec>)
 8021248:	3c02      	subs	r4, #2
 802124a:	f507 5500 	add.w	r5, r7, #8192	; 0x2000
 802124e:	fa1f fb84 	uxth.w	fp, r4
 8021252:	4658      	mov	r0, fp
 8021254:	f7ff fe64 	bl	8020f20 <FragFindMissingIndex>
 8021258:	79ba      	ldrb	r2, [r7, #6]
 802125a:	4601      	mov	r1, r0
 802125c:	4681      	mov	r9, r0
 802125e:	a808      	add	r0, sp, #32
 8021260:	f7ff fdda 	bl	8020e18 <GetRow>
 8021264:	f8b5 6470 	ldrh.w	r6, [r5, #1136]	; 0x470
 8021268:	3e01      	subs	r6, #1
 802126a:	42a6      	cmp	r6, r4
 802126c:	dc64      	bgt.n	8021338 <FragDecoderProcess+0x2f8>
 802126e:	79ba      	ldrb	r2, [r7, #6]
 8021270:	4649      	mov	r1, r9
 8021272:	a808      	add	r0, sp, #32
 8021274:	f7ff fdbe 	bl	8020df4 <SetRow>
 8021278:	3c01      	subs	r4, #1
 802127a:	d2e8      	bcs.n	802124e <FragDecoderProcess+0x20e>
 802127c:	f8b5 0470 	ldrh.w	r0, [r5, #1136]	; 0x470
 8021280:	e704      	b.n	802108c <FragDecoderProcess+0x4c>
 8021282:	4669      	mov	r1, sp
 8021284:	f7ff fdda 	bl	8020e3c <GetParity>
 8021288:	2801      	cmp	r0, #1
 802128a:	f102 0201 	add.w	r2, r2, #1
 802128e:	d1cd      	bne.n	802122c <FragDecoderProcess+0x1ec>
 8021290:	2200      	movs	r2, #0
 8021292:	e007      	b.n	80212a4 <FragDecoderProcess+0x264>
 8021294:	4669      	mov	r1, sp
 8021296:	4620      	mov	r0, r4
 8021298:	f7ff fdd0 	bl	8020e3c <GetParity>
 802129c:	2801      	cmp	r0, #1
 802129e:	f102 0201 	add.w	r2, r2, #1
 80212a2:	d09c      	beq.n	80211de <FragDecoderProcess+0x19e>
 80212a4:	b294      	uxth	r4, r2
 80212a6:	45a1      	cmp	r9, r4
 80212a8:	d8f4      	bhi.n	8021294 <FragDecoderProcess+0x254>
 80212aa:	2400      	movs	r4, #0
 80212ac:	e797      	b.n	80211de <FragDecoderProcess+0x19e>
 80212ae:	1e63      	subs	r3, r4, #1
 80212b0:	4363      	muls	r3, r4
 80212b2:	fb04 f502 	mul.w	r5, r4, r2
 80212b6:	eba5 0563 	sub.w	r5, r5, r3, asr #1
 80212ba:	426b      	negs	r3, r5
 80212bc:	f003 0307 	and.w	r3, r3, #7
 80212c0:	ea4f 0ae5 	mov.w	sl, r5, asr #3
 80212c4:	f005 0507 	and.w	r5, r5, #7
 80212c8:	bf58      	it	pl
 80212ca:	425d      	negpl	r5, r3
 80212cc:	46a1      	mov	r9, r4
 80212ce:	f04f 0b01 	mov.w	fp, #1
 80212d2:	e018      	b.n	8021306 <FragDecoderProcess+0x2c6>
 80212d4:	4669      	mov	r1, sp
 80212d6:	4648      	mov	r0, r9
 80212d8:	f7ff fdb0 	bl	8020e3c <GetParity>
 80212dc:	b948      	cbnz	r0, 80212f2 <FragDecoderProcess+0x2b2>
 80212de:	eb06 030a 	add.w	r3, r6, sl
 80212e2:	f1c5 0107 	rsb	r1, r5, #7
 80212e6:	fa0b f001 	lsl.w	r0, fp, r1
 80212ea:	7b19      	ldrb	r1, [r3, #12]
 80212ec:	ea21 0100 	bic.w	r1, r1, r0
 80212f0:	7319      	strb	r1, [r3, #12]
 80212f2:	3501      	adds	r5, #1
 80212f4:	2d08      	cmp	r5, #8
 80212f6:	f109 0901 	add.w	r9, r9, #1
 80212fa:	bf04      	itt	eq
 80212fc:	f10a 0a01 	addeq.w	sl, sl, #1
 8021300:	2500      	moveq	r5, #0
 8021302:	fa1f f989 	uxth.w	r9, r9
 8021306:	4591      	cmp	r9, r2
 8021308:	d3e4      	bcc.n	80212d4 <FragDecoderProcess+0x294>
 802130a:	4620      	mov	r0, r4
 802130c:	f7ff fe08 	bl	8020f20 <FragFindMissingIndex>
 8021310:	79b2      	ldrb	r2, [r6, #6]
 8021312:	4601      	mov	r1, r0
 8021314:	4640      	mov	r0, r8
 8021316:	f7ff fd6d 	bl	8020df4 <SetRow>
 802131a:	4906      	ldr	r1, [pc, #24]	; (8021334 <FragDecoderProcess+0x2f4>)
 802131c:	2201      	movs	r2, #1
 802131e:	4620      	mov	r0, r4
 8021320:	f7ff fd96 	bl	8020e50 <SetParity>
 8021324:	68b3      	ldr	r3, [r6, #8]
 8021326:	3301      	adds	r3, #1
 8021328:	60b3      	str	r3, [r6, #8]
 802132a:	e782      	b.n	8021232 <FragDecoderProcess+0x1f2>
 802132c:	200005a4 	.word	0x200005a4
 8021330:	20000ac4 	.word	0x20000ac4
 8021334:	20002a04 	.word	0x20002a04
 8021338:	f8b5 2470 	ldrh.w	r2, [r5, #1136]	; 0x470
 802133c:	4659      	mov	r1, fp
 802133e:	a804      	add	r0, sp, #16
 8021340:	fa1f fa86 	uxth.w	sl, r6
 8021344:	f7ff fe02 	bl	8020f4c <FragExtractLineFromBinaryMatrix>
 8021348:	4651      	mov	r1, sl
 802134a:	4668      	mov	r0, sp
 802134c:	f8b5 2470 	ldrh.w	r2, [r5, #1136]	; 0x470
 8021350:	f7ff fdfc 	bl	8020f4c <FragExtractLineFromBinaryMatrix>
 8021354:	a904      	add	r1, sp, #16
 8021356:	4650      	mov	r0, sl
 8021358:	f7ff fd70 	bl	8020e3c <GetParity>
 802135c:	2801      	cmp	r0, #1
 802135e:	d183      	bne.n	8021268 <FragDecoderProcess+0x228>
 8021360:	f8b5 2470 	ldrh.w	r2, [r5, #1136]	; 0x470
 8021364:	4669      	mov	r1, sp
 8021366:	a804      	add	r0, sp, #16
 8021368:	f7ff fd8f 	bl	8020e8a <XorParityLine>
 802136c:	4650      	mov	r0, sl
 802136e:	f7ff fdd7 	bl	8020f20 <FragFindMissingIndex>
 8021372:	79ba      	ldrb	r2, [r7, #6]
 8021374:	4601      	mov	r1, r0
 8021376:	4640      	mov	r0, r8
 8021378:	f7ff fd4e 	bl	8020e18 <GetRow>
 802137c:	79ba      	ldrb	r2, [r7, #6]
 802137e:	4641      	mov	r1, r8
 8021380:	a808      	add	r0, sp, #32
 8021382:	f7ff fd75 	bl	8020e70 <XorDataLine>
 8021386:	e76f      	b.n	8021268 <FragDecoderProcess+0x228>

08021388 <FragDecoderGetStatus>:
 8021388:	4903      	ldr	r1, [pc, #12]	; (8021398 <FragDecoderGetStatus+0x10>)
 802138a:	f8d1 246e 	ldr.w	r2, [r1, #1134]	; 0x46e
 802138e:	6002      	str	r2, [r0, #0]
 8021390:	f8d1 2472 	ldr.w	r2, [r1, #1138]	; 0x472
 8021394:	6042      	str	r2, [r0, #4]
 8021396:	4770      	bx	lr
 8021398:	200025a4 	.word	0x200025a4

0802139c <udrv_flash_init>:
 802139c:	b510      	push	{r4, lr}
 802139e:	4c04      	ldr	r4, [pc, #16]	; (80213b0 <udrv_flash_init+0x14>)
 80213a0:	7823      	ldrb	r3, [r4, #0]
 80213a2:	b91b      	cbnz	r3, 80213ac <udrv_flash_init+0x10>
 80213a4:	f001 fa36 	bl	8022814 <uhal_flash_init>
 80213a8:	2301      	movs	r3, #1
 80213aa:	7023      	strb	r3, [r4, #0]
 80213ac:	bd10      	pop	{r4, pc}
 80213ae:	bf00      	nop
 80213b0:	20003a20 	.word	0x20003a20

080213b4 <udrv_flash_deinit>:
 80213b4:	b510      	push	{r4, lr}
 80213b6:	4c04      	ldr	r4, [pc, #16]	; (80213c8 <udrv_flash_deinit+0x14>)
 80213b8:	7823      	ldrb	r3, [r4, #0]
 80213ba:	b11b      	cbz	r3, 80213c4 <udrv_flash_deinit+0x10>
 80213bc:	f001 fa2b 	bl	8022816 <uhal_flash_deinit>
 80213c0:	2300      	movs	r3, #0
 80213c2:	7023      	strb	r3, [r4, #0]
 80213c4:	bd10      	pop	{r4, pc}
 80213c6:	bf00      	nop
 80213c8:	20003a20 	.word	0x20003a20

080213cc <udrv_flash_read>:
 80213cc:	e92d 4ff0 	stmdb	sp!, {r4, r5, r6, r7, r8, r9, sl, fp, lr}
 80213d0:	b087      	sub	sp, #28
 80213d2:	4683      	mov	fp, r0
 80213d4:	460e      	mov	r6, r1
 80213d6:	4615      	mov	r5, r2
 80213d8:	f001 fa70 	bl	80228bc <uhal_flash_get_page_size>
 80213dc:	f5b0 5f80 	cmp.w	r0, #4096	; 0x1000
 80213e0:	4604      	mov	r4, r0
 80213e2:	d859      	bhi.n	8021498 <udrv_flash_read+0xcc>
 80213e4:	fbbb f8f0 	udiv	r8, fp, r0
 80213e8:	fb00 f808 	mul.w	r8, r0, r8
 80213ec:	ebab 0308 	sub.w	r3, fp, r8
 80213f0:	9301      	str	r3, [sp, #4]
 80213f2:	4433      	add	r3, r6
 80213f4:	fbb3 f2f0 	udiv	r2, r3, r0
 80213f8:	fb00 3112 	mls	r1, r0, r2, r3
 80213fc:	b109      	cbz	r1, 8021402 <udrv_flash_read+0x36>
 80213fe:	fb02 0300 	mla	r3, r2, r0, r0
 8021402:	eba4 020b 	sub.w	r2, r4, fp
 8021406:	f8df a098 	ldr.w	sl, [pc, #152]	; 80214a0 <udrv_flash_read+0xd4>
 802140a:	9204      	str	r2, [sp, #16]
 802140c:	9a01      	ldr	r2, [sp, #4]
 802140e:	fbb3 f3f4 	udiv	r3, r3, r4
 8021412:	46c1      	mov	r9, r8
 8021414:	9303      	str	r3, [sp, #12]
 8021416:	4637      	mov	r7, r6
 8021418:	2300      	movs	r3, #0
 802141a:	eb02 0b0a 	add.w	fp, r2, sl
 802141e:	9a03      	ldr	r2, [sp, #12]
 8021420:	429a      	cmp	r2, r3
 8021422:	d103      	bne.n	802142c <udrv_flash_read+0x60>
 8021424:	2000      	movs	r0, #0
 8021426:	b007      	add	sp, #28
 8021428:	e8bd 8ff0 	ldmia.w	sp!, {r4, r5, r6, r7, r8, r9, sl, fp, pc}
 802142c:	4622      	mov	r2, r4
 802142e:	491c      	ldr	r1, [pc, #112]	; (80214a0 <udrv_flash_read+0xd4>)
 8021430:	9302      	str	r3, [sp, #8]
 8021432:	4648      	mov	r0, r9
 8021434:	f001 fa12 	bl	802285c <uhal_flash_read>
 8021438:	9b02      	ldr	r3, [sp, #8]
 802143a:	1c5a      	adds	r2, r3, #1
 802143c:	9202      	str	r2, [sp, #8]
 802143e:	b9cb      	cbnz	r3, 8021474 <udrv_flash_read+0xa8>
 8021440:	9b04      	ldr	r3, [sp, #16]
 8021442:	eb03 0208 	add.w	r2, r3, r8
 8021446:	42b2      	cmp	r2, r6
 8021448:	d20c      	bcs.n	8021464 <udrv_flash_read+0x98>
 802144a:	4628      	mov	r0, r5
 802144c:	4659      	mov	r1, fp
 802144e:	9205      	str	r2, [sp, #20]
 8021450:	f01a f852 	bl	803b4f8 <memcpy>
 8021454:	9b01      	ldr	r3, [sp, #4]
 8021456:	9a05      	ldr	r2, [sp, #20]
 8021458:	1b1b      	subs	r3, r3, r4
 802145a:	4415      	add	r5, r2
 802145c:	441f      	add	r7, r3
 802145e:	9b02      	ldr	r3, [sp, #8]
 8021460:	44a1      	add	r9, r4
 8021462:	e7dc      	b.n	802141e <udrv_flash_read+0x52>
 8021464:	4628      	mov	r0, r5
 8021466:	4632      	mov	r2, r6
 8021468:	4659      	mov	r1, fp
 802146a:	f01a f845 	bl	803b4f8 <memcpy>
 802146e:	4435      	add	r5, r6
 8021470:	1bbf      	subs	r7, r7, r6
 8021472:	e7f4      	b.n	802145e <udrv_flash_read+0x92>
 8021474:	e9dd 3202 	ldrd	r3, r2, [sp, #8]
 8021478:	4293      	cmp	r3, r2
 802147a:	d305      	bcc.n	8021488 <udrv_flash_read+0xbc>
 802147c:	463a      	mov	r2, r7
 802147e:	4651      	mov	r1, sl
 8021480:	4628      	mov	r0, r5
 8021482:	f01a f839 	bl	803b4f8 <memcpy>
 8021486:	e7ea      	b.n	802145e <udrv_flash_read+0x92>
 8021488:	4628      	mov	r0, r5
 802148a:	4622      	mov	r2, r4
 802148c:	4651      	mov	r1, sl
 802148e:	f01a f833 	bl	803b4f8 <memcpy>
 8021492:	4425      	add	r5, r4
 8021494:	1b3f      	subs	r7, r7, r4
 8021496:	e7e2      	b.n	802145e <udrv_flash_read+0x92>
 8021498:	f06f 0008 	mvn.w	r0, #8
 802149c:	e7c3      	b.n	8021426 <udrv_flash_read+0x5a>
 802149e:	bf00      	nop
 80214a0:	20002a20 	.word	0x20002a20

080214a4 <compare_page_buff>:
 80214a4:	e92d 4ff8 	stmdb	sp!, {r3, r4, r5, r6, r7, r8, r9, sl, fp, lr}
 80214a8:	af00      	add	r7, sp, #0
 80214aa:	4681      	mov	r9, r0
 80214ac:	460c      	mov	r4, r1
 80214ae:	4692      	mov	sl, r2
 80214b0:	f001 fa04 	bl	80228bc <uhal_flash_get_page_size>
 80214b4:	f5ad 6d80 	sub.w	sp, sp, #1024	; 0x400
 80214b8:	466e      	mov	r6, sp
 80214ba:	ea4f 2890 	mov.w	r8, r0, lsr #10
 80214be:	f04f 0b00 	mov.w	fp, #0
 80214c2:	fa5f f18b 	uxtb.w	r1, fp
 80214c6:	4588      	cmp	r8, r1
 80214c8:	d801      	bhi.n	80214ce <compare_page_buff+0x2a>
 80214ca:	2001      	movs	r0, #1
 80214cc:	e021      	b.n	8021512 <compare_page_buff+0x6e>
 80214ce:	f5b4 6f80 	cmp.w	r4, #1024	; 0x400
 80214d2:	eb09 2081 	add.w	r0, r9, r1, lsl #10
 80214d6:	eb0a 2581 	add.w	r5, sl, r1, lsl #10
 80214da:	4632      	mov	r2, r6
 80214dc:	d30e      	bcc.n	80214fc <compare_page_buff+0x58>
 80214de:	f44f 6180 	mov.w	r1, #1024	; 0x400
 80214e2:	f7ff ff73 	bl	80213cc <udrv_flash_read>
 80214e6:	f44f 6280 	mov.w	r2, #1024	; 0x400
 80214ea:	4629      	mov	r1, r5
 80214ec:	4630      	mov	r0, r6
 80214ee:	f019 fff3 	bl	803b4d8 <memcmp>
 80214f2:	f10b 0b01 	add.w	fp, fp, #1
 80214f6:	b178      	cbz	r0, 8021518 <compare_page_buff+0x74>
 80214f8:	2000      	movs	r0, #0
 80214fa:	e00a      	b.n	8021512 <compare_page_buff+0x6e>
 80214fc:	4621      	mov	r1, r4
 80214fe:	f7ff ff65 	bl	80213cc <udrv_flash_read>
 8021502:	4622      	mov	r2, r4
 8021504:	4629      	mov	r1, r5
 8021506:	4630      	mov	r0, r6
 8021508:	f019 ffe6 	bl	803b4d8 <memcmp>
 802150c:	fab0 f080 	clz	r0, r0
 8021510:	0940      	lsrs	r0, r0, #5
 8021512:	46bd      	mov	sp, r7
 8021514:	e8bd 8ff8 	ldmia.w	sp!, {r3, r4, r5, r6, r7, r8, r9, sl, fp, pc}
 8021518:	f5a4 6480 	sub.w	r4, r4, #1024	; 0x400
 802151c:	e7d1      	b.n	80214c2 <compare_page_buff+0x1e>
	...

08021520 <udrv_flash_write>:
 8021520:	e92d 4ff0 	stmdb	sp!, {r4, r5, r6, r7, r8, r9, sl, fp, lr}
 8021524:	b087      	sub	sp, #28
 8021526:	4683      	mov	fp, r0
 8021528:	460d      	mov	r5, r1
 802152a:	4614      	mov	r4, r2
 802152c:	f001 f9c6 	bl	80228bc <uhal_flash_get_page_size>
 8021530:	f5b0 5f80 	cmp.w	r0, #4096	; 0x1000
 8021534:	4607      	mov	r7, r0
 8021536:	d870      	bhi.n	802161a <udrv_flash_write+0xfa>
 8021538:	4622      	mov	r2, r4
 802153a:	4629      	mov	r1, r5
 802153c:	4658      	mov	r0, fp
 802153e:	f7ff ffb1 	bl	80214a4 <compare_page_buff>
 8021542:	b118      	cbz	r0, 802154c <udrv_flash_write+0x2c>
 8021544:	2000      	movs	r0, #0
 8021546:	b007      	add	sp, #28
 8021548:	e8bd 8ff0 	ldmia.w	sp!, {r4, r5, r6, r7, r8, r9, sl, fp, pc}
 802154c:	fbbb f8f7 	udiv	r8, fp, r7
 8021550:	fb07 f808 	mul.w	r8, r7, r8
 8021554:	ebab 0308 	sub.w	r3, fp, r8
 8021558:	195a      	adds	r2, r3, r5
 802155a:	fbb2 f1f7 	udiv	r1, r2, r7
 802155e:	fb07 2011 	mls	r0, r7, r1, r2
 8021562:	9302      	str	r3, [sp, #8]
 8021564:	b108      	cbz	r0, 802156a <udrv_flash_write+0x4a>
 8021566:	fb01 7207 	mla	r2, r1, r7, r7
 802156a:	fbb2 f3f7 	udiv	r3, r2, r7
 802156e:	9303      	str	r3, [sp, #12]
 8021570:	2300      	movs	r3, #0
 8021572:	9301      	str	r3, [sp, #4]
 8021574:	eba7 030b 	sub.w	r3, r7, fp
 8021578:	f8df a0a4 	ldr.w	sl, [pc, #164]	; 8021620 <udrv_flash_write+0x100>
 802157c:	9304      	str	r3, [sp, #16]
 802157e:	9b02      	ldr	r3, [sp, #8]
 8021580:	46c1      	mov	r9, r8
 8021582:	462e      	mov	r6, r5
 8021584:	eb03 0b0a 	add.w	fp, r3, sl
 8021588:	9b03      	ldr	r3, [sp, #12]
 802158a:	9a01      	ldr	r2, [sp, #4]
 802158c:	4293      	cmp	r3, r2
 802158e:	d0d9      	beq.n	8021544 <udrv_flash_write+0x24>
 8021590:	4923      	ldr	r1, [pc, #140]	; (8021620 <udrv_flash_write+0x100>)
 8021592:	463a      	mov	r2, r7
 8021594:	4648      	mov	r0, r9
 8021596:	f001 f961 	bl	802285c <uhal_flash_read>
 802159a:	9b01      	ldr	r3, [sp, #4]
 802159c:	b9f3      	cbnz	r3, 80215dc <udrv_flash_write+0xbc>
 802159e:	9b04      	ldr	r3, [sp, #16]
 80215a0:	eb03 0208 	add.w	r2, r3, r8
 80215a4:	42aa      	cmp	r2, r5
 80215a6:	d211      	bcs.n	80215cc <udrv_flash_write+0xac>
 80215a8:	4621      	mov	r1, r4
 80215aa:	4658      	mov	r0, fp
 80215ac:	9205      	str	r2, [sp, #20]
 80215ae:	f019 ffa3 	bl	803b4f8 <memcpy>
 80215b2:	9a05      	ldr	r2, [sp, #20]
 80215b4:	9b02      	ldr	r3, [sp, #8]
 80215b6:	4414      	add	r4, r2
 80215b8:	1bda      	subs	r2, r3, r7
 80215ba:	4416      	add	r6, r2
 80215bc:	4639      	mov	r1, r7
 80215be:	4648      	mov	r0, r9
 80215c0:	f001 f954 	bl	802286c <uhal_flash_erase>
 80215c4:	b1e8      	cbz	r0, 8021602 <udrv_flash_write+0xe2>
 80215c6:	f06f 0006 	mvn.w	r0, #6
 80215ca:	e7bc      	b.n	8021546 <udrv_flash_write+0x26>
 80215cc:	4621      	mov	r1, r4
 80215ce:	462a      	mov	r2, r5
 80215d0:	4658      	mov	r0, fp
 80215d2:	f019 ff91 	bl	803b4f8 <memcpy>
 80215d6:	442c      	add	r4, r5
 80215d8:	1b76      	subs	r6, r6, r5
 80215da:	e7ef      	b.n	80215bc <udrv_flash_write+0x9c>
 80215dc:	9b01      	ldr	r3, [sp, #4]
 80215de:	1c5a      	adds	r2, r3, #1
 80215e0:	9b03      	ldr	r3, [sp, #12]
 80215e2:	429a      	cmp	r2, r3
 80215e4:	d305      	bcc.n	80215f2 <udrv_flash_write+0xd2>
 80215e6:	4632      	mov	r2, r6
 80215e8:	4621      	mov	r1, r4
 80215ea:	4650      	mov	r0, sl
 80215ec:	f019 ff84 	bl	803b4f8 <memcpy>
 80215f0:	e7e4      	b.n	80215bc <udrv_flash_write+0x9c>
 80215f2:	4621      	mov	r1, r4
 80215f4:	463a      	mov	r2, r7
 80215f6:	4650      	mov	r0, sl
 80215f8:	f019 ff7e 	bl	803b4f8 <memcpy>
 80215fc:	443c      	add	r4, r7
 80215fe:	1bf6      	subs	r6, r6, r7
 8021600:	e7dc      	b.n	80215bc <udrv_flash_write+0x9c>
 8021602:	4648      	mov	r0, r9
 8021604:	463a      	mov	r2, r7
 8021606:	4651      	mov	r1, sl
 8021608:	f001 f906 	bl	8022818 <uhal_flash_write>
 802160c:	44b9      	add	r9, r7
 802160e:	2800      	cmp	r0, #0
 8021610:	d1d9      	bne.n	80215c6 <udrv_flash_write+0xa6>
 8021612:	9b01      	ldr	r3, [sp, #4]
 8021614:	3301      	adds	r3, #1
 8021616:	9301      	str	r3, [sp, #4]
 8021618:	e7b6      	b.n	8021588 <udrv_flash_write+0x68>
 802161a:	f06f 0008 	mvn.w	r0, #8
 802161e:	e792      	b.n	8021546 <udrv_flash_write+0x26>
 8021620:	20002a20 	.word	0x20002a20

08021624 <udrv_flash_erase>:
 8021624:	b538      	push	{r3, r4, r5, lr}
 8021626:	4605      	mov	r5, r0
 8021628:	460c      	mov	r4, r1
 802162a:	f001 f947 	bl	80228bc <uhal_flash_get_page_size>
 802162e:	07ab      	lsls	r3, r5, #30
 8021630:	d10a      	bne.n	8021648 <udrv_flash_erase+0x24>
 8021632:	fbb4 f3f0 	udiv	r3, r4, r0
 8021636:	fb00 4013 	mls	r0, r0, r3, r4
 802163a:	b940      	cbnz	r0, 802164e <udrv_flash_erase+0x2a>
 802163c:	4621      	mov	r1, r4
 802163e:	4628      	mov	r0, r5
 8021640:	e8bd 4038 	ldmia.w	sp!, {r3, r4, r5, lr}
 8021644:	f001 b912 	b.w	802286c <uhal_flash_erase>
 8021648:	f06f 0009 	mvn.w	r0, #9
 802164c:	bd38      	pop	{r3, r4, r5, pc}
 802164e:	f06f 000a 	mvn.w	r0, #10
 8021652:	e7fb      	b.n	802164c <udrv_flash_erase+0x28>

08021654 <udrv_flash_get_page_size>:
 8021654:	f001 b932 	b.w	80228bc <uhal_flash_get_page_size>

08021658 <udrv_flash_check_addr_valid>:
 8021658:	f001 b933 	b.w	80228c2 <uhal_flash_check_addr_valid>

0802165c <udrv_flash_suspend>:
 802165c:	e7fe      	b.n	802165c <udrv_flash_suspend>

0802165e <udrv_flash_resume>:
 802165e:	e7fe      	b.n	802165e <udrv_flash_resume>

08021660 <Error_Handler>:
 8021660:	f3bf 8f4f 	dsb	sy
 8021664:	4905      	ldr	r1, [pc, #20]	; (802167c <Error_Handler+0x1c>)
 8021666:	4b06      	ldr	r3, [pc, #24]	; (8021680 <Error_Handler+0x20>)
 8021668:	68ca      	ldr	r2, [r1, #12]
 802166a:	f402 62e0 	and.w	r2, r2, #1792	; 0x700
 802166e:	4313      	orrs	r3, r2
 8021670:	60cb      	str	r3, [r1, #12]
 8021672:	f3bf 8f4f 	dsb	sy
 8021676:	bf00      	nop
 8021678:	e7fd      	b.n	8021676 <Error_Handler+0x16>
 802167a:	bf00      	nop
 802167c:	e000ed00 	.word	0xe000ed00
 8021680:	05fa0004 	.word	0x05fa0004

08021684 <SystemInit>:
 8021684:	4770      	bx	lr
	...

08021688 <SystemCoreClockUpdate>:
 8021688:	b510      	push	{r4, lr}
 802168a:	f04f 43b0 	mov.w	r3, #1476395008	; 0x58000000
 802168e:	f04f 40b0 	mov.w	r0, #1476395008	; 0x58000000
 8021692:	681a      	ldr	r2, [r3, #0]
 8021694:	4924      	ldr	r1, [pc, #144]	; (8021728 <SystemCoreClockUpdate+0xa0>)
 8021696:	0712      	lsls	r2, r2, #28
 8021698:	bf54      	ite	pl
 802169a:	f8d3 3094 	ldrpl.w	r3, [r3, #148]	; 0x94
 802169e:	681b      	ldrmi	r3, [r3, #0]
 80216a0:	4a22      	ldr	r2, [pc, #136]	; (802172c <SystemCoreClockUpdate+0xa4>)
 80216a2:	bf54      	ite	pl
 80216a4:	f3c3 2303 	ubfxpl	r3, r3, #8, #4
 80216a8:	f3c3 1303 	ubfxmi	r3, r3, #4, #4
 80216ac:	f852 4023 	ldr.w	r4, [r2, r3, lsl #2]
 80216b0:	6882      	ldr	r2, [r0, #8]
 80216b2:	f002 020c 	and.w	r2, r2, #12
 80216b6:	2a08      	cmp	r2, #8
 80216b8:	d012      	beq.n	80216e0 <SystemCoreClockUpdate+0x58>
 80216ba:	2a0c      	cmp	r2, #12
 80216bc:	d012      	beq.n	80216e4 <SystemCoreClockUpdate+0x5c>
 80216be:	2a04      	cmp	r2, #4
 80216c0:	d130      	bne.n	8021724 <SystemCoreClockUpdate+0x9c>
 80216c2:	4b1b      	ldr	r3, [pc, #108]	; (8021730 <SystemCoreClockUpdate+0xa8>)
 80216c4:	600b      	str	r3, [r1, #0]
 80216c6:	f04f 43b0 	mov.w	r3, #1476395008	; 0x58000000
 80216ca:	481a      	ldr	r0, [pc, #104]	; (8021734 <SystemCoreClockUpdate+0xac>)
 80216cc:	689a      	ldr	r2, [r3, #8]
 80216ce:	680b      	ldr	r3, [r1, #0]
 80216d0:	f3c2 1203 	ubfx	r2, r2, #4, #4
 80216d4:	f850 2022 	ldr.w	r2, [r0, r2, lsl #2]
 80216d8:	fbb3 f3f2 	udiv	r3, r3, r2
 80216dc:	600b      	str	r3, [r1, #0]
 80216de:	bd10      	pop	{r4, pc}
 80216e0:	4b15      	ldr	r3, [pc, #84]	; (8021738 <SystemCoreClockUpdate+0xb0>)
 80216e2:	e7ef      	b.n	80216c4 <SystemCoreClockUpdate+0x3c>
 80216e4:	68c2      	ldr	r2, [r0, #12]
 80216e6:	68c3      	ldr	r3, [r0, #12]
 80216e8:	f002 0203 	and.w	r2, r2, #3
 80216ec:	f3c3 1302 	ubfx	r3, r3, #4, #3
 80216f0:	2a02      	cmp	r2, #2
 80216f2:	f103 0301 	add.w	r3, r3, #1
 80216f6:	d004      	beq.n	8021702 <SystemCoreClockUpdate+0x7a>
 80216f8:	2a03      	cmp	r2, #3
 80216fa:	d011      	beq.n	8021720 <SystemCoreClockUpdate+0x98>
 80216fc:	fbb4 f3f3 	udiv	r3, r4, r3
 8021700:	e002      	b.n	8021708 <SystemCoreClockUpdate+0x80>
 8021702:	4a0b      	ldr	r2, [pc, #44]	; (8021730 <SystemCoreClockUpdate+0xa8>)
 8021704:	fbb2 f3f3 	udiv	r3, r2, r3
 8021708:	f04f 40b0 	mov.w	r0, #1476395008	; 0x58000000
 802170c:	68c2      	ldr	r2, [r0, #12]
 802170e:	68c0      	ldr	r0, [r0, #12]
 8021710:	f3c2 2206 	ubfx	r2, r2, #8, #7
 8021714:	4353      	muls	r3, r2
 8021716:	0f42      	lsrs	r2, r0, #29
 8021718:	3201      	adds	r2, #1
 802171a:	fbb3 f3f2 	udiv	r3, r3, r2
 802171e:	e7d1      	b.n	80216c4 <SystemCoreClockUpdate+0x3c>
 8021720:	4a05      	ldr	r2, [pc, #20]	; (8021738 <SystemCoreClockUpdate+0xb0>)
 8021722:	e7ef      	b.n	8021704 <SystemCoreClockUpdate+0x7c>
 8021724:	600c      	str	r4, [r1, #0]
 8021726:	e7ce      	b.n	80216c6 <SystemCoreClockUpdate+0x3e>
 8021728:	200000c8 	.word	0x200000c8
 802172c:	0803b944 	.word	0x0803b944
 8021730:	00f42400 	.word	0x00f42400
 8021734:	0803b8e4 	.word	0x0803b8e4
 8021738:	01e84800 	.word	0x01e84800

0802173c <HAL_MspInit>:
 802173c:	4770      	bx	lr
	...

08021740 <HAL_RTC_MspInit>:
 8021740:	b510      	push	{r4, lr}
 8021742:	4604      	mov	r4, r0
 8021744:	b090      	sub	sp, #64	; 0x40
 8021746:	2238      	movs	r2, #56	; 0x38
 8021748:	2100      	movs	r1, #0
 802174a:	a802      	add	r0, sp, #8
 802174c:	f019 fee2 	bl	803b514 <memset>
 8021750:	6822      	ldr	r2, [r4, #0]
 8021752:	4b19      	ldr	r3, [pc, #100]	; (80217b8 <HAL_RTC_MspInit+0x78>)
 8021754:	429a      	cmp	r2, r3
 8021756:	d12c      	bne.n	80217b2 <HAL_RTC_MspInit+0x72>
 8021758:	f44f 3380 	mov.w	r3, #65536	; 0x10000
 802175c:	9302      	str	r3, [sp, #8]
 802175e:	a802      	add	r0, sp, #8
 8021760:	f44f 7380 	mov.w	r3, #256	; 0x100
 8021764:	930f      	str	r3, [sp, #60]	; 0x3c
 8021766:	f005 f801 	bl	802676c <HAL_RCCEx_PeriphCLKConfig>
 802176a:	b108      	cbz	r0, 8021770 <HAL_RTC_MspInit+0x30>
 802176c:	f7ff ff78 	bl	8021660 <Error_Handler>
 8021770:	f04f 43b0 	mov.w	r3, #1476395008	; 0x58000000
 8021774:	2002      	movs	r0, #2
 8021776:	f8d3 2090 	ldr.w	r2, [r3, #144]	; 0x90
 802177a:	f442 4200 	orr.w	r2, r2, #32768	; 0x8000
 802177e:	f8c3 2090 	str.w	r2, [r3, #144]	; 0x90
 8021782:	6d9a      	ldr	r2, [r3, #88]	; 0x58
 8021784:	f442 6280 	orr.w	r2, r2, #1024	; 0x400
 8021788:	659a      	str	r2, [r3, #88]	; 0x58
 802178a:	6d9b      	ldr	r3, [r3, #88]	; 0x58
 802178c:	2200      	movs	r2, #0
 802178e:	f403 6380 	and.w	r3, r3, #1024	; 0x400
 8021792:	4611      	mov	r1, r2
 8021794:	9301      	str	r3, [sp, #4]
 8021796:	9b01      	ldr	r3, [sp, #4]
 8021798:	f001 fb38 	bl	8022e0c <HAL_NVIC_SetPriority>
 802179c:	2002      	movs	r0, #2
 802179e:	f001 fb67 	bl	8022e70 <HAL_NVIC_EnableIRQ>
 80217a2:	2200      	movs	r2, #0
 80217a4:	202a      	movs	r0, #42	; 0x2a
 80217a6:	4611      	mov	r1, r2
 80217a8:	f001 fb30 	bl	8022e0c <HAL_NVIC_SetPriority>
 80217ac:	202a      	movs	r0, #42	; 0x2a
 80217ae:	f001 fb5f 	bl	8022e70 <HAL_NVIC_EnableIRQ>
 80217b2:	b010      	add	sp, #64	; 0x40
 80217b4:	bd10      	pop	{r4, pc}
 80217b6:	bf00      	nop
 80217b8:	40002800 	.word	0x40002800

080217bc <HAL_RTC_MspDeInit>:
 80217bc:	b508      	push	{r3, lr}
 80217be:	4b0c      	ldr	r3, [pc, #48]	; (80217f0 <HAL_RTC_MspDeInit+0x34>)
 80217c0:	6802      	ldr	r2, [r0, #0]
 80217c2:	429a      	cmp	r2, r3
 80217c4:	d113      	bne.n	80217ee <HAL_RTC_MspDeInit+0x32>
 80217c6:	f04f 43b0 	mov.w	r3, #1476395008	; 0x58000000
 80217ca:	2002      	movs	r0, #2
 80217cc:	f8d3 2090 	ldr.w	r2, [r3, #144]	; 0x90
 80217d0:	f422 4200 	bic.w	r2, r2, #32768	; 0x8000
 80217d4:	f8c3 2090 	str.w	r2, [r3, #144]	; 0x90
 80217d8:	6d9a      	ldr	r2, [r3, #88]	; 0x58
 80217da:	f422 6280 	bic.w	r2, r2, #1024	; 0x400
 80217de:	659a      	str	r2, [r3, #88]	; 0x58
 80217e0:	f001 fb54 	bl	8022e8c <HAL_NVIC_DisableIRQ>
 80217e4:	e8bd 4008 	ldmia.w	sp!, {r3, lr}
 80217e8:	202a      	movs	r0, #42	; 0x2a
 80217ea:	f001 bb4f 	b.w	8022e8c <HAL_NVIC_DisableIRQ>
 80217ee:	bd08      	pop	{r3, pc}
 80217f0:	40002800 	.word	0x40002800

080217f4 <HAL_TIM_PWM_MspInit>:
 80217f4:	6803      	ldr	r3, [r0, #0]
 80217f6:	4a10      	ldr	r2, [pc, #64]	; (8021838 <HAL_TIM_PWM_MspInit+0x44>)
 80217f8:	4293      	cmp	r3, r2
 80217fa:	b082      	sub	sp, #8
 80217fc:	d10c      	bne.n	8021818 <HAL_TIM_PWM_MspInit+0x24>
 80217fe:	f04f 43b0 	mov.w	r3, #1476395008	; 0x58000000
 8021802:	6e1a      	ldr	r2, [r3, #96]	; 0x60
 8021804:	f442 6200 	orr.w	r2, r2, #2048	; 0x800
 8021808:	661a      	str	r2, [r3, #96]	; 0x60
 802180a:	6e1b      	ldr	r3, [r3, #96]	; 0x60
 802180c:	f403 6300 	and.w	r3, r3, #2048	; 0x800
 8021810:	9300      	str	r3, [sp, #0]
 8021812:	9b00      	ldr	r3, [sp, #0]
 8021814:	b002      	add	sp, #8
 8021816:	4770      	bx	lr
 8021818:	f1b3 4f80 	cmp.w	r3, #1073741824	; 0x40000000
 802181c:	d1fa      	bne.n	8021814 <HAL_TIM_PWM_MspInit+0x20>
 802181e:	f04f 43b0 	mov.w	r3, #1476395008	; 0x58000000
 8021822:	6d9a      	ldr	r2, [r3, #88]	; 0x58
 8021824:	f042 0201 	orr.w	r2, r2, #1
 8021828:	659a      	str	r2, [r3, #88]	; 0x58
 802182a:	6d9b      	ldr	r3, [r3, #88]	; 0x58
 802182c:	f003 0301 	and.w	r3, r3, #1
 8021830:	9301      	str	r3, [sp, #4]
 8021832:	9b01      	ldr	r3, [sp, #4]
 8021834:	e7ee      	b.n	8021814 <HAL_TIM_PWM_MspInit+0x20>
 8021836:	bf00      	nop
 8021838:	40012c00 	.word	0x40012c00

0802183c <HAL_TIM_PWM_MspDeInit>:
 802183c:	6803      	ldr	r3, [r0, #0]
 802183e:	4a0a      	ldr	r2, [pc, #40]	; (8021868 <HAL_TIM_PWM_MspDeInit+0x2c>)
 8021840:	4293      	cmp	r3, r2
 8021842:	d106      	bne.n	8021852 <HAL_TIM_PWM_MspDeInit+0x16>
 8021844:	f04f 42b0 	mov.w	r2, #1476395008	; 0x58000000
 8021848:	6e13      	ldr	r3, [r2, #96]	; 0x60
 802184a:	f423 6300 	bic.w	r3, r3, #2048	; 0x800
 802184e:	6613      	str	r3, [r2, #96]	; 0x60
 8021850:	4770      	bx	lr
 8021852:	f1b3 4f80 	cmp.w	r3, #1073741824	; 0x40000000
 8021856:	bf01      	itttt	eq
 8021858:	f04f 42b0 	moveq.w	r2, #1476395008	; 0x58000000
 802185c:	6d93      	ldreq	r3, [r2, #88]	; 0x58
 802185e:	f023 0301 	biceq.w	r3, r3, #1
 8021862:	6593      	streq	r3, [r2, #88]	; 0x58
 8021864:	4770      	bx	lr
 8021866:	bf00      	nop
 8021868:	40012c00 	.word	0x40012c00

0802186c <HAL_CRYP_MspInit>:
 802186c:	b507      	push	{r0, r1, r2, lr}
 802186e:	4b0e      	ldr	r3, [pc, #56]	; (80218a8 <HAL_CRYP_MspInit+0x3c>)
 8021870:	6802      	ldr	r2, [r0, #0]
 8021872:	429a      	cmp	r2, r3
 8021874:	d115      	bne.n	80218a2 <HAL_CRYP_MspInit+0x36>
 8021876:	f04f 43b0 	mov.w	r3, #1476395008	; 0x58000000
 802187a:	2033      	movs	r0, #51	; 0x33
 802187c:	6d1a      	ldr	r2, [r3, #80]	; 0x50
 802187e:	f442 3200 	orr.w	r2, r2, #131072	; 0x20000
 8021882:	651a      	str	r2, [r3, #80]	; 0x50
 8021884:	6d1b      	ldr	r3, [r3, #80]	; 0x50
 8021886:	2200      	movs	r2, #0
 8021888:	f403 3300 	and.w	r3, r3, #131072	; 0x20000
 802188c:	9301      	str	r3, [sp, #4]
 802188e:	4611      	mov	r1, r2
 8021890:	9b01      	ldr	r3, [sp, #4]
 8021892:	f001 fabb 	bl	8022e0c <HAL_NVIC_SetPriority>
 8021896:	2033      	movs	r0, #51	; 0x33
 8021898:	b003      	add	sp, #12
 802189a:	f85d eb04 	ldr.w	lr, [sp], #4
 802189e:	f001 bae7 	b.w	8022e70 <HAL_NVIC_EnableIRQ>
 80218a2:	b003      	add	sp, #12
 80218a4:	f85d fb04 	ldr.w	pc, [sp], #4
 80218a8:	58001800 	.word	0x58001800

080218ac <HAL_CRYP_MspDeInit>:
 80218ac:	6802      	ldr	r2, [r0, #0]
 80218ae:	4b06      	ldr	r3, [pc, #24]	; (80218c8 <HAL_CRYP_MspDeInit+0x1c>)
 80218b0:	429a      	cmp	r2, r3
 80218b2:	d108      	bne.n	80218c6 <HAL_CRYP_MspDeInit+0x1a>
 80218b4:	f04f 42b0 	mov.w	r2, #1476395008	; 0x58000000
 80218b8:	2033      	movs	r0, #51	; 0x33
 80218ba:	6d13      	ldr	r3, [r2, #80]	; 0x50
 80218bc:	f423 3300 	bic.w	r3, r3, #131072	; 0x20000
 80218c0:	6513      	str	r3, [r2, #80]	; 0x50
 80218c2:	f001 bae3 	b.w	8022e8c <HAL_NVIC_DisableIRQ>
 80218c6:	4770      	bx	lr
 80218c8:	58001800 	.word	0x58001800

080218cc <service_nvm_set_cfg_to_nvm>:
 80218cc:	4a02      	ldr	r2, [pc, #8]	; (80218d8 <service_nvm_set_cfg_to_nvm+0xc>)
 80218ce:	4803      	ldr	r0, [pc, #12]	; (80218dc <service_nvm_set_cfg_to_nvm+0x10>)
 80218d0:	f44f 7125 	mov.w	r1, #660	; 0x294
 80218d4:	f7ff be24 	b.w	8021520 <udrv_flash_write>
 80218d8:	20004220 	.word	0x20004220
 80218dc:	0803f000 	.word	0x0803f000

080218e0 <service_nvm_set_lora_nvm_data_to_nvm>:
 80218e0:	4a02      	ldr	r2, [pc, #8]	; (80218ec <service_nvm_set_lora_nvm_data_to_nvm+0xc>)
 80218e2:	4803      	ldr	r0, [pc, #12]	; (80218f0 <service_nvm_set_lora_nvm_data_to_nvm+0x10>)
 80218e4:	f240 71fc 	movw	r1, #2044	; 0x7fc
 80218e8:	f7ff be1a 	b.w	8021520 <udrv_flash_write>
 80218ec:	20003a24 	.word	0x20003a24
 80218f0:	0803d000 	.word	0x0803d000

080218f4 <service_lora_mac_nvm_data_reset>:
 80218f4:	4802      	ldr	r0, [pc, #8]	; (8021900 <service_lora_mac_nvm_data_reset+0xc>)
 80218f6:	f240 72fc 	movw	r2, #2044	; 0x7fc
 80218fa:	2100      	movs	r1, #0
 80218fc:	f019 be0a 	b.w	803b514 <memset>
 8021900:	20003a24 	.word	0x20003a24

08021904 <service_nvm_get_mode_type_from_nvm>:
 8021904:	4b02      	ldr	r3, [pc, #8]	; (8021910 <service_nvm_get_mode_type_from_nvm+0xc>)
 8021906:	4403      	add	r3, r0
 8021908:	f893 01bc 	ldrb.w	r0, [r3, #444]	; 0x1bc
 802190c:	4770      	bx	lr
 802190e:	bf00      	nop
 8021910:	20004220 	.word	0x20004220

08021914 <service_nvm_set_mode_type_to_nvm>:
 8021914:	4a04      	ldr	r2, [pc, #16]	; (8021928 <service_nvm_set_mode_type_to_nvm+0x14>)
 8021916:	4410      	add	r0, r2
 8021918:	f880 11bc 	strb.w	r1, [r0, #444]	; 0x1bc
 802191c:	4803      	ldr	r0, [pc, #12]	; (802192c <service_nvm_set_mode_type_to_nvm+0x18>)
 802191e:	f44f 7125 	mov.w	r1, #660	; 0x294
 8021922:	f7ff bdfd 	b.w	8021520 <udrv_flash_write>
 8021926:	bf00      	nop
 8021928:	20004220 	.word	0x20004220
 802192c:	0803f000 	.word	0x0803f000

08021930 <service_nvm_get_serial_passwd_from_nvm>:
 8021930:	2908      	cmp	r1, #8
 8021932:	b508      	push	{r3, lr}
 8021934:	d908      	bls.n	8021948 <service_nvm_get_serial_passwd_from_nvm+0x18>
 8021936:	4906      	ldr	r1, [pc, #24]	; (8021950 <service_nvm_get_serial_passwd_from_nvm+0x20>)
 8021938:	2209      	movs	r2, #9
 802193a:	f019 fddd 	bl	803b4f8 <memcpy>
 802193e:	e8bd 4008 	ldmia.w	sp!, {r3, lr}
 8021942:	4803      	ldr	r0, [pc, #12]	; (8021950 <service_nvm_get_serial_passwd_from_nvm+0x20>)
 8021944:	f7fc bb5c 	b.w	801e000 <strlen>
 8021948:	f06f 0008 	mvn.w	r0, #8
 802194c:	bd08      	pop	{r3, pc}
 802194e:	bf00      	nop
 8021950:	200043e9 	.word	0x200043e9

08021954 <service_nvm_set_serial_passwd_to_nvm>:
 8021954:	2908      	cmp	r1, #8
 8021956:	b538      	push	{r3, r4, r5, lr}
 8021958:	4605      	mov	r5, r0
 802195a:	460c      	mov	r4, r1
 802195c:	d811      	bhi.n	8021982 <service_nvm_set_serial_passwd_to_nvm+0x2e>
 802195e:	2209      	movs	r2, #9
 8021960:	2100      	movs	r1, #0
 8021962:	4809      	ldr	r0, [pc, #36]	; (8021988 <service_nvm_set_serial_passwd_to_nvm+0x34>)
 8021964:	f019 fdd6 	bl	803b514 <memset>
 8021968:	4622      	mov	r2, r4
 802196a:	4629      	mov	r1, r5
 802196c:	4806      	ldr	r0, [pc, #24]	; (8021988 <service_nvm_set_serial_passwd_to_nvm+0x34>)
 802196e:	f019 fdc3 	bl	803b4f8 <memcpy>
 8021972:	e8bd 4038 	ldmia.w	sp!, {r3, r4, r5, lr}
 8021976:	4a05      	ldr	r2, [pc, #20]	; (802198c <service_nvm_set_serial_passwd_to_nvm+0x38>)
 8021978:	4805      	ldr	r0, [pc, #20]	; (8021990 <service_nvm_set_serial_passwd_to_nvm+0x3c>)
 802197a:	f44f 7125 	mov.w	r1, #660	; 0x294
 802197e:	f7ff bdcf 	b.w	8021520 <udrv_flash_write>
 8021982:	f06f 0002 	mvn.w	r0, #2
 8021986:	bd38      	pop	{r3, r4, r5, pc}
 8021988:	200043e9 	.word	0x200043e9
 802198c:	20004220 	.word	0x20004220
 8021990:	0803f000 	.word	0x0803f000

08021994 <service_nvm_get_auto_sleep_time_from_nvm>:
 8021994:	4b01      	ldr	r3, [pc, #4]	; (802199c <service_nvm_get_auto_sleep_time_from_nvm+0x8>)
 8021996:	f8d3 01d4 	ldr.w	r0, [r3, #468]	; 0x1d4
 802199a:	4770      	bx	lr
 802199c:	20004220 	.word	0x20004220

080219a0 <service_nvm_set_auto_sleep_time_to_nvm>:
 80219a0:	4a03      	ldr	r2, [pc, #12]	; (80219b0 <service_nvm_set_auto_sleep_time_to_nvm+0x10>)
 80219a2:	f44f 7125 	mov.w	r1, #660	; 0x294
 80219a6:	f8c2 01d4 	str.w	r0, [r2, #468]	; 0x1d4
 80219aa:	4802      	ldr	r0, [pc, #8]	; (80219b4 <service_nvm_set_auto_sleep_time_to_nvm+0x14>)
 80219ac:	f7ff bdb8 	b.w	8021520 <udrv_flash_write>
 80219b0:	20004220 	.word	0x20004220
 80219b4:	0803f000 	.word	0x0803f000

080219b8 <service_nvm_get_auto_sleep_level_from_nvm>:
 80219b8:	4b01      	ldr	r3, [pc, #4]	; (80219c0 <service_nvm_get_auto_sleep_level_from_nvm+0x8>)
 80219ba:	f893 0270 	ldrb.w	r0, [r3, #624]	; 0x270
 80219be:	4770      	bx	lr
 80219c0:	20004220 	.word	0x20004220

080219c4 <service_nvm_set_auto_sleep_level_to_nvm>:
 80219c4:	4a05      	ldr	r2, [pc, #20]	; (80219dc <service_nvm_set_auto_sleep_level_to_nvm+0x18>)
 80219c6:	b508      	push	{r3, lr}
 80219c8:	f44f 7125 	mov.w	r1, #660	; 0x294
 80219cc:	f882 0270 	strb.w	r0, [r2, #624]	; 0x270
 80219d0:	4803      	ldr	r0, [pc, #12]	; (80219e0 <service_nvm_set_auto_sleep_level_to_nvm+0x1c>)
 80219d2:	f7ff fda5 	bl	8021520 <udrv_flash_write>
 80219d6:	b2c0      	uxtb	r0, r0
 80219d8:	bd08      	pop	{r3, pc}
 80219da:	bf00      	nop
 80219dc:	20004220 	.word	0x20004220
 80219e0:	0803f000 	.word	0x0803f000

080219e4 <service_nvm_get_firmware_ver_from_nvm>:
 80219e4:	291f      	cmp	r1, #31
 80219e6:	b508      	push	{r3, lr}
 80219e8:	d905      	bls.n	80219f6 <service_nvm_get_firmware_ver_from_nvm+0x12>
 80219ea:	4904      	ldr	r1, [pc, #16]	; (80219fc <service_nvm_get_firmware_ver_from_nvm+0x18>)
 80219ec:	2220      	movs	r2, #32
 80219ee:	f019 fd83 	bl	803b4f8 <memcpy>
 80219f2:	2000      	movs	r0, #0
 80219f4:	bd08      	pop	{r3, pc}
 80219f6:	20f7      	movs	r0, #247	; 0xf7
 80219f8:	e7fc      	b.n	80219f4 <service_nvm_get_firmware_ver_from_nvm+0x10>
 80219fa:	bf00      	nop
 80219fc:	2000441b 	.word	0x2000441b

08021a00 <service_nvm_set_firmware_ver_to_nvm>:
 8021a00:	b538      	push	{r3, r4, r5, lr}
 8021a02:	1e4b      	subs	r3, r1, #1
 8021a04:	2b1f      	cmp	r3, #31
 8021a06:	4604      	mov	r4, r0
 8021a08:	460d      	mov	r5, r1
 8021a0a:	d81a      	bhi.n	8021a42 <service_nvm_set_firmware_ver_to_nvm+0x42>
 8021a0c:	4603      	mov	r3, r0
 8021a0e:	4401      	add	r1, r0
 8021a10:	428b      	cmp	r3, r1
 8021a12:	d111      	bne.n	8021a38 <service_nvm_set_firmware_ver_to_nvm+0x38>
 8021a14:	2220      	movs	r2, #32
 8021a16:	2100      	movs	r1, #0
 8021a18:	480b      	ldr	r0, [pc, #44]	; (8021a48 <service_nvm_set_firmware_ver_to_nvm+0x48>)
 8021a1a:	f019 fd7b 	bl	803b514 <memset>
 8021a1e:	462a      	mov	r2, r5
 8021a20:	4621      	mov	r1, r4
 8021a22:	4809      	ldr	r0, [pc, #36]	; (8021a48 <service_nvm_set_firmware_ver_to_nvm+0x48>)
 8021a24:	f019 fd68 	bl	803b4f8 <memcpy>
 8021a28:	e8bd 4038 	ldmia.w	sp!, {r3, r4, r5, lr}
 8021a2c:	4a07      	ldr	r2, [pc, #28]	; (8021a4c <service_nvm_set_firmware_ver_to_nvm+0x4c>)
 8021a2e:	4808      	ldr	r0, [pc, #32]	; (8021a50 <service_nvm_set_firmware_ver_to_nvm+0x50>)
 8021a30:	f44f 7125 	mov.w	r1, #660	; 0x294
 8021a34:	f7ff bd74 	b.w	8021520 <udrv_flash_write>
 8021a38:	f813 2b01 	ldrb.w	r2, [r3], #1
 8021a3c:	3a20      	subs	r2, #32
 8021a3e:	2a5e      	cmp	r2, #94	; 0x5e
 8021a40:	d9e6      	bls.n	8021a10 <service_nvm_set_firmware_ver_to_nvm+0x10>
 8021a42:	f06f 0002 	mvn.w	r0, #2
 8021a46:	bd38      	pop	{r3, r4, r5, pc}
 8021a48:	2000441b 	.word	0x2000441b
 8021a4c:	20004220 	.word	0x20004220
 8021a50:	0803f000 	.word	0x0803f000

08021a54 <service_nvm_get_hwmodel_from_nvm>:
