
/home/jenkins/workspace/RUI_Release/rui-v3/image/RUI_5.0.0_RAK3172-E:     file format elf32-littlearm


Disassembly of section .text:

08006140 <__do_global_dtors_aux>:
 8006140:	b510      	push	{r4, lr}
 8006142:	4c05      	ldr	r4, [pc, #20]	; (8006158 <__do_global_dtors_aux+0x18>)
 8006144:	7823      	ldrb	r3, [r4, #0]
 8006146:	b933      	cbnz	r3, 8006156 <__do_global_dtors_aux+0x16>
 8006148:	4b04      	ldr	r3, [pc, #16]	; (800615c <__do_global_dtors_aux+0x1c>)
 800614a:	b113      	cbz	r3, 8006152 <__do_global_dtors_aux+0x12>
 800614c:	4804      	ldr	r0, [pc, #16]	; (8006160 <__do_global_dtors_aux+0x20>)
 800614e:	f3af 8000 	nop.w
 8006152:	2301      	movs	r3, #1
 8006154:	7023      	strb	r3, [r4, #0]
 8006156:	bd10      	pop	{r4, pc}
 8006158:	20000f68 	.word	0x20000f68
 800615c:	00000000 	.word	0x00000000
 8006160:	0802eb80 	.word	0x0802eb80

08006164 <frame_dummy>:
 8006164:	b508      	push	{r3, lr}
 8006166:	4b03      	ldr	r3, [pc, #12]	; (8006174 <frame_dummy+0x10>)
 8006168:	b11b      	cbz	r3, 8006172 <frame_dummy+0xe>
 800616a:	4903      	ldr	r1, [pc, #12]	; (8006178 <frame_dummy+0x14>)
 800616c:	4803      	ldr	r0, [pc, #12]	; (800617c <frame_dummy+0x18>)
 800616e:	f3af 8000 	nop.w
 8006172:	bd08      	pop	{r3, pc}
 8006174:	00000000 	.word	0x00000000
 8006178:	20000f6c 	.word	0x20000f6c
 800617c:	0802eb80 	.word	0x0802eb80

08006180 <strcmp>:
 8006180:	f810 2b01 	ldrb.w	r2, [r0], #1
 8006184:	f811 3b01 	ldrb.w	r3, [r1], #1
 8006188:	2a01      	cmp	r2, #1
 800618a:	bf28      	it	cs
 800618c:	429a      	cmpcs	r2, r3
 800618e:	d0f7      	beq.n	8006180 <strcmp>
 8006190:	1ad0      	subs	r0, r2, r3
 8006192:	4770      	bx	lr

08006194 <strlen>:
 8006194:	4603      	mov	r3, r0
 8006196:	f813 2b01 	ldrb.w	r2, [r3], #1
 800619a:	2a00      	cmp	r2, #0
 800619c:	d1fb      	bne.n	8006196 <strlen+0x2>
 800619e:	1a18      	subs	r0, r3, r0
 80061a0:	3801      	subs	r0, #1
 80061a2:	4770      	bx	lr
	...

080061b0 <memchr>:
 80061b0:	f001 01ff 	and.w	r1, r1, #255	; 0xff
 80061b4:	2a10      	cmp	r2, #16
 80061b6:	db2b      	blt.n	8006210 <memchr+0x60>
 80061b8:	f010 0f07 	tst.w	r0, #7
 80061bc:	d008      	beq.n	80061d0 <memchr+0x20>
 80061be:	f810 3b01 	ldrb.w	r3, [r0], #1
 80061c2:	3a01      	subs	r2, #1
 80061c4:	428b      	cmp	r3, r1
 80061c6:	d02d      	beq.n	8006224 <memchr+0x74>
 80061c8:	f010 0f07 	tst.w	r0, #7
 80061cc:	b342      	cbz	r2, 8006220 <memchr+0x70>
 80061ce:	d1f6      	bne.n	80061be <memchr+0xe>
 80061d0:	b4f0      	push	{r4, r5, r6, r7}
 80061d2:	ea41 2101 	orr.w	r1, r1, r1, lsl #8
 80061d6:	ea41 4101 	orr.w	r1, r1, r1, lsl #16
 80061da:	f022 0407 	bic.w	r4, r2, #7
 80061de:	f07f 0700 	mvns.w	r7, #0
 80061e2:	2300      	movs	r3, #0
 80061e4:	e8f0 5602 	ldrd	r5, r6, [r0], #8
 80061e8:	3c08      	subs	r4, #8
 80061ea:	ea85 0501 	eor.w	r5, r5, r1
 80061ee:	ea86 0601 	eor.w	r6, r6, r1
 80061f2:	fa85 f547 	uadd8	r5, r5, r7
 80061f6:	faa3 f587 	sel	r5, r3, r7
 80061fa:	fa86 f647 	uadd8	r6, r6, r7
 80061fe:	faa5 f687 	sel	r6, r5, r7
 8006202:	b98e      	cbnz	r6, 8006228 <memchr+0x78>
 8006204:	d1ee      	bne.n	80061e4 <memchr+0x34>
 8006206:	bcf0      	pop	{r4, r5, r6, r7}
 8006208:	f001 01ff 	and.w	r1, r1, #255	; 0xff
 800620c:	f002 0207 	and.w	r2, r2, #7
 8006210:	b132      	cbz	r2, 8006220 <memchr+0x70>
 8006212:	f810 3b01 	ldrb.w	r3, [r0], #1
 8006216:	3a01      	subs	r2, #1
 8006218:	ea83 0301 	eor.w	r3, r3, r1
 800621c:	b113      	cbz	r3, 8006224 <memchr+0x74>
 800621e:	d1f8      	bne.n	8006212 <memchr+0x62>
 8006220:	2000      	movs	r0, #0
 8006222:	4770      	bx	lr
 8006224:	3801      	subs	r0, #1
 8006226:	4770      	bx	lr
 8006228:	2d00      	cmp	r5, #0
 800622a:	bf06      	itte	eq
 800622c:	4635      	moveq	r5, r6
 800622e:	3803      	subeq	r0, #3
 8006230:	3807      	subne	r0, #7
 8006232:	f015 0f01 	tst.w	r5, #1
 8006236:	d107      	bne.n	8006248 <memchr+0x98>
 8006238:	3001      	adds	r0, #1
 800623a:	f415 7f80 	tst.w	r5, #256	; 0x100
 800623e:	bf02      	ittt	eq
 8006240:	3001      	addeq	r0, #1
 8006242:	f415 3fc0 	tsteq.w	r5, #98304	; 0x18000
 8006246:	3001      	addeq	r0, #1
 8006248:	bcf0      	pop	{r4, r5, r6, r7}
 800624a:	3801      	subs	r0, #1
 800624c:	4770      	bx	lr
 800624e:	bf00      	nop

08006250 <__aeabi_drsub>:
 8006250:	f081 4100 	eor.w	r1, r1, #2147483648	; 0x80000000
 8006254:	e002      	b.n	800625c <__adddf3>
 8006256:	bf00      	nop

08006258 <__aeabi_dsub>:
 8006258:	f083 4300 	eor.w	r3, r3, #2147483648	; 0x80000000

0800625c <__adddf3>:
 800625c:	b530      	push	{r4, r5, lr}
 800625e:	ea4f 0441 	mov.w	r4, r1, lsl #1
 8006262:	ea4f 0543 	mov.w	r5, r3, lsl #1
 8006266:	ea94 0f05 	teq	r4, r5
 800626a:	bf08      	it	eq
 800626c:	ea90 0f02 	teqeq	r0, r2
 8006270:	bf1f      	itttt	ne
 8006272:	ea54 0c00 	orrsne.w	ip, r4, r0
 8006276:	ea55 0c02 	orrsne.w	ip, r5, r2
 800627a:	ea7f 5c64 	mvnsne.w	ip, r4, asr #21
 800627e:	ea7f 5c65 	mvnsne.w	ip, r5, asr #21
 8006282:	f000 80e2 	beq.w	800644a <__adddf3+0x1ee>
 8006286:	ea4f 5454 	mov.w	r4, r4, lsr #21
 800628a:	ebd4 5555 	rsbs	r5, r4, r5, lsr #21
 800628e:	bfb8      	it	lt
 8006290:	426d      	neglt	r5, r5
 8006292:	dd0c      	ble.n	80062ae <__adddf3+0x52>
 8006294:	442c      	add	r4, r5
 8006296:	ea80 0202 	eor.w	r2, r0, r2
 800629a:	ea81 0303 	eor.w	r3, r1, r3
 800629e:	ea82 0000 	eor.w	r0, r2, r0
 80062a2:	ea83 0101 	eor.w	r1, r3, r1
 80062a6:	ea80 0202 	eor.w	r2, r0, r2
 80062aa:	ea81 0303 	eor.w	r3, r1, r3
 80062ae:	2d36      	cmp	r5, #54	; 0x36
 80062b0:	bf88      	it	hi
 80062b2:	bd30      	pophi	{r4, r5, pc}
 80062b4:	f011 4f00 	tst.w	r1, #2147483648	; 0x80000000
 80062b8:	ea4f 3101 	mov.w	r1, r1, lsl #12
 80062bc:	f44f 1c80 	mov.w	ip, #1048576	; 0x100000
 80062c0:	ea4c 3111 	orr.w	r1, ip, r1, lsr #12
 80062c4:	d002      	beq.n	80062cc <__adddf3+0x70>
 80062c6:	4240      	negs	r0, r0
 80062c8:	eb61 0141 	sbc.w	r1, r1, r1, lsl #1
 80062cc:	f013 4f00 	tst.w	r3, #2147483648	; 0x80000000
 80062d0:	ea4f 3303 	mov.w	r3, r3, lsl #12
 80062d4:	ea4c 3313 	orr.w	r3, ip, r3, lsr #12
 80062d8:	d002      	beq.n	80062e0 <__adddf3+0x84>
 80062da:	4252      	negs	r2, r2
 80062dc:	eb63 0343 	sbc.w	r3, r3, r3, lsl #1
 80062e0:	ea94 0f05 	teq	r4, r5
 80062e4:	f000 80a7 	beq.w	8006436 <__adddf3+0x1da>
 80062e8:	f1a4 0401 	sub.w	r4, r4, #1
 80062ec:	f1d5 0e20 	rsbs	lr, r5, #32
 80062f0:	db0d      	blt.n	800630e <__adddf3+0xb2>
 80062f2:	fa02 fc0e 	lsl.w	ip, r2, lr
 80062f6:	fa22 f205 	lsr.w	r2, r2, r5
 80062fa:	1880      	adds	r0, r0, r2
 80062fc:	f141 0100 	adc.w	r1, r1, #0
 8006300:	fa03 f20e 	lsl.w	r2, r3, lr
 8006304:	1880      	adds	r0, r0, r2
 8006306:	fa43 f305 	asr.w	r3, r3, r5
 800630a:	4159      	adcs	r1, r3
 800630c:	e00e      	b.n	800632c <__adddf3+0xd0>
 800630e:	f1a5 0520 	sub.w	r5, r5, #32
 8006312:	f10e 0e20 	add.w	lr, lr, #32
 8006316:	2a01      	cmp	r2, #1
 8006318:	fa03 fc0e 	lsl.w	ip, r3, lr
 800631c:	bf28      	it	cs
 800631e:	f04c 0c02 	orrcs.w	ip, ip, #2
 8006322:	fa43 f305 	asr.w	r3, r3, r5
 8006326:	18c0      	adds	r0, r0, r3
 8006328:	eb51 71e3 	adcs.w	r1, r1, r3, asr #31
 800632c:	f001 4500 	and.w	r5, r1, #2147483648	; 0x80000000
 8006330:	d507      	bpl.n	8006342 <__adddf3+0xe6>
 8006332:	f04f 0e00 	mov.w	lr, #0
 8006336:	f1dc 0c00 	rsbs	ip, ip, #0
 800633a:	eb7e 0000 	sbcs.w	r0, lr, r0
 800633e:	eb6e 0101 	sbc.w	r1, lr, r1
 8006342:	f5b1 1f80 	cmp.w	r1, #1048576	; 0x100000
 8006346:	d31b      	bcc.n	8006380 <__adddf3+0x124>
 8006348:	f5b1 1f00 	cmp.w	r1, #2097152	; 0x200000
 800634c:	d30c      	bcc.n	8006368 <__adddf3+0x10c>
 800634e:	0849      	lsrs	r1, r1, #1
 8006350:	ea5f 0030 	movs.w	r0, r0, rrx
 8006354:	ea4f 0c3c 	mov.w	ip, ip, rrx
 8006358:	f104 0401 	add.w	r4, r4, #1
 800635c:	ea4f 5244 	mov.w	r2, r4, lsl #21
 8006360:	f512 0f80 	cmn.w	r2, #4194304	; 0x400000
 8006364:	f080 809a 	bcs.w	800649c <__adddf3+0x240>
 8006368:	f1bc 4f00 	cmp.w	ip, #2147483648	; 0x80000000
 800636c:	bf08      	it	eq
 800636e:	ea5f 0c50 	movseq.w	ip, r0, lsr #1
 8006372:	f150 0000 	adcs.w	r0, r0, #0
 8006376:	eb41 5104 	adc.w	r1, r1, r4, lsl #20
 800637a:	ea41 0105 	orr.w	r1, r1, r5
 800637e:	bd30      	pop	{r4, r5, pc}
 8006380:	ea5f 0c4c 	movs.w	ip, ip, lsl #1
 8006384:	4140      	adcs	r0, r0
 8006386:	eb41 0101 	adc.w	r1, r1, r1
 800638a:	3c01      	subs	r4, #1
 800638c:	bf28      	it	cs
 800638e:	f5b1 1f80 	cmpcs.w	r1, #1048576	; 0x100000
 8006392:	d2e9      	bcs.n	8006368 <__adddf3+0x10c>
 8006394:	f091 0f00 	teq	r1, #0
 8006398:	bf04      	itt	eq
 800639a:	4601      	moveq	r1, r0
 800639c:	2000      	moveq	r0, #0
 800639e:	fab1 f381 	clz	r3, r1
 80063a2:	bf08      	it	eq
 80063a4:	3320      	addeq	r3, #32
 80063a6:	f1a3 030b 	sub.w	r3, r3, #11
 80063aa:	f1b3 0220 	subs.w	r2, r3, #32
 80063ae:	da0c      	bge.n	80063ca <__adddf3+0x16e>
 80063b0:	320c      	adds	r2, #12
 80063b2:	dd08      	ble.n	80063c6 <__adddf3+0x16a>
 80063b4:	f102 0c14 	add.w	ip, r2, #20
 80063b8:	f1c2 020c 	rsb	r2, r2, #12
 80063bc:	fa01 f00c 	lsl.w	r0, r1, ip
 80063c0:	fa21 f102 	lsr.w	r1, r1, r2
 80063c4:	e00c      	b.n	80063e0 <__adddf3+0x184>
 80063c6:	f102 0214 	add.w	r2, r2, #20
 80063ca:	bfd8      	it	le
 80063cc:	f1c2 0c20 	rsble	ip, r2, #32
 80063d0:	fa01 f102 	lsl.w	r1, r1, r2
 80063d4:	fa20 fc0c 	lsr.w	ip, r0, ip
 80063d8:	bfdc      	itt	le
 80063da:	ea41 010c 	orrle.w	r1, r1, ip
 80063de:	4090      	lslle	r0, r2
 80063e0:	1ae4      	subs	r4, r4, r3
 80063e2:	bfa2      	ittt	ge
 80063e4:	eb01 5104 	addge.w	r1, r1, r4, lsl #20
 80063e8:	4329      	orrge	r1, r5
 80063ea:	bd30      	popge	{r4, r5, pc}
 80063ec:	ea6f 0404 	mvn.w	r4, r4
 80063f0:	3c1f      	subs	r4, #31
 80063f2:	da1c      	bge.n	800642e <__adddf3+0x1d2>
 80063f4:	340c      	adds	r4, #12
 80063f6:	dc0e      	bgt.n	8006416 <__adddf3+0x1ba>
 80063f8:	f104 0414 	add.w	r4, r4, #20
 80063fc:	f1c4 0220 	rsb	r2, r4, #32
 8006400:	fa20 f004 	lsr.w	r0, r0, r4
 8006404:	fa01 f302 	lsl.w	r3, r1, r2
 8006408:	ea40 0003 	orr.w	r0, r0, r3
 800640c:	fa21 f304 	lsr.w	r3, r1, r4
 8006410:	ea45 0103 	orr.w	r1, r5, r3
 8006414:	bd30      	pop	{r4, r5, pc}
 8006416:	f1c4 040c 	rsb	r4, r4, #12
 800641a:	f1c4 0220 	rsb	r2, r4, #32
 800641e:	fa20 f002 	lsr.w	r0, r0, r2
 8006422:	fa01 f304 	lsl.w	r3, r1, r4
 8006426:	ea40 0003 	orr.w	r0, r0, r3
 800642a:	4629      	mov	r1, r5
 800642c:	bd30      	pop	{r4, r5, pc}
 800642e:	fa21 f004 	lsr.w	r0, r1, r4
 8006432:	4629      	mov	r1, r5
 8006434:	bd30      	pop	{r4, r5, pc}
 8006436:	f094 0f00 	teq	r4, #0
 800643a:	f483 1380 	eor.w	r3, r3, #1048576	; 0x100000
 800643e:	bf06      	itte	eq
 8006440:	f481 1180 	eoreq.w	r1, r1, #1048576	; 0x100000
 8006444:	3401      	addeq	r4, #1
 8006446:	3d01      	subne	r5, #1
 8006448:	e74e      	b.n	80062e8 <__adddf3+0x8c>
 800644a:	ea7f 5c64 	mvns.w	ip, r4, asr #21
 800644e:	bf18      	it	ne
 8006450:	ea7f 5c65 	mvnsne.w	ip, r5, asr #21
 8006454:	d029      	beq.n	80064aa <__adddf3+0x24e>
 8006456:	ea94 0f05 	teq	r4, r5
 800645a:	bf08      	it	eq
 800645c:	ea90 0f02 	teqeq	r0, r2
 8006460:	d005      	beq.n	800646e <__adddf3+0x212>
 8006462:	ea54 0c00 	orrs.w	ip, r4, r0
 8006466:	bf04      	itt	eq
 8006468:	4619      	moveq	r1, r3
 800646a:	4610      	moveq	r0, r2
 800646c:	bd30      	pop	{r4, r5, pc}
 800646e:	ea91 0f03 	teq	r1, r3
 8006472:	bf1e      	ittt	ne
 8006474:	2100      	movne	r1, #0
 8006476:	2000      	movne	r0, #0
 8006478:	bd30      	popne	{r4, r5, pc}
 800647a:	ea5f 5c54 	movs.w	ip, r4, lsr #21
 800647e:	d105      	bne.n	800648c <__adddf3+0x230>
 8006480:	0040      	lsls	r0, r0, #1
 8006482:	4149      	adcs	r1, r1
 8006484:	bf28      	it	cs
 8006486:	f041 4100 	orrcs.w	r1, r1, #2147483648	; 0x80000000
 800648a:	bd30      	pop	{r4, r5, pc}
 800648c:	f514 0480 	adds.w	r4, r4, #4194304	; 0x400000
 8006490:	bf3c      	itt	cc
 8006492:	f501 1180 	addcc.w	r1, r1, #1048576	; 0x100000
 8006496:	bd30      	popcc	{r4, r5, pc}
 8006498:	f001 4500 	and.w	r5, r1, #2147483648	; 0x80000000
 800649c:	f045 41fe 	orr.w	r1, r5, #2130706432	; 0x7f000000
 80064a0:	f441 0170 	orr.w	r1, r1, #15728640	; 0xf00000
 80064a4:	f04f 0000 	mov.w	r0, #0
 80064a8:	bd30      	pop	{r4, r5, pc}
 80064aa:	ea7f 5c64 	mvns.w	ip, r4, asr #21
 80064ae:	bf1a      	itte	ne
 80064b0:	4619      	movne	r1, r3
 80064b2:	4610      	movne	r0, r2
 80064b4:	ea7f 5c65 	mvnseq.w	ip, r5, asr #21
 80064b8:	bf1c      	itt	ne
 80064ba:	460b      	movne	r3, r1
 80064bc:	4602      	movne	r2, r0
 80064be:	ea50 3401 	orrs.w	r4, r0, r1, lsl #12
 80064c2:	bf06      	itte	eq
 80064c4:	ea52 3503 	orrseq.w	r5, r2, r3, lsl #12
 80064c8:	ea91 0f03 	teqeq	r1, r3
 80064cc:	f441 2100 	orrne.w	r1, r1, #524288	; 0x80000
 80064d0:	bd30      	pop	{r4, r5, pc}
 80064d2:	bf00      	nop

080064d4 <__aeabi_ui2d>:
 80064d4:	f090 0f00 	teq	r0, #0
 80064d8:	bf04      	itt	eq
 80064da:	2100      	moveq	r1, #0
 80064dc:	4770      	bxeq	lr
 80064de:	b530      	push	{r4, r5, lr}
 80064e0:	f44f 6480 	mov.w	r4, #1024	; 0x400
 80064e4:	f104 0432 	add.w	r4, r4, #50	; 0x32
 80064e8:	f04f 0500 	mov.w	r5, #0
 80064ec:	f04f 0100 	mov.w	r1, #0
 80064f0:	e750      	b.n	8006394 <__adddf3+0x138>
 80064f2:	bf00      	nop

080064f4 <__aeabi_i2d>:
 80064f4:	f090 0f00 	teq	r0, #0
 80064f8:	bf04      	itt	eq
 80064fa:	2100      	moveq	r1, #0
 80064fc:	4770      	bxeq	lr
 80064fe:	b530      	push	{r4, r5, lr}
 8006500:	f44f 6480 	mov.w	r4, #1024	; 0x400
 8006504:	f104 0432 	add.w	r4, r4, #50	; 0x32
 8006508:	f010 4500 	ands.w	r5, r0, #2147483648	; 0x80000000
 800650c:	bf48      	it	mi
 800650e:	4240      	negmi	r0, r0
 8006510:	f04f 0100 	mov.w	r1, #0
 8006514:	e73e      	b.n	8006394 <__adddf3+0x138>
 8006516:	bf00      	nop

08006518 <__aeabi_f2d>:
 8006518:	0042      	lsls	r2, r0, #1
 800651a:	ea4f 01e2 	mov.w	r1, r2, asr #3
 800651e:	ea4f 0131 	mov.w	r1, r1, rrx
 8006522:	ea4f 7002 	mov.w	r0, r2, lsl #28
 8006526:	bf1f      	itttt	ne
 8006528:	f012 437f 	andsne.w	r3, r2, #4278190080	; 0xff000000
 800652c:	f093 4f7f 	teqne	r3, #4278190080	; 0xff000000
 8006530:	f081 5160 	eorne.w	r1, r1, #939524096	; 0x38000000
 8006534:	4770      	bxne	lr
 8006536:	f032 427f 	bics.w	r2, r2, #4278190080	; 0xff000000
 800653a:	bf08      	it	eq
 800653c:	4770      	bxeq	lr
 800653e:	f093 4f7f 	teq	r3, #4278190080	; 0xff000000
 8006542:	bf04      	itt	eq
 8006544:	f441 2100 	orreq.w	r1, r1, #524288	; 0x80000
 8006548:	4770      	bxeq	lr
 800654a:	b530      	push	{r4, r5, lr}
 800654c:	f44f 7460 	mov.w	r4, #896	; 0x380
 8006550:	f001 4500 	and.w	r5, r1, #2147483648	; 0x80000000
 8006554:	f021 4100 	bic.w	r1, r1, #2147483648	; 0x80000000
 8006558:	e71c      	b.n	8006394 <__adddf3+0x138>
 800655a:	bf00      	nop

0800655c <__aeabi_ul2d>:
 800655c:	ea50 0201 	orrs.w	r2, r0, r1
 8006560:	bf08      	it	eq
 8006562:	4770      	bxeq	lr
 8006564:	b530      	push	{r4, r5, lr}
 8006566:	f04f 0500 	mov.w	r5, #0
 800656a:	e00a      	b.n	8006582 <__aeabi_l2d+0x16>

0800656c <__aeabi_l2d>:
 800656c:	ea50 0201 	orrs.w	r2, r0, r1
 8006570:	bf08      	it	eq
 8006572:	4770      	bxeq	lr
 8006574:	b530      	push	{r4, r5, lr}
 8006576:	f011 4500 	ands.w	r5, r1, #2147483648	; 0x80000000
 800657a:	d502      	bpl.n	8006582 <__aeabi_l2d+0x16>
 800657c:	4240      	negs	r0, r0
 800657e:	eb61 0141 	sbc.w	r1, r1, r1, lsl #1
 8006582:	f44f 6480 	mov.w	r4, #1024	; 0x400
 8006586:	f104 0432 	add.w	r4, r4, #50	; 0x32
 800658a:	ea5f 5c91 	movs.w	ip, r1, lsr #22
 800658e:	f43f aed8 	beq.w	8006342 <__adddf3+0xe6>
 8006592:	f04f 0203 	mov.w	r2, #3
 8006596:	ea5f 0cdc 	movs.w	ip, ip, lsr #3
 800659a:	bf18      	it	ne
 800659c:	3203      	addne	r2, #3
 800659e:	ea5f 0cdc 	movs.w	ip, ip, lsr #3
 80065a2:	bf18      	it	ne
 80065a4:	3203      	addne	r2, #3
 80065a6:	eb02 02dc 	add.w	r2, r2, ip, lsr #3
 80065aa:	f1c2 0320 	rsb	r3, r2, #32
 80065ae:	fa00 fc03 	lsl.w	ip, r0, r3
 80065b2:	fa20 f002 	lsr.w	r0, r0, r2
 80065b6:	fa01 fe03 	lsl.w	lr, r1, r3
 80065ba:	ea40 000e 	orr.w	r0, r0, lr
 80065be:	fa21 f102 	lsr.w	r1, r1, r2
 80065c2:	4414      	add	r4, r2
 80065c4:	e6bd      	b.n	8006342 <__adddf3+0xe6>
 80065c6:	bf00      	nop

080065c8 <__aeabi_dmul>:
 80065c8:	b570      	push	{r4, r5, r6, lr}
 80065ca:	f04f 0cff 	mov.w	ip, #255	; 0xff
 80065ce:	f44c 6ce0 	orr.w	ip, ip, #1792	; 0x700
 80065d2:	ea1c 5411 	ands.w	r4, ip, r1, lsr #20
 80065d6:	bf1d      	ittte	ne
 80065d8:	ea1c 5513 	andsne.w	r5, ip, r3, lsr #20
 80065dc:	ea94 0f0c 	teqne	r4, ip
 80065e0:	ea95 0f0c 	teqne	r5, ip
 80065e4:	f000 f8de 	bleq	80067a4 <__aeabi_dmul+0x1dc>
 80065e8:	442c      	add	r4, r5
 80065ea:	ea81 0603 	eor.w	r6, r1, r3
 80065ee:	ea21 514c 	bic.w	r1, r1, ip, lsl #21
 80065f2:	ea23 534c 	bic.w	r3, r3, ip, lsl #21
 80065f6:	ea50 3501 	orrs.w	r5, r0, r1, lsl #12
 80065fa:	bf18      	it	ne
 80065fc:	ea52 3503 	orrsne.w	r5, r2, r3, lsl #12
 8006600:	f441 1180 	orr.w	r1, r1, #1048576	; 0x100000
 8006604:	f443 1380 	orr.w	r3, r3, #1048576	; 0x100000
 8006608:	d038      	beq.n	800667c <__aeabi_dmul+0xb4>
 800660a:	fba0 ce02 	umull	ip, lr, r0, r2
 800660e:	f04f 0500 	mov.w	r5, #0
 8006612:	fbe1 e502 	umlal	lr, r5, r1, r2
 8006616:	f006 4200 	and.w	r2, r6, #2147483648	; 0x80000000
 800661a:	fbe0 e503 	umlal	lr, r5, r0, r3
 800661e:	f04f 0600 	mov.w	r6, #0
 8006622:	fbe1 5603 	umlal	r5, r6, r1, r3
 8006626:	f09c 0f00 	teq	ip, #0
 800662a:	bf18      	it	ne
 800662c:	f04e 0e01 	orrne.w	lr, lr, #1
 8006630:	f1a4 04ff 	sub.w	r4, r4, #255	; 0xff
 8006634:	f5b6 7f00 	cmp.w	r6, #512	; 0x200
 8006638:	f564 7440 	sbc.w	r4, r4, #768	; 0x300
 800663c:	d204      	bcs.n	8006648 <__aeabi_dmul+0x80>
 800663e:	ea5f 0e4e 	movs.w	lr, lr, lsl #1
 8006642:	416d      	adcs	r5, r5
 8006644:	eb46 0606 	adc.w	r6, r6, r6
 8006648:	ea42 21c6 	orr.w	r1, r2, r6, lsl #11
 800664c:	ea41 5155 	orr.w	r1, r1, r5, lsr #21
 8006650:	ea4f 20c5 	mov.w	r0, r5, lsl #11
 8006654:	ea40 505e 	orr.w	r0, r0, lr, lsr #21
 8006658:	ea4f 2ece 	mov.w	lr, lr, lsl #11
 800665c:	f1b4 0cfd 	subs.w	ip, r4, #253	; 0xfd
 8006660:	bf88      	it	hi
 8006662:	f5bc 6fe0 	cmphi.w	ip, #1792	; 0x700
 8006666:	d81e      	bhi.n	80066a6 <__aeabi_dmul+0xde>
 8006668:	f1be 4f00 	cmp.w	lr, #2147483648	; 0x80000000
 800666c:	bf08      	it	eq
 800666e:	ea5f 0e50 	movseq.w	lr, r0, lsr #1
 8006672:	f150 0000 	adcs.w	r0, r0, #0
 8006676:	eb41 5104 	adc.w	r1, r1, r4, lsl #20
 800667a:	bd70      	pop	{r4, r5, r6, pc}
 800667c:	f006 4600 	and.w	r6, r6, #2147483648	; 0x80000000
 8006680:	ea46 0101 	orr.w	r1, r6, r1
 8006684:	ea40 0002 	orr.w	r0, r0, r2
 8006688:	ea81 0103 	eor.w	r1, r1, r3
 800668c:	ebb4 045c 	subs.w	r4, r4, ip, lsr #1
 8006690:	bfc2      	ittt	gt
 8006692:	ebd4 050c 	rsbsgt	r5, r4, ip
 8006696:	ea41 5104 	orrgt.w	r1, r1, r4, lsl #20
 800669a:	bd70      	popgt	{r4, r5, r6, pc}
 800669c:	f441 1180 	orr.w	r1, r1, #1048576	; 0x100000
 80066a0:	f04f 0e00 	mov.w	lr, #0
 80066a4:	3c01      	subs	r4, #1
 80066a6:	f300 80ab 	bgt.w	8006800 <__aeabi_dmul+0x238>
 80066aa:	f114 0f36 	cmn.w	r4, #54	; 0x36
 80066ae:	bfde      	ittt	le
 80066b0:	2000      	movle	r0, #0
 80066b2:	f001 4100 	andle.w	r1, r1, #2147483648	; 0x80000000
 80066b6:	bd70      	pople	{r4, r5, r6, pc}
 80066b8:	f1c4 0400 	rsb	r4, r4, #0
 80066bc:	3c20      	subs	r4, #32
 80066be:	da35      	bge.n	800672c <__aeabi_dmul+0x164>
 80066c0:	340c      	adds	r4, #12
 80066c2:	dc1b      	bgt.n	80066fc <__aeabi_dmul+0x134>
 80066c4:	f104 0414 	add.w	r4, r4, #20
 80066c8:	f1c4 0520 	rsb	r5, r4, #32
 80066cc:	fa00 f305 	lsl.w	r3, r0, r5
 80066d0:	fa20 f004 	lsr.w	r0, r0, r4
 80066d4:	fa01 f205 	lsl.w	r2, r1, r5
 80066d8:	ea40 0002 	orr.w	r0, r0, r2
 80066dc:	f001 4200 	and.w	r2, r1, #2147483648	; 0x80000000
 80066e0:	f021 4100 	bic.w	r1, r1, #2147483648	; 0x80000000
 80066e4:	eb10 70d3 	adds.w	r0, r0, r3, lsr #31
 80066e8:	fa21 f604 	lsr.w	r6, r1, r4
 80066ec:	eb42 0106 	adc.w	r1, r2, r6
 80066f0:	ea5e 0e43 	orrs.w	lr, lr, r3, lsl #1
 80066f4:	bf08      	it	eq
 80066f6:	ea20 70d3 	biceq.w	r0, r0, r3, lsr #31
 80066fa:	bd70      	pop	{r4, r5, r6, pc}
 80066fc:	f1c4 040c 	rsb	r4, r4, #12
 8006700:	f1c4 0520 	rsb	r5, r4, #32
 8006704:	fa00 f304 	lsl.w	r3, r0, r4
 8006708:	fa20 f005 	lsr.w	r0, r0, r5
 800670c:	fa01 f204 	lsl.w	r2, r1, r4
 8006710:	ea40 0002 	orr.w	r0, r0, r2
 8006714:	f001 4100 	and.w	r1, r1, #2147483648	; 0x80000000
 8006718:	eb10 70d3 	adds.w	r0, r0, r3, lsr #31
 800671c:	f141 0100 	adc.w	r1, r1, #0
 8006720:	ea5e 0e43 	orrs.w	lr, lr, r3, lsl #1
 8006724:	bf08      	it	eq
 8006726:	ea20 70d3 	biceq.w	r0, r0, r3, lsr #31
 800672a:	bd70      	pop	{r4, r5, r6, pc}
 800672c:	f1c4 0520 	rsb	r5, r4, #32
 8006730:	fa00 f205 	lsl.w	r2, r0, r5
 8006734:	ea4e 0e02 	orr.w	lr, lr, r2
 8006738:	fa20 f304 	lsr.w	r3, r0, r4
 800673c:	fa01 f205 	lsl.w	r2, r1, r5
 8006740:	ea43 0302 	orr.w	r3, r3, r2
 8006744:	fa21 f004 	lsr.w	r0, r1, r4
 8006748:	f001 4100 	and.w	r1, r1, #2147483648	; 0x80000000
 800674c:	fa21 f204 	lsr.w	r2, r1, r4
 8006750:	ea20 0002 	bic.w	r0, r0, r2
 8006754:	eb00 70d3 	add.w	r0, r0, r3, lsr #31
 8006758:	ea5e 0e43 	orrs.w	lr, lr, r3, lsl #1
 800675c:	bf08      	it	eq
 800675e:	ea20 70d3 	biceq.w	r0, r0, r3, lsr #31
 8006762:	bd70      	pop	{r4, r5, r6, pc}
 8006764:	f094 0f00 	teq	r4, #0
 8006768:	d10f      	bne.n	800678a <__aeabi_dmul+0x1c2>
 800676a:	f001 4600 	and.w	r6, r1, #2147483648	; 0x80000000
 800676e:	0040      	lsls	r0, r0, #1
 8006770:	eb41 0101 	adc.w	r1, r1, r1
 8006774:	f411 1f80 	tst.w	r1, #1048576	; 0x100000
 8006778:	bf08      	it	eq
 800677a:	3c01      	subeq	r4, #1
 800677c:	d0f7      	beq.n	800676e <__aeabi_dmul+0x1a6>
 800677e:	ea41 0106 	orr.w	r1, r1, r6
 8006782:	f095 0f00 	teq	r5, #0
 8006786:	bf18      	it	ne
 8006788:	4770      	bxne	lr
 800678a:	f003 4600 	and.w	r6, r3, #2147483648	; 0x80000000
 800678e:	0052      	lsls	r2, r2, #1
 8006790:	eb43 0303 	adc.w	r3, r3, r3
 8006794:	f413 1f80 	tst.w	r3, #1048576	; 0x100000
 8006798:	bf08      	it	eq
 800679a:	3d01      	subeq	r5, #1
 800679c:	d0f7      	beq.n	800678e <__aeabi_dmul+0x1c6>
 800679e:	ea43 0306 	orr.w	r3, r3, r6
 80067a2:	4770      	bx	lr
 80067a4:	ea94 0f0c 	teq	r4, ip
 80067a8:	ea0c 5513 	and.w	r5, ip, r3, lsr #20
 80067ac:	bf18      	it	ne
 80067ae:	ea95 0f0c 	teqne	r5, ip
 80067b2:	d00c      	beq.n	80067ce <__aeabi_dmul+0x206>
 80067b4:	ea50 0641 	orrs.w	r6, r0, r1, lsl #1
 80067b8:	bf18      	it	ne
 80067ba:	ea52 0643 	orrsne.w	r6, r2, r3, lsl #1
 80067be:	d1d1      	bne.n	8006764 <__aeabi_dmul+0x19c>
 80067c0:	ea81 0103 	eor.w	r1, r1, r3
 80067c4:	f001 4100 	and.w	r1, r1, #2147483648	; 0x80000000
 80067c8:	f04f 0000 	mov.w	r0, #0
 80067cc:	bd70      	pop	{r4, r5, r6, pc}
 80067ce:	ea50 0641 	orrs.w	r6, r0, r1, lsl #1
 80067d2:	bf06      	itte	eq
 80067d4:	4610      	moveq	r0, r2
 80067d6:	4619      	moveq	r1, r3
 80067d8:	ea52 0643 	orrsne.w	r6, r2, r3, lsl #1
 80067dc:	d019      	beq.n	8006812 <__aeabi_dmul+0x24a>
 80067de:	ea94 0f0c 	teq	r4, ip
 80067e2:	d102      	bne.n	80067ea <__aeabi_dmul+0x222>
 80067e4:	ea50 3601 	orrs.w	r6, r0, r1, lsl #12
 80067e8:	d113      	bne.n	8006812 <__aeabi_dmul+0x24a>
 80067ea:	ea95 0f0c 	teq	r5, ip
 80067ee:	d105      	bne.n	80067fc <__aeabi_dmul+0x234>
 80067f0:	ea52 3603 	orrs.w	r6, r2, r3, lsl #12
 80067f4:	bf1c      	itt	ne
 80067f6:	4610      	movne	r0, r2
 80067f8:	4619      	movne	r1, r3
 80067fa:	d10a      	bne.n	8006812 <__aeabi_dmul+0x24a>
 80067fc:	ea81 0103 	eor.w	r1, r1, r3
 8006800:	f001 4100 	and.w	r1, r1, #2147483648	; 0x80000000
 8006804:	f041 41fe 	orr.w	r1, r1, #2130706432	; 0x7f000000
 8006808:	f441 0170 	orr.w	r1, r1, #15728640	; 0xf00000
 800680c:	f04f 0000 	mov.w	r0, #0
 8006810:	bd70      	pop	{r4, r5, r6, pc}
 8006812:	f041 41fe 	orr.w	r1, r1, #2130706432	; 0x7f000000
 8006816:	f441 0178 	orr.w	r1, r1, #16252928	; 0xf80000
 800681a:	bd70      	pop	{r4, r5, r6, pc}

0800681c <__aeabi_ddiv>:
 800681c:	b570      	push	{r4, r5, r6, lr}
 800681e:	f04f 0cff 	mov.w	ip, #255	; 0xff
 8006822:	f44c 6ce0 	orr.w	ip, ip, #1792	; 0x700
 8006826:	ea1c 5411 	ands.w	r4, ip, r1, lsr #20
 800682a:	bf1d      	ittte	ne
 800682c:	ea1c 5513 	andsne.w	r5, ip, r3, lsr #20
 8006830:	ea94 0f0c 	teqne	r4, ip
 8006834:	ea95 0f0c 	teqne	r5, ip
 8006838:	f000 f8a7 	bleq	800698a <__aeabi_ddiv+0x16e>
 800683c:	eba4 0405 	sub.w	r4, r4, r5
 8006840:	ea81 0e03 	eor.w	lr, r1, r3
 8006844:	ea52 3503 	orrs.w	r5, r2, r3, lsl #12
 8006848:	ea4f 3101 	mov.w	r1, r1, lsl #12
 800684c:	f000 8088 	beq.w	8006960 <__aeabi_ddiv+0x144>
 8006850:	ea4f 3303 	mov.w	r3, r3, lsl #12
 8006854:	f04f 5580 	mov.w	r5, #268435456	; 0x10000000
 8006858:	ea45 1313 	orr.w	r3, r5, r3, lsr #4
 800685c:	ea43 6312 	orr.w	r3, r3, r2, lsr #24
 8006860:	ea4f 2202 	mov.w	r2, r2, lsl #8
 8006864:	ea45 1511 	orr.w	r5, r5, r1, lsr #4
 8006868:	ea45 6510 	orr.w	r5, r5, r0, lsr #24
 800686c:	ea4f 2600 	mov.w	r6, r0, lsl #8
 8006870:	f00e 4100 	and.w	r1, lr, #2147483648	; 0x80000000
 8006874:	429d      	cmp	r5, r3
 8006876:	bf08      	it	eq
 8006878:	4296      	cmpeq	r6, r2
 800687a:	f144 04fd 	adc.w	r4, r4, #253	; 0xfd
 800687e:	f504 7440 	add.w	r4, r4, #768	; 0x300
 8006882:	d202      	bcs.n	800688a <__aeabi_ddiv+0x6e>
 8006884:	085b      	lsrs	r3, r3, #1
 8006886:	ea4f 0232 	mov.w	r2, r2, rrx
 800688a:	1ab6      	subs	r6, r6, r2
 800688c:	eb65 0503 	sbc.w	r5, r5, r3
 8006890:	085b      	lsrs	r3, r3, #1
 8006892:	ea4f 0232 	mov.w	r2, r2, rrx
 8006896:	f44f 1080 	mov.w	r0, #1048576	; 0x100000
 800689a:	f44f 2c00 	mov.w	ip, #524288	; 0x80000
 800689e:	ebb6 0e02 	subs.w	lr, r6, r2
 80068a2:	eb75 0e03 	sbcs.w	lr, r5, r3
 80068a6:	bf22      	ittt	cs
 80068a8:	1ab6      	subcs	r6, r6, r2
 80068aa:	4675      	movcs	r5, lr
 80068ac:	ea40 000c 	orrcs.w	r0, r0, ip
 80068b0:	085b      	lsrs	r3, r3, #1
 80068b2:	ea4f 0232 	mov.w	r2, r2, rrx
 80068b6:	ebb6 0e02 	subs.w	lr, r6, r2
 80068ba:	eb75 0e03 	sbcs.w	lr, r5, r3
 80068be:	bf22      	ittt	cs
 80068c0:	1ab6      	subcs	r6, r6, r2
 80068c2:	4675      	movcs	r5, lr
 80068c4:	ea40 005c 	orrcs.w	r0, r0, ip, lsr #1
 80068c8:	085b      	lsrs	r3, r3, #1
 80068ca:	ea4f 0232 	mov.w	r2, r2, rrx
 80068ce:	ebb6 0e02 	subs.w	lr, r6, r2
 80068d2:	eb75 0e03 	sbcs.w	lr, r5, r3
 80068d6:	bf22      	ittt	cs
 80068d8:	1ab6      	subcs	r6, r6, r2
 80068da:	4675      	movcs	r5, lr
 80068dc:	ea40 009c 	orrcs.w	r0, r0, ip, lsr #2
 80068e0:	085b      	lsrs	r3, r3, #1
 80068e2:	ea4f 0232 	mov.w	r2, r2, rrx
 80068e6:	ebb6 0e02 	subs.w	lr, r6, r2
 80068ea:	eb75 0e03 	sbcs.w	lr, r5, r3
 80068ee:	bf22      	ittt	cs
 80068f0:	1ab6      	subcs	r6, r6, r2
 80068f2:	4675      	movcs	r5, lr
 80068f4:	ea40 00dc 	orrcs.w	r0, r0, ip, lsr #3
 80068f8:	ea55 0e06 	orrs.w	lr, r5, r6
 80068fc:	d018      	beq.n	8006930 <__aeabi_ddiv+0x114>
 80068fe:	ea4f 1505 	mov.w	r5, r5, lsl #4
 8006902:	ea45 7516 	orr.w	r5, r5, r6, lsr #28
 8006906:	ea4f 1606 	mov.w	r6, r6, lsl #4
 800690a:	ea4f 03c3 	mov.w	r3, r3, lsl #3
 800690e:	ea43 7352 	orr.w	r3, r3, r2, lsr #29
 8006912:	ea4f 02c2 	mov.w	r2, r2, lsl #3
 8006916:	ea5f 1c1c 	movs.w	ip, ip, lsr #4
 800691a:	d1c0      	bne.n	800689e <__aeabi_ddiv+0x82>
 800691c:	f411 1f80 	tst.w	r1, #1048576	; 0x100000
 8006920:	d10b      	bne.n	800693a <__aeabi_ddiv+0x11e>
 8006922:	ea41 0100 	orr.w	r1, r1, r0
 8006926:	f04f 0000 	mov.w	r0, #0
 800692a:	f04f 4c00 	mov.w	ip, #2147483648	; 0x80000000
 800692e:	e7b6      	b.n	800689e <__aeabi_ddiv+0x82>
 8006930:	f411 1f80 	tst.w	r1, #1048576	; 0x100000
 8006934:	bf04      	itt	eq
 8006936:	4301      	orreq	r1, r0
 8006938:	2000      	moveq	r0, #0
 800693a:	f1b4 0cfd 	subs.w	ip, r4, #253	; 0xfd
 800693e:	bf88      	it	hi
 8006940:	f5bc 6fe0 	cmphi.w	ip, #1792	; 0x700
 8006944:	f63f aeaf 	bhi.w	80066a6 <__aeabi_dmul+0xde>
 8006948:	ebb5 0c03 	subs.w	ip, r5, r3
 800694c:	bf04      	itt	eq
 800694e:	ebb6 0c02 	subseq.w	ip, r6, r2
 8006952:	ea5f 0c50 	movseq.w	ip, r0, lsr #1
 8006956:	f150 0000 	adcs.w	r0, r0, #0
 800695a:	eb41 5104 	adc.w	r1, r1, r4, lsl #20
 800695e:	bd70      	pop	{r4, r5, r6, pc}
 8006960:	f00e 4e00 	and.w	lr, lr, #2147483648	; 0x80000000
 8006964:	ea4e 3111 	orr.w	r1, lr, r1, lsr #12
 8006968:	eb14 045c 	adds.w	r4, r4, ip, lsr #1
 800696c:	bfc2      	ittt	gt
 800696e:	ebd4 050c 	rsbsgt	r5, r4, ip
 8006972:	ea41 5104 	orrgt.w	r1, r1, r4, lsl #20
 8006976:	bd70      	popgt	{r4, r5, r6, pc}
 8006978:	f441 1180 	orr.w	r1, r1, #1048576	; 0x100000
 800697c:	f04f 0e00 	mov.w	lr, #0
 8006980:	3c01      	subs	r4, #1
 8006982:	e690      	b.n	80066a6 <__aeabi_dmul+0xde>
 8006984:	ea45 0e06 	orr.w	lr, r5, r6
 8006988:	e68d      	b.n	80066a6 <__aeabi_dmul+0xde>
 800698a:	ea0c 5513 	and.w	r5, ip, r3, lsr #20
 800698e:	ea94 0f0c 	teq	r4, ip
 8006992:	bf08      	it	eq
 8006994:	ea95 0f0c 	teqeq	r5, ip
 8006998:	f43f af3b 	beq.w	8006812 <__aeabi_dmul+0x24a>
 800699c:	ea94 0f0c 	teq	r4, ip
 80069a0:	d10a      	bne.n	80069b8 <__aeabi_ddiv+0x19c>
 80069a2:	ea50 3401 	orrs.w	r4, r0, r1, lsl #12
 80069a6:	f47f af34 	bne.w	8006812 <__aeabi_dmul+0x24a>
 80069aa:	ea95 0f0c 	teq	r5, ip
 80069ae:	f47f af25 	bne.w	80067fc <__aeabi_dmul+0x234>
 80069b2:	4610      	mov	r0, r2
 80069b4:	4619      	mov	r1, r3
 80069b6:	e72c      	b.n	8006812 <__aeabi_dmul+0x24a>
 80069b8:	ea95 0f0c 	teq	r5, ip
 80069bc:	d106      	bne.n	80069cc <__aeabi_ddiv+0x1b0>
 80069be:	ea52 3503 	orrs.w	r5, r2, r3, lsl #12
 80069c2:	f43f aefd 	beq.w	80067c0 <__aeabi_dmul+0x1f8>
 80069c6:	4610      	mov	r0, r2
 80069c8:	4619      	mov	r1, r3
 80069ca:	e722      	b.n	8006812 <__aeabi_dmul+0x24a>
 80069cc:	ea50 0641 	orrs.w	r6, r0, r1, lsl #1
 80069d0:	bf18      	it	ne
 80069d2:	ea52 0643 	orrsne.w	r6, r2, r3, lsl #1
 80069d6:	f47f aec5 	bne.w	8006764 <__aeabi_dmul+0x19c>
 80069da:	ea50 0441 	orrs.w	r4, r0, r1, lsl #1
 80069de:	f47f af0d 	bne.w	80067fc <__aeabi_dmul+0x234>
 80069e2:	ea52 0543 	orrs.w	r5, r2, r3, lsl #1
 80069e6:	f47f aeeb 	bne.w	80067c0 <__aeabi_dmul+0x1f8>
 80069ea:	e712      	b.n	8006812 <__aeabi_dmul+0x24a>

080069ec <__gedf2>:
 80069ec:	f04f 3cff 	mov.w	ip, #4294967295	; 0xffffffff
 80069f0:	e006      	b.n	8006a00 <__cmpdf2+0x4>
 80069f2:	bf00      	nop

080069f4 <__ledf2>:
 80069f4:	f04f 0c01 	mov.w	ip, #1
 80069f8:	e002      	b.n	8006a00 <__cmpdf2+0x4>
 80069fa:	bf00      	nop

080069fc <__cmpdf2>:
 80069fc:	f04f 0c01 	mov.w	ip, #1
 8006a00:	f84d cd04 	str.w	ip, [sp, #-4]!
 8006a04:	ea4f 0c41 	mov.w	ip, r1, lsl #1
 8006a08:	ea7f 5c6c 	mvns.w	ip, ip, asr #21
 8006a0c:	ea4f 0c43 	mov.w	ip, r3, lsl #1
 8006a10:	bf18      	it	ne
 8006a12:	ea7f 5c6c 	mvnsne.w	ip, ip, asr #21
 8006a16:	d01b      	beq.n	8006a50 <__cmpdf2+0x54>
 8006a18:	b001      	add	sp, #4
 8006a1a:	ea50 0c41 	orrs.w	ip, r0, r1, lsl #1
 8006a1e:	bf0c      	ite	eq
 8006a20:	ea52 0c43 	orrseq.w	ip, r2, r3, lsl #1
 8006a24:	ea91 0f03 	teqne	r1, r3
 8006a28:	bf02      	ittt	eq
 8006a2a:	ea90 0f02 	teqeq	r0, r2
 8006a2e:	2000      	moveq	r0, #0
 8006a30:	4770      	bxeq	lr
 8006a32:	f110 0f00 	cmn.w	r0, #0
 8006a36:	ea91 0f03 	teq	r1, r3
 8006a3a:	bf58      	it	pl
 8006a3c:	4299      	cmppl	r1, r3
 8006a3e:	bf08      	it	eq
 8006a40:	4290      	cmpeq	r0, r2
 8006a42:	bf2c      	ite	cs
 8006a44:	17d8      	asrcs	r0, r3, #31
 8006a46:	ea6f 70e3 	mvncc.w	r0, r3, asr #31
 8006a4a:	f040 0001 	orr.w	r0, r0, #1
 8006a4e:	4770      	bx	lr
 8006a50:	ea4f 0c41 	mov.w	ip, r1, lsl #1
 8006a54:	ea7f 5c6c 	mvns.w	ip, ip, asr #21
 8006a58:	d102      	bne.n	8006a60 <__cmpdf2+0x64>
 8006a5a:	ea50 3c01 	orrs.w	ip, r0, r1, lsl #12
 8006a5e:	d107      	bne.n	8006a70 <__cmpdf2+0x74>
 8006a60:	ea4f 0c43 	mov.w	ip, r3, lsl #1
 8006a64:	ea7f 5c6c 	mvns.w	ip, ip, asr #21
 8006a68:	d1d6      	bne.n	8006a18 <__cmpdf2+0x1c>
 8006a6a:	ea52 3c03 	orrs.w	ip, r2, r3, lsl #12
 8006a6e:	d0d3      	beq.n	8006a18 <__cmpdf2+0x1c>
 8006a70:	f85d 0b04 	ldr.w	r0, [sp], #4
 8006a74:	4770      	bx	lr
 8006a76:	bf00      	nop

08006a78 <__aeabi_cdrcmple>:
 8006a78:	4684      	mov	ip, r0
 8006a7a:	4610      	mov	r0, r2
 8006a7c:	4662      	mov	r2, ip
 8006a7e:	468c      	mov	ip, r1
 8006a80:	4619      	mov	r1, r3
 8006a82:	4663      	mov	r3, ip
 8006a84:	e000      	b.n	8006a88 <__aeabi_cdcmpeq>
 8006a86:	bf00      	nop

08006a88 <__aeabi_cdcmpeq>:
 8006a88:	b501      	push	{r0, lr}
 8006a8a:	f7ff ffb7 	bl	80069fc <__cmpdf2>
 8006a8e:	2800      	cmp	r0, #0
 8006a90:	bf48      	it	mi
 8006a92:	f110 0f00 	cmnmi.w	r0, #0
 8006a96:	bd01      	pop	{r0, pc}

08006a98 <__aeabi_dcmpeq>:
 8006a98:	f84d ed08 	str.w	lr, [sp, #-8]!
 8006a9c:	f7ff fff4 	bl	8006a88 <__aeabi_cdcmpeq>
 8006aa0:	bf0c      	ite	eq
 8006aa2:	2001      	moveq	r0, #1
 8006aa4:	2000      	movne	r0, #0
 8006aa6:	f85d fb08 	ldr.w	pc, [sp], #8
 8006aaa:	bf00      	nop

08006aac <__aeabi_dcmplt>:
 8006aac:	f84d ed08 	str.w	lr, [sp, #-8]!
 8006ab0:	f7ff ffea 	bl	8006a88 <__aeabi_cdcmpeq>
 8006ab4:	bf34      	ite	cc
 8006ab6:	2001      	movcc	r0, #1
 8006ab8:	2000      	movcs	r0, #0
 8006aba:	f85d fb08 	ldr.w	pc, [sp], #8
 8006abe:	bf00      	nop

08006ac0 <__aeabi_dcmple>:
 8006ac0:	f84d ed08 	str.w	lr, [sp, #-8]!
 8006ac4:	f7ff ffe0 	bl	8006a88 <__aeabi_cdcmpeq>
 8006ac8:	bf94      	ite	ls
 8006aca:	2001      	movls	r0, #1
 8006acc:	2000      	movhi	r0, #0
 8006ace:	f85d fb08 	ldr.w	pc, [sp], #8
 8006ad2:	bf00      	nop

08006ad4 <__aeabi_dcmpge>:
 8006ad4:	f84d ed08 	str.w	lr, [sp, #-8]!
 8006ad8:	f7ff ffce 	bl	8006a78 <__aeabi_cdrcmple>
 8006adc:	bf94      	ite	ls
 8006ade:	2001      	movls	r0, #1
 8006ae0:	2000      	movhi	r0, #0
 8006ae2:	f85d fb08 	ldr.w	pc, [sp], #8
 8006ae6:	bf00      	nop

08006ae8 <__aeabi_dcmpgt>:
 8006ae8:	f84d ed08 	str.w	lr, [sp, #-8]!
 8006aec:	f7ff ffc4 	bl	8006a78 <__aeabi_cdrcmple>
 8006af0:	bf34      	ite	cc
 8006af2:	2001      	movcc	r0, #1
 8006af4:	2000      	movcs	r0, #0
 8006af6:	f85d fb08 	ldr.w	pc, [sp], #8
 8006afa:	bf00      	nop

08006afc <__aeabi_dcmpun>:
 8006afc:	ea4f 0c41 	mov.w	ip, r1, lsl #1
 8006b00:	ea7f 5c6c 	mvns.w	ip, ip, asr #21
 8006b04:	d102      	bne.n	8006b0c <__aeabi_dcmpun+0x10>
 8006b06:	ea50 3c01 	orrs.w	ip, r0, r1, lsl #12
 8006b0a:	d10a      	bne.n	8006b22 <__aeabi_dcmpun+0x26>
 8006b0c:	ea4f 0c43 	mov.w	ip, r3, lsl #1
 8006b10:	ea7f 5c6c 	mvns.w	ip, ip, asr #21
 8006b14:	d102      	bne.n	8006b1c <__aeabi_dcmpun+0x20>
 8006b16:	ea52 3c03 	orrs.w	ip, r2, r3, lsl #12
 8006b1a:	d102      	bne.n	8006b22 <__aeabi_dcmpun+0x26>
 8006b1c:	f04f 0000 	mov.w	r0, #0
 8006b20:	4770      	bx	lr
 8006b22:	f04f 0001 	mov.w	r0, #1
 8006b26:	4770      	bx	lr

08006b28 <__aeabi_d2iz>:
 8006b28:	ea4f 0241 	mov.w	r2, r1, lsl #1
 8006b2c:	f512 1200 	adds.w	r2, r2, #2097152	; 0x200000
 8006b30:	d215      	bcs.n	8006b5e <__aeabi_d2iz+0x36>
 8006b32:	d511      	bpl.n	8006b58 <__aeabi_d2iz+0x30>
 8006b34:	f46f 7378 	mvn.w	r3, #992	; 0x3e0
 8006b38:	ebb3 5262 	subs.w	r2, r3, r2, asr #21
 8006b3c:	d912      	bls.n	8006b64 <__aeabi_d2iz+0x3c>
 8006b3e:	ea4f 23c1 	mov.w	r3, r1, lsl #11
 8006b42:	f043 4300 	orr.w	r3, r3, #2147483648	; 0x80000000
 8006b46:	ea43 5350 	orr.w	r3, r3, r0, lsr #21
 8006b4a:	f011 4f00 	tst.w	r1, #2147483648	; 0x80000000
 8006b4e:	fa23 f002 	lsr.w	r0, r3, r2
 8006b52:	bf18      	it	ne
 8006b54:	4240      	negne	r0, r0
 8006b56:	4770      	bx	lr
 8006b58:	f04f 0000 	mov.w	r0, #0
 8006b5c:	4770      	bx	lr
 8006b5e:	ea50 3001 	orrs.w	r0, r0, r1, lsl #12
 8006b62:	d105      	bne.n	8006b70 <__aeabi_d2iz+0x48>
 8006b64:	f011 4000 	ands.w	r0, r1, #2147483648	; 0x80000000
 8006b68:	bf08      	it	eq
 8006b6a:	f06f 4000 	mvneq.w	r0, #2147483648	; 0x80000000
 8006b6e:	4770      	bx	lr
 8006b70:	f04f 0000 	mov.w	r0, #0
 8006b74:	4770      	bx	lr
 8006b76:	bf00      	nop

08006b78 <__aeabi_frsub>:
 8006b78:	f080 4000 	eor.w	r0, r0, #2147483648	; 0x80000000
 8006b7c:	e002      	b.n	8006b84 <__addsf3>
 8006b7e:	bf00      	nop

08006b80 <__aeabi_fsub>:
 8006b80:	f081 4100 	eor.w	r1, r1, #2147483648	; 0x80000000

08006b84 <__addsf3>:
 8006b84:	0042      	lsls	r2, r0, #1
 8006b86:	bf1f      	itttt	ne
 8006b88:	ea5f 0341 	movsne.w	r3, r1, lsl #1
 8006b8c:	ea92 0f03 	teqne	r2, r3
 8006b90:	ea7f 6c22 	mvnsne.w	ip, r2, asr #24
 8006b94:	ea7f 6c23 	mvnsne.w	ip, r3, asr #24
 8006b98:	d06a      	beq.n	8006c70 <__addsf3+0xec>
 8006b9a:	ea4f 6212 	mov.w	r2, r2, lsr #24
 8006b9e:	ebd2 6313 	rsbs	r3, r2, r3, lsr #24
 8006ba2:	bfc1      	itttt	gt
 8006ba4:	18d2      	addgt	r2, r2, r3
 8006ba6:	4041      	eorgt	r1, r0
 8006ba8:	4048      	eorgt	r0, r1
 8006baa:	4041      	eorgt	r1, r0
 8006bac:	bfb8      	it	lt
 8006bae:	425b      	neglt	r3, r3
 8006bb0:	2b19      	cmp	r3, #25
 8006bb2:	bf88      	it	hi
 8006bb4:	4770      	bxhi	lr
 8006bb6:	f010 4f00 	tst.w	r0, #2147483648	; 0x80000000
 8006bba:	f440 0000 	orr.w	r0, r0, #8388608	; 0x800000
 8006bbe:	f020 407f 	bic.w	r0, r0, #4278190080	; 0xff000000
 8006bc2:	bf18      	it	ne
 8006bc4:	4240      	negne	r0, r0
 8006bc6:	f011 4f00 	tst.w	r1, #2147483648	; 0x80000000
 8006bca:	f441 0100 	orr.w	r1, r1, #8388608	; 0x800000
 8006bce:	f021 417f 	bic.w	r1, r1, #4278190080	; 0xff000000
 8006bd2:	bf18      	it	ne
 8006bd4:	4249      	negne	r1, r1
 8006bd6:	ea92 0f03 	teq	r2, r3
 8006bda:	d03f      	beq.n	8006c5c <__addsf3+0xd8>
 8006bdc:	f1a2 0201 	sub.w	r2, r2, #1
 8006be0:	fa41 fc03 	asr.w	ip, r1, r3
 8006be4:	eb10 000c 	adds.w	r0, r0, ip
 8006be8:	f1c3 0320 	rsb	r3, r3, #32
 8006bec:	fa01 f103 	lsl.w	r1, r1, r3
 8006bf0:	f000 4300 	and.w	r3, r0, #2147483648	; 0x80000000
 8006bf4:	d502      	bpl.n	8006bfc <__addsf3+0x78>
 8006bf6:	4249      	negs	r1, r1
 8006bf8:	eb60 0040 	sbc.w	r0, r0, r0, lsl #1
 8006bfc:	f5b0 0f00 	cmp.w	r0, #8388608	; 0x800000
 8006c00:	d313      	bcc.n	8006c2a <__addsf3+0xa6>
 8006c02:	f1b0 7f80 	cmp.w	r0, #16777216	; 0x1000000
 8006c06:	d306      	bcc.n	8006c16 <__addsf3+0x92>
 8006c08:	0840      	lsrs	r0, r0, #1
 8006c0a:	ea4f 0131 	mov.w	r1, r1, rrx
 8006c0e:	f102 0201 	add.w	r2, r2, #1
 8006c12:	2afe      	cmp	r2, #254	; 0xfe
 8006c14:	d251      	bcs.n	8006cba <__addsf3+0x136>
 8006c16:	f1b1 4f00 	cmp.w	r1, #2147483648	; 0x80000000
 8006c1a:	eb40 50c2 	adc.w	r0, r0, r2, lsl #23
 8006c1e:	bf08      	it	eq
 8006c20:	f020 0001 	biceq.w	r0, r0, #1
 8006c24:	ea40 0003 	orr.w	r0, r0, r3
 8006c28:	4770      	bx	lr
 8006c2a:	0049      	lsls	r1, r1, #1
 8006c2c:	eb40 0000 	adc.w	r0, r0, r0
 8006c30:	3a01      	subs	r2, #1
 8006c32:	bf28      	it	cs
 8006c34:	f5b0 0f00 	cmpcs.w	r0, #8388608	; 0x800000
 8006c38:	d2ed      	bcs.n	8006c16 <__addsf3+0x92>
 8006c3a:	fab0 fc80 	clz	ip, r0
 8006c3e:	f1ac 0c08 	sub.w	ip, ip, #8
 8006c42:	ebb2 020c 	subs.w	r2, r2, ip
 8006c46:	fa00 f00c 	lsl.w	r0, r0, ip
 8006c4a:	bfaa      	itet	ge
 8006c4c:	eb00 50c2 	addge.w	r0, r0, r2, lsl #23
 8006c50:	4252      	neglt	r2, r2
 8006c52:	4318      	orrge	r0, r3
 8006c54:	bfbc      	itt	lt
 8006c56:	40d0      	lsrlt	r0, r2
 8006c58:	4318      	orrlt	r0, r3
 8006c5a:	4770      	bx	lr
 8006c5c:	f092 0f00 	teq	r2, #0
 8006c60:	f481 0100 	eor.w	r1, r1, #8388608	; 0x800000
 8006c64:	bf06      	itte	eq
 8006c66:	f480 0000 	eoreq.w	r0, r0, #8388608	; 0x800000
 8006c6a:	3201      	addeq	r2, #1
 8006c6c:	3b01      	subne	r3, #1
 8006c6e:	e7b5      	b.n	8006bdc <__addsf3+0x58>
 8006c70:	ea4f 0341 	mov.w	r3, r1, lsl #1
 8006c74:	ea7f 6c22 	mvns.w	ip, r2, asr #24
 8006c78:	bf18      	it	ne
 8006c7a:	ea7f 6c23 	mvnsne.w	ip, r3, asr #24
 8006c7e:	d021      	beq.n	8006cc4 <__addsf3+0x140>
 8006c80:	ea92 0f03 	teq	r2, r3
 8006c84:	d004      	beq.n	8006c90 <__addsf3+0x10c>
 8006c86:	f092 0f00 	teq	r2, #0
 8006c8a:	bf08      	it	eq
 8006c8c:	4608      	moveq	r0, r1
 8006c8e:	4770      	bx	lr
 8006c90:	ea90 0f01 	teq	r0, r1
 8006c94:	bf1c      	itt	ne
 8006c96:	2000      	movne	r0, #0
 8006c98:	4770      	bxne	lr
 8006c9a:	f012 4f7f 	tst.w	r2, #4278190080	; 0xff000000
 8006c9e:	d104      	bne.n	8006caa <__addsf3+0x126>
 8006ca0:	0040      	lsls	r0, r0, #1
 8006ca2:	bf28      	it	cs
 8006ca4:	f040 4000 	orrcs.w	r0, r0, #2147483648	; 0x80000000
 8006ca8:	4770      	bx	lr
 8006caa:	f112 7200 	adds.w	r2, r2, #33554432	; 0x2000000
 8006cae:	bf3c      	itt	cc
 8006cb0:	f500 0000 	addcc.w	r0, r0, #8388608	; 0x800000
 8006cb4:	4770      	bxcc	lr
 8006cb6:	f000 4300 	and.w	r3, r0, #2147483648	; 0x80000000
 8006cba:	f043 40fe 	orr.w	r0, r3, #2130706432	; 0x7f000000
 8006cbe:	f440 0000 	orr.w	r0, r0, #8388608	; 0x800000
 8006cc2:	4770      	bx	lr
 8006cc4:	ea7f 6222 	mvns.w	r2, r2, asr #24
 8006cc8:	bf16      	itet	ne
 8006cca:	4608      	movne	r0, r1
 8006ccc:	ea7f 6323 	mvnseq.w	r3, r3, asr #24
 8006cd0:	4601      	movne	r1, r0
 8006cd2:	0242      	lsls	r2, r0, #9
 8006cd4:	bf06      	itte	eq
 8006cd6:	ea5f 2341 	movseq.w	r3, r1, lsl #9
 8006cda:	ea90 0f01 	teqeq	r0, r1
 8006cde:	f440 0080 	orrne.w	r0, r0, #4194304	; 0x400000
 8006ce2:	4770      	bx	lr

08006ce4 <__aeabi_ui2f>:
 8006ce4:	f04f 0300 	mov.w	r3, #0
 8006ce8:	e004      	b.n	8006cf4 <__aeabi_i2f+0x8>
 8006cea:	bf00      	nop

08006cec <__aeabi_i2f>:
 8006cec:	f010 4300 	ands.w	r3, r0, #2147483648	; 0x80000000
 8006cf0:	bf48      	it	mi
 8006cf2:	4240      	negmi	r0, r0
 8006cf4:	ea5f 0c00 	movs.w	ip, r0
 8006cf8:	bf08      	it	eq
 8006cfa:	4770      	bxeq	lr
 8006cfc:	f043 4396 	orr.w	r3, r3, #1258291200	; 0x4b000000
 8006d00:	4601      	mov	r1, r0
 8006d02:	f04f 0000 	mov.w	r0, #0
 8006d06:	e01c      	b.n	8006d42 <__aeabi_l2f+0x2a>

08006d08 <__aeabi_ul2f>:
 8006d08:	ea50 0201 	orrs.w	r2, r0, r1
 8006d0c:	bf08      	it	eq
 8006d0e:	4770      	bxeq	lr
 8006d10:	f04f 0300 	mov.w	r3, #0
 8006d14:	e00a      	b.n	8006d2c <__aeabi_l2f+0x14>
 8006d16:	bf00      	nop

08006d18 <__aeabi_l2f>:
 8006d18:	ea50 0201 	orrs.w	r2, r0, r1
 8006d1c:	bf08      	it	eq
 8006d1e:	4770      	bxeq	lr
 8006d20:	f011 4300 	ands.w	r3, r1, #2147483648	; 0x80000000
 8006d24:	d502      	bpl.n	8006d2c <__aeabi_l2f+0x14>
 8006d26:	4240      	negs	r0, r0
 8006d28:	eb61 0141 	sbc.w	r1, r1, r1, lsl #1
 8006d2c:	ea5f 0c01 	movs.w	ip, r1
 8006d30:	bf02      	ittt	eq
 8006d32:	4684      	moveq	ip, r0
 8006d34:	4601      	moveq	r1, r0
 8006d36:	2000      	moveq	r0, #0
 8006d38:	f043 43b6 	orr.w	r3, r3, #1526726656	; 0x5b000000
 8006d3c:	bf08      	it	eq
 8006d3e:	f1a3 5380 	subeq.w	r3, r3, #268435456	; 0x10000000
 8006d42:	f5a3 0300 	sub.w	r3, r3, #8388608	; 0x800000
 8006d46:	fabc f28c 	clz	r2, ip
 8006d4a:	3a08      	subs	r2, #8
 8006d4c:	eba3 53c2 	sub.w	r3, r3, r2, lsl #23
 8006d50:	db10      	blt.n	8006d74 <__aeabi_l2f+0x5c>
 8006d52:	fa01 fc02 	lsl.w	ip, r1, r2
 8006d56:	4463      	add	r3, ip
 8006d58:	fa00 fc02 	lsl.w	ip, r0, r2
 8006d5c:	f1c2 0220 	rsb	r2, r2, #32
 8006d60:	f1bc 4f00 	cmp.w	ip, #2147483648	; 0x80000000
 8006d64:	fa20 f202 	lsr.w	r2, r0, r2
 8006d68:	eb43 0002 	adc.w	r0, r3, r2
 8006d6c:	bf08      	it	eq
 8006d6e:	f020 0001 	biceq.w	r0, r0, #1
 8006d72:	4770      	bx	lr
 8006d74:	f102 0220 	add.w	r2, r2, #32
 8006d78:	fa01 fc02 	lsl.w	ip, r1, r2
 8006d7c:	f1c2 0220 	rsb	r2, r2, #32
 8006d80:	ea50 004c 	orrs.w	r0, r0, ip, lsl #1
 8006d84:	fa21 f202 	lsr.w	r2, r1, r2
 8006d88:	eb43 0002 	adc.w	r0, r3, r2
 8006d8c:	bf08      	it	eq
 8006d8e:	ea20 70dc 	biceq.w	r0, r0, ip, lsr #31
 8006d92:	4770      	bx	lr

08006d94 <__aeabi_fmul>:
 8006d94:	f04f 0cff 	mov.w	ip, #255	; 0xff
 8006d98:	ea1c 52d0 	ands.w	r2, ip, r0, lsr #23
 8006d9c:	bf1e      	ittt	ne
 8006d9e:	ea1c 53d1 	andsne.w	r3, ip, r1, lsr #23
 8006da2:	ea92 0f0c 	teqne	r2, ip
 8006da6:	ea93 0f0c 	teqne	r3, ip
 8006daa:	d06f      	beq.n	8006e8c <__aeabi_fmul+0xf8>
 8006dac:	441a      	add	r2, r3
 8006dae:	ea80 0c01 	eor.w	ip, r0, r1
 8006db2:	0240      	lsls	r0, r0, #9
 8006db4:	bf18      	it	ne
 8006db6:	ea5f 2141 	movsne.w	r1, r1, lsl #9
 8006dba:	d01e      	beq.n	8006dfa <__aeabi_fmul+0x66>
 8006dbc:	f04f 6300 	mov.w	r3, #134217728	; 0x8000000
 8006dc0:	ea43 1050 	orr.w	r0, r3, r0, lsr #5
 8006dc4:	ea43 1151 	orr.w	r1, r3, r1, lsr #5
 8006dc8:	fba0 3101 	umull	r3, r1, r0, r1
 8006dcc:	f00c 4000 	and.w	r0, ip, #2147483648	; 0x80000000
 8006dd0:	f5b1 0f00 	cmp.w	r1, #8388608	; 0x800000
 8006dd4:	bf3e      	ittt	cc
 8006dd6:	0049      	lslcc	r1, r1, #1
 8006dd8:	ea41 71d3 	orrcc.w	r1, r1, r3, lsr #31
 8006ddc:	005b      	lslcc	r3, r3, #1
 8006dde:	ea40 0001 	orr.w	r0, r0, r1
 8006de2:	f162 027f 	sbc.w	r2, r2, #127	; 0x7f
 8006de6:	2afd      	cmp	r2, #253	; 0xfd
 8006de8:	d81d      	bhi.n	8006e26 <__aeabi_fmul+0x92>
 8006dea:	f1b3 4f00 	cmp.w	r3, #2147483648	; 0x80000000
 8006dee:	eb40 50c2 	adc.w	r0, r0, r2, lsl #23
 8006df2:	bf08      	it	eq
 8006df4:	f020 0001 	biceq.w	r0, r0, #1
 8006df8:	4770      	bx	lr
 8006dfa:	f090 0f00 	teq	r0, #0
 8006dfe:	f00c 4c00 	and.w	ip, ip, #2147483648	; 0x80000000
 8006e02:	bf08      	it	eq
 8006e04:	0249      	lsleq	r1, r1, #9
 8006e06:	ea4c 2050 	orr.w	r0, ip, r0, lsr #9
 8006e0a:	ea40 2051 	orr.w	r0, r0, r1, lsr #9
 8006e0e:	3a7f      	subs	r2, #127	; 0x7f
 8006e10:	bfc2      	ittt	gt
 8006e12:	f1d2 03ff 	rsbsgt	r3, r2, #255	; 0xff
 8006e16:	ea40 50c2 	orrgt.w	r0, r0, r2, lsl #23
 8006e1a:	4770      	bxgt	lr
 8006e1c:	f440 0000 	orr.w	r0, r0, #8388608	; 0x800000
 8006e20:	f04f 0300 	mov.w	r3, #0
 8006e24:	3a01      	subs	r2, #1
 8006e26:	dc5d      	bgt.n	8006ee4 <__aeabi_fmul+0x150>
 8006e28:	f112 0f19 	cmn.w	r2, #25
 8006e2c:	bfdc      	itt	le
 8006e2e:	f000 4000 	andle.w	r0, r0, #2147483648	; 0x80000000
 8006e32:	4770      	bxle	lr
 8006e34:	f1c2 0200 	rsb	r2, r2, #0
 8006e38:	0041      	lsls	r1, r0, #1
 8006e3a:	fa21 f102 	lsr.w	r1, r1, r2
 8006e3e:	f1c2 0220 	rsb	r2, r2, #32
 8006e42:	fa00 fc02 	lsl.w	ip, r0, r2
 8006e46:	ea5f 0031 	movs.w	r0, r1, rrx
 8006e4a:	f140 0000 	adc.w	r0, r0, #0
 8006e4e:	ea53 034c 	orrs.w	r3, r3, ip, lsl #1
 8006e52:	bf08      	it	eq
 8006e54:	ea20 70dc 	biceq.w	r0, r0, ip, lsr #31
 8006e58:	4770      	bx	lr
 8006e5a:	f092 0f00 	teq	r2, #0
 8006e5e:	f000 4c00 	and.w	ip, r0, #2147483648	; 0x80000000
 8006e62:	bf02      	ittt	eq
 8006e64:	0040      	lsleq	r0, r0, #1
 8006e66:	f410 0f00 	tsteq.w	r0, #8388608	; 0x800000
 8006e6a:	3a01      	subeq	r2, #1
 8006e6c:	d0f9      	beq.n	8006e62 <__aeabi_fmul+0xce>
 8006e6e:	ea40 000c 	orr.w	r0, r0, ip
 8006e72:	f093 0f00 	teq	r3, #0
 8006e76:	f001 4c00 	and.w	ip, r1, #2147483648	; 0x80000000
 8006e7a:	bf02      	ittt	eq
 8006e7c:	0049      	lsleq	r1, r1, #1
 8006e7e:	f411 0f00 	tsteq.w	r1, #8388608	; 0x800000
 8006e82:	3b01      	subeq	r3, #1
 8006e84:	d0f9      	beq.n	8006e7a <__aeabi_fmul+0xe6>
 8006e86:	ea41 010c 	orr.w	r1, r1, ip
 8006e8a:	e78f      	b.n	8006dac <__aeabi_fmul+0x18>
 8006e8c:	ea0c 53d1 	and.w	r3, ip, r1, lsr #23
 8006e90:	ea92 0f0c 	teq	r2, ip
 8006e94:	bf18      	it	ne
 8006e96:	ea93 0f0c 	teqne	r3, ip
 8006e9a:	d00a      	beq.n	8006eb2 <__aeabi_fmul+0x11e>
 8006e9c:	f030 4c00 	bics.w	ip, r0, #2147483648	; 0x80000000
 8006ea0:	bf18      	it	ne
 8006ea2:	f031 4c00 	bicsne.w	ip, r1, #2147483648	; 0x80000000
 8006ea6:	d1d8      	bne.n	8006e5a <__aeabi_fmul+0xc6>
 8006ea8:	ea80 0001 	eor.w	r0, r0, r1
 8006eac:	f000 4000 	and.w	r0, r0, #2147483648	; 0x80000000
 8006eb0:	4770      	bx	lr
 8006eb2:	f090 0f00 	teq	r0, #0
 8006eb6:	bf17      	itett	ne
 8006eb8:	f090 4f00 	teqne	r0, #2147483648	; 0x80000000
 8006ebc:	4608      	moveq	r0, r1
 8006ebe:	f091 0f00 	teqne	r1, #0
 8006ec2:	f091 4f00 	teqne	r1, #2147483648	; 0x80000000
 8006ec6:	d014      	beq.n	8006ef2 <__aeabi_fmul+0x15e>
 8006ec8:	ea92 0f0c 	teq	r2, ip
 8006ecc:	d101      	bne.n	8006ed2 <__aeabi_fmul+0x13e>
 8006ece:	0242      	lsls	r2, r0, #9
 8006ed0:	d10f      	bne.n	8006ef2 <__aeabi_fmul+0x15e>
 8006ed2:	ea93 0f0c 	teq	r3, ip
 8006ed6:	d103      	bne.n	8006ee0 <__aeabi_fmul+0x14c>
 8006ed8:	024b      	lsls	r3, r1, #9
 8006eda:	bf18      	it	ne
 8006edc:	4608      	movne	r0, r1
 8006ede:	d108      	bne.n	8006ef2 <__aeabi_fmul+0x15e>
 8006ee0:	ea80 0001 	eor.w	r0, r0, r1
 8006ee4:	f000 4000 	and.w	r0, r0, #2147483648	; 0x80000000
 8006ee8:	f040 40fe 	orr.w	r0, r0, #2130706432	; 0x7f000000
 8006eec:	f440 0000 	orr.w	r0, r0, #8388608	; 0x800000
 8006ef0:	4770      	bx	lr
 8006ef2:	f040 40fe 	orr.w	r0, r0, #2130706432	; 0x7f000000
 8006ef6:	f440 0040 	orr.w	r0, r0, #12582912	; 0xc00000
 8006efa:	4770      	bx	lr

08006efc <__aeabi_fdiv>:
 8006efc:	f04f 0cff 	mov.w	ip, #255	; 0xff
 8006f00:	ea1c 52d0 	ands.w	r2, ip, r0, lsr #23
 8006f04:	bf1e      	ittt	ne
 8006f06:	ea1c 53d1 	andsne.w	r3, ip, r1, lsr #23
 8006f0a:	ea92 0f0c 	teqne	r2, ip
 8006f0e:	ea93 0f0c 	teqne	r3, ip
 8006f12:	d069      	beq.n	8006fe8 <__aeabi_fdiv+0xec>
 8006f14:	eba2 0203 	sub.w	r2, r2, r3
 8006f18:	ea80 0c01 	eor.w	ip, r0, r1
 8006f1c:	0249      	lsls	r1, r1, #9
 8006f1e:	ea4f 2040 	mov.w	r0, r0, lsl #9
 8006f22:	d037      	beq.n	8006f94 <__aeabi_fdiv+0x98>
 8006f24:	f04f 5380 	mov.w	r3, #268435456	; 0x10000000
 8006f28:	ea43 1111 	orr.w	r1, r3, r1, lsr #4
 8006f2c:	ea43 1310 	orr.w	r3, r3, r0, lsr #4
 8006f30:	f00c 4000 	and.w	r0, ip, #2147483648	; 0x80000000
 8006f34:	428b      	cmp	r3, r1
 8006f36:	bf38      	it	cc
 8006f38:	005b      	lslcc	r3, r3, #1
 8006f3a:	f142 027d 	adc.w	r2, r2, #125	; 0x7d
 8006f3e:	f44f 0c00 	mov.w	ip, #8388608	; 0x800000
 8006f42:	428b      	cmp	r3, r1
 8006f44:	bf24      	itt	cs
 8006f46:	1a5b      	subcs	r3, r3, r1
 8006f48:	ea40 000c 	orrcs.w	r0, r0, ip
 8006f4c:	ebb3 0f51 	cmp.w	r3, r1, lsr #1
 8006f50:	bf24      	itt	cs
 8006f52:	eba3 0351 	subcs.w	r3, r3, r1, lsr #1
 8006f56:	ea40 005c 	orrcs.w	r0, r0, ip, lsr #1
 8006f5a:	ebb3 0f91 	cmp.w	r3, r1, lsr #2
 8006f5e:	bf24      	itt	cs
 8006f60:	eba3 0391 	subcs.w	r3, r3, r1, lsr #2
 8006f64:	ea40 009c 	orrcs.w	r0, r0, ip, lsr #2
 8006f68:	ebb3 0fd1 	cmp.w	r3, r1, lsr #3
 8006f6c:	bf24      	itt	cs
 8006f6e:	eba3 03d1 	subcs.w	r3, r3, r1, lsr #3
 8006f72:	ea40 00dc 	orrcs.w	r0, r0, ip, lsr #3
 8006f76:	011b      	lsls	r3, r3, #4
 8006f78:	bf18      	it	ne
 8006f7a:	ea5f 1c1c 	movsne.w	ip, ip, lsr #4
 8006f7e:	d1e0      	bne.n	8006f42 <__aeabi_fdiv+0x46>
 8006f80:	2afd      	cmp	r2, #253	; 0xfd
 8006f82:	f63f af50 	bhi.w	8006e26 <__aeabi_fmul+0x92>
 8006f86:	428b      	cmp	r3, r1
 8006f88:	eb40 50c2 	adc.w	r0, r0, r2, lsl #23
 8006f8c:	bf08      	it	eq
 8006f8e:	f020 0001 	biceq.w	r0, r0, #1
 8006f92:	4770      	bx	lr
 8006f94:	f00c 4c00 	and.w	ip, ip, #2147483648	; 0x80000000
 8006f98:	ea4c 2050 	orr.w	r0, ip, r0, lsr #9
 8006f9c:	327f      	adds	r2, #127	; 0x7f
 8006f9e:	bfc2      	ittt	gt
 8006fa0:	f1d2 03ff 	rsbsgt	r3, r2, #255	; 0xff
 8006fa4:	ea40 50c2 	orrgt.w	r0, r0, r2, lsl #23
 8006fa8:	4770      	bxgt	lr
 8006faa:	f440 0000 	orr.w	r0, r0, #8388608	; 0x800000
 8006fae:	f04f 0300 	mov.w	r3, #0
 8006fb2:	3a01      	subs	r2, #1
 8006fb4:	e737      	b.n	8006e26 <__aeabi_fmul+0x92>
 8006fb6:	f092 0f00 	teq	r2, #0
 8006fba:	f000 4c00 	and.w	ip, r0, #2147483648	; 0x80000000
 8006fbe:	bf02      	ittt	eq
 8006fc0:	0040      	lsleq	r0, r0, #1
 8006fc2:	f410 0f00 	tsteq.w	r0, #8388608	; 0x800000
 8006fc6:	3a01      	subeq	r2, #1
 8006fc8:	d0f9      	beq.n	8006fbe <__aeabi_fdiv+0xc2>
 8006fca:	ea40 000c 	orr.w	r0, r0, ip
 8006fce:	f093 0f00 	teq	r3, #0
 8006fd2:	f001 4c00 	and.w	ip, r1, #2147483648	; 0x80000000
 8006fd6:	bf02      	ittt	eq
 8006fd8:	0049      	lsleq	r1, r1, #1
 8006fda:	f411 0f00 	tsteq.w	r1, #8388608	; 0x800000
 8006fde:	3b01      	subeq	r3, #1
 8006fe0:	d0f9      	beq.n	8006fd6 <__aeabi_fdiv+0xda>
 8006fe2:	ea41 010c 	orr.w	r1, r1, ip
 8006fe6:	e795      	b.n	8006f14 <__aeabi_fdiv+0x18>
 8006fe8:	ea0c 53d1 	and.w	r3, ip, r1, lsr #23
 8006fec:	ea92 0f0c 	teq	r2, ip
 8006ff0:	d108      	bne.n	8007004 <__aeabi_fdiv+0x108>
 8006ff2:	0242      	lsls	r2, r0, #9
 8006ff4:	f47f af7d 	bne.w	8006ef2 <__aeabi_fmul+0x15e>
 8006ff8:	ea93 0f0c 	teq	r3, ip
 8006ffc:	f47f af70 	bne.w	8006ee0 <__aeabi_fmul+0x14c>
 8007000:	4608      	mov	r0, r1
 8007002:	e776      	b.n	8006ef2 <__aeabi_fmul+0x15e>
 8007004:	ea93 0f0c 	teq	r3, ip
 8007008:	d104      	bne.n	8007014 <__aeabi_fdiv+0x118>
 800700a:	024b      	lsls	r3, r1, #9
 800700c:	f43f af4c 	beq.w	8006ea8 <__aeabi_fmul+0x114>
 8007010:	4608      	mov	r0, r1
 8007012:	e76e      	b.n	8006ef2 <__aeabi_fmul+0x15e>
 8007014:	f030 4c00 	bics.w	ip, r0, #2147483648	; 0x80000000
 8007018:	bf18      	it	ne
 800701a:	f031 4c00 	bicsne.w	ip, r1, #2147483648	; 0x80000000
 800701e:	d1ca      	bne.n	8006fb6 <__aeabi_fdiv+0xba>
 8007020:	f030 4200 	bics.w	r2, r0, #2147483648	; 0x80000000
 8007024:	f47f af5c 	bne.w	8006ee0 <__aeabi_fmul+0x14c>
 8007028:	f031 4300 	bics.w	r3, r1, #2147483648	; 0x80000000
 800702c:	f47f af3c 	bne.w	8006ea8 <__aeabi_fmul+0x114>
 8007030:	e75f      	b.n	8006ef2 <__aeabi_fmul+0x15e>
 8007032:	bf00      	nop

08007034 <__gesf2>:
 8007034:	f04f 3cff 	mov.w	ip, #4294967295	; 0xffffffff
 8007038:	e006      	b.n	8007048 <__cmpsf2+0x4>
 800703a:	bf00      	nop

0800703c <__lesf2>:
 800703c:	f04f 0c01 	mov.w	ip, #1
 8007040:	e002      	b.n	8007048 <__cmpsf2+0x4>
 8007042:	bf00      	nop

08007044 <__cmpsf2>:
 8007044:	f04f 0c01 	mov.w	ip, #1
 8007048:	f84d cd04 	str.w	ip, [sp, #-4]!
 800704c:	ea4f 0240 	mov.w	r2, r0, lsl #1
 8007050:	ea4f 0341 	mov.w	r3, r1, lsl #1
 8007054:	ea7f 6c22 	mvns.w	ip, r2, asr #24
 8007058:	bf18      	it	ne
 800705a:	ea7f 6c23 	mvnsne.w	ip, r3, asr #24
 800705e:	d011      	beq.n	8007084 <__cmpsf2+0x40>
 8007060:	b001      	add	sp, #4
 8007062:	ea52 0c53 	orrs.w	ip, r2, r3, lsr #1
 8007066:	bf18      	it	ne
 8007068:	ea90 0f01 	teqne	r0, r1
 800706c:	bf58      	it	pl
 800706e:	ebb2 0003 	subspl.w	r0, r2, r3
 8007072:	bf88      	it	hi
 8007074:	17c8      	asrhi	r0, r1, #31
 8007076:	bf38      	it	cc
 8007078:	ea6f 70e1 	mvncc.w	r0, r1, asr #31
 800707c:	bf18      	it	ne
 800707e:	f040 0001 	orrne.w	r0, r0, #1
 8007082:	4770      	bx	lr
 8007084:	ea7f 6c22 	mvns.w	ip, r2, asr #24
 8007088:	d102      	bne.n	8007090 <__cmpsf2+0x4c>
 800708a:	ea5f 2c40 	movs.w	ip, r0, lsl #9
 800708e:	d105      	bne.n	800709c <__cmpsf2+0x58>
 8007090:	ea7f 6c23 	mvns.w	ip, r3, asr #24
 8007094:	d1e4      	bne.n	8007060 <__cmpsf2+0x1c>
 8007096:	ea5f 2c41 	movs.w	ip, r1, lsl #9
 800709a:	d0e1      	beq.n	8007060 <__cmpsf2+0x1c>
 800709c:	f85d 0b04 	ldr.w	r0, [sp], #4
 80070a0:	4770      	bx	lr
 80070a2:	bf00      	nop

080070a4 <__aeabi_cfrcmple>:
 80070a4:	4684      	mov	ip, r0
 80070a6:	4608      	mov	r0, r1
 80070a8:	4661      	mov	r1, ip
 80070aa:	e7ff      	b.n	80070ac <__aeabi_cfcmpeq>

080070ac <__aeabi_cfcmpeq>:
 80070ac:	b50f      	push	{r0, r1, r2, r3, lr}
 80070ae:	f7ff ffc9 	bl	8007044 <__cmpsf2>
 80070b2:	2800      	cmp	r0, #0
 80070b4:	bf48      	it	mi
 80070b6:	f110 0f00 	cmnmi.w	r0, #0
 80070ba:	bd0f      	pop	{r0, r1, r2, r3, pc}

080070bc <__aeabi_fcmpeq>:
 80070bc:	f84d ed08 	str.w	lr, [sp, #-8]!
 80070c0:	f7ff fff4 	bl	80070ac <__aeabi_cfcmpeq>
 80070c4:	bf0c      	ite	eq
 80070c6:	2001      	moveq	r0, #1
 80070c8:	2000      	movne	r0, #0
 80070ca:	f85d fb08 	ldr.w	pc, [sp], #8
 80070ce:	bf00      	nop

080070d0 <__aeabi_fcmplt>:
 80070d0:	f84d ed08 	str.w	lr, [sp, #-8]!
 80070d4:	f7ff ffea 	bl	80070ac <__aeabi_cfcmpeq>
 80070d8:	bf34      	ite	cc
 80070da:	2001      	movcc	r0, #1
 80070dc:	2000      	movcs	r0, #0
 80070de:	f85d fb08 	ldr.w	pc, [sp], #8
 80070e2:	bf00      	nop

080070e4 <__aeabi_fcmple>:
 80070e4:	f84d ed08 	str.w	lr, [sp, #-8]!
 80070e8:	f7ff ffe0 	bl	80070ac <__aeabi_cfcmpeq>
 80070ec:	bf94      	ite	ls
 80070ee:	2001      	movls	r0, #1
 80070f0:	2000      	movhi	r0, #0
 80070f2:	f85d fb08 	ldr.w	pc, [sp], #8
 80070f6:	bf00      	nop

080070f8 <__aeabi_fcmpge>:
 80070f8:	f84d ed08 	str.w	lr, [sp, #-8]!
 80070fc:	f7ff ffd2 	bl	80070a4 <__aeabi_cfrcmple>
 8007100:	bf94      	ite	ls
 8007102:	2001      	movls	r0, #1
 8007104:	2000      	movhi	r0, #0
 8007106:	f85d fb08 	ldr.w	pc, [sp], #8
 800710a:	bf00      	nop

0800710c <__aeabi_fcmpgt>:
 800710c:	f84d ed08 	str.w	lr, [sp, #-8]!
 8007110:	f7ff ffc8 	bl	80070a4 <__aeabi_cfrcmple>
 8007114:	bf34      	ite	cc
 8007116:	2001      	movcc	r0, #1
 8007118:	2000      	movcs	r0, #0
 800711a:	f85d fb08 	ldr.w	pc, [sp], #8
 800711e:	bf00      	nop

08007120 <__aeabi_uldivmod>:
 8007120:	b953      	cbnz	r3, 8007138 <__aeabi_uldivmod+0x18>
 8007122:	b94a      	cbnz	r2, 8007138 <__aeabi_uldivmod+0x18>
 8007124:	2900      	cmp	r1, #0
 8007126:	bf08      	it	eq
 8007128:	2800      	cmpeq	r0, #0
 800712a:	bf1c      	itt	ne
 800712c:	f04f 31ff 	movne.w	r1, #4294967295	; 0xffffffff
 8007130:	f04f 30ff 	movne.w	r0, #4294967295	; 0xffffffff
 8007134:	f000 b974 	b.w	8007420 <__aeabi_idiv0>
 8007138:	f1ad 0c08 	sub.w	ip, sp, #8
 800713c:	e96d ce04 	strd	ip, lr, [sp, #-16]!
 8007140:	f000 f806 	bl	8007150 <__udivmoddi4>
 8007144:	f8dd e004 	ldr.w	lr, [sp, #4]
 8007148:	e9dd 2302 	ldrd	r2, r3, [sp, #8]
 800714c:	b004      	add	sp, #16
 800714e:	4770      	bx	lr

08007150 <__udivmoddi4>:
 8007150:	e92d 47f0 	stmdb	sp!, {r4, r5, r6, r7, r8, r9, sl, lr}
 8007154:	9e08      	ldr	r6, [sp, #32]
 8007156:	460d      	mov	r5, r1
 8007158:	4604      	mov	r4, r0
 800715a:	4688      	mov	r8, r1
 800715c:	2b00      	cmp	r3, #0
 800715e:	d14d      	bne.n	80071fc <__udivmoddi4+0xac>
 8007160:	428a      	cmp	r2, r1
 8007162:	4694      	mov	ip, r2
 8007164:	d968      	bls.n	8007238 <__udivmoddi4+0xe8>
 8007166:	fab2 f282 	clz	r2, r2
 800716a:	b152      	cbz	r2, 8007182 <__udivmoddi4+0x32>
 800716c:	fa01 f302 	lsl.w	r3, r1, r2
 8007170:	f1c2 0120 	rsb	r1, r2, #32
 8007174:	fa20 f101 	lsr.w	r1, r0, r1
 8007178:	fa0c fc02 	lsl.w	ip, ip, r2
 800717c:	ea41 0803 	orr.w	r8, r1, r3
 8007180:	4094      	lsls	r4, r2
 8007182:	ea4f 451c 	mov.w	r5, ip, lsr #16
 8007186:	0c21      	lsrs	r1, r4, #16
 8007188:	fbb8 fef5 	udiv	lr, r8, r5
 800718c:	fa1f f78c 	uxth.w	r7, ip
 8007190:	fb05 831e 	mls	r3, r5, lr, r8
 8007194:	ea41 4303 	orr.w	r3, r1, r3, lsl #16
 8007198:	fb0e f107 	mul.w	r1, lr, r7
 800719c:	4299      	cmp	r1, r3
 800719e:	d90b      	bls.n	80071b8 <__udivmoddi4+0x68>
 80071a0:	eb1c 0303 	adds.w	r3, ip, r3
 80071a4:	f10e 30ff 	add.w	r0, lr, #4294967295	; 0xffffffff
 80071a8:	f080 811e 	bcs.w	80073e8 <__udivmoddi4+0x298>
 80071ac:	4299      	cmp	r1, r3
 80071ae:	f240 811b 	bls.w	80073e8 <__udivmoddi4+0x298>
 80071b2:	f1ae 0e02 	sub.w	lr, lr, #2
 80071b6:	4463      	add	r3, ip
 80071b8:	1a5b      	subs	r3, r3, r1
 80071ba:	b2a4      	uxth	r4, r4
 80071bc:	fbb3 f0f5 	udiv	r0, r3, r5
 80071c0:	fb05 3310 	mls	r3, r5, r0, r3
 80071c4:	ea44 4403 	orr.w	r4, r4, r3, lsl #16
 80071c8:	fb00 f707 	mul.w	r7, r0, r7
 80071cc:	42a7      	cmp	r7, r4
 80071ce:	d90a      	bls.n	80071e6 <__udivmoddi4+0x96>
 80071d0:	eb1c 0404 	adds.w	r4, ip, r4
 80071d4:	f100 33ff 	add.w	r3, r0, #4294967295	; 0xffffffff
 80071d8:	f080 8108 	bcs.w	80073ec <__udivmoddi4+0x29c>
 80071dc:	42a7      	cmp	r7, r4
 80071de:	f240 8105 	bls.w	80073ec <__udivmoddi4+0x29c>
 80071e2:	4464      	add	r4, ip
 80071e4:	3802      	subs	r0, #2
 80071e6:	1be4      	subs	r4, r4, r7
 80071e8:	ea40 400e 	orr.w	r0, r0, lr, lsl #16
 80071ec:	2100      	movs	r1, #0
 80071ee:	b11e      	cbz	r6, 80071f8 <__udivmoddi4+0xa8>
 80071f0:	40d4      	lsrs	r4, r2
 80071f2:	2300      	movs	r3, #0
 80071f4:	e9c6 4300 	strd	r4, r3, [r6]
 80071f8:	e8bd 87f0 	ldmia.w	sp!, {r4, r5, r6, r7, r8, r9, sl, pc}
 80071fc:	428b      	cmp	r3, r1
 80071fe:	d908      	bls.n	8007212 <__udivmoddi4+0xc2>
 8007200:	2e00      	cmp	r6, #0
 8007202:	f000 80ee 	beq.w	80073e2 <__udivmoddi4+0x292>
 8007206:	2100      	movs	r1, #0
 8007208:	e9c6 0500 	strd	r0, r5, [r6]
 800720c:	4608      	mov	r0, r1
 800720e:	e8bd 87f0 	ldmia.w	sp!, {r4, r5, r6, r7, r8, r9, sl, pc}
 8007212:	fab3 f183 	clz	r1, r3
 8007216:	2900      	cmp	r1, #0
 8007218:	d14a      	bne.n	80072b0 <__udivmoddi4+0x160>
 800721a:	42ab      	cmp	r3, r5
 800721c:	d302      	bcc.n	8007224 <__udivmoddi4+0xd4>
 800721e:	4282      	cmp	r2, r0
 8007220:	f200 80f9 	bhi.w	8007416 <__udivmoddi4+0x2c6>
 8007224:	1a84      	subs	r4, r0, r2
 8007226:	eb65 0303 	sbc.w	r3, r5, r3
 800722a:	2001      	movs	r0, #1
 800722c:	4698      	mov	r8, r3
 800722e:	2e00      	cmp	r6, #0
 8007230:	d0e2      	beq.n	80071f8 <__udivmoddi4+0xa8>
 8007232:	e9c6 4800 	strd	r4, r8, [r6]
 8007236:	e7df      	b.n	80071f8 <__udivmoddi4+0xa8>
 8007238:	b902      	cbnz	r2, 800723c <__udivmoddi4+0xec>
 800723a:	deff      	udf	#255	; 0xff
 800723c:	fab2 f282 	clz	r2, r2
 8007240:	2a00      	cmp	r2, #0
 8007242:	f040 8091 	bne.w	8007368 <__udivmoddi4+0x218>
 8007246:	eba1 050c 	sub.w	r5, r1, ip
 800724a:	ea4f 471c 	mov.w	r7, ip, lsr #16
 800724e:	fa1f fe8c 	uxth.w	lr, ip
 8007252:	2101      	movs	r1, #1
 8007254:	fbb5 f3f7 	udiv	r3, r5, r7
 8007258:	fb07 5013 	mls	r0, r7, r3, r5
 800725c:	0c25      	lsrs	r5, r4, #16
 800725e:	ea45 4500 	orr.w	r5, r5, r0, lsl #16
 8007262:	fb0e f003 	mul.w	r0, lr, r3
 8007266:	42a8      	cmp	r0, r5
 8007268:	d908      	bls.n	800727c <__udivmoddi4+0x12c>
 800726a:	eb1c 0505 	adds.w	r5, ip, r5
 800726e:	f103 38ff 	add.w	r8, r3, #4294967295	; 0xffffffff
 8007272:	d202      	bcs.n	800727a <__udivmoddi4+0x12a>
 8007274:	42a8      	cmp	r0, r5
 8007276:	f200 80cb 	bhi.w	8007410 <__udivmoddi4+0x2c0>
 800727a:	4643      	mov	r3, r8
 800727c:	1a2d      	subs	r5, r5, r0
 800727e:	b2a4      	uxth	r4, r4
 8007280:	fbb5 f0f7 	udiv	r0, r5, r7
 8007284:	fb07 5510 	mls	r5, r7, r0, r5
 8007288:	ea44 4405 	orr.w	r4, r4, r5, lsl #16
 800728c:	fb0e fe00 	mul.w	lr, lr, r0
 8007290:	45a6      	cmp	lr, r4
 8007292:	d908      	bls.n	80072a6 <__udivmoddi4+0x156>
 8007294:	eb1c 0404 	adds.w	r4, ip, r4
 8007298:	f100 35ff 	add.w	r5, r0, #4294967295	; 0xffffffff
 800729c:	d202      	bcs.n	80072a4 <__udivmoddi4+0x154>
 800729e:	45a6      	cmp	lr, r4
 80072a0:	f200 80bb 	bhi.w	800741a <__udivmoddi4+0x2ca>
 80072a4:	4628      	mov	r0, r5
 80072a6:	eba4 040e 	sub.w	r4, r4, lr
 80072aa:	ea40 4003 	orr.w	r0, r0, r3, lsl #16
 80072ae:	e79e      	b.n	80071ee <__udivmoddi4+0x9e>
 80072b0:	f1c1 0720 	rsb	r7, r1, #32
 80072b4:	408b      	lsls	r3, r1
 80072b6:	fa22 fc07 	lsr.w	ip, r2, r7
 80072ba:	ea4c 0c03 	orr.w	ip, ip, r3
 80072be:	fa20 f407 	lsr.w	r4, r0, r7
 80072c2:	fa05 f301 	lsl.w	r3, r5, r1
 80072c6:	431c      	orrs	r4, r3
 80072c8:	40fd      	lsrs	r5, r7
 80072ca:	ea4f 491c 	mov.w	r9, ip, lsr #16
 80072ce:	fa00 f301 	lsl.w	r3, r0, r1
 80072d2:	fbb5 f8f9 	udiv	r8, r5, r9
 80072d6:	0c20      	lsrs	r0, r4, #16
 80072d8:	fa1f fe8c 	uxth.w	lr, ip
 80072dc:	fb09 5518 	mls	r5, r9, r8, r5
 80072e0:	ea40 4505 	orr.w	r5, r0, r5, lsl #16
 80072e4:	fb08 f00e 	mul.w	r0, r8, lr
 80072e8:	42a8      	cmp	r0, r5
 80072ea:	fa02 f201 	lsl.w	r2, r2, r1
 80072ee:	d90b      	bls.n	8007308 <__udivmoddi4+0x1b8>
 80072f0:	eb1c 0505 	adds.w	r5, ip, r5
 80072f4:	f108 3aff 	add.w	sl, r8, #4294967295	; 0xffffffff
 80072f8:	f080 8088 	bcs.w	800740c <__udivmoddi4+0x2bc>
 80072fc:	42a8      	cmp	r0, r5
 80072fe:	f240 8085 	bls.w	800740c <__udivmoddi4+0x2bc>
 8007302:	f1a8 0802 	sub.w	r8, r8, #2
 8007306:	4465      	add	r5, ip
 8007308:	1a2d      	subs	r5, r5, r0
 800730a:	b2a4      	uxth	r4, r4
 800730c:	fbb5 f0f9 	udiv	r0, r5, r9
 8007310:	fb09 5510 	mls	r5, r9, r0, r5
 8007314:	ea44 4505 	orr.w	r5, r4, r5, lsl #16
 8007318:	fb00 fe0e 	mul.w	lr, r0, lr
 800731c:	45ae      	cmp	lr, r5
 800731e:	d908      	bls.n	8007332 <__udivmoddi4+0x1e2>
 8007320:	eb1c 0505 	adds.w	r5, ip, r5
 8007324:	f100 34ff 	add.w	r4, r0, #4294967295	; 0xffffffff
 8007328:	d26c      	bcs.n	8007404 <__udivmoddi4+0x2b4>
 800732a:	45ae      	cmp	lr, r5
 800732c:	d96a      	bls.n	8007404 <__udivmoddi4+0x2b4>
 800732e:	3802      	subs	r0, #2
 8007330:	4465      	add	r5, ip
 8007332:	ea40 4008 	orr.w	r0, r0, r8, lsl #16
 8007336:	fba0 9402 	umull	r9, r4, r0, r2
 800733a:	eba5 050e 	sub.w	r5, r5, lr
 800733e:	42a5      	cmp	r5, r4
 8007340:	46c8      	mov	r8, r9
 8007342:	46a6      	mov	lr, r4
 8007344:	d356      	bcc.n	80073f4 <__udivmoddi4+0x2a4>
 8007346:	d053      	beq.n	80073f0 <__udivmoddi4+0x2a0>
 8007348:	b15e      	cbz	r6, 8007362 <__udivmoddi4+0x212>
 800734a:	ebb3 0208 	subs.w	r2, r3, r8
 800734e:	eb65 050e 	sbc.w	r5, r5, lr
 8007352:	fa05 f707 	lsl.w	r7, r5, r7
 8007356:	fa22 f301 	lsr.w	r3, r2, r1
 800735a:	40cd      	lsrs	r5, r1
 800735c:	431f      	orrs	r7, r3
 800735e:	e9c6 7500 	strd	r7, r5, [r6]
 8007362:	2100      	movs	r1, #0
 8007364:	e8bd 87f0 	ldmia.w	sp!, {r4, r5, r6, r7, r8, r9, sl, pc}
 8007368:	f1c2 0320 	rsb	r3, r2, #32
 800736c:	fa20 f103 	lsr.w	r1, r0, r3
 8007370:	fa0c fc02 	lsl.w	ip, ip, r2
 8007374:	fa25 f303 	lsr.w	r3, r5, r3
 8007378:	4095      	lsls	r5, r2
 800737a:	430d      	orrs	r5, r1
 800737c:	ea4f 471c 	mov.w	r7, ip, lsr #16
 8007380:	fa1f fe8c 	uxth.w	lr, ip
 8007384:	fbb3 f1f7 	udiv	r1, r3, r7
 8007388:	fb07 3011 	mls	r0, r7, r1, r3
 800738c:	0c2b      	lsrs	r3, r5, #16
 800738e:	ea43 4300 	orr.w	r3, r3, r0, lsl #16
 8007392:	fb01 f00e 	mul.w	r0, r1, lr
 8007396:	4298      	cmp	r0, r3
 8007398:	fa04 f402 	lsl.w	r4, r4, r2
 800739c:	d908      	bls.n	80073b0 <__udivmoddi4+0x260>
 800739e:	eb1c 0303 	adds.w	r3, ip, r3
 80073a2:	f101 38ff 	add.w	r8, r1, #4294967295	; 0xffffffff
 80073a6:	d22f      	bcs.n	8007408 <__udivmoddi4+0x2b8>
 80073a8:	4298      	cmp	r0, r3
 80073aa:	d92d      	bls.n	8007408 <__udivmoddi4+0x2b8>
 80073ac:	3902      	subs	r1, #2
 80073ae:	4463      	add	r3, ip
 80073b0:	1a1b      	subs	r3, r3, r0
 80073b2:	b2ad      	uxth	r5, r5
 80073b4:	fbb3 f0f7 	udiv	r0, r3, r7
 80073b8:	fb07 3310 	mls	r3, r7, r0, r3
 80073bc:	ea45 4503 	orr.w	r5, r5, r3, lsl #16
 80073c0:	fb00 f30e 	mul.w	r3, r0, lr
 80073c4:	42ab      	cmp	r3, r5
 80073c6:	d908      	bls.n	80073da <__udivmoddi4+0x28a>
 80073c8:	eb1c 0505 	adds.w	r5, ip, r5
 80073cc:	f100 38ff 	add.w	r8, r0, #4294967295	; 0xffffffff
 80073d0:	d216      	bcs.n	8007400 <__udivmoddi4+0x2b0>
 80073d2:	42ab      	cmp	r3, r5
 80073d4:	d914      	bls.n	8007400 <__udivmoddi4+0x2b0>
 80073d6:	3802      	subs	r0, #2
 80073d8:	4465      	add	r5, ip
 80073da:	1aed      	subs	r5, r5, r3
 80073dc:	ea40 4101 	orr.w	r1, r0, r1, lsl #16
 80073e0:	e738      	b.n	8007254 <__udivmoddi4+0x104>
 80073e2:	4631      	mov	r1, r6
 80073e4:	4630      	mov	r0, r6
 80073e6:	e707      	b.n	80071f8 <__udivmoddi4+0xa8>
 80073e8:	4686      	mov	lr, r0
 80073ea:	e6e5      	b.n	80071b8 <__udivmoddi4+0x68>
 80073ec:	4618      	mov	r0, r3
 80073ee:	e6fa      	b.n	80071e6 <__udivmoddi4+0x96>
 80073f0:	454b      	cmp	r3, r9
 80073f2:	d2a9      	bcs.n	8007348 <__udivmoddi4+0x1f8>
 80073f4:	ebb9 0802 	subs.w	r8, r9, r2
 80073f8:	eb64 0e0c 	sbc.w	lr, r4, ip
 80073fc:	3801      	subs	r0, #1
 80073fe:	e7a3      	b.n	8007348 <__udivmoddi4+0x1f8>
 8007400:	4640      	mov	r0, r8
 8007402:	e7ea      	b.n	80073da <__udivmoddi4+0x28a>
 8007404:	4620      	mov	r0, r4
 8007406:	e794      	b.n	8007332 <__udivmoddi4+0x1e2>
 8007408:	4641      	mov	r1, r8
 800740a:	e7d1      	b.n	80073b0 <__udivmoddi4+0x260>
 800740c:	46d0      	mov	r8, sl
 800740e:	e77b      	b.n	8007308 <__udivmoddi4+0x1b8>
 8007410:	3b02      	subs	r3, #2
 8007412:	4465      	add	r5, ip
 8007414:	e732      	b.n	800727c <__udivmoddi4+0x12c>
 8007416:	4608      	mov	r0, r1
 8007418:	e709      	b.n	800722e <__udivmoddi4+0xde>
 800741a:	4464      	add	r4, ip
 800741c:	3802      	subs	r0, #2
 800741e:	e742      	b.n	80072a6 <__udivmoddi4+0x156>

08007420 <__aeabi_idiv0>:
 8007420:	4770      	bx	lr
 8007422:	bf00      	nop

08007424 <SystemClock_Config>:
 8007424:	b510      	push	{r4, lr}
 8007426:	b09a      	sub	sp, #104	; 0x68
 8007428:	2248      	movs	r2, #72	; 0x48
 800742a:	2100      	movs	r1, #0
 800742c:	a808      	add	r0, sp, #32
 800742e:	f024 fb1d 	bl	802ba6c <memset>
 8007432:	2218      	movs	r2, #24
 8007434:	2100      	movs	r1, #0
 8007436:	a802      	add	r0, sp, #8
 8007438:	f024 fb18 	bl	802ba6c <memset>
 800743c:	f00f ff7c 	bl	8017338 <HAL_PWR_EnableBkUpAccess>
 8007440:	f04f 42b0 	mov.w	r2, #1476395008	; 0x58000000
 8007444:	2400      	movs	r4, #0
 8007446:	f8d2 3090 	ldr.w	r3, [r2, #144]	; 0x90
 800744a:	f023 0318 	bic.w	r3, r3, #24
 800744e:	f8c2 3090 	str.w	r3, [r2, #144]	; 0x90
 8007452:	f8d2 3400 	ldr.w	r3, [r2, #1024]	; 0x400
 8007456:	f423 63c0 	bic.w	r3, r3, #1536	; 0x600
 800745a:	f443 7300 	orr.w	r3, r3, #512	; 0x200
 800745e:	f8c2 3400 	str.w	r3, [r2, #1024]	; 0x400
 8007462:	f8d2 3400 	ldr.w	r3, [r2, #1024]	; 0x400
 8007466:	9411      	str	r4, [sp, #68]	; 0x44
 8007468:	f403 63c0 	and.w	r3, r3, #1536	; 0x600
 800746c:	9301      	str	r3, [sp, #4]
 800746e:	f44f 7280 	mov.w	r2, #256	; 0x100
 8007472:	9b01      	ldr	r3, [sp, #4]
 8007474:	920c      	str	r2, [sp, #48]	; 0x30
 8007476:	232e      	movs	r3, #46	; 0x2e
 8007478:	2240      	movs	r2, #64	; 0x40
 800747a:	9308      	str	r3, [sp, #32]
 800747c:	2381      	movs	r3, #129	; 0x81
 800747e:	930b      	str	r3, [sp, #44]	; 0x2c
 8007480:	920d      	str	r2, [sp, #52]	; 0x34
 8007482:	2301      	movs	r3, #1
 8007484:	22b0      	movs	r2, #176	; 0xb0
 8007486:	a808      	add	r0, sp, #32
 8007488:	e9cd 340e 	strd	r3, r4, [sp, #56]	; 0x38
 800748c:	9310      	str	r3, [sp, #64]	; 0x40
 800748e:	9212      	str	r2, [sp, #72]	; 0x48
 8007490:	9413      	str	r4, [sp, #76]	; 0x4c
 8007492:	f00f f9f5 	bl	8016880 <HAL_RCC_OscConfig>
 8007496:	b108      	cbz	r0, 800749c <SystemClock_Config+0x78>
 8007498:	f000 f9c0 	bl	800781c <Error_Handler>
 800749c:	234f      	movs	r3, #79	; 0x4f
 800749e:	2102      	movs	r1, #2
 80074a0:	a802      	add	r0, sp, #8
 80074a2:	e9cd 3402 	strd	r3, r4, [sp, #8]
 80074a6:	e9cd 4404 	strd	r4, r4, [sp, #16]
 80074aa:	e9cd 4406 	strd	r4, r4, [sp, #24]
 80074ae:	f00f fc89 	bl	8016dc4 <HAL_RCC_ClockConfig>
 80074b2:	b108      	cbz	r0, 80074b8 <SystemClock_Config+0x94>
 80074b4:	f000 f9b2 	bl	800781c <Error_Handler>
 80074b8:	b01a      	add	sp, #104	; 0x68
 80074ba:	bd10      	pop	{r4, pc}

080074bc <rui_event_handler_func>:
 80074bc:	b513      	push	{r0, r1, r4, lr}
 80074be:	7803      	ldrb	r3, [r0, #0]
 80074c0:	2b08      	cmp	r3, #8
 80074c2:	f200 80a2 	bhi.w	800760a <rui_event_handler_func+0x14e>
 80074c6:	e8df f003 	tbb	[pc, r3]
 80074ca:	8413      	.short	0x8413
 80074cc:	9494a08b 	.word	0x9494a08b
 80074d0:	a005      	.short	0xa005
 80074d2:	9a          	.byte	0x9a
 80074d3:	00          	.byte	0x00
 80074d4:	7904      	ldrb	r4, [r0, #4]
 80074d6:	4620      	mov	r0, r4
 80074d8:	f00c f8f4 	bl	80136c4 <service_nvm_get_mode_type_from_nvm>
 80074dc:	4620      	mov	r0, r4
 80074de:	f007 fcbb 	bl	800ee58 <service_mode_cli_init>
 80074e2:	2100      	movs	r1, #0
 80074e4:	4620      	mov	r0, r4
 80074e6:	b002      	add	sp, #8
 80074e8:	e8bd 4010 	ldmia.w	sp!, {r4, lr}
 80074ec:	f00c b8f2 	b.w	80136d4 <service_nvm_set_mode_type_to_nvm>
 80074f0:	2000      	movs	r0, #0
 80074f2:	f00c f8e7 	bl	80136c4 <service_nvm_get_mode_type_from_nvm>
 80074f6:	2801      	cmp	r0, #1
 80074f8:	d126      	bne.n	8007548 <rui_event_handler_func+0x8c>
 80074fa:	2001      	movs	r0, #1
 80074fc:	f00c f8e2 	bl	80136c4 <service_nvm_get_mode_type_from_nvm>
 8007500:	2801      	cmp	r0, #1
 8007502:	d004      	beq.n	800750e <rui_event_handler_func+0x52>
 8007504:	2001      	movs	r0, #1
 8007506:	f00d fb9d 	bl	8014c44 <udrv_serial_read_available>
 800750a:	2800      	cmp	r0, #0
 800750c:	dc2a      	bgt.n	8007564 <rui_event_handler_func+0xa8>
 800750e:	2002      	movs	r0, #2
 8007510:	f00c f8d8 	bl	80136c4 <service_nvm_get_mode_type_from_nvm>
 8007514:	2801      	cmp	r0, #1
 8007516:	d004      	beq.n	8007522 <rui_event_handler_func+0x66>
 8007518:	2002      	movs	r0, #2
 800751a:	f00d fb93 	bl	8014c44 <udrv_serial_read_available>
 800751e:	2800      	cmp	r0, #0
 8007520:	dc3b      	bgt.n	800759a <rui_event_handler_func+0xde>
 8007522:	b002      	add	sp, #8
 8007524:	bd10      	pop	{r4, pc}
 8007526:	2201      	movs	r2, #1
 8007528:	a901      	add	r1, sp, #4
 800752a:	2000      	movs	r0, #0
 800752c:	f00d fa52 	bl	80149d4 <udrv_serial_read>
 8007530:	2000      	movs	r0, #0
 8007532:	f00c f8c7 	bl	80136c4 <service_nvm_get_mode_type_from_nvm>
 8007536:	4604      	mov	r4, r0
 8007538:	b930      	cbnz	r0, 8007548 <rui_event_handler_func+0x8c>
 800753a:	f00d fb5f 	bl	8014bfc <udrv_serial_get_lock_state>
 800753e:	b948      	cbnz	r0, 8007554 <rui_event_handler_func+0x98>
 8007540:	f89d 1004 	ldrb.w	r1, [sp, #4]
 8007544:	f007 fbf4 	bl	800ed30 <service_mode_cli_handler>
 8007548:	2000      	movs	r0, #0
 800754a:	f00d fb7b 	bl	8014c44 <udrv_serial_read_available>
 800754e:	2800      	cmp	r0, #0
 8007550:	dce9      	bgt.n	8007526 <rui_event_handler_func+0x6a>
 8007552:	e7d2      	b.n	80074fa <rui_event_handler_func+0x3e>
 8007554:	2801      	cmp	r0, #1
 8007556:	d1f7      	bne.n	8007548 <rui_event_handler_func+0x8c>
 8007558:	f89d 1004 	ldrb.w	r1, [sp, #4]
 800755c:	4620      	mov	r0, r4
 800755e:	f00d faa7 	bl	8014ab0 <udrv_serial_wlock_handler>
 8007562:	e7f1      	b.n	8007548 <rui_event_handler_func+0x8c>
 8007564:	2201      	movs	r2, #1
 8007566:	a901      	add	r1, sp, #4
 8007568:	4610      	mov	r0, r2
 800756a:	f00d fa33 	bl	80149d4 <udrv_serial_read>
 800756e:	2001      	movs	r0, #1
 8007570:	f00c f8a8 	bl	80136c4 <service_nvm_get_mode_type_from_nvm>
 8007574:	2800      	cmp	r0, #0
 8007576:	d1c5      	bne.n	8007504 <rui_event_handler_func+0x48>
 8007578:	2001      	movs	r0, #1
 800757a:	f00d fb3f 	bl	8014bfc <udrv_serial_get_lock_state>
 800757e:	b928      	cbnz	r0, 800758c <rui_event_handler_func+0xd0>
 8007580:	f89d 1004 	ldrb.w	r1, [sp, #4]
 8007584:	2001      	movs	r0, #1
 8007586:	f007 fbd3 	bl	800ed30 <service_mode_cli_handler>
 800758a:	e7bb      	b.n	8007504 <rui_event_handler_func+0x48>
 800758c:	2801      	cmp	r0, #1
 800758e:	d1b9      	bne.n	8007504 <rui_event_handler_func+0x48>
 8007590:	f89d 1004 	ldrb.w	r1, [sp, #4]
 8007594:	f00d fa8c 	bl	8014ab0 <udrv_serial_wlock_handler>
 8007598:	e7b4      	b.n	8007504 <rui_event_handler_func+0x48>
 800759a:	2201      	movs	r2, #1
 800759c:	a901      	add	r1, sp, #4
 800759e:	2002      	movs	r0, #2
 80075a0:	f00d fa18 	bl	80149d4 <udrv_serial_read>
 80075a4:	2002      	movs	r0, #2
 80075a6:	f00c f88d 	bl	80136c4 <service_nvm_get_mode_type_from_nvm>
 80075aa:	2800      	cmp	r0, #0
 80075ac:	d1b4      	bne.n	8007518 <rui_event_handler_func+0x5c>
 80075ae:	2002      	movs	r0, #2
 80075b0:	f00d fb24 	bl	8014bfc <udrv_serial_get_lock_state>
 80075b4:	b928      	cbnz	r0, 80075c2 <rui_event_handler_func+0x106>
 80075b6:	f89d 1004 	ldrb.w	r1, [sp, #4]
 80075ba:	2002      	movs	r0, #2
 80075bc:	f007 fbb8 	bl	800ed30 <service_mode_cli_handler>
 80075c0:	e7aa      	b.n	8007518 <rui_event_handler_func+0x5c>
 80075c2:	2801      	cmp	r0, #1
 80075c4:	d1a8      	bne.n	8007518 <rui_event_handler_func+0x5c>
 80075c6:	f89d 1004 	ldrb.w	r1, [sp, #4]
 80075ca:	2002      	movs	r0, #2
 80075cc:	f00d fa70 	bl	8014ab0 <udrv_serial_wlock_handler>
 80075d0:	e7a2      	b.n	8007518 <rui_event_handler_func+0x5c>
 80075d2:	f016 fe2f 	bl	801e234 <LoRaMacProcess>
 80075d6:	b002      	add	sp, #8
 80075d8:	e8bd 4010 	ldmia.w	sp!, {r4, lr}
 80075dc:	f007 bb8e 	b.w	800ecfc <LmHandlerPackagesProcess>
 80075e0:	4b0e      	ldr	r3, [pc, #56]	; (800761c <rui_event_handler_func+0x160>)
 80075e2:	681b      	ldr	r3, [r3, #0]
 80075e4:	2b00      	cmp	r3, #0
 80075e6:	d09c      	beq.n	8007522 <rui_event_handler_func+0x66>
 80075e8:	6840      	ldr	r0, [r0, #4]
 80075ea:	b002      	add	sp, #8
 80075ec:	e8bd 4010 	ldmia.w	sp!, {r4, lr}
 80075f0:	4718      	bx	r3
 80075f2:	6840      	ldr	r0, [r0, #4]
 80075f4:	b002      	add	sp, #8
 80075f6:	e8bd 4010 	ldmia.w	sp!, {r4, lr}
 80075fa:	f00d bbb9 	b.w	8014d70 <udrv_system_timer_handler_handler>
 80075fe:	6840      	ldr	r0, [r0, #4]
 8007600:	b002      	add	sp, #8
 8007602:	e8bd 4010 	ldmia.w	sp!, {r4, lr}
 8007606:	f00d b853 	b.w	80146b0 <udrv_gpio_handler_handler>
 800760a:	4b05      	ldr	r3, [pc, #20]	; (8007620 <rui_event_handler_func+0x164>)
 800760c:	6e1b      	ldr	r3, [r3, #96]	; 0x60
 800760e:	2b00      	cmp	r3, #0
 8007610:	d087      	beq.n	8007522 <rui_event_handler_func+0x66>
 8007612:	b002      	add	sp, #8
 8007614:	e8bd 4010 	ldmia.w	sp!, {r4, lr}
 8007618:	4718      	bx	r3
 800761a:	bf00      	nop
 800761c:	2000258c 	.word	0x2000258c
 8007620:	08031704 	.word	0x08031704

08007624 <rui_init>:
 8007624:	b530      	push	{r4, r5, lr}
 8007626:	4b2d      	ldr	r3, [pc, #180]	; (80076dc <rui_init+0xb8>)
 8007628:	4a2d      	ldr	r2, [pc, #180]	; (80076e0 <rui_init+0xbc>)
 800762a:	609a      	str	r2, [r3, #8]
 800762c:	b085      	sub	sp, #20
 800762e:	f00d fc47 	bl	8014ec0 <HAL_Init>
 8007632:	f7ff fef7 	bl	8007424 <SystemClock_Config>
 8007636:	f04f 43b0 	mov.w	r3, #1476395008	; 0x58000000
 800763a:	200b      	movs	r0, #11
 800763c:	6c9a      	ldr	r2, [r3, #72]	; 0x48
 800763e:	f042 0204 	orr.w	r2, r2, #4
 8007642:	649a      	str	r2, [r3, #72]	; 0x48
 8007644:	6c9a      	ldr	r2, [r3, #72]	; 0x48
 8007646:	f002 0204 	and.w	r2, r2, #4
 800764a:	9203      	str	r2, [sp, #12]
 800764c:	9a03      	ldr	r2, [sp, #12]
 800764e:	6c9a      	ldr	r2, [r3, #72]	; 0x48
 8007650:	f042 0201 	orr.w	r2, r2, #1
 8007654:	649a      	str	r2, [r3, #72]	; 0x48
 8007656:	6c9b      	ldr	r3, [r3, #72]	; 0x48
 8007658:	2200      	movs	r2, #0
 800765a:	f003 0301 	and.w	r3, r3, #1
 800765e:	4611      	mov	r1, r2
 8007660:	9302      	str	r3, [sp, #8]
 8007662:	9b02      	ldr	r3, [sp, #8]
 8007664:	f00f fdc0 	bl	80171e8 <HAL_NVIC_SetPriority>
 8007668:	200b      	movs	r0, #11
 800766a:	f00f fdef 	bl	801724c <HAL_NVIC_EnableIRQ>
 800766e:	f00d fb73 	bl	8014d58 <udrv_timer_init>
 8007672:	f00b fff5 	bl	8013660 <service_nvm_init_config>
 8007676:	f00c f8d5 	bl	8013824 <service_nvm_get_baudrate_from_nvm>
 800767a:	2400      	movs	r4, #0
 800767c:	4601      	mov	r1, r0
 800767e:	4605      	mov	r5, r0
 8007680:	4623      	mov	r3, r4
 8007682:	2203      	movs	r2, #3
 8007684:	2001      	movs	r0, #1
 8007686:	e9cd 4400 	strd	r4, r4, [sp]
 800768a:	f00d f8c9 	bl	8014820 <udrv_serial_init>
 800768e:	4623      	mov	r3, r4
 8007690:	2203      	movs	r2, #3
 8007692:	4629      	mov	r1, r5
 8007694:	2002      	movs	r0, #2
 8007696:	e9cd 4400 	strd	r4, r4, [sp]
 800769a:	f00d f8c1 	bl	8014820 <udrv_serial_init>
 800769e:	f00c fe83 	bl	80143a8 <service_lora_mac_nvm_data_init>
 80076a2:	f00c f95d 	bl	8013960 <service_nvm_get_band_from_nvm>
 80076a6:	f002 ff25 	bl	800a4f4 <service_lora_init>
 80076aa:	b2e5      	uxtb	r5, r4
 80076ac:	4628      	mov	r0, r5
 80076ae:	f00c f809 	bl	80136c4 <service_nvm_get_mode_type_from_nvm>
 80076b2:	b910      	cbnz	r0, 80076ba <rui_init+0x96>
 80076b4:	4628      	mov	r0, r5
 80076b6:	f007 fbcf 	bl	800ee58 <service_mode_cli_init>
 80076ba:	3401      	adds	r4, #1
 80076bc:	2c03      	cmp	r4, #3
 80076be:	d1f4      	bne.n	80076aa <rui_init+0x86>
 80076c0:	f00d fb32 	bl	8014d28 <udrv_system_event_init>
 80076c4:	f00c fe5e 	bl	8014384 <service_nvm_get_certi_from_nvm>
 80076c8:	2801      	cmp	r0, #1
 80076ca:	d104      	bne.n	80076d6 <rui_init+0xb2>
 80076cc:	b005      	add	sp, #20
 80076ce:	e8bd 4030 	ldmia.w	sp!, {r4, r5, lr}
 80076d2:	f003 bf5b 	b.w	800b58c <service_lora_certification>
 80076d6:	b005      	add	sp, #20
 80076d8:	bd30      	pop	{r4, r5, pc}
 80076da:	bf00      	nop
 80076dc:	e000ed00 	.word	0xe000ed00
 80076e0:	08006000 	.word	0x08006000

080076e4 <rui_running>:
 80076e4:	b508      	push	{r3, lr}
 80076e6:	f00d fb2d 	bl	8014d44 <udrv_system_event_consume>
 80076ea:	e8bd 4008 	ldmia.w	sp!, {r3, lr}
 80076ee:	f007 bb05 	b.w	800ecfc <LmHandlerPackagesProcess>
	...

080076f4 <main>:
 80076f4:	b513      	push	{r0, r1, r4, lr}
 80076f6:	f7ff ff95 	bl	8007624 <rui_init>
 80076fa:	f04f 43b0 	mov.w	r3, #1476395008	; 0x58000000
 80076fe:	6cda      	ldr	r2, [r3, #76]	; 0x4c
 8007700:	f042 0202 	orr.w	r2, r2, #2
 8007704:	64da      	str	r2, [r3, #76]	; 0x4c
 8007706:	6cdb      	ldr	r3, [r3, #76]	; 0x4c
 8007708:	f003 0302 	and.w	r3, r3, #2
 800770c:	9301      	str	r3, [sp, #4]
 800770e:	9b01      	ldr	r3, [sp, #4]
 8007710:	f022 fc64 	bl	8029fdc <rui_setup>
 8007714:	f000 f85a 	bl	80077cc <BoardGetHardwareFreq>
 8007718:	b1f0      	cbz	r0, 8007758 <main+0x64>
 800771a:	4816      	ldr	r0, [pc, #88]	; (8007774 <main+0x80>)
 800771c:	f001 fca7 	bl	800906e <service_debug>
 8007720:	4b15      	ldr	r3, [pc, #84]	; (8007778 <main+0x84>)
 8007722:	4816      	ldr	r0, [pc, #88]	; (800777c <main+0x88>)
 8007724:	681a      	ldr	r2, [r3, #0]
 8007726:	4b16      	ldr	r3, [pc, #88]	; (8007780 <main+0x8c>)
 8007728:	6819      	ldr	r1, [r3, #0]
 800772a:	f001 fca0 	bl	800906e <service_debug>
 800772e:	4815      	ldr	r0, [pc, #84]	; (8007784 <main+0x90>)
 8007730:	f00d f912 	bl	8014958 <udrv_serial_log_printf>
 8007734:	f005 f9fa 	bl	800cb2c <service_lora_get_nwm>
 8007738:	2801      	cmp	r0, #1
 800773a:	d00f      	beq.n	800775c <main+0x68>
 800773c:	2802      	cmp	r0, #2
 800773e:	d00f      	beq.n	8007760 <main+0x6c>
 8007740:	b910      	cbnz	r0, 8007748 <main+0x54>
 8007742:	4811      	ldr	r0, [pc, #68]	; (8007788 <main+0x94>)
 8007744:	f00d f908 	bl	8014958 <udrv_serial_log_printf>
 8007748:	4c10      	ldr	r4, [pc, #64]	; (800778c <main+0x98>)
 800774a:	f7ff ffcb 	bl	80076e4 <rui_running>
 800774e:	7823      	ldrb	r3, [r4, #0]
 8007750:	b943      	cbnz	r3, 8007764 <main+0x70>
 8007752:	f022 fc45 	bl	8029fe0 <rui_loop>
 8007756:	e7f8      	b.n	800774a <main+0x56>
 8007758:	480d      	ldr	r0, [pc, #52]	; (8007790 <main+0x9c>)
 800775a:	e7df      	b.n	800771c <main+0x28>
 800775c:	480d      	ldr	r0, [pc, #52]	; (8007794 <main+0xa0>)
 800775e:	e7f1      	b.n	8007744 <main+0x50>
 8007760:	480d      	ldr	r0, [pc, #52]	; (8007798 <main+0xa4>)
 8007762:	e7ef      	b.n	8007744 <main+0x50>
 8007764:	f00b fff6 	bl	8013754 <service_nvm_get_auto_sleep_time_from_nvm>
 8007768:	2800      	cmp	r0, #0
 800776a:	d0ee      	beq.n	800774a <main+0x56>
 800776c:	2000      	movs	r0, #0
 800776e:	f00d f821 	bl	80147b4 <udrv_sleep_ms>
 8007772:	e7ea      	b.n	800774a <main+0x56>
 8007774:	0802ee3a 	.word	0x0802ee3a
 8007778:	20000f50 	.word	0x20000f50
 800777c:	0802ee50 	.word	0x0802ee50
 8007780:	20000f44 	.word	0x20000f44
 8007784:	0802ee60 	.word	0x0802ee60
 8007788:	0802ee74 	.word	0x0802ee74
 800778c:	20000f84 	.word	0x20000f84
 8007790:	0802ee45 	.word	0x0802ee45
 8007794:	0802ee80 	.word	0x0802ee80
 8007798:	0802ee8b 	.word	0x0802ee8b

0800779c <BoardCriticalSectionBegin>:
 800779c:	f000 bec2 	b.w	8008524 <uhal_sys_board_critical_section_begin>

080077a0 <BoardCriticalSectionEnd>:
 80077a0:	f000 bec5 	b.w	800852e <uhal_sys_board_critical_section_end>

080077a4 <BoardInitMcu>:
 80077a4:	4770      	bx	lr
	...

080077a8 <BoardResetMcu>:
 80077a8:	f3bf 8f4f 	dsb	sy
 80077ac:	4905      	ldr	r1, [pc, #20]	; (80077c4 <BoardResetMcu+0x1c>)
 80077ae:	4b06      	ldr	r3, [pc, #24]	; (80077c8 <BoardResetMcu+0x20>)
 80077b0:	68ca      	ldr	r2, [r1, #12]
 80077b2:	f402 62e0 	and.w	r2, r2, #1792	; 0x700
 80077b6:	4313      	orrs	r3, r2
 80077b8:	60cb      	str	r3, [r1, #12]
 80077ba:	f3bf 8f4f 	dsb	sy
 80077be:	bf00      	nop
 80077c0:	e7fd      	b.n	80077be <BoardResetMcu+0x16>
 80077c2:	bf00      	nop
 80077c4:	e000ed00 	.word	0xe000ed00
 80077c8:	05fa0004 	.word	0x05fa0004

080077cc <BoardGetHardwareFreq>:
 80077cc:	b570      	push	{r4, r5, r6, lr}
 80077ce:	b086      	sub	sp, #24
 80077d0:	2210      	movs	r2, #16
 80077d2:	2100      	movs	r1, #0
 80077d4:	a802      	add	r0, sp, #8
 80077d6:	f024 f949 	bl	802ba6c <memset>
 80077da:	f04f 43b0 	mov.w	r3, #1476395008	; 0x58000000
 80077de:	4d0e      	ldr	r5, [pc, #56]	; (8007818 <BoardGetHardwareFreq+0x4c>)
 80077e0:	6cda      	ldr	r2, [r3, #76]	; 0x4c
 80077e2:	f042 0202 	orr.w	r2, r2, #2
 80077e6:	64da      	str	r2, [r3, #76]	; 0x4c
 80077e8:	6cdb      	ldr	r3, [r3, #76]	; 0x4c
 80077ea:	f003 0302 	and.w	r3, r3, #2
 80077ee:	f44f 5680 	mov.w	r6, #4096	; 0x1000
 80077f2:	9300      	str	r3, [sp, #0]
 80077f4:	a901      	add	r1, sp, #4
 80077f6:	4628      	mov	r0, r5
 80077f8:	9b00      	ldr	r3, [sp, #0]
 80077fa:	9601      	str	r6, [sp, #4]
 80077fc:	f00f ffd2 	bl	80177a4 <HAL_GPIO_Init>
 8007800:	4631      	mov	r1, r6
 8007802:	4628      	mov	r0, r5
 8007804:	f010 f8f4 	bl	80179f0 <HAL_GPIO_ReadPin>
 8007808:	4631      	mov	r1, r6
 800780a:	4604      	mov	r4, r0
 800780c:	4628      	mov	r0, r5
 800780e:	f010 f87b 	bl	8017908 <HAL_GPIO_DeInit>
 8007812:	4620      	mov	r0, r4
 8007814:	b006      	add	sp, #24
 8007816:	bd70      	pop	{r4, r5, r6, pc}
 8007818:	48000400 	.word	0x48000400

0800781c <Error_Handler>:
 800781c:	f3bf 8f4f 	dsb	sy
 8007820:	4905      	ldr	r1, [pc, #20]	; (8007838 <Error_Handler+0x1c>)
 8007822:	4b06      	ldr	r3, [pc, #24]	; (800783c <Error_Handler+0x20>)
 8007824:	68ca      	ldr	r2, [r1, #12]
 8007826:	f402 62e0 	and.w	r2, r2, #1792	; 0x700
 800782a:	4313      	orrs	r3, r2
 800782c:	60cb      	str	r3, [r1, #12]
 800782e:	f3bf 8f4f 	dsb	sy
 8007832:	bf00      	nop
 8007834:	e7fd      	b.n	8007832 <Error_Handler+0x16>
 8007836:	bf00      	nop
 8007838:	e000ed00 	.word	0xe000ed00
 800783c:	05fa0004 	.word	0x05fa0004

08007840 <SystemInit>:
 8007840:	4770      	bx	lr
	...

08007844 <Reset_Handler>:
 8007844:	4817      	ldr	r0, [pc, #92]	; (80078a4 <LoopForever+0x4>)
 8007846:	4685      	mov	sp, r0
 8007848:	f7ff fffa 	bl	8007840 <SystemInit>
 800784c:	4816      	ldr	r0, [pc, #88]	; (80078a8 <LoopForever+0x8>)
 800784e:	4917      	ldr	r1, [pc, #92]	; (80078ac <LoopForever+0xc>)
 8007850:	4a17      	ldr	r2, [pc, #92]	; (80078b0 <LoopForever+0x10>)
 8007852:	2300      	movs	r3, #0
 8007854:	e002      	b.n	800785c <LoopCopyDataInit_lora>

08007856 <CopyDataInit_lora>:
 8007856:	58d4      	ldr	r4, [r2, r3]
 8007858:	50c4      	str	r4, [r0, r3]
 800785a:	3304      	adds	r3, #4

0800785c <LoopCopyDataInit_lora>:
 800785c:	18c4      	adds	r4, r0, r3
 800785e:	428c      	cmp	r4, r1
 8007860:	d3f9      	bcc.n	8007856 <CopyDataInit_lora>
 8007862:	4a14      	ldr	r2, [pc, #80]	; (80078b4 <LoopForever+0x14>)
 8007864:	4c14      	ldr	r4, [pc, #80]	; (80078b8 <LoopForever+0x18>)
 8007866:	2300      	movs	r3, #0
 8007868:	e001      	b.n	800786e <LoopFillZerobss_lora>

0800786a <FillZerobss_lora>:
 800786a:	6013      	str	r3, [r2, #0]
 800786c:	3204      	adds	r2, #4

0800786e <LoopFillZerobss_lora>:
 800786e:	42a2      	cmp	r2, r4
 8007870:	d3fb      	bcc.n	800786a <FillZerobss_lora>
 8007872:	4812      	ldr	r0, [pc, #72]	; (80078bc <LoopForever+0x1c>)
 8007874:	4912      	ldr	r1, [pc, #72]	; (80078c0 <LoopForever+0x20>)
 8007876:	4a13      	ldr	r2, [pc, #76]	; (80078c4 <LoopForever+0x24>)
 8007878:	2300      	movs	r3, #0
 800787a:	e002      	b.n	8007882 <LoopCopyDataInit>

0800787c <CopyDataInit>:
 800787c:	58d4      	ldr	r4, [r2, r3]
 800787e:	50c4      	str	r4, [r0, r3]
 8007880:	3304      	adds	r3, #4

08007882 <LoopCopyDataInit>:
 8007882:	18c4      	adds	r4, r0, r3
 8007884:	428c      	cmp	r4, r1
 8007886:	d3f9      	bcc.n	800787c <CopyDataInit>
 8007888:	4a0f      	ldr	r2, [pc, #60]	; (80078c8 <LoopForever+0x28>)
 800788a:	4c10      	ldr	r4, [pc, #64]	; (80078cc <LoopForever+0x2c>)
 800788c:	2300      	movs	r3, #0
 800788e:	e001      	b.n	8007894 <LoopFillZerobss>

08007890 <FillZerobss>:
 8007890:	6013      	str	r3, [r2, #0]
 8007892:	3204      	adds	r2, #4

08007894 <LoopFillZerobss>:
 8007894:	42a2      	cmp	r2, r4
 8007896:	d3fb      	bcc.n	8007890 <FillZerobss>
 8007898:	f024 f86c 	bl	802b974 <__libc_init_array>
 800789c:	f7ff ff2a 	bl	80076f4 <main>

080078a0 <LoopForever>:
 80078a0:	e7fe      	b.n	80078a0 <LoopForever>
 80078a2:	0000      	.short	0x0000
 80078a4:	2000fc00 	.word	0x2000fc00
 80078a8:	20000000 	.word	0x20000000
 80078ac:	20000f68 	.word	0x20000f68
 80078b0:	08032330 	.word	0x08032330
 80078b4:	20000f68 	.word	0x20000f68
 80078b8:	2000a598 	.word	0x2000a598
 80078bc:	20000000 	.word	0x20000000
 80078c0:	20000f68 	.word	0x20000f68
 80078c4:	08032330 	.word	0x08032330
 80078c8:	20000f68 	.word	0x20000f68
 80078cc:	2000a598 	.word	0x2000a598

080078d0 <ADC_IRQHandler>:
 80078d0:	f000 b85a 	b.w	8007988 <HardFault_Handler>

080078d4 <USER_UART_IRQHandler>:
 80078d4:	6803      	ldr	r3, [r0, #0]
 80078d6:	4a07      	ldr	r2, [pc, #28]	; (80078f4 <USER_UART_IRQHandler+0x20>)
 80078d8:	4293      	cmp	r3, r2
 80078da:	d106      	bne.n	80078ea <USER_UART_IRQHandler+0x16>
 80078dc:	69da      	ldr	r2, [r3, #28]
 80078de:	06d2      	lsls	r2, r2, #27
 80078e0:	d506      	bpl.n	80078f0 <USER_UART_IRQHandler+0x1c>
 80078e2:	2210      	movs	r2, #16
 80078e4:	621a      	str	r2, [r3, #32]
 80078e6:	f001 b8df 	b.w	8008aa8 <USAR_UART_IDLECallback>
 80078ea:	4a03      	ldr	r2, [pc, #12]	; (80078f8 <USER_UART_IRQHandler+0x24>)
 80078ec:	4293      	cmp	r3, r2
 80078ee:	d0f5      	beq.n	80078dc <USER_UART_IRQHandler+0x8>
 80078f0:	4770      	bx	lr
 80078f2:	bf00      	nop
 80078f4:	40008000 	.word	0x40008000
 80078f8:	40013800 	.word	0x40013800

080078fc <NMI_Handler>:
 80078fc:	f04f 43b0 	mov.w	r3, #1476395008	; 0x58000000
 8007900:	f04f 31ff 	mov.w	r1, #4294967295	; 0xffffffff
 8007904:	6b9a      	ldr	r2, [r3, #56]	; 0x38
 8007906:	6399      	str	r1, [r3, #56]	; 0x38
 8007908:	6bda      	ldr	r2, [r3, #60]	; 0x3c
 800790a:	63d9      	str	r1, [r3, #60]	; 0x3c
 800790c:	6b9a      	ldr	r2, [r3, #56]	; 0x38
 800790e:	2200      	movs	r2, #0
 8007910:	639a      	str	r2, [r3, #56]	; 0x38
 8007912:	6bd8      	ldr	r0, [r3, #60]	; 0x3c
 8007914:	63da      	str	r2, [r3, #60]	; 0x3c
 8007916:	6c18      	ldr	r0, [r3, #64]	; 0x40
 8007918:	6419      	str	r1, [r3, #64]	; 0x40
 800791a:	6c18      	ldr	r0, [r3, #64]	; 0x40
 800791c:	641a      	str	r2, [r3, #64]	; 0x40
 800791e:	6c58      	ldr	r0, [r3, #68]	; 0x44
 8007920:	6459      	str	r1, [r3, #68]	; 0x44
 8007922:	6c58      	ldr	r0, [r3, #68]	; 0x44
 8007924:	645a      	str	r2, [r3, #68]	; 0x44
 8007926:	6a98      	ldr	r0, [r3, #40]	; 0x28
 8007928:	6299      	str	r1, [r3, #40]	; 0x28
 800792a:	6a98      	ldr	r0, [r3, #40]	; 0x28
 800792c:	629a      	str	r2, [r3, #40]	; 0x28
 800792e:	6ad8      	ldr	r0, [r3, #44]	; 0x2c
 8007930:	62d9      	str	r1, [r3, #44]	; 0x2c
 8007932:	6ad8      	ldr	r0, [r3, #44]	; 0x2c
 8007934:	62da      	str	r2, [r3, #44]	; 0x2c
 8007936:	6b18      	ldr	r0, [r3, #48]	; 0x30
 8007938:	6319      	str	r1, [r3, #48]	; 0x30
 800793a:	6b19      	ldr	r1, [r3, #48]	; 0x30
 800793c:	631a      	str	r2, [r3, #48]	; 0x30
 800793e:	6c5a      	ldr	r2, [r3, #68]	; 0x44
 8007940:	f042 0201 	orr.w	r2, r2, #1
 8007944:	645a      	str	r2, [r3, #68]	; 0x44
 8007946:	6c5a      	ldr	r2, [r3, #68]	; 0x44
 8007948:	f022 0201 	bic.w	r2, r2, #1
 800794c:	645a      	str	r2, [r3, #68]	; 0x44
 800794e:	f8d3 2090 	ldr.w	r2, [r3, #144]	; 0x90
 8007952:	f442 3280 	orr.w	r2, r2, #65536	; 0x10000
 8007956:	f8c3 2090 	str.w	r2, [r3, #144]	; 0x90
 800795a:	f8d3 2090 	ldr.w	r2, [r3, #144]	; 0x90
 800795e:	f422 3280 	bic.w	r2, r2, #65536	; 0x10000
 8007962:	f8c3 2090 	str.w	r2, [r3, #144]	; 0x90
 8007966:	f3bf 8f4f 	dsb	sy
 800796a:	4905      	ldr	r1, [pc, #20]	; (8007980 <NMI_Handler+0x84>)
 800796c:	4b05      	ldr	r3, [pc, #20]	; (8007984 <NMI_Handler+0x88>)
 800796e:	68ca      	ldr	r2, [r1, #12]
 8007970:	f402 62e0 	and.w	r2, r2, #1792	; 0x700
 8007974:	4313      	orrs	r3, r2
 8007976:	60cb      	str	r3, [r1, #12]
 8007978:	f3bf 8f4f 	dsb	sy
 800797c:	bf00      	nop
 800797e:	e7fd      	b.n	800797c <NMI_Handler+0x80>
 8007980:	e000ed00 	.word	0xe000ed00
 8007984:	05fa0004 	.word	0x05fa0004

08007988 <HardFault_Handler>:
 8007988:	f04f 43b0 	mov.w	r3, #1476395008	; 0x58000000
 800798c:	f04f 31ff 	mov.w	r1, #4294967295	; 0xffffffff
 8007990:	6b9a      	ldr	r2, [r3, #56]	; 0x38
 8007992:	6399      	str	r1, [r3, #56]	; 0x38
 8007994:	6bda      	ldr	r2, [r3, #60]	; 0x3c
 8007996:	63d9      	str	r1, [r3, #60]	; 0x3c
 8007998:	6b9a      	ldr	r2, [r3, #56]	; 0x38
 800799a:	2200      	movs	r2, #0
 800799c:	639a      	str	r2, [r3, #56]	; 0x38
 800799e:	6bd8      	ldr	r0, [r3, #60]	; 0x3c
 80079a0:	63da      	str	r2, [r3, #60]	; 0x3c
 80079a2:	6c18      	ldr	r0, [r3, #64]	; 0x40
 80079a4:	6419      	str	r1, [r3, #64]	; 0x40
 80079a6:	6c18      	ldr	r0, [r3, #64]	; 0x40
 80079a8:	641a      	str	r2, [r3, #64]	; 0x40
 80079aa:	6c58      	ldr	r0, [r3, #68]	; 0x44
 80079ac:	6459      	str	r1, [r3, #68]	; 0x44
 80079ae:	6c58      	ldr	r0, [r3, #68]	; 0x44
 80079b0:	645a      	str	r2, [r3, #68]	; 0x44
 80079b2:	6a98      	ldr	r0, [r3, #40]	; 0x28
 80079b4:	6299      	str	r1, [r3, #40]	; 0x28
 80079b6:	6a98      	ldr	r0, [r3, #40]	; 0x28
 80079b8:	629a      	str	r2, [r3, #40]	; 0x28
 80079ba:	6ad8      	ldr	r0, [r3, #44]	; 0x2c
 80079bc:	62d9      	str	r1, [r3, #44]	; 0x2c
 80079be:	6ad8      	ldr	r0, [r3, #44]	; 0x2c
 80079c0:	62da      	str	r2, [r3, #44]	; 0x2c
 80079c2:	6b18      	ldr	r0, [r3, #48]	; 0x30
 80079c4:	6319      	str	r1, [r3, #48]	; 0x30
 80079c6:	6b19      	ldr	r1, [r3, #48]	; 0x30
 80079c8:	631a      	str	r2, [r3, #48]	; 0x30
 80079ca:	6c5a      	ldr	r2, [r3, #68]	; 0x44
 80079cc:	f042 0201 	orr.w	r2, r2, #1
 80079d0:	645a      	str	r2, [r3, #68]	; 0x44
 80079d2:	6c5a      	ldr	r2, [r3, #68]	; 0x44
 80079d4:	f022 0201 	bic.w	r2, r2, #1
 80079d8:	645a      	str	r2, [r3, #68]	; 0x44
 80079da:	f8d3 2090 	ldr.w	r2, [r3, #144]	; 0x90
 80079de:	f442 3280 	orr.w	r2, r2, #65536	; 0x10000
 80079e2:	f8c3 2090 	str.w	r2, [r3, #144]	; 0x90
 80079e6:	f8d3 2090 	ldr.w	r2, [r3, #144]	; 0x90
 80079ea:	f422 3280 	bic.w	r2, r2, #65536	; 0x10000
 80079ee:	f8c3 2090 	str.w	r2, [r3, #144]	; 0x90
 80079f2:	e7fe      	b.n	80079f2 <HardFault_Handler+0x6a>

080079f4 <MemManage_Handler>:
 80079f4:	e7fe      	b.n	80079f4 <MemManage_Handler>

080079f6 <BusFault_Handler>:
 80079f6:	e7fe      	b.n	80079f6 <BusFault_Handler>

080079f8 <UsageFault_Handler>:
 80079f8:	e7fe      	b.n	80079f8 <UsageFault_Handler>

080079fa <SVC_Handler>:
 80079fa:	4770      	bx	lr

080079fc <DebugMon_Handler>:
 80079fc:	4770      	bx	lr

080079fe <SysTick_Handler>:
 80079fe:	f00d ba75 	b.w	8014eec <HAL_IncTick>
	...

08007a04 <RTC_Alarm_IRQHandler>:
 8007a04:	4801      	ldr	r0, [pc, #4]	; (8007a0c <RTC_Alarm_IRQHandler+0x8>)
 8007a06:	f013 bd1b 	b.w	801b440 <HAL_RTC_AlarmIRQHandler>
 8007a0a:	bf00      	nop
 8007a0c:	200019dc 	.word	0x200019dc

08007a10 <SUBGHZ_Radio_IRQHandler>:
 8007a10:	4801      	ldr	r0, [pc, #4]	; (8007a18 <SUBGHZ_Radio_IRQHandler+0x8>)
 8007a12:	f010 ba04 	b.w	8017e1e <HAL_SUBGHZ_IRQHandler>
 8007a16:	bf00      	nop
 8007a18:	2000a184 	.word	0x2000a184

08007a1c <TAMP_STAMP_LSECSS_SSRU_IRQHandler>:
 8007a1c:	4801      	ldr	r0, [pc, #4]	; (8007a24 <TAMP_STAMP_LSECSS_SSRU_IRQHandler+0x8>)
 8007a1e:	f013 bedf 	b.w	801b7e0 <HAL_RTCEx_SSRUIRQHandler>
 8007a22:	bf00      	nop
 8007a24:	200019dc 	.word	0x200019dc

08007a28 <DMA1_Channel1_IRQHandler>:
 8007a28:	4801      	ldr	r0, [pc, #4]	; (8007a30 <DMA1_Channel1_IRQHandler+0x8>)
 8007a2a:	f00f be55 	b.w	80176d8 <HAL_DMA_IRQHandler>
 8007a2e:	bf00      	nop
 8007a30:	20001ee0 	.word	0x20001ee0

08007a34 <DMA1_Channel2_IRQHandler>:
 8007a34:	4801      	ldr	r0, [pc, #4]	; (8007a3c <DMA1_Channel2_IRQHandler+0x8>)
 8007a36:	f00f be4f 	b.w	80176d8 <HAL_DMA_IRQHandler>
 8007a3a:	bf00      	nop
 8007a3c:	20001a14 	.word	0x20001a14

08007a40 <DMA1_Channel3_IRQHandler>:
 8007a40:	4801      	ldr	r0, [pc, #4]	; (8007a48 <DMA1_Channel3_IRQHandler+0x8>)
 8007a42:	f00f be49 	b.w	80176d8 <HAL_DMA_IRQHandler>
 8007a46:	bf00      	nop
 8007a48:	20001a74 	.word	0x20001a74

08007a4c <DMA1_Channel4_IRQHandler>:
 8007a4c:	4801      	ldr	r0, [pc, #4]	; (8007a54 <DMA1_Channel4_IRQHandler+0x8>)
 8007a4e:	f00f be43 	b.w	80176d8 <HAL_DMA_IRQHandler>
 8007a52:	bf00      	nop
 8007a54:	20001f40 	.word	0x20001f40

08007a58 <USART1_IRQHandler>:
 8007a58:	b510      	push	{r4, lr}
 8007a5a:	4c04      	ldr	r4, [pc, #16]	; (8007a6c <USART1_IRQHandler+0x14>)
 8007a5c:	4620      	mov	r0, r4
 8007a5e:	f00d ff89 	bl	8015974 <HAL_UART_IRQHandler>
 8007a62:	4620      	mov	r0, r4
 8007a64:	e8bd 4010 	ldmia.w	sp!, {r4, lr}
 8007a68:	f7ff bf34 	b.w	80078d4 <USER_UART_IRQHandler>
 8007a6c:	20002030 	.word	0x20002030

08007a70 <USART2_IRQHandler>:
 8007a70:	4770      	bx	lr

08007a72 <EXTI0_IRQHandler>:
 8007a72:	2001      	movs	r0, #1
 8007a74:	f00f bfc8 	b.w	8017a08 <HAL_GPIO_EXTI_IRQHandler>

08007a78 <EXTI1_IRQHandler>:
 8007a78:	2002      	movs	r0, #2
 8007a7a:	f00f bfc5 	b.w	8017a08 <HAL_GPIO_EXTI_IRQHandler>

08007a7e <EXTI2_IRQHandler>:
 8007a7e:	2004      	movs	r0, #4
 8007a80:	f00f bfc2 	b.w	8017a08 <HAL_GPIO_EXTI_IRQHandler>

08007a84 <EXTI3_IRQHandler>:
 8007a84:	2008      	movs	r0, #8
 8007a86:	f00f bfbf 	b.w	8017a08 <HAL_GPIO_EXTI_IRQHandler>

08007a8a <EXTI4_IRQHandler>:
 8007a8a:	2010      	movs	r0, #16
 8007a8c:	f00f bfbc 	b.w	8017a08 <HAL_GPIO_EXTI_IRQHandler>

08007a90 <EXTI9_5_IRQHandler>:
 8007a90:	4b0e      	ldr	r3, [pc, #56]	; (8007acc <EXTI9_5_IRQHandler+0x3c>)
 8007a92:	68da      	ldr	r2, [r3, #12]
 8007a94:	0692      	lsls	r2, r2, #26
 8007a96:	d502      	bpl.n	8007a9e <EXTI9_5_IRQHandler+0xe>
 8007a98:	2020      	movs	r0, #32
 8007a9a:	f00f bfb5 	b.w	8017a08 <HAL_GPIO_EXTI_IRQHandler>
 8007a9e:	68da      	ldr	r2, [r3, #12]
 8007aa0:	0650      	lsls	r0, r2, #25
 8007aa2:	d501      	bpl.n	8007aa8 <EXTI9_5_IRQHandler+0x18>
 8007aa4:	2040      	movs	r0, #64	; 0x40
 8007aa6:	e7f8      	b.n	8007a9a <EXTI9_5_IRQHandler+0xa>
 8007aa8:	68da      	ldr	r2, [r3, #12]
 8007aaa:	0611      	lsls	r1, r2, #24
 8007aac:	d501      	bpl.n	8007ab2 <EXTI9_5_IRQHandler+0x22>
 8007aae:	2080      	movs	r0, #128	; 0x80
 8007ab0:	e7f3      	b.n	8007a9a <EXTI9_5_IRQHandler+0xa>
 8007ab2:	68da      	ldr	r2, [r3, #12]
 8007ab4:	05d2      	lsls	r2, r2, #23
 8007ab6:	d502      	bpl.n	8007abe <EXTI9_5_IRQHandler+0x2e>
 8007ab8:	f44f 7080 	mov.w	r0, #256	; 0x100
 8007abc:	e7ed      	b.n	8007a9a <EXTI9_5_IRQHandler+0xa>
 8007abe:	68db      	ldr	r3, [r3, #12]
 8007ac0:	059b      	lsls	r3, r3, #22
 8007ac2:	d502      	bpl.n	8007aca <EXTI9_5_IRQHandler+0x3a>
 8007ac4:	f44f 7000 	mov.w	r0, #512	; 0x200
 8007ac8:	e7e7      	b.n	8007a9a <EXTI9_5_IRQHandler+0xa>
 8007aca:	4770      	bx	lr
 8007acc:	58000800 	.word	0x58000800

08007ad0 <EXTI15_10_IRQHandler>:
 8007ad0:	4b13      	ldr	r3, [pc, #76]	; (8007b20 <EXTI15_10_IRQHandler+0x50>)
 8007ad2:	68da      	ldr	r2, [r3, #12]
 8007ad4:	0551      	lsls	r1, r2, #21
 8007ad6:	d503      	bpl.n	8007ae0 <EXTI15_10_IRQHandler+0x10>
 8007ad8:	f44f 6080 	mov.w	r0, #1024	; 0x400
 8007adc:	f00f bf94 	b.w	8017a08 <HAL_GPIO_EXTI_IRQHandler>
 8007ae0:	68da      	ldr	r2, [r3, #12]
 8007ae2:	0512      	lsls	r2, r2, #20
 8007ae4:	d502      	bpl.n	8007aec <EXTI15_10_IRQHandler+0x1c>
 8007ae6:	f44f 6000 	mov.w	r0, #2048	; 0x800
 8007aea:	e7f7      	b.n	8007adc <EXTI15_10_IRQHandler+0xc>
 8007aec:	68da      	ldr	r2, [r3, #12]
 8007aee:	04d0      	lsls	r0, r2, #19
 8007af0:	d502      	bpl.n	8007af8 <EXTI15_10_IRQHandler+0x28>
 8007af2:	f44f 5080 	mov.w	r0, #4096	; 0x1000
 8007af6:	e7f1      	b.n	8007adc <EXTI15_10_IRQHandler+0xc>
 8007af8:	68da      	ldr	r2, [r3, #12]
 8007afa:	0491      	lsls	r1, r2, #18
 8007afc:	d502      	bpl.n	8007b04 <EXTI15_10_IRQHandler+0x34>
 8007afe:	f44f 5000 	mov.w	r0, #8192	; 0x2000
 8007b02:	e7eb      	b.n	8007adc <EXTI15_10_IRQHandler+0xc>
 8007b04:	68da      	ldr	r2, [r3, #12]
 8007b06:	0452      	lsls	r2, r2, #17
 8007b08:	d502      	bpl.n	8007b10 <EXTI15_10_IRQHandler+0x40>
 8007b0a:	f44f 4080 	mov.w	r0, #16384	; 0x4000
 8007b0e:	e7e5      	b.n	8007adc <EXTI15_10_IRQHandler+0xc>
 8007b10:	68db      	ldr	r3, [r3, #12]
 8007b12:	041b      	lsls	r3, r3, #16
 8007b14:	d502      	bpl.n	8007b1c <EXTI15_10_IRQHandler+0x4c>
 8007b16:	f44f 4000 	mov.w	r0, #32768	; 0x8000
 8007b1a:	e7df      	b.n	8007adc <EXTI15_10_IRQHandler+0xc>
 8007b1c:	4770      	bx	lr
 8007b1e:	bf00      	nop
 8007b20:	58000800 	.word	0x58000800

08007b24 <LPUART1_IRQHandler>:
 8007b24:	b510      	push	{r4, lr}
 8007b26:	4c04      	ldr	r4, [pc, #16]	; (8007b38 <LPUART1_IRQHandler+0x14>)
 8007b28:	4620      	mov	r0, r4
 8007b2a:	f00d ff23 	bl	8015974 <HAL_UART_IRQHandler>
 8007b2e:	4620      	mov	r0, r4
 8007b30:	e8bd 4010 	ldmia.w	sp!, {r4, lr}
 8007b34:	f7ff bece 	b.w	80078d4 <USER_UART_IRQHandler>
 8007b38:	20001fa0 	.word	0x20001fa0

08007b3c <AES_IRQHandler>:
 8007b3c:	4801      	ldr	r0, [pc, #4]	; (8007b44 <AES_IRQHandler+0x8>)
 8007b3e:	f010 bf81 	b.w	8018a44 <HAL_CRYP_IRQHandler>
 8007b42:	bf00      	nop
 8007b44:	20000fec 	.word	0x20000fec

08007b48 <LL_AHB2_GRP1_EnableClock>:
 8007b48:	f04f 43b0 	mov.w	r3, #1476395008	; 0x58000000
 8007b4c:	b082      	sub	sp, #8
 8007b4e:	6cda      	ldr	r2, [r3, #76]	; 0x4c
 8007b50:	4302      	orrs	r2, r0
 8007b52:	64da      	str	r2, [r3, #76]	; 0x4c
 8007b54:	6cdb      	ldr	r3, [r3, #76]	; 0x4c
 8007b56:	4018      	ands	r0, r3
 8007b58:	9001      	str	r0, [sp, #4]
 8007b5a:	9b01      	ldr	r3, [sp, #4]
 8007b5c:	b002      	add	sp, #8
 8007b5e:	4770      	bx	lr

08007b60 <uhal_adc_read>:
 8007b60:	b51f      	push	{r0, r1, r2, r3, r4, lr}
 8007b62:	2814      	cmp	r0, #20
 8007b64:	f04f 0300 	mov.w	r3, #0
 8007b68:	e9cd 3302 	strd	r3, r3, [sp, #8]
 8007b6c:	460c      	mov	r4, r1
 8007b6e:	d80c      	bhi.n	8007b8a <uhal_adc_read+0x2a>
 8007b70:	2809      	cmp	r0, #9
 8007b72:	d912      	bls.n	8007b9a <uhal_adc_read+0x3a>
 8007b74:	380a      	subs	r0, #10
 8007b76:	280a      	cmp	r0, #10
 8007b78:	d80f      	bhi.n	8007b9a <uhal_adc_read+0x3a>
 8007b7a:	e8df f000 	tbb	[pc, r0]
 8007b7e:	0e7b      	.short	0x0e7b
 8007b80:	820e0e0e 	.word	0x820e0e0e
 8007b84:	11740e0e 	.word	0x11740e0e
 8007b88:	6d          	.byte	0x6d
 8007b89:	00          	.byte	0x00
 8007b8a:	28fe      	cmp	r0, #254	; 0xfe
 8007b8c:	f000 8083 	beq.w	8007c96 <uhal_adc_read+0x136>
 8007b90:	28ff      	cmp	r0, #255	; 0xff
 8007b92:	f000 8082 	beq.w	8007c9a <uhal_adc_read+0x13a>
 8007b96:	28fd      	cmp	r0, #253	; 0xfd
 8007b98:	d07a      	beq.n	8007c90 <uhal_adc_read+0x130>
 8007b9a:	f06f 0003 	mvn.w	r0, #3
 8007b9e:	e059      	b.n	8007c54 <uhal_adc_read+0xf4>
 8007ba0:	4a3f      	ldr	r2, [pc, #252]	; (8007ca0 <uhal_adc_read+0x140>)
 8007ba2:	4b40      	ldr	r3, [pc, #256]	; (8007ca4 <uhal_adc_read+0x144>)
 8007ba4:	9301      	str	r3, [sp, #4]
 8007ba6:	7813      	ldrb	r3, [r2, #0]
 8007ba8:	f043 0301 	orr.w	r3, r3, #1
 8007bac:	7013      	strb	r3, [r2, #0]
 8007bae:	483e      	ldr	r0, [pc, #248]	; (8007ca8 <uhal_adc_read+0x148>)
 8007bb0:	4a3e      	ldr	r2, [pc, #248]	; (8007cac <uhal_adc_read+0x14c>)
 8007bb2:	f04f 4300 	mov.w	r3, #2147483648	; 0x80000000
 8007bb6:	e9c0 2300 	strd	r2, r3, [r0]
 8007bba:	4b3d      	ldr	r3, [pc, #244]	; (8007cb0 <uhal_adc_read+0x150>)
 8007bbc:	2204      	movs	r2, #4
 8007bbe:	681b      	ldr	r3, [r3, #0]
 8007bc0:	6083      	str	r3, [r0, #8]
 8007bc2:	6142      	str	r2, [r0, #20]
 8007bc4:	2300      	movs	r3, #0
 8007bc6:	2201      	movs	r2, #1
 8007bc8:	61c2      	str	r2, [r0, #28]
 8007bca:	f44f 5180 	mov.w	r1, #4096	; 0x1000
 8007bce:	2206      	movs	r2, #6
 8007bd0:	8303      	strh	r3, [r0, #24]
 8007bd2:	e9c0 3303 	strd	r3, r3, [r0, #12]
 8007bd6:	e9c0 3309 	strd	r3, r3, [r0, #36]	; 0x24
 8007bda:	e9c0 120c 	strd	r1, r2, [r0, #48]	; 0x30
 8007bde:	7683      	strb	r3, [r0, #26]
 8007be0:	f880 3020 	strb.w	r3, [r0, #32]
 8007be4:	f880 302c 	strb.w	r3, [r0, #44]	; 0x2c
 8007be8:	6383      	str	r3, [r0, #56]	; 0x38
 8007bea:	f880 303c 	strb.w	r3, [r0, #60]	; 0x3c
 8007bee:	64c3      	str	r3, [r0, #76]	; 0x4c
 8007bf0:	f00d f9c6 	bl	8014f80 <HAL_ADC_Init>
 8007bf4:	b108      	cbz	r0, 8007bfa <uhal_adc_read+0x9a>
 8007bf6:	f7ff fe11 	bl	800781c <Error_Handler>
 8007bfa:	482b      	ldr	r0, [pc, #172]	; (8007ca8 <uhal_adc_read+0x148>)
 8007bfc:	f00d fd8a 	bl	8015714 <HAL_ADCEx_Calibration_Start>
 8007c00:	b108      	cbz	r0, 8007c06 <uhal_adc_read+0xa6>
 8007c02:	f7ff fe0b 	bl	800781c <Error_Handler>
 8007c06:	2300      	movs	r3, #0
 8007c08:	4827      	ldr	r0, [pc, #156]	; (8007ca8 <uhal_adc_read+0x148>)
 8007c0a:	a901      	add	r1, sp, #4
 8007c0c:	e9cd 3302 	strd	r3, r3, [sp, #8]
 8007c10:	f00d fb3e 	bl	8015290 <HAL_ADC_ConfigChannel>
 8007c14:	b108      	cbz	r0, 8007c1a <uhal_adc_read+0xba>
 8007c16:	f7ff fe01 	bl	800781c <Error_Handler>
 8007c1a:	4823      	ldr	r0, [pc, #140]	; (8007ca8 <uhal_adc_read+0x148>)
 8007c1c:	f00d fca4 	bl	8015568 <HAL_ADC_Start>
 8007c20:	b108      	cbz	r0, 8007c26 <uhal_adc_read+0xc6>
 8007c22:	f7ff fdfb 	bl	800781c <Error_Handler>
 8007c26:	210a      	movs	r1, #10
 8007c28:	481f      	ldr	r0, [pc, #124]	; (8007ca8 <uhal_adc_read+0x148>)
 8007c2a:	f00d fad3 	bl	80151d4 <HAL_ADC_PollForConversion>
 8007c2e:	481e      	ldr	r0, [pc, #120]	; (8007ca8 <uhal_adc_read+0x148>)
 8007c30:	f00d fd52 	bl	80156d8 <HAL_ADC_Stop>
 8007c34:	481c      	ldr	r0, [pc, #112]	; (8007ca8 <uhal_adc_read+0x148>)
 8007c36:	f00d fb28 	bl	801528a <HAL_ADC_GetValue>
 8007c3a:	4b1e      	ldr	r3, [pc, #120]	; (8007cb4 <uhal_adc_read+0x154>)
 8007c3c:	9a01      	ldr	r2, [sp, #4]
 8007c3e:	b280      	uxth	r0, r0
 8007c40:	429a      	cmp	r2, r3
 8007c42:	8020      	strh	r0, [r4, #0]
 8007c44:	bf04      	itt	eq
 8007c46:	eb00 0040 	addeq.w	r0, r0, r0, lsl #1
 8007c4a:	8020      	strheq	r0, [r4, #0]
 8007c4c:	4816      	ldr	r0, [pc, #88]	; (8007ca8 <uhal_adc_read+0x148>)
 8007c4e:	f00d fcef 	bl	8015630 <HAL_ADC_DeInit>
 8007c52:	2000      	movs	r0, #0
 8007c54:	b004      	add	sp, #16
 8007c56:	bd10      	pop	{r4, pc}
 8007c58:	4a11      	ldr	r2, [pc, #68]	; (8007ca0 <uhal_adc_read+0x140>)
 8007c5a:	4b17      	ldr	r3, [pc, #92]	; (8007cb8 <uhal_adc_read+0x158>)
 8007c5c:	9301      	str	r3, [sp, #4]
 8007c5e:	7813      	ldrb	r3, [r2, #0]
 8007c60:	f043 0302 	orr.w	r3, r3, #2
 8007c64:	e7a2      	b.n	8007bac <uhal_adc_read+0x4c>
 8007c66:	4a0e      	ldr	r2, [pc, #56]	; (8007ca0 <uhal_adc_read+0x140>)
 8007c68:	4b14      	ldr	r3, [pc, #80]	; (8007cbc <uhal_adc_read+0x15c>)
 8007c6a:	9301      	str	r3, [sp, #4]
 8007c6c:	7813      	ldrb	r3, [r2, #0]
 8007c6e:	f043 0304 	orr.w	r3, r3, #4
 8007c72:	e79b      	b.n	8007bac <uhal_adc_read+0x4c>
 8007c74:	4a0a      	ldr	r2, [pc, #40]	; (8007ca0 <uhal_adc_read+0x140>)
 8007c76:	4b12      	ldr	r3, [pc, #72]	; (8007cc0 <uhal_adc_read+0x160>)
 8007c78:	9301      	str	r3, [sp, #4]
 8007c7a:	7813      	ldrb	r3, [r2, #0]
 8007c7c:	f043 0308 	orr.w	r3, r3, #8
 8007c80:	e794      	b.n	8007bac <uhal_adc_read+0x4c>
 8007c82:	4a07      	ldr	r2, [pc, #28]	; (8007ca0 <uhal_adc_read+0x140>)
 8007c84:	4b0f      	ldr	r3, [pc, #60]	; (8007cc4 <uhal_adc_read+0x164>)
 8007c86:	9301      	str	r3, [sp, #4]
 8007c88:	7813      	ldrb	r3, [r2, #0]
 8007c8a:	f043 0310 	orr.w	r3, r3, #16
 8007c8e:	e78d      	b.n	8007bac <uhal_adc_read+0x4c>
 8007c90:	4b0d      	ldr	r3, [pc, #52]	; (8007cc8 <uhal_adc_read+0x168>)
 8007c92:	9301      	str	r3, [sp, #4]
 8007c94:	e78b      	b.n	8007bae <uhal_adc_read+0x4e>
 8007c96:	4b0d      	ldr	r3, [pc, #52]	; (8007ccc <uhal_adc_read+0x16c>)
 8007c98:	e7fb      	b.n	8007c92 <uhal_adc_read+0x132>
 8007c9a:	4b06      	ldr	r3, [pc, #24]	; (8007cb4 <uhal_adc_read+0x154>)
 8007c9c:	e7f9      	b.n	8007c92 <uhal_adc_read+0x132>
 8007c9e:	bf00      	nop
 8007ca0:	20000f85 	.word	0x20000f85
 8007ca4:	08000004 	.word	0x08000004
 8007ca8:	20000f88 	.word	0x20000f88
 8007cac:	40012400 	.word	0x40012400
 8007cb0:	20000008 	.word	0x20000008
 8007cb4:	b8004000 	.word	0xb8004000
 8007cb8:	0c000008 	.word	0x0c000008
 8007cbc:	10000010 	.word	0x10000010
 8007cc0:	18000040 	.word	0x18000040
 8007cc4:	2c000800 	.word	0x2c000800
 8007cc8:	b0001000 	.word	0xb0001000
 8007ccc:	b4002000 	.word	0xb4002000

08007cd0 <uhal_adc_suspend>:
 8007cd0:	4770      	bx	lr

08007cd2 <uhal_adc_resume>:
 8007cd2:	4770      	bx	lr

08007cd4 <uhal_adc_get_resolution>:
 8007cd4:	4b01      	ldr	r3, [pc, #4]	; (8007cdc <uhal_adc_get_resolution+0x8>)
 8007cd6:	7818      	ldrb	r0, [r3, #0]
 8007cd8:	4770      	bx	lr
 8007cda:	bf00      	nop
 8007cdc:	2000000d 	.word	0x2000000d

08007ce0 <uhal_adc_get_mode>:
 8007ce0:	4b01      	ldr	r3, [pc, #4]	; (8007ce8 <uhal_adc_get_mode+0x8>)
 8007ce2:	7818      	ldrb	r0, [r3, #0]
 8007ce4:	4770      	bx	lr
 8007ce6:	bf00      	nop
 8007ce8:	2000000c 	.word	0x2000000c

08007cec <HAL_ADC_MspInit>:
 8007cec:	b510      	push	{r4, lr}
 8007cee:	4604      	mov	r4, r0
 8007cf0:	b086      	sub	sp, #24
 8007cf2:	2214      	movs	r2, #20
 8007cf4:	2100      	movs	r1, #0
 8007cf6:	a801      	add	r0, sp, #4
 8007cf8:	f023 feb8 	bl	802ba6c <memset>
 8007cfc:	6822      	ldr	r2, [r4, #0]
 8007cfe:	4b5e      	ldr	r3, [pc, #376]	; (8007e78 <HAL_ADC_MspInit+0x18c>)
 8007d00:	429a      	cmp	r2, r3
 8007d02:	f040 808e 	bne.w	8007e22 <HAL_ADC_MspInit+0x136>
 8007d06:	f04f 43b0 	mov.w	r3, #1476395008	; 0x58000000
 8007d0a:	4c5c      	ldr	r4, [pc, #368]	; (8007e7c <HAL_ADC_MspInit+0x190>)
 8007d0c:	6e1a      	ldr	r2, [r3, #96]	; 0x60
 8007d0e:	f442 7200 	orr.w	r2, r2, #512	; 0x200
 8007d12:	661a      	str	r2, [r3, #96]	; 0x60
 8007d14:	6e1b      	ldr	r3, [r3, #96]	; 0x60
 8007d16:	f403 7300 	and.w	r3, r3, #512	; 0x200
 8007d1a:	9300      	str	r3, [sp, #0]
 8007d1c:	9b00      	ldr	r3, [sp, #0]
 8007d1e:	7823      	ldrb	r3, [r4, #0]
 8007d20:	07da      	lsls	r2, r3, #31
 8007d22:	d508      	bpl.n	8007d36 <HAL_ADC_MspInit+0x4a>
 8007d24:	2013      	movs	r0, #19
 8007d26:	f000 fa85 	bl	8008234 <PinToGPIOx>
 8007d2a:	f1b0 4f90 	cmp.w	r0, #1207959552	; 0x48000000
 8007d2e:	d17a      	bne.n	8007e26 <HAL_ADC_MspInit+0x13a>
 8007d30:	2001      	movs	r0, #1
 8007d32:	f7ff ff09 	bl	8007b48 <LL_AHB2_GRP1_EnableClock>
 8007d36:	7823      	ldrb	r3, [r4, #0]
 8007d38:	079b      	lsls	r3, r3, #30
 8007d3a:	d508      	bpl.n	8007d4e <HAL_ADC_MspInit+0x62>
 8007d3c:	2014      	movs	r0, #20
 8007d3e:	f000 fa79 	bl	8008234 <PinToGPIOx>
 8007d42:	f1b0 4f90 	cmp.w	r0, #1207959552	; 0x48000000
 8007d46:	d176      	bne.n	8007e36 <HAL_ADC_MspInit+0x14a>
 8007d48:	2001      	movs	r0, #1
 8007d4a:	f7ff fefd 	bl	8007b48 <LL_AHB2_GRP1_EnableClock>
 8007d4e:	7823      	ldrb	r3, [r4, #0]
 8007d50:	0758      	lsls	r0, r3, #29
 8007d52:	d508      	bpl.n	8007d66 <HAL_ADC_MspInit+0x7a>
 8007d54:	2012      	movs	r0, #18
 8007d56:	f000 fa6d 	bl	8008234 <PinToGPIOx>
 8007d5a:	f1b0 4f90 	cmp.w	r0, #1207959552	; 0x48000000
 8007d5e:	d172      	bne.n	8007e46 <HAL_ADC_MspInit+0x15a>
 8007d60:	2001      	movs	r0, #1
 8007d62:	f7ff fef1 	bl	8007b48 <LL_AHB2_GRP1_EnableClock>
 8007d66:	7823      	ldrb	r3, [r4, #0]
 8007d68:	0719      	lsls	r1, r3, #28
 8007d6a:	d508      	bpl.n	8007d7e <HAL_ADC_MspInit+0x92>
 8007d6c:	200a      	movs	r0, #10
 8007d6e:	f000 fa61 	bl	8008234 <PinToGPIOx>
 8007d72:	f1b0 4f90 	cmp.w	r0, #1207959552	; 0x48000000
 8007d76:	d16e      	bne.n	8007e56 <HAL_ADC_MspInit+0x16a>
 8007d78:	2001      	movs	r0, #1
 8007d7a:	f7ff fee5 	bl	8007b48 <LL_AHB2_GRP1_EnableClock>
 8007d7e:	7823      	ldrb	r3, [r4, #0]
 8007d80:	06da      	lsls	r2, r3, #27
 8007d82:	d508      	bpl.n	8007d96 <HAL_ADC_MspInit+0xaa>
 8007d84:	200f      	movs	r0, #15
 8007d86:	f000 fa55 	bl	8008234 <PinToGPIOx>
 8007d8a:	f1b0 4f90 	cmp.w	r0, #1207959552	; 0x48000000
 8007d8e:	d16a      	bne.n	8007e66 <HAL_ADC_MspInit+0x17a>
 8007d90:	2001      	movs	r0, #1
 8007d92:	f7ff fed9 	bl	8007b48 <LL_AHB2_GRP1_EnableClock>
 8007d96:	2300      	movs	r3, #0
 8007d98:	f04f 0c03 	mov.w	ip, #3
 8007d9c:	e9cd c302 	strd	ip, r3, [sp, #8]
 8007da0:	7823      	ldrb	r3, [r4, #0]
 8007da2:	07db      	lsls	r3, r3, #31
 8007da4:	d509      	bpl.n	8007dba <HAL_ADC_MspInit+0xce>
 8007da6:	2013      	movs	r0, #19
 8007da8:	f000 fa49 	bl	800823e <PinToGPIO_Pin>
 8007dac:	9001      	str	r0, [sp, #4]
 8007dae:	2013      	movs	r0, #19
 8007db0:	f000 fa40 	bl	8008234 <PinToGPIOx>
 8007db4:	a901      	add	r1, sp, #4
 8007db6:	f00f fcf5 	bl	80177a4 <HAL_GPIO_Init>
 8007dba:	7823      	ldrb	r3, [r4, #0]
 8007dbc:	0798      	lsls	r0, r3, #30
 8007dbe:	d509      	bpl.n	8007dd4 <HAL_ADC_MspInit+0xe8>
 8007dc0:	2014      	movs	r0, #20
 8007dc2:	f000 fa3c 	bl	800823e <PinToGPIO_Pin>
 8007dc6:	9001      	str	r0, [sp, #4]
 8007dc8:	2014      	movs	r0, #20
 8007dca:	f000 fa33 	bl	8008234 <PinToGPIOx>
 8007dce:	a901      	add	r1, sp, #4
 8007dd0:	f00f fce8 	bl	80177a4 <HAL_GPIO_Init>
 8007dd4:	7823      	ldrb	r3, [r4, #0]
 8007dd6:	0759      	lsls	r1, r3, #29
 8007dd8:	d509      	bpl.n	8007dee <HAL_ADC_MspInit+0x102>
 8007dda:	2012      	movs	r0, #18
 8007ddc:	f000 fa2f 	bl	800823e <PinToGPIO_Pin>
 8007de0:	9001      	str	r0, [sp, #4]
 8007de2:	2012      	movs	r0, #18
 8007de4:	f000 fa26 	bl	8008234 <PinToGPIOx>
 8007de8:	a901      	add	r1, sp, #4
 8007dea:	f00f fcdb 	bl	80177a4 <HAL_GPIO_Init>
 8007dee:	7823      	ldrb	r3, [r4, #0]
 8007df0:	071a      	lsls	r2, r3, #28
 8007df2:	d509      	bpl.n	8007e08 <HAL_ADC_MspInit+0x11c>
 8007df4:	200a      	movs	r0, #10
 8007df6:	f000 fa22 	bl	800823e <PinToGPIO_Pin>
 8007dfa:	9001      	str	r0, [sp, #4]
 8007dfc:	200a      	movs	r0, #10
 8007dfe:	f000 fa19 	bl	8008234 <PinToGPIOx>
 8007e02:	a901      	add	r1, sp, #4
 8007e04:	f00f fcce 	bl	80177a4 <HAL_GPIO_Init>
 8007e08:	7823      	ldrb	r3, [r4, #0]
 8007e0a:	06db      	lsls	r3, r3, #27
 8007e0c:	d509      	bpl.n	8007e22 <HAL_ADC_MspInit+0x136>
 8007e0e:	200f      	movs	r0, #15
 8007e10:	f000 fa15 	bl	800823e <PinToGPIO_Pin>
 8007e14:	9001      	str	r0, [sp, #4]
 8007e16:	200f      	movs	r0, #15
 8007e18:	f000 fa0c 	bl	8008234 <PinToGPIOx>
 8007e1c:	a901      	add	r1, sp, #4
 8007e1e:	f00f fcc1 	bl	80177a4 <HAL_GPIO_Init>
 8007e22:	b006      	add	sp, #24
 8007e24:	bd10      	pop	{r4, pc}
 8007e26:	2013      	movs	r0, #19
 8007e28:	f000 fa04 	bl	8008234 <PinToGPIOx>
 8007e2c:	4b14      	ldr	r3, [pc, #80]	; (8007e80 <HAL_ADC_MspInit+0x194>)
 8007e2e:	4298      	cmp	r0, r3
 8007e30:	d181      	bne.n	8007d36 <HAL_ADC_MspInit+0x4a>
 8007e32:	2002      	movs	r0, #2
 8007e34:	e77d      	b.n	8007d32 <HAL_ADC_MspInit+0x46>
 8007e36:	2014      	movs	r0, #20
 8007e38:	f000 f9fc 	bl	8008234 <PinToGPIOx>
 8007e3c:	4b10      	ldr	r3, [pc, #64]	; (8007e80 <HAL_ADC_MspInit+0x194>)
 8007e3e:	4298      	cmp	r0, r3
 8007e40:	d185      	bne.n	8007d4e <HAL_ADC_MspInit+0x62>
 8007e42:	2002      	movs	r0, #2
 8007e44:	e781      	b.n	8007d4a <HAL_ADC_MspInit+0x5e>
 8007e46:	2012      	movs	r0, #18
 8007e48:	f000 f9f4 	bl	8008234 <PinToGPIOx>
 8007e4c:	4b0c      	ldr	r3, [pc, #48]	; (8007e80 <HAL_ADC_MspInit+0x194>)
 8007e4e:	4298      	cmp	r0, r3
 8007e50:	d189      	bne.n	8007d66 <HAL_ADC_MspInit+0x7a>
 8007e52:	2002      	movs	r0, #2
 8007e54:	e785      	b.n	8007d62 <HAL_ADC_MspInit+0x76>
 8007e56:	200a      	movs	r0, #10
 8007e58:	f000 f9ec 	bl	8008234 <PinToGPIOx>
 8007e5c:	4b08      	ldr	r3, [pc, #32]	; (8007e80 <HAL_ADC_MspInit+0x194>)
 8007e5e:	4298      	cmp	r0, r3
 8007e60:	d18d      	bne.n	8007d7e <HAL_ADC_MspInit+0x92>
 8007e62:	2002      	movs	r0, #2
 8007e64:	e789      	b.n	8007d7a <HAL_ADC_MspInit+0x8e>
 8007e66:	200f      	movs	r0, #15
 8007e68:	f000 f9e4 	bl	8008234 <PinToGPIOx>
 8007e6c:	4b04      	ldr	r3, [pc, #16]	; (8007e80 <HAL_ADC_MspInit+0x194>)
 8007e6e:	4298      	cmp	r0, r3
 8007e70:	d191      	bne.n	8007d96 <HAL_ADC_MspInit+0xaa>
 8007e72:	2002      	movs	r0, #2
 8007e74:	e78d      	b.n	8007d92 <HAL_ADC_MspInit+0xa6>
 8007e76:	bf00      	nop
 8007e78:	40012400 	.word	0x40012400
 8007e7c:	20000f85 	.word	0x20000f85
 8007e80:	48000400 	.word	0x48000400

08007e84 <HAL_ADC_MspDeInit>:
 8007e84:	b538      	push	{r3, r4, r5, lr}
 8007e86:	4b33      	ldr	r3, [pc, #204]	; (8007f54 <HAL_ADC_MspDeInit+0xd0>)
 8007e88:	6802      	ldr	r2, [r0, #0]
 8007e8a:	429a      	cmp	r2, r3
 8007e8c:	d160      	bne.n	8007f50 <HAL_ADC_MspDeInit+0xcc>
 8007e8e:	f04f 42b0 	mov.w	r2, #1476395008	; 0x58000000
 8007e92:	4c31      	ldr	r4, [pc, #196]	; (8007f58 <HAL_ADC_MspDeInit+0xd4>)
 8007e94:	6e13      	ldr	r3, [r2, #96]	; 0x60
 8007e96:	f423 7300 	bic.w	r3, r3, #512	; 0x200
 8007e9a:	6613      	str	r3, [r2, #96]	; 0x60
 8007e9c:	7823      	ldrb	r3, [r4, #0]
 8007e9e:	07dd      	lsls	r5, r3, #31
 8007ea0:	d50e      	bpl.n	8007ec0 <HAL_ADC_MspDeInit+0x3c>
 8007ea2:	2013      	movs	r0, #19
 8007ea4:	f000 f9c6 	bl	8008234 <PinToGPIOx>
 8007ea8:	4605      	mov	r5, r0
 8007eaa:	2013      	movs	r0, #19
 8007eac:	f000 f9c7 	bl	800823e <PinToGPIO_Pin>
 8007eb0:	4601      	mov	r1, r0
 8007eb2:	4628      	mov	r0, r5
 8007eb4:	f00f fd28 	bl	8017908 <HAL_GPIO_DeInit>
 8007eb8:	7823      	ldrb	r3, [r4, #0]
 8007eba:	f023 0301 	bic.w	r3, r3, #1
 8007ebe:	7023      	strb	r3, [r4, #0]
 8007ec0:	7823      	ldrb	r3, [r4, #0]
 8007ec2:	0798      	lsls	r0, r3, #30
 8007ec4:	d50e      	bpl.n	8007ee4 <HAL_ADC_MspDeInit+0x60>
 8007ec6:	2014      	movs	r0, #20
 8007ec8:	f000 f9b4 	bl	8008234 <PinToGPIOx>
 8007ecc:	4605      	mov	r5, r0
 8007ece:	2014      	movs	r0, #20
 8007ed0:	f000 f9b5 	bl	800823e <PinToGPIO_Pin>
 8007ed4:	4601      	mov	r1, r0
 8007ed6:	4628      	mov	r0, r5
 8007ed8:	f00f fd16 	bl	8017908 <HAL_GPIO_DeInit>
 8007edc:	7823      	ldrb	r3, [r4, #0]
 8007ede:	f023 0302 	bic.w	r3, r3, #2
 8007ee2:	7023      	strb	r3, [r4, #0]
 8007ee4:	7823      	ldrb	r3, [r4, #0]
 8007ee6:	0759      	lsls	r1, r3, #29
 8007ee8:	d50e      	bpl.n	8007f08 <HAL_ADC_MspDeInit+0x84>
 8007eea:	2012      	movs	r0, #18
 8007eec:	f000 f9a2 	bl	8008234 <PinToGPIOx>
 8007ef0:	4605      	mov	r5, r0
 8007ef2:	2012      	movs	r0, #18
 8007ef4:	f000 f9a3 	bl	800823e <PinToGPIO_Pin>
 8007ef8:	4601      	mov	r1, r0
 8007efa:	4628      	mov	r0, r5
 8007efc:	f00f fd04 	bl	8017908 <HAL_GPIO_DeInit>
 8007f00:	7823      	ldrb	r3, [r4, #0]
 8007f02:	f023 0304 	bic.w	r3, r3, #4
 8007f06:	7023      	strb	r3, [r4, #0]
 8007f08:	7823      	ldrb	r3, [r4, #0]
 8007f0a:	071a      	lsls	r2, r3, #28
 8007f0c:	d50e      	bpl.n	8007f2c <HAL_ADC_MspDeInit+0xa8>
 8007f0e:	200a      	movs	r0, #10
 8007f10:	f000 f990 	bl	8008234 <PinToGPIOx>
 8007f14:	4605      	mov	r5, r0
 8007f16:	200a      	movs	r0, #10
 8007f18:	f000 f991 	bl	800823e <PinToGPIO_Pin>
 8007f1c:	4601      	mov	r1, r0
 8007f1e:	4628      	mov	r0, r5
 8007f20:	f00f fcf2 	bl	8017908 <HAL_GPIO_DeInit>
 8007f24:	7823      	ldrb	r3, [r4, #0]
 8007f26:	f023 0308 	bic.w	r3, r3, #8
 8007f2a:	7023      	strb	r3, [r4, #0]
 8007f2c:	7823      	ldrb	r3, [r4, #0]
 8007f2e:	06db      	lsls	r3, r3, #27
 8007f30:	d50e      	bpl.n	8007f50 <HAL_ADC_MspDeInit+0xcc>
 8007f32:	200f      	movs	r0, #15
 8007f34:	f000 f97e 	bl	8008234 <PinToGPIOx>
 8007f38:	4605      	mov	r5, r0
 8007f3a:	200f      	movs	r0, #15
 8007f3c:	f000 f97f 	bl	800823e <PinToGPIO_Pin>
 8007f40:	4601      	mov	r1, r0
 8007f42:	4628      	mov	r0, r5
 8007f44:	f00f fce0 	bl	8017908 <HAL_GPIO_DeInit>
 8007f48:	7823      	ldrb	r3, [r4, #0]
 8007f4a:	f023 0310 	bic.w	r3, r3, #16
 8007f4e:	7023      	strb	r3, [r4, #0]
 8007f50:	bd38      	pop	{r3, r4, r5, pc}
 8007f52:	bf00      	nop
 8007f54:	40012400 	.word	0x40012400
 8007f58:	20000f85 	.word	0x20000f85

08007f5c <uhal_cyrpto_set_iv.part.0>:
 8007f5c:	4b0a      	ldr	r3, [pc, #40]	; (8007f88 <uhal_cyrpto_set_iv.part.0+0x2c>)
 8007f5e:	f100 0210 	add.w	r2, r0, #16
 8007f62:	78c1      	ldrb	r1, [r0, #3]
 8007f64:	7019      	strb	r1, [r3, #0]
 8007f66:	7881      	ldrb	r1, [r0, #2]
 8007f68:	7059      	strb	r1, [r3, #1]
 8007f6a:	7841      	ldrb	r1, [r0, #1]
 8007f6c:	7099      	strb	r1, [r3, #2]
 8007f6e:	f810 1b04 	ldrb.w	r1, [r0], #4
 8007f72:	70d9      	strb	r1, [r3, #3]
 8007f74:	4290      	cmp	r0, r2
 8007f76:	f103 0304 	add.w	r3, r3, #4
 8007f7a:	d1f2      	bne.n	8007f62 <uhal_cyrpto_set_iv.part.0+0x6>
 8007f7c:	4b03      	ldr	r3, [pc, #12]	; (8007f8c <uhal_cyrpto_set_iv.part.0+0x30>)
 8007f7e:	2210      	movs	r2, #16
 8007f80:	801a      	strh	r2, [r3, #0]
 8007f82:	2000      	movs	r0, #0
 8007f84:	4770      	bx	lr
 8007f86:	bf00      	nop
 8007f88:	200010f8 	.word	0x200010f8
 8007f8c:	2000000e 	.word	0x2000000e

08007f90 <uhal_crypto_aes_crypt.constprop.0>:
 8007f90:	e92d 4ff0 	stmdb	sp!, {r4, r5, r6, r7, r8, r9, sl, fp, lr}
 8007f94:	f8df 80fc 	ldr.w	r8, [pc, #252]	; 8008094 <uhal_crypto_aes_crypt.constprop.0+0x104>
 8007f98:	f8df c0fc 	ldr.w	ip, [pc, #252]	; 8008098 <uhal_crypto_aes_crypt.constprop.0+0x108>
 8007f9c:	f8df b0fc 	ldr.w	fp, [pc, #252]	; 800809c <uhal_crypto_aes_crypt.constprop.0+0x10c>
 8007fa0:	b085      	sub	sp, #20
 8007fa2:	af02      	add	r7, sp, #8
 8007fa4:	4604      	mov	r4, r0
 8007fa6:	4616      	mov	r6, r2
 8007fa8:	4640      	mov	r0, r8
 8007faa:	2200      	movs	r2, #0
 8007fac:	e9c8 c200 	strd	ip, r2, [r8]
 8007fb0:	e9c8 2209 	strd	r2, r2, [r8, #36]	; 0x24
 8007fb4:	8e3d      	ldrh	r5, [r7, #48]	; 0x30
 8007fb6:	f8d7 a034 	ldr.w	sl, [r7, #52]	; 0x34
 8007fba:	6079      	str	r1, [r7, #4]
 8007fbc:	4699      	mov	r9, r3
 8007fbe:	f8c8 2008 	str.w	r2, [r8, #8]
 8007fc2:	f8c8 b00c 	str.w	fp, [r8, #12]
 8007fc6:	f8c8 2014 	str.w	r2, [r8, #20]
 8007fca:	f8c8 202c 	str.w	r2, [r8, #44]	; 0x2c
 8007fce:	f010 f932 	bl	8018236 <HAL_CRYP_Init>
 8007fd2:	b108      	cbz	r0, 8007fd8 <uhal_crypto_aes_crypt.constprop.0+0x48>
 8007fd4:	f7ff fc22 	bl	800781c <Error_Handler>
 8007fd8:	482e      	ldr	r0, [pc, #184]	; (8008094 <uhal_crypto_aes_crypt.constprop.0+0x104>)
 8007fda:	f010 f950 	bl	801827e <HAL_CRYP_DeInit>
 8007fde:	b108      	cbz	r0, 8007fe4 <uhal_crypto_aes_crypt.constprop.0+0x54>
 8007fe0:	f7ff fc1c 	bl	800781c <Error_Handler>
 8007fe4:	482c      	ldr	r0, [pc, #176]	; (8008098 <uhal_crypto_aes_crypt.constprop.0+0x108>)
 8007fe6:	2204      	movs	r2, #4
 8007fe8:	e9c8 0200 	strd	r0, r2, [r8]
 8007fec:	2200      	movs	r2, #0
 8007fee:	f8c8 2008 	str.w	r2, [r8, #8]
 8007ff2:	2c00      	cmp	r4, #0
 8007ff4:	d13a      	bne.n	800806c <uhal_crypto_aes_crypt.constprop.0+0xdc>
 8007ff6:	f8c8 4014 	str.w	r4, [r8, #20]
 8007ffa:	2200      	movs	r2, #0
 8007ffc:	2101      	movs	r1, #1
 8007ffe:	4825      	ldr	r0, [pc, #148]	; (8008094 <uhal_crypto_aes_crypt.constprop.0+0x104>)
 8008000:	f8c8 b00c 	str.w	fp, [r8, #12]
 8008004:	e9c8 1209 	strd	r1, r2, [r8, #36]	; 0x24
 8008008:	f8c8 202c 	str.w	r2, [r8, #44]	; 0x2c
 800800c:	f010 f913 	bl	8018236 <HAL_CRYP_Init>
 8008010:	b108      	cbz	r0, 8008016 <uhal_crypto_aes_crypt.constprop.0+0x86>
 8008012:	f7ff fc03 	bl	800781c <Error_Handler>
 8008016:	072b      	lsls	r3, r5, #28
 8008018:	bf1d      	ittte	ne
 800801a:	f025 040f 	bicne.w	r4, r5, #15
 800801e:	3410      	addne	r4, #16
 8008020:	b2a4      	uxthne	r4, r4
 8008022:	462c      	moveq	r4, r5
 8008024:	00a3      	lsls	r3, r4, #2
 8008026:	3307      	adds	r3, #7
 8008028:	f023 0307 	bic.w	r3, r3, #7
 800802c:	ebad 0d03 	sub.w	sp, sp, r3
 8008030:	ae02      	add	r6, sp, #8
 8008032:	4622      	mov	r2, r4
 8008034:	2100      	movs	r1, #0
 8008036:	4630      	mov	r0, r6
 8008038:	f023 fd18 	bl	802ba6c <memset>
 800803c:	462a      	mov	r2, r5
 800803e:	4649      	mov	r1, r9
 8008040:	4630      	mov	r0, r6
 8008042:	f023 fceb 	bl	802ba1c <memcpy>
 8008046:	687a      	ldr	r2, [r7, #4]
 8008048:	23ff      	movs	r3, #255	; 0xff
 800804a:	9300      	str	r3, [sp, #0]
 800804c:	4653      	mov	r3, sl
 800804e:	b9ba      	cbnz	r2, 8008080 <uhal_crypto_aes_crypt.constprop.0+0xf0>
 8008050:	4810      	ldr	r0, [pc, #64]	; (8008094 <uhal_crypto_aes_crypt.constprop.0+0x104>)
 8008052:	4622      	mov	r2, r4
 8008054:	4631      	mov	r1, r6
 8008056:	f010 fb89 	bl	801876c <HAL_CRYP_Encrypt>
 800805a:	b970      	cbnz	r0, 800807a <uhal_crypto_aes_crypt.constprop.0+0xea>
 800805c:	480d      	ldr	r0, [pc, #52]	; (8008094 <uhal_crypto_aes_crypt.constprop.0+0x104>)
 800805e:	f010 f90e 	bl	801827e <HAL_CRYP_DeInit>
 8008062:	b998      	cbnz	r0, 800808c <uhal_crypto_aes_crypt.constprop.0+0xfc>
 8008064:	370c      	adds	r7, #12
 8008066:	46bd      	mov	sp, r7
 8008068:	e8bd 8ff0 	ldmia.w	sp!, {r4, r5, r6, r7, r8, r9, sl, fp, pc}
 800806c:	2c01      	cmp	r4, #1
 800806e:	bf0c      	ite	eq
 8008070:	2220      	moveq	r2, #32
 8008072:	2240      	movne	r2, #64	; 0x40
 8008074:	e9c8 6204 	strd	r6, r2, [r8, #16]
 8008078:	e7bf      	b.n	8007ffa <uhal_crypto_aes_crypt.constprop.0+0x6a>
 800807a:	f06f 0006 	mvn.w	r0, #6
 800807e:	e7f1      	b.n	8008064 <uhal_crypto_aes_crypt.constprop.0+0xd4>
 8008080:	4622      	mov	r2, r4
 8008082:	4631      	mov	r1, r6
 8008084:	4803      	ldr	r0, [pc, #12]	; (8008094 <uhal_crypto_aes_crypt.constprop.0+0x104>)
 8008086:	f010 fc05 	bl	8018894 <HAL_CRYP_Decrypt>
 800808a:	e7e6      	b.n	800805a <uhal_crypto_aes_crypt.constprop.0+0xca>
 800808c:	f7ff fbc6 	bl	800781c <Error_Handler>
 8008090:	2000      	movs	r0, #0
 8008092:	e7e7      	b.n	8008064 <uhal_crypto_aes_crypt.constprop.0+0xd4>
 8008094:	20000fec 	.word	0x20000fec
 8008098:	58001800 	.word	0x58001800
 800809c:	20001108 	.word	0x20001108

080080a0 <uhal_cyrpto_set_key>:
 80080a0:	f021 0308 	bic.w	r3, r1, #8
 80080a4:	2b10      	cmp	r3, #16
 80080a6:	b510      	push	{r4, lr}
 80080a8:	d001      	beq.n	80080ae <uhal_cyrpto_set_key+0xe>
 80080aa:	2920      	cmp	r1, #32
 80080ac:	d113      	bne.n	80080d6 <uhal_cyrpto_set_key+0x36>
 80080ae:	4b0b      	ldr	r3, [pc, #44]	; (80080dc <uhal_cyrpto_set_key+0x3c>)
 80080b0:	f100 0210 	add.w	r2, r0, #16
 80080b4:	78c4      	ldrb	r4, [r0, #3]
 80080b6:	701c      	strb	r4, [r3, #0]
 80080b8:	7884      	ldrb	r4, [r0, #2]
 80080ba:	705c      	strb	r4, [r3, #1]
 80080bc:	7844      	ldrb	r4, [r0, #1]
 80080be:	709c      	strb	r4, [r3, #2]
 80080c0:	f810 4b04 	ldrb.w	r4, [r0], #4
 80080c4:	70dc      	strb	r4, [r3, #3]
 80080c6:	4290      	cmp	r0, r2
 80080c8:	f103 0304 	add.w	r3, r3, #4
 80080cc:	d1f2      	bne.n	80080b4 <uhal_cyrpto_set_key+0x14>
 80080ce:	4b04      	ldr	r3, [pc, #16]	; (80080e0 <uhal_cyrpto_set_key+0x40>)
 80080d0:	2000      	movs	r0, #0
 80080d2:	8019      	strh	r1, [r3, #0]
 80080d4:	bd10      	pop	{r4, pc}
 80080d6:	f06f 001f 	mvn.w	r0, #31
 80080da:	e7fb      	b.n	80080d4 <uhal_cyrpto_set_key+0x34>
 80080dc:	20001108 	.word	0x20001108
 80080e0:	20001118 	.word	0x20001118

080080e4 <uhal_crypto_aes_ecb_encrypt>:
 80080e4:	b507      	push	{r0, r1, r2, lr}
 80080e6:	e9cd 1200 	strd	r1, r2, [sp]
 80080ea:	2200      	movs	r2, #0
 80080ec:	4603      	mov	r3, r0
 80080ee:	4611      	mov	r1, r2
 80080f0:	4610      	mov	r0, r2
 80080f2:	f7ff ff4d 	bl	8007f90 <uhal_crypto_aes_crypt.constprop.0>
 80080f6:	b003      	add	sp, #12
 80080f8:	f85d fb04 	ldr.w	pc, [sp], #4

080080fc <uhal_crypto_aes_cbc_encrypt>:
 80080fc:	b570      	push	{r4, r5, r6, lr}
 80080fe:	b086      	sub	sp, #24
 8008100:	4604      	mov	r4, r0
 8008102:	460d      	mov	r5, r1
 8008104:	4616      	mov	r6, r2
 8008106:	2100      	movs	r1, #0
 8008108:	2210      	movs	r2, #16
 800810a:	a802      	add	r0, sp, #8
 800810c:	f023 fcae 	bl	802ba6c <memset>
 8008110:	4b07      	ldr	r3, [pc, #28]	; (8008130 <uhal_crypto_aes_cbc_encrypt+0x34>)
 8008112:	4908      	ldr	r1, [pc, #32]	; (8008134 <uhal_crypto_aes_cbc_encrypt+0x38>)
 8008114:	881a      	ldrh	r2, [r3, #0]
 8008116:	a802      	add	r0, sp, #8
 8008118:	f023 fc80 	bl	802ba1c <memcpy>
 800811c:	e9cd 5600 	strd	r5, r6, [sp]
 8008120:	4623      	mov	r3, r4
 8008122:	aa02      	add	r2, sp, #8
 8008124:	2100      	movs	r1, #0
 8008126:	2001      	movs	r0, #1
 8008128:	f7ff ff32 	bl	8007f90 <uhal_crypto_aes_crypt.constprop.0>
 800812c:	b006      	add	sp, #24
 800812e:	bd70      	pop	{r4, r5, r6, pc}
 8008130:	2000000e 	.word	0x2000000e
 8008134:	200010f8 	.word	0x200010f8

08008138 <uhal_crypto_aes_cbc_decrypt>:
 8008138:	b570      	push	{r4, r5, r6, lr}
 800813a:	b086      	sub	sp, #24
 800813c:	4604      	mov	r4, r0
 800813e:	460d      	mov	r5, r1
 8008140:	4616      	mov	r6, r2
 8008142:	2100      	movs	r1, #0
 8008144:	2210      	movs	r2, #16
 8008146:	a802      	add	r0, sp, #8
 8008148:	f023 fc90 	bl	802ba6c <memset>
 800814c:	4b07      	ldr	r3, [pc, #28]	; (800816c <uhal_crypto_aes_cbc_decrypt+0x34>)
 800814e:	4908      	ldr	r1, [pc, #32]	; (8008170 <uhal_crypto_aes_cbc_decrypt+0x38>)
 8008150:	881a      	ldrh	r2, [r3, #0]
 8008152:	a802      	add	r0, sp, #8
 8008154:	f023 fc62 	bl	802ba1c <memcpy>
 8008158:	2101      	movs	r1, #1
 800815a:	e9cd 5600 	strd	r5, r6, [sp]
 800815e:	4623      	mov	r3, r4
 8008160:	aa02      	add	r2, sp, #8
 8008162:	4608      	mov	r0, r1
 8008164:	f7ff ff14 	bl	8007f90 <uhal_crypto_aes_crypt.constprop.0>
 8008168:	b006      	add	sp, #24
 800816a:	bd70      	pop	{r4, r5, r6, pc}
 800816c:	2000000e 	.word	0x2000000e
 8008170:	200010f8 	.word	0x200010f8

08008174 <aes_set_key>:
 8008174:	b508      	push	{r3, lr}
 8008176:	f7ff ff93 	bl	80080a0 <uhal_cyrpto_set_key>
 800817a:	b2c0      	uxtb	r0, r0
 800817c:	bd08      	pop	{r3, pc}

0800817e <aes_encrypt>:
 800817e:	b508      	push	{r3, lr}
 8008180:	2310      	movs	r3, #16
 8008182:	460a      	mov	r2, r1
 8008184:	4619      	mov	r1, r3
 8008186:	f7ff ffad 	bl	80080e4 <uhal_crypto_aes_ecb_encrypt>
 800818a:	b2c0      	uxtb	r0, r0
 800818c:	bd08      	pop	{r3, pc}

0800818e <aes_cbc_encrypt>:
 800818e:	b570      	push	{r4, r5, r6, lr}
 8008190:	4614      	mov	r4, r2
 8008192:	4605      	mov	r5, r0
 8008194:	4618      	mov	r0, r3
 8008196:	460e      	mov	r6, r1
 8008198:	f7ff fee0 	bl	8007f5c <uhal_cyrpto_set_iv.part.0>
 800819c:	0123      	lsls	r3, r4, #4
 800819e:	b29b      	uxth	r3, r3
 80081a0:	4632      	mov	r2, r6
 80081a2:	4619      	mov	r1, r3
 80081a4:	4628      	mov	r0, r5
 80081a6:	f7ff ffa9 	bl	80080fc <uhal_crypto_aes_cbc_encrypt>
 80081aa:	b2c0      	uxtb	r0, r0
 80081ac:	bd70      	pop	{r4, r5, r6, pc}

080081ae <aes_cbc_decrypt>:
 80081ae:	b570      	push	{r4, r5, r6, lr}
 80081b0:	4614      	mov	r4, r2
 80081b2:	4605      	mov	r5, r0
 80081b4:	4618      	mov	r0, r3
 80081b6:	460e      	mov	r6, r1
 80081b8:	f7ff fed0 	bl	8007f5c <uhal_cyrpto_set_iv.part.0>
 80081bc:	0123      	lsls	r3, r4, #4
 80081be:	b29b      	uxth	r3, r3
 80081c0:	4632      	mov	r2, r6
 80081c2:	4619      	mov	r1, r3
 80081c4:	4628      	mov	r0, r5
 80081c6:	f7ff ffb7 	bl	8008138 <uhal_crypto_aes_cbc_decrypt>
 80081ca:	b2c0      	uxtb	r0, r0
 80081cc:	bd70      	pop	{r4, r5, r6, pc}
	...

080081d0 <gpio_wakeup_handler>:
 80081d0:	4b03      	ldr	r3, [pc, #12]	; (80081e0 <gpio_wakeup_handler+0x10>)
 80081d2:	2200      	movs	r2, #0
 80081d4:	701a      	strb	r2, [r3, #0]
 80081d6:	4b03      	ldr	r3, [pc, #12]	; (80081e4 <gpio_wakeup_handler+0x14>)
 80081d8:	2201      	movs	r2, #1
 80081da:	701a      	strb	r2, [r3, #0]
 80081dc:	4770      	bx	lr
 80081de:	bf00      	nop
 80081e0:	20008142 	.word	0x20008142
 80081e4:	20008140 	.word	0x20008140

080081e8 <uhal_gpio_handler_handler>:
 80081e8:	4b02      	ldr	r3, [pc, #8]	; (80081f4 <uhal_gpio_handler_handler+0xc>)
 80081ea:	f853 3020 	ldr.w	r3, [r3, r0, lsl #2]
 80081ee:	b103      	cbz	r3, 80081f2 <uhal_gpio_handler_handler+0xa>
 80081f0:	4718      	bx	r3
 80081f2:	4770      	bx	lr
 80081f4:	2000191c 	.word	0x2000191c

080081f8 <HAL_GPIO_EXTI_Callback>:
 80081f8:	2200      	movs	r2, #0
 80081fa:	2301      	movs	r3, #1
 80081fc:	4203      	tst	r3, r0
 80081fe:	b2d1      	uxtb	r1, r2
 8008200:	f102 0201 	add.w	r2, r2, #1
 8008204:	d00d      	beq.n	8008222 <HAL_GPIO_EXTI_Callback+0x2a>
 8008206:	292f      	cmp	r1, #47	; 0x2f
 8008208:	d80e      	bhi.n	8008228 <HAL_GPIO_EXTI_Callback+0x30>
 800820a:	4b08      	ldr	r3, [pc, #32]	; (800822c <HAL_GPIO_EXTI_Callback+0x34>)
 800820c:	4808      	ldr	r0, [pc, #32]	; (8008230 <HAL_GPIO_EXTI_Callback+0x38>)
 800820e:	2200      	movs	r2, #0
 8008210:	701a      	strb	r2, [r3, #0]
 8008212:	2308      	movs	r3, #8
 8008214:	f800 3031 	strb.w	r3, [r0, r1, lsl #3]
 8008218:	eb00 00c1 	add.w	r0, r0, r1, lsl #3
 800821c:	6041      	str	r1, [r0, #4]
 800821e:	f00c bd8b 	b.w	8014d38 <udrv_system_event_produce>
 8008222:	005b      	lsls	r3, r3, #1
 8008224:	b29b      	uxth	r3, r3
 8008226:	e7e9      	b.n	80081fc <HAL_GPIO_EXTI_Callback+0x4>
 8008228:	4770      	bx	lr
 800822a:	bf00      	nop
 800822c:	20008142 	.word	0x20008142
 8008230:	2000189c 	.word	0x2000189c

08008234 <PinToGPIOx>:
 8008234:	0900      	lsrs	r0, r0, #4
 8008236:	f500 1090 	add.w	r0, r0, #1179648	; 0x120000
 800823a:	0280      	lsls	r0, r0, #10
 800823c:	4770      	bx	lr

0800823e <PinToGPIO_Pin>:
 800823e:	f000 030f 	and.w	r3, r0, #15
 8008242:	2001      	movs	r0, #1
 8008244:	4098      	lsls	r0, r3
 8008246:	b280      	uxth	r0, r0
 8008248:	4770      	bx	lr
	...

0800824c <uhal_gpio_intc_trigger_mode>:
 800824c:	282f      	cmp	r0, #47	; 0x2f
 800824e:	b5f8      	push	{r3, r4, r5, r6, r7, lr}
 8008250:	4605      	mov	r5, r0
 8008252:	f200 8082 	bhi.w	800835a <uhal_gpio_intc_trigger_mode+0x10e>
 8008256:	4e41      	ldr	r6, [pc, #260]	; (800835c <uhal_gpio_intc_trigger_mode+0x110>)
 8008258:	2214      	movs	r2, #20
 800825a:	4342      	muls	r2, r0
 800825c:	f000 040f 	and.w	r4, r0, #15
 8008260:	2301      	movs	r3, #1
 8008262:	18b0      	adds	r0, r6, r2
 8008264:	40a3      	lsls	r3, r4
 8008266:	50b3      	str	r3, [r6, r2]
 8008268:	2903      	cmp	r1, #3
 800826a:	f04f 0202 	mov.w	r2, #2
 800826e:	60c2      	str	r2, [r0, #12]
 8008270:	d82d      	bhi.n	80082ce <uhal_gpio_intc_trigger_mode+0x82>
 8008272:	2901      	cmp	r1, #1
 8008274:	d92e      	bls.n	80082d4 <uhal_gpio_intc_trigger_mode+0x88>
 8008276:	f44f 1288 	mov.w	r2, #1114112	; 0x110000
 800827a:	6042      	str	r2, [r0, #4]
 800827c:	4628      	mov	r0, r5
 800827e:	f7ff ffd9 	bl	8008234 <PinToGPIOx>
 8008282:	68c7      	ldr	r7, [r0, #12]
 8008284:	fa93 f2a3 	rbit	r2, r3
 8008288:	fab2 f282 	clz	r2, r2
 800828c:	0051      	lsls	r1, r2, #1
 800828e:	2203      	movs	r2, #3
 8008290:	408a      	lsls	r2, r1
 8008292:	403a      	ands	r2, r7
 8008294:	fa93 f3a3 	rbit	r3, r3
 8008298:	fab3 f383 	clz	r3, r3
 800829c:	005b      	lsls	r3, r3, #1
 800829e:	fa22 f303 	lsr.w	r3, r2, r3
 80082a2:	2b01      	cmp	r3, #1
 80082a4:	f04f 0214 	mov.w	r2, #20
 80082a8:	d01e      	beq.n	80082e8 <uhal_gpio_intc_trigger_mode+0x9c>
 80082aa:	2b02      	cmp	r3, #2
 80082ac:	d01c      	beq.n	80082e8 <uhal_gpio_intc_trigger_mode+0x9c>
 80082ae:	2114      	movs	r1, #20
 80082b0:	fb01 6105 	mla	r1, r1, r5, r6
 80082b4:	f00f fa76 	bl	80177a4 <HAL_GPIO_Init>
 80082b8:	b9d4      	cbnz	r4, 80082f0 <uhal_gpio_intc_trigger_mode+0xa4>
 80082ba:	2006      	movs	r0, #6
 80082bc:	4622      	mov	r2, r4
 80082be:	2102      	movs	r1, #2
 80082c0:	f00e ff92 	bl	80171e8 <HAL_NVIC_SetPriority>
 80082c4:	2006      	movs	r0, #6
 80082c6:	e8bd 40f8 	ldmia.w	sp!, {r3, r4, r5, r6, r7, lr}
 80082ca:	f00e bfbf 	b.w	801724c <HAL_NVIC_EnableIRQ>
 80082ce:	3904      	subs	r1, #4
 80082d0:	2901      	cmp	r1, #1
 80082d2:	d906      	bls.n	80082e2 <uhal_gpio_intc_trigger_mode+0x96>
 80082d4:	2214      	movs	r2, #20
 80082d6:	fb02 6205 	mla	r2, r2, r5, r6
 80082da:	f44f 1144 	mov.w	r1, #3211264	; 0x310000
 80082de:	6051      	str	r1, [r2, #4]
 80082e0:	e7cc      	b.n	800827c <uhal_gpio_intc_trigger_mode+0x30>
 80082e2:	f44f 1204 	mov.w	r2, #2162688	; 0x210000
 80082e6:	e7c8      	b.n	800827a <uhal_gpio_intc_trigger_mode+0x2e>
 80082e8:	fb02 6205 	mla	r2, r2, r5, r6
 80082ec:	6093      	str	r3, [r2, #8]
 80082ee:	e7de      	b.n	80082ae <uhal_gpio_intc_trigger_mode+0x62>
 80082f0:	2c01      	cmp	r4, #1
 80082f2:	d106      	bne.n	8008302 <uhal_gpio_intc_trigger_mode+0xb6>
 80082f4:	2007      	movs	r0, #7
 80082f6:	2200      	movs	r2, #0
 80082f8:	2102      	movs	r1, #2
 80082fa:	f00e ff75 	bl	80171e8 <HAL_NVIC_SetPriority>
 80082fe:	2007      	movs	r0, #7
 8008300:	e7e1      	b.n	80082c6 <uhal_gpio_intc_trigger_mode+0x7a>
 8008302:	2c02      	cmp	r4, #2
 8008304:	d106      	bne.n	8008314 <uhal_gpio_intc_trigger_mode+0xc8>
 8008306:	2008      	movs	r0, #8
 8008308:	2200      	movs	r2, #0
 800830a:	4621      	mov	r1, r4
 800830c:	f00e ff6c 	bl	80171e8 <HAL_NVIC_SetPriority>
 8008310:	2008      	movs	r0, #8
 8008312:	e7d8      	b.n	80082c6 <uhal_gpio_intc_trigger_mode+0x7a>
 8008314:	2c03      	cmp	r4, #3
 8008316:	d106      	bne.n	8008326 <uhal_gpio_intc_trigger_mode+0xda>
 8008318:	2009      	movs	r0, #9
 800831a:	2200      	movs	r2, #0
 800831c:	2102      	movs	r1, #2
 800831e:	f00e ff63 	bl	80171e8 <HAL_NVIC_SetPriority>
 8008322:	2009      	movs	r0, #9
 8008324:	e7cf      	b.n	80082c6 <uhal_gpio_intc_trigger_mode+0x7a>
 8008326:	2c04      	cmp	r4, #4
 8008328:	d106      	bne.n	8008338 <uhal_gpio_intc_trigger_mode+0xec>
 800832a:	200a      	movs	r0, #10
 800832c:	2200      	movs	r2, #0
 800832e:	2102      	movs	r1, #2
 8008330:	f00e ff5a 	bl	80171e8 <HAL_NVIC_SetPriority>
 8008334:	200a      	movs	r0, #10
 8008336:	e7c6      	b.n	80082c6 <uhal_gpio_intc_trigger_mode+0x7a>
 8008338:	3c05      	subs	r4, #5
 800833a:	2c04      	cmp	r4, #4
 800833c:	f04f 0200 	mov.w	r2, #0
 8008340:	f04f 0102 	mov.w	r1, #2
 8008344:	d804      	bhi.n	8008350 <uhal_gpio_intc_trigger_mode+0x104>
 8008346:	2016      	movs	r0, #22
 8008348:	f00e ff4e 	bl	80171e8 <HAL_NVIC_SetPriority>
 800834c:	2016      	movs	r0, #22
 800834e:	e7ba      	b.n	80082c6 <uhal_gpio_intc_trigger_mode+0x7a>
 8008350:	2029      	movs	r0, #41	; 0x29
 8008352:	f00e ff49 	bl	80171e8 <HAL_NVIC_SetPriority>
 8008356:	2029      	movs	r0, #41	; 0x29
 8008358:	e7b5      	b.n	80082c6 <uhal_gpio_intc_trigger_mode+0x7a>
 800835a:	bdf8      	pop	{r3, r4, r5, r6, r7, pc}
 800835c:	2000111c 	.word	0x2000111c

08008360 <uhal_gpio_register_isr>:
 8008360:	4b04      	ldr	r3, [pc, #16]	; (8008374 <uhal_gpio_register_isr+0x14>)
 8008362:	f000 000f 	and.w	r0, r0, #15
 8008366:	f853 2020 	ldr.w	r2, [r3, r0, lsl #2]
 800836a:	b90a      	cbnz	r2, 8008370 <uhal_gpio_register_isr+0x10>
 800836c:	f843 1020 	str.w	r1, [r3, r0, lsl #2]
 8008370:	2000      	movs	r0, #0
 8008372:	4770      	bx	lr
 8008374:	2000191c 	.word	0x2000191c

08008378 <uhal_gpio_suspend>:
 8008378:	e92d 43f8 	stmdb	sp!, {r3, r4, r5, r6, r7, r8, r9, lr}
 800837c:	4e17      	ldr	r6, [pc, #92]	; (80083dc <uhal_gpio_suspend+0x64>)
 800837e:	4d18      	ldr	r5, [pc, #96]	; (80083e0 <uhal_gpio_suspend+0x68>)
 8008380:	4f18      	ldr	r7, [pc, #96]	; (80083e4 <uhal_gpio_suspend+0x6c>)
 8008382:	f8df 8064 	ldr.w	r8, [pc, #100]	; 80083e8 <uhal_gpio_suspend+0x70>
 8008386:	f8df 9064 	ldr.w	r9, [pc, #100]	; 80083ec <uhal_gpio_suspend+0x74>
 800838a:	2400      	movs	r4, #0
 800838c:	2c0f      	cmp	r4, #15
 800838e:	dd05      	ble.n	800839c <uhal_gpio_suspend+0x24>
 8008390:	f1a4 0312 	sub.w	r3, r4, #18
 8008394:	2b05      	cmp	r3, #5
 8008396:	d901      	bls.n	800839c <uhal_gpio_suspend+0x24>
 8008398:	2c1c      	cmp	r4, #28
 800839a:	d115      	bne.n	80083c8 <uhal_gpio_suspend+0x50>
 800839c:	f857 3024 	ldr.w	r3, [r7, r4, lsl #2]
 80083a0:	b993      	cbnz	r3, 80083c8 <uhal_gpio_suspend+0x50>
 80083a2:	6873      	ldr	r3, [r6, #4]
 80083a4:	602b      	str	r3, [r5, #0]
 80083a6:	68b3      	ldr	r3, [r6, #8]
 80083a8:	606b      	str	r3, [r5, #4]
 80083aa:	68f3      	ldr	r3, [r6, #12]
 80083ac:	60ab      	str	r3, [r5, #8]
 80083ae:	6933      	ldr	r3, [r6, #16]
 80083b0:	60eb      	str	r3, [r5, #12]
 80083b2:	7c2b      	ldrb	r3, [r5, #16]
 80083b4:	b143      	cbz	r3, 80083c8 <uhal_gpio_suspend+0x50>
 80083b6:	f898 1000 	ldrb.w	r1, [r8]
 80083ba:	4620      	mov	r0, r4
 80083bc:	f7ff ff46 	bl	800824c <uhal_gpio_intc_trigger_mode>
 80083c0:	4649      	mov	r1, r9
 80083c2:	4620      	mov	r0, r4
 80083c4:	f7ff ffcc 	bl	8008360 <uhal_gpio_register_isr>
 80083c8:	3401      	adds	r4, #1
 80083ca:	2c30      	cmp	r4, #48	; 0x30
 80083cc:	f106 0614 	add.w	r6, r6, #20
 80083d0:	f105 0514 	add.w	r5, r5, #20
 80083d4:	d1da      	bne.n	800838c <uhal_gpio_suspend+0x14>
 80083d6:	e8bd 83f8 	ldmia.w	sp!, {r3, r4, r5, r6, r7, r8, r9, pc}
 80083da:	bf00      	nop
 80083dc:	2000111c 	.word	0x2000111c
 80083e0:	200014dc 	.word	0x200014dc
 80083e4:	2000191c 	.word	0x2000191c
 80083e8:	20000010 	.word	0x20000010
 80083ec:	080081d1 	.word	0x080081d1

080083f0 <uhal_gpio_resume>:
 80083f0:	b5f8      	push	{r3, r4, r5, r6, r7, lr}
 80083f2:	4e12      	ldr	r6, [pc, #72]	; (800843c <uhal_gpio_resume+0x4c>)
 80083f4:	4d12      	ldr	r5, [pc, #72]	; (8008440 <uhal_gpio_resume+0x50>)
 80083f6:	4f13      	ldr	r7, [pc, #76]	; (8008444 <uhal_gpio_resume+0x54>)
 80083f8:	2400      	movs	r4, #0
 80083fa:	2c0f      	cmp	r4, #15
 80083fc:	dd05      	ble.n	800840a <uhal_gpio_resume+0x1a>
 80083fe:	f1a4 0312 	sub.w	r3, r4, #18
 8008402:	2b05      	cmp	r3, #5
 8008404:	d901      	bls.n	800840a <uhal_gpio_resume+0x1a>
 8008406:	2c1c      	cmp	r4, #28
 8008408:	d110      	bne.n	800842c <uhal_gpio_resume+0x3c>
 800840a:	f857 3024 	ldr.w	r3, [r7, r4, lsl #2]
 800840e:	b96b      	cbnz	r3, 800842c <uhal_gpio_resume+0x3c>
 8008410:	6833      	ldr	r3, [r6, #0]
 8008412:	606b      	str	r3, [r5, #4]
 8008414:	6873      	ldr	r3, [r6, #4]
 8008416:	60ab      	str	r3, [r5, #8]
 8008418:	68b3      	ldr	r3, [r6, #8]
 800841a:	60eb      	str	r3, [r5, #12]
 800841c:	4620      	mov	r0, r4
 800841e:	68f3      	ldr	r3, [r6, #12]
 8008420:	612b      	str	r3, [r5, #16]
 8008422:	4629      	mov	r1, r5
 8008424:	f7ff ff06 	bl	8008234 <PinToGPIOx>
 8008428:	f00f f9bc 	bl	80177a4 <HAL_GPIO_Init>
 800842c:	3401      	adds	r4, #1
 800842e:	2c30      	cmp	r4, #48	; 0x30
 8008430:	f106 0614 	add.w	r6, r6, #20
 8008434:	f105 0514 	add.w	r5, r5, #20
 8008438:	d1df      	bne.n	80083fa <uhal_gpio_resume+0xa>
 800843a:	bdf8      	pop	{r3, r4, r5, r6, r7, pc}
 800843c:	200014dc 	.word	0x200014dc
 8008440:	2000111c 	.word	0x2000111c
 8008444:	2000191c 	.word	0x2000191c

08008448 <uhal_rtc_init>:
 8008448:	b500      	push	{lr}
 800844a:	b08d      	sub	sp, #52	; 0x34
 800844c:	222c      	movs	r2, #44	; 0x2c
 800844e:	2100      	movs	r1, #0
 8008450:	a801      	add	r0, sp, #4
 8008452:	f023 fb0b 	bl	802ba6c <memset>
 8008456:	4817      	ldr	r0, [pc, #92]	; (80084b4 <uhal_rtc_init+0x6c>)
 8008458:	4b17      	ldr	r3, [pc, #92]	; (80084b8 <uhal_rtc_init+0x70>)
 800845a:	6003      	str	r3, [r0, #0]
 800845c:	f04f 4280 	mov.w	r2, #1073741824	; 0x40000000
 8008460:	2300      	movs	r3, #0
 8008462:	e9c0 3304 	strd	r3, r3, [r0, #16]
 8008466:	e9c0 2307 	strd	r2, r3, [r0, #28]
 800846a:	6083      	str	r3, [r0, #8]
 800846c:	6183      	str	r3, [r0, #24]
 800846e:	f44f 7380 	mov.w	r3, #256	; 0x100
 8008472:	6243      	str	r3, [r0, #36]	; 0x24
 8008474:	f013 f862 	bl	801b53c <HAL_RTC_Init>
 8008478:	b108      	cbz	r0, 800847e <uhal_rtc_init+0x36>
 800847a:	f7ff f9cf 	bl	800781c <Error_Handler>
 800847e:	480d      	ldr	r0, [pc, #52]	; (80084b4 <uhal_rtc_init+0x6c>)
 8008480:	f013 f984 	bl	801b78c <HAL_RTCEx_SetSSRU_IT>
 8008484:	b108      	cbz	r0, 800848a <uhal_rtc_init+0x42>
 8008486:	f7ff f9c9 	bl	800781c <Error_Handler>
 800848a:	f04f 537c 	mov.w	r3, #1056964608	; 0x3f000000
 800848e:	2200      	movs	r2, #0
 8008490:	9307      	str	r3, [sp, #28]
 8008492:	4808      	ldr	r0, [pc, #32]	; (80084b4 <uhal_rtc_init+0x6c>)
 8008494:	9208      	str	r2, [sp, #32]
 8008496:	f44f 7380 	mov.w	r3, #256	; 0x100
 800849a:	a901      	add	r1, sp, #4
 800849c:	9202      	str	r2, [sp, #8]
 800849e:	9206      	str	r2, [sp, #24]
 80084a0:	930b      	str	r3, [sp, #44]	; 0x2c
 80084a2:	f013 f8a7 	bl	801b5f4 <HAL_RTC_SetAlarm_IT>
 80084a6:	b108      	cbz	r0, 80084ac <uhal_rtc_init+0x64>
 80084a8:	f7ff f9b8 	bl	800781c <Error_Handler>
 80084ac:	2000      	movs	r0, #0
 80084ae:	b00d      	add	sp, #52	; 0x34
 80084b0:	f85d fb04 	ldr.w	pc, [sp], #4
 80084b4:	200019dc 	.word	0x200019dc
 80084b8:	40002800 	.word	0x40002800

080084bc <uhal_rtc_get_timestamp>:
 80084bc:	b507      	push	{r0, r1, r2, lr}
 80084be:	4b07      	ldr	r3, [pc, #28]	; (80084dc <uhal_rtc_get_timestamp+0x20>)
 80084c0:	f10d 0006 	add.w	r0, sp, #6
 80084c4:	691b      	ldr	r3, [r3, #16]
 80084c6:	4798      	blx	r3
 80084c8:	f8bd 3006 	ldrh.w	r3, [sp, #6]
 80084cc:	f44f 727a 	mov.w	r2, #1000	; 0x3e8
 80084d0:	fb02 3000 	mla	r0, r2, r0, r3
 80084d4:	2100      	movs	r1, #0
 80084d6:	b003      	add	sp, #12
 80084d8:	f85d fb04 	ldr.w	pc, [sp], #4
 80084dc:	08031d78 	.word	0x08031d78

080084e0 <uhal_rtc_suspend>:
 80084e0:	4770      	bx	lr

080084e2 <uhal_rtc_resume>:
 80084e2:	4770      	bx	lr

080084e4 <uhal_sys_get_uid>:
 80084e4:	b570      	push	{r4, r5, r6, lr}
 80084e6:	460d      	mov	r5, r1
 80084e8:	4614      	mov	r4, r2
 80084ea:	4606      	mov	r6, r0
 80084ec:	f00c fd32 	bl	8014f54 <HAL_GetUIDw0>
 80084f0:	6030      	str	r0, [r6, #0]
 80084f2:	f00c fd35 	bl	8014f60 <HAL_GetUIDw1>
 80084f6:	6028      	str	r0, [r5, #0]
 80084f8:	f00c fd38 	bl	8014f6c <HAL_GetUIDw2>
 80084fc:	6020      	str	r0, [r4, #0]
 80084fe:	bd70      	pop	{r4, r5, r6, pc}

08008500 <uhal_sys_reboot>:
 8008500:	f3bf 8f4f 	dsb	sy
 8008504:	4905      	ldr	r1, [pc, #20]	; (800851c <uhal_sys_reboot+0x1c>)
 8008506:	4b06      	ldr	r3, [pc, #24]	; (8008520 <uhal_sys_reboot+0x20>)
 8008508:	68ca      	ldr	r2, [r1, #12]
 800850a:	f402 62e0 	and.w	r2, r2, #1792	; 0x700
 800850e:	4313      	orrs	r3, r2
 8008510:	60cb      	str	r3, [r1, #12]
 8008512:	f3bf 8f4f 	dsb	sy
 8008516:	bf00      	nop
 8008518:	e7fd      	b.n	8008516 <uhal_sys_reboot+0x16>
 800851a:	bf00      	nop
 800851c:	e000ed00 	.word	0xe000ed00
 8008520:	05fa0004 	.word	0x05fa0004

08008524 <uhal_sys_board_critical_section_begin>:
 8008524:	b672      	cpsid	i
 8008526:	f3ef 8310 	mrs	r3, PRIMASK
 800852a:	6003      	str	r3, [r0, #0]
 800852c:	4770      	bx	lr

0800852e <uhal_sys_board_critical_section_end>:
 800852e:	6803      	ldr	r3, [r0, #0]
 8008530:	f383 8810 	msr	PRIMASK, r3
 8008534:	b662      	cpsie	i
 8008536:	4770      	bx	lr

08008538 <uhal_sys_random>:
 8008538:	4770      	bx	lr

0800853a <LL_AHB1_GRP1_EnableClock>:
 800853a:	f04f 43b0 	mov.w	r3, #1476395008	; 0x58000000
 800853e:	b082      	sub	sp, #8
 8008540:	6c9a      	ldr	r2, [r3, #72]	; 0x48
 8008542:	4302      	orrs	r2, r0
 8008544:	649a      	str	r2, [r3, #72]	; 0x48
 8008546:	6c9b      	ldr	r3, [r3, #72]	; 0x48
 8008548:	4018      	ands	r0, r3
 800854a:	9001      	str	r0, [sp, #4]
 800854c:	9b01      	ldr	r3, [sp, #4]
 800854e:	b002      	add	sp, #8
 8008550:	4770      	bx	lr

08008552 <LL_AHB2_GRP1_EnableClock>:
 8008552:	f04f 43b0 	mov.w	r3, #1476395008	; 0x58000000
 8008556:	b082      	sub	sp, #8
 8008558:	6cda      	ldr	r2, [r3, #76]	; 0x4c
 800855a:	4302      	orrs	r2, r0
 800855c:	64da      	str	r2, [r3, #76]	; 0x4c
 800855e:	6cdb      	ldr	r3, [r3, #76]	; 0x4c
 8008560:	4018      	ands	r0, r3
 8008562:	9001      	str	r0, [sp, #4]
 8008564:	9b01      	ldr	r3, [sp, #4]
 8008566:	b002      	add	sp, #8
 8008568:	4770      	bx	lr
	...

0800856c <StartReception.part.0>:
 800856c:	b510      	push	{r4, lr}
 800856e:	4c06      	ldr	r4, [pc, #24]	; (8008588 <StartReception.part.0+0x1c>)
 8008570:	4906      	ldr	r1, [pc, #24]	; (800858c <StartReception.part.0+0x20>)
 8008572:	2280      	movs	r2, #128	; 0x80
 8008574:	4620      	mov	r0, r4
 8008576:	f00d ff4b 	bl	8016410 <HAL_UART_Receive_DMA>
 800857a:	6822      	ldr	r2, [r4, #0]
 800857c:	6813      	ldr	r3, [r2, #0]
 800857e:	f043 0310 	orr.w	r3, r3, #16
 8008582:	6013      	str	r3, [r2, #0]
 8008584:	bd10      	pop	{r4, pc}
 8008586:	bf00      	nop
 8008588:	20001fa0 	.word	0x20001fa0
 800858c:	200020c0 	.word	0x200020c0

08008590 <StartReception>:
 8008590:	2801      	cmp	r0, #1
 8008592:	b510      	push	{r4, lr}
 8008594:	d10b      	bne.n	80085ae <StartReception+0x1e>
 8008596:	4c09      	ldr	r4, [pc, #36]	; (80085bc <StartReception+0x2c>)
 8008598:	4909      	ldr	r1, [pc, #36]	; (80085c0 <StartReception+0x30>)
 800859a:	2280      	movs	r2, #128	; 0x80
 800859c:	4620      	mov	r0, r4
 800859e:	f00d ff37 	bl	8016410 <HAL_UART_Receive_DMA>
 80085a2:	6822      	ldr	r2, [r4, #0]
 80085a4:	6813      	ldr	r3, [r2, #0]
 80085a6:	f043 0310 	orr.w	r3, r3, #16
 80085aa:	6013      	str	r3, [r2, #0]
 80085ac:	bd10      	pop	{r4, pc}
 80085ae:	2802      	cmp	r0, #2
 80085b0:	d1fc      	bne.n	80085ac <StartReception+0x1c>
 80085b2:	e8bd 4010 	ldmia.w	sp!, {r4, lr}
 80085b6:	f7ff bfd9 	b.w	800856c <StartReception.part.0>
 80085ba:	bf00      	nop
 80085bc:	20002030 	.word	0x20002030
 80085c0:	20002148 	.word	0x20002148

080085c4 <uart_init>:
 80085c4:	e92d 43f7 	stmdb	sp!, {r0, r1, r2, r4, r5, r6, r7, r8, r9, lr}
 80085c8:	f89d 5028 	ldrb.w	r5, [sp, #40]	; 0x28
 80085cc:	f89d 802c 	ldrb.w	r8, [sp, #44]	; 0x2c
 80085d0:	2b01      	cmp	r3, #1
 80085d2:	bf14      	ite	ne
 80085d4:	2700      	movne	r7, #0
 80085d6:	f44f 5700 	moveq.w	r7, #8192	; 0x2000
 80085da:	2d01      	cmp	r5, #1
 80085dc:	4604      	mov	r4, r0
 80085de:	460e      	mov	r6, r1
 80085e0:	d069      	beq.n	80086b6 <uart_init+0xf2>
 80085e2:	2d03      	cmp	r5, #3
 80085e4:	d06a      	beq.n	80086bc <uart_init+0xf8>
 80085e6:	2d00      	cmp	r5, #0
 80085e8:	d06b      	beq.n	80086c2 <uart_init+0xfe>
 80085ea:	2500      	movs	r5, #0
 80085ec:	3a01      	subs	r2, #1
 80085ee:	b2d2      	uxtb	r2, r2
 80085f0:	2a02      	cmp	r2, #2
 80085f2:	d86b      	bhi.n	80086cc <uart_init+0x108>
 80085f4:	4b66      	ldr	r3, [pc, #408]	; (8008790 <uart_init+0x1cc>)
 80085f6:	f853 9022 	ldr.w	r9, [r3, r2, lsl #2]
 80085fa:	2c01      	cmp	r4, #1
 80085fc:	d170      	bne.n	80086e0 <uart_init+0x11c>
 80085fe:	2004      	movs	r0, #4
 8008600:	f7ff ff9b 	bl	800853a <LL_AHB1_GRP1_EnableClock>
 8008604:	4620      	mov	r0, r4
 8008606:	f7ff ff98 	bl	800853a <LL_AHB1_GRP1_EnableClock>
 800860a:	2200      	movs	r2, #0
 800860c:	4611      	mov	r1, r2
 800860e:	200e      	movs	r0, #14
 8008610:	f00e fdea 	bl	80171e8 <HAL_NVIC_SetPriority>
 8008614:	200e      	movs	r0, #14
 8008616:	f00e fe19 	bl	801724c <HAL_NVIC_EnableIRQ>
 800861a:	4b5e      	ldr	r3, [pc, #376]	; (8008794 <uart_init+0x1d0>)
 800861c:	485e      	ldr	r0, [pc, #376]	; (8008798 <uart_init+0x1d4>)
 800861e:	f883 8001 	strb.w	r8, [r3, #1]
 8008622:	4b5e      	ldr	r3, [pc, #376]	; (800879c <uart_init+0x1d8>)
 8008624:	6105      	str	r5, [r0, #16]
 8008626:	e9c0 3600 	strd	r3, r6, [r0]
 800862a:	240c      	movs	r4, #12
 800862c:	2300      	movs	r3, #0
 800862e:	e9c0 9702 	strd	r9, r7, [r0, #8]
 8008632:	e9c0 4305 	strd	r4, r3, [r0, #20]
 8008636:	e9c0 3307 	strd	r3, r3, [r0, #28]
 800863a:	6243      	str	r3, [r0, #36]	; 0x24
 800863c:	f1b8 0f00 	cmp.w	r8, #0
 8008640:	d049      	beq.n	80086d6 <uart_init+0x112>
 8008642:	f1b8 0f02 	cmp.w	r8, #2
 8008646:	bf01      	itttt	eq
 8008648:	2308      	moveq	r3, #8
 800864a:	6283      	streq	r3, [r0, #40]	; 0x28
 800864c:	f44f 4300 	moveq.w	r3, #32768	; 0x8000
 8008650:	6383      	streq	r3, [r0, #56]	; 0x38
 8008652:	4851      	ldr	r0, [pc, #324]	; (8008798 <uart_init+0x1d4>)
 8008654:	f00d fe50 	bl	80162f8 <HAL_HalfDuplex_Init>
 8008658:	b108      	cbz	r0, 800865e <uart_init+0x9a>
 800865a:	f7ff f8df 	bl	800781c <Error_Handler>
 800865e:	484e      	ldr	r0, [pc, #312]	; (8008798 <uart_init+0x1d4>)
 8008660:	2100      	movs	r1, #0
 8008662:	f00d ffb9 	bl	80165d8 <HAL_UARTEx_SetTxFifoThreshold>
 8008666:	b108      	cbz	r0, 800866c <uart_init+0xa8>
 8008668:	f7ff f8d8 	bl	800781c <Error_Handler>
 800866c:	484a      	ldr	r0, [pc, #296]	; (8008798 <uart_init+0x1d4>)
 800866e:	2100      	movs	r1, #0
 8008670:	f00d ffd7 	bl	8016622 <HAL_UARTEx_SetRxFifoThreshold>
 8008674:	b108      	cbz	r0, 800867a <uart_init+0xb6>
 8008676:	f7ff f8d1 	bl	800781c <Error_Handler>
 800867a:	4847      	ldr	r0, [pc, #284]	; (8008798 <uart_init+0x1d4>)
 800867c:	f00d ff8d 	bl	801659a <HAL_UARTEx_DisableFifoMode>
 8008680:	b108      	cbz	r0, 8008686 <uart_init+0xc2>
 8008682:	f7ff f8cb 	bl	800781c <Error_Handler>
 8008686:	2001      	movs	r0, #1
 8008688:	f7ff ff82 	bl	8008590 <StartReception>
 800868c:	f44f 1340 	mov.w	r3, #3145728	; 0x300000
 8008690:	9300      	str	r3, [sp, #0]
 8008692:	ab02      	add	r3, sp, #8
 8008694:	e913 0006 	ldmdb	r3, {r1, r2}
 8008698:	483f      	ldr	r0, [pc, #252]	; (8008798 <uart_init+0x1d4>)
 800869a:	f00d ff07 	bl	80164ac <HAL_UARTEx_StopModeWakeUpSourceConfig>
 800869e:	b108      	cbz	r0, 80086a4 <uart_init+0xe0>
 80086a0:	f7ff f8bc 	bl	800781c <Error_Handler>
 80086a4:	f04f 42b0 	mov.w	r2, #1476395008	; 0x58000000
 80086a8:	6893      	ldr	r3, [r2, #8]
 80086aa:	f443 4300 	orr.w	r3, r3, #32768	; 0x8000
 80086ae:	6093      	str	r3, [r2, #8]
 80086b0:	b003      	add	sp, #12
 80086b2:	e8bd 83f0 	ldmia.w	sp!, {r4, r5, r6, r7, r8, r9, pc}
 80086b6:	f44f 65c0 	mov.w	r5, #1536	; 0x600
 80086ba:	e797      	b.n	80085ec <uart_init+0x28>
 80086bc:	f44f 6580 	mov.w	r5, #1024	; 0x400
 80086c0:	e794      	b.n	80085ec <uart_init+0x28>
 80086c2:	2a02      	cmp	r2, #2
 80086c4:	d105      	bne.n	80086d2 <uart_init+0x10e>
 80086c6:	f04f 5980 	mov.w	r9, #268435456	; 0x10000000
 80086ca:	e796      	b.n	80085fa <uart_init+0x36>
 80086cc:	f04f 0900 	mov.w	r9, #0
 80086d0:	e793      	b.n	80085fa <uart_init+0x36>
 80086d2:	46a9      	mov	r9, r5
 80086d4:	e791      	b.n	80085fa <uart_init+0x36>
 80086d6:	f8c0 8028 	str.w	r8, [r0, #40]	; 0x28
 80086da:	f00d fddb 	bl	8016294 <HAL_UART_Init>
 80086de:	e7bb      	b.n	8008658 <uart_init+0x94>
 80086e0:	2c02      	cmp	r4, #2
 80086e2:	d1e5      	bne.n	80086b0 <uart_init+0xec>
 80086e4:	4b2b      	ldr	r3, [pc, #172]	; (8008794 <uart_init+0x1d0>)
 80086e6:	4c2e      	ldr	r4, [pc, #184]	; (80087a0 <uart_init+0x1dc>)
 80086e8:	f883 8002 	strb.w	r8, [r3, #2]
 80086ec:	2004      	movs	r0, #4
 80086ee:	f7ff ff24 	bl	800853a <LL_AHB1_GRP1_EnableClock>
 80086f2:	2001      	movs	r0, #1
 80086f4:	f7ff ff21 	bl	800853a <LL_AHB1_GRP1_EnableClock>
 80086f8:	2200      	movs	r2, #0
 80086fa:	4611      	mov	r1, r2
 80086fc:	200b      	movs	r0, #11
 80086fe:	f00e fd73 	bl	80171e8 <HAL_NVIC_SetPriority>
 8008702:	200b      	movs	r0, #11
 8008704:	f00e fda2 	bl	801724c <HAL_NVIC_EnableIRQ>
 8008708:	4b26      	ldr	r3, [pc, #152]	; (80087a4 <uart_init+0x1e0>)
 800870a:	6125      	str	r5, [r4, #16]
 800870c:	e9c4 3600 	strd	r3, r6, [r4]
 8008710:	220c      	movs	r2, #12
 8008712:	2300      	movs	r3, #0
 8008714:	4620      	mov	r0, r4
 8008716:	e9c4 9702 	strd	r9, r7, [r4, #8]
 800871a:	e9c4 2305 	strd	r2, r3, [r4, #20]
 800871e:	e9c4 3308 	strd	r3, r3, [r4, #32]
 8008722:	62a3      	str	r3, [r4, #40]	; 0x28
 8008724:	6663      	str	r3, [r4, #100]	; 0x64
 8008726:	f00d fdb5 	bl	8016294 <HAL_UART_Init>
 800872a:	b108      	cbz	r0, 8008730 <uart_init+0x16c>
 800872c:	f7ff f876 	bl	800781c <Error_Handler>
 8008730:	481b      	ldr	r0, [pc, #108]	; (80087a0 <uart_init+0x1dc>)
 8008732:	2100      	movs	r1, #0
 8008734:	f00d ff50 	bl	80165d8 <HAL_UARTEx_SetTxFifoThreshold>
 8008738:	b108      	cbz	r0, 800873e <uart_init+0x17a>
 800873a:	f7ff f86f 	bl	800781c <Error_Handler>
 800873e:	4818      	ldr	r0, [pc, #96]	; (80087a0 <uart_init+0x1dc>)
 8008740:	2100      	movs	r1, #0
 8008742:	f00d ff6e 	bl	8016622 <HAL_UARTEx_SetRxFifoThreshold>
 8008746:	b108      	cbz	r0, 800874c <uart_init+0x188>
 8008748:	f7ff f868 	bl	800781c <Error_Handler>
 800874c:	4814      	ldr	r0, [pc, #80]	; (80087a0 <uart_init+0x1dc>)
 800874e:	f00d ff24 	bl	801659a <HAL_UARTEx_DisableFifoMode>
 8008752:	b108      	cbz	r0, 8008758 <uart_init+0x194>
 8008754:	f7ff f862 	bl	800781c <Error_Handler>
 8008758:	f7ff ff08 	bl	800856c <StartReception.part.0>
 800875c:	f44f 1340 	mov.w	r3, #3145728	; 0x300000
 8008760:	9300      	str	r3, [sp, #0]
 8008762:	ab02      	add	r3, sp, #8
 8008764:	e913 0006 	ldmdb	r3, {r1, r2}
 8008768:	480d      	ldr	r0, [pc, #52]	; (80087a0 <uart_init+0x1dc>)
 800876a:	f00d fe9f 	bl	80164ac <HAL_UARTEx_StopModeWakeUpSourceConfig>
 800876e:	b108      	cbz	r0, 8008774 <uart_init+0x1b0>
 8008770:	f7ff f854 	bl	800781c <Error_Handler>
 8008774:	4a0c      	ldr	r2, [pc, #48]	; (80087a8 <uart_init+0x1e4>)
 8008776:	f8d2 3080 	ldr.w	r3, [r2, #128]	; 0x80
 800877a:	f043 5380 	orr.w	r3, r3, #268435456	; 0x10000000
 800877e:	f8c2 3080 	str.w	r3, [r2, #128]	; 0x80
 8008782:	6822      	ldr	r2, [r4, #0]
 8008784:	6893      	ldr	r3, [r2, #8]
 8008786:	f443 0380 	orr.w	r3, r3, #4194304	; 0x400000
 800878a:	6093      	str	r3, [r2, #8]
 800878c:	e78a      	b.n	80086a4 <uart_init+0xe0>
 800878e:	bf00      	nop
 8008790:	0802ef34 	.word	0x0802ef34
 8008794:	200021ec 	.word	0x200021ec
 8008798:	20002030 	.word	0x20002030
 800879c:	40013800 	.word	0x40013800
 80087a0:	20001fa0 	.word	0x20001fa0
 80087a4:	40008000 	.word	0x40008000
 80087a8:	58000800 	.word	0x58000800

080087ac <uhal_uart_init>:
 80087ac:	e92d 41f3 	stmdb	sp!, {r0, r1, r4, r5, r6, r7, r8, lr}
 80087b0:	f89d 8020 	ldrb.w	r8, [sp, #32]
 80087b4:	f89d c024 	ldrb.w	ip, [sp, #36]	; 0x24
 80087b8:	e9cd 8c00 	strd	r8, ip, [sp]
 80087bc:	4616      	mov	r6, r2
 80087be:	461d      	mov	r5, r3
 80087c0:	4604      	mov	r4, r0
 80087c2:	460f      	mov	r7, r1
 80087c4:	f7ff fefe 	bl	80085c4 <uart_init>
 80087c8:	4b06      	ldr	r3, [pc, #24]	; (80087e4 <uhal_uart_init+0x38>)
 80087ca:	200c      	movs	r0, #12
 80087cc:	4344      	muls	r4, r0
 80087ce:	1918      	adds	r0, r3, r4
 80087d0:	2201      	movs	r2, #1
 80087d2:	551a      	strb	r2, [r3, r4]
 80087d4:	6047      	str	r7, [r0, #4]
 80087d6:	7206      	strb	r6, [r0, #8]
 80087d8:	7245      	strb	r5, [r0, #9]
 80087da:	f880 800a 	strb.w	r8, [r0, #10]
 80087de:	b002      	add	sp, #8
 80087e0:	e8bd 81f0 	ldmia.w	sp!, {r4, r5, r6, r7, r8, pc}
 80087e4:	200021c8 	.word	0x200021c8

080087e8 <uhal_uart_deinit>:
 80087e8:	2802      	cmp	r0, #2
 80087ea:	b510      	push	{r4, lr}
 80087ec:	4604      	mov	r4, r0
 80087ee:	d10b      	bne.n	8008808 <uhal_uart_deinit+0x20>
 80087f0:	4807      	ldr	r0, [pc, #28]	; (8008810 <uhal_uart_deinit+0x28>)
 80087f2:	f00d f821 	bl	8015838 <HAL_UART_DeInit>
 80087f6:	b108      	cbz	r0, 80087fc <uhal_uart_deinit+0x14>
 80087f8:	f7ff f810 	bl	800781c <Error_Handler>
 80087fc:	200c      	movs	r0, #12
 80087fe:	4b05      	ldr	r3, [pc, #20]	; (8008814 <uhal_uart_deinit+0x2c>)
 8008800:	4344      	muls	r4, r0
 8008802:	2200      	movs	r2, #0
 8008804:	551a      	strb	r2, [r3, r4]
 8008806:	bd10      	pop	{r4, pc}
 8008808:	2801      	cmp	r0, #1
 800880a:	d1f7      	bne.n	80087fc <uhal_uart_deinit+0x14>
 800880c:	4802      	ldr	r0, [pc, #8]	; (8008818 <uhal_uart_deinit+0x30>)
 800880e:	e7f0      	b.n	80087f2 <uhal_uart_deinit+0xa>
 8008810:	20001fa0 	.word	0x20001fa0
 8008814:	200021c8 	.word	0x200021c8
 8008818:	20002030 	.word	0x20002030

0800881c <uhal_uart_write>:
 800881c:	2801      	cmp	r0, #1
 800881e:	b5f8      	push	{r3, r4, r5, r6, r7, lr}
 8008820:	4605      	mov	r5, r0
 8008822:	460e      	mov	r6, r1
 8008824:	461f      	mov	r7, r3
 8008826:	d12b      	bne.n	8008880 <uhal_uart_write+0x64>
 8008828:	b294      	uxth	r4, r2
 800882a:	4a18      	ldr	r2, [pc, #96]	; (800888c <uhal_uart_write+0x70>)
 800882c:	7852      	ldrb	r2, [r2, #1]
 800882e:	3a01      	subs	r2, #1
 8008830:	2a01      	cmp	r2, #1
 8008832:	d817      	bhi.n	8008864 <uhal_uart_write+0x48>
 8008834:	4816      	ldr	r0, [pc, #88]	; (8008890 <uhal_uart_write+0x74>)
 8008836:	f00d fa70 	bl	8015d1a <HAL_HalfDuplex_EnableTransmitter>
 800883a:	4622      	mov	r2, r4
 800883c:	4814      	ldr	r0, [pc, #80]	; (8008890 <uhal_uart_write+0x74>)
 800883e:	463b      	mov	r3, r7
 8008840:	4631      	mov	r1, r6
 8008842:	f00d fc97 	bl	8016174 <HAL_UART_Transmit>
 8008846:	4604      	mov	r4, r0
 8008848:	4811      	ldr	r0, [pc, #68]	; (8008890 <uhal_uart_write+0x74>)
 800884a:	f00d fa8b 	bl	8015d64 <HAL_HalfDuplex_EnableReceiver>
 800884e:	b984      	cbnz	r4, 8008872 <uhal_uart_write+0x56>
 8008850:	4b10      	ldr	r3, [pc, #64]	; (8008894 <uhal_uart_write+0x78>)
 8008852:	681b      	ldr	r3, [r3, #0]
 8008854:	b90b      	cbnz	r3, 800885a <uhal_uart_write+0x3e>
 8008856:	2000      	movs	r0, #0
 8008858:	bdf8      	pop	{r3, r4, r5, r6, r7, pc}
 800885a:	4621      	mov	r1, r4
 800885c:	4628      	mov	r0, r5
 800885e:	4798      	blx	r3
 8008860:	4620      	mov	r0, r4
 8008862:	e7f9      	b.n	8008858 <uhal_uart_write+0x3c>
 8008864:	480a      	ldr	r0, [pc, #40]	; (8008890 <uhal_uart_write+0x74>)
 8008866:	4622      	mov	r2, r4
 8008868:	f00d fc84 	bl	8016174 <HAL_UART_Transmit>
 800886c:	4604      	mov	r4, r0
 800886e:	2800      	cmp	r0, #0
 8008870:	d0f6      	beq.n	8008860 <uhal_uart_write+0x44>
 8008872:	2c02      	cmp	r4, #2
 8008874:	bf14      	ite	ne
 8008876:	f06f 0006 	mvnne.w	r0, #6
 800887a:	f06f 0005 	mvneq.w	r0, #5
 800887e:	e7eb      	b.n	8008858 <uhal_uart_write+0x3c>
 8008880:	2802      	cmp	r0, #2
 8008882:	d1e8      	bne.n	8008856 <uhal_uart_write+0x3a>
 8008884:	4804      	ldr	r0, [pc, #16]	; (8008898 <uhal_uart_write+0x7c>)
 8008886:	b292      	uxth	r2, r2
 8008888:	e7ee      	b.n	8008868 <uhal_uart_write+0x4c>
 800888a:	bf00      	nop
 800888c:	200021ec 	.word	0x200021ec
 8008890:	20002030 	.word	0x20002030
 8008894:	20001ad8 	.word	0x20001ad8
 8008898:	20001fa0 	.word	0x20001fa0

0800889c <uhal_uart_read>:
 800889c:	2801      	cmp	r0, #1
 800889e:	d102      	bne.n	80088a6 <uhal_uart_read+0xa>
 80088a0:	4804      	ldr	r0, [pc, #16]	; (80088b4 <uhal_uart_read+0x18>)
 80088a2:	f000 bb79 	b.w	8008f98 <fund_circular_queue_out>
 80088a6:	2802      	cmp	r0, #2
 80088a8:	d101      	bne.n	80088ae <uhal_uart_read+0x12>
 80088aa:	4803      	ldr	r0, [pc, #12]	; (80088b8 <uhal_uart_read+0x1c>)
 80088ac:	e7f9      	b.n	80088a2 <uhal_uart_read+0x6>
 80088ae:	f06f 0006 	mvn.w	r0, #6
 80088b2:	4770      	bx	lr
 80088b4:	20000014 	.word	0x20000014
 80088b8:	20000028 	.word	0x20000028

080088bc <uhal_uart_peek>:
 80088bc:	2801      	cmp	r0, #1
 80088be:	b507      	push	{r0, r1, r2, lr}
 80088c0:	d10a      	bne.n	80088d8 <uhal_uart_peek+0x1c>
 80088c2:	480a      	ldr	r0, [pc, #40]	; (80088ec <uhal_uart_peek+0x30>)
 80088c4:	f10d 0107 	add.w	r1, sp, #7
 80088c8:	f000 fba3 	bl	8009012 <fund_circular_queue_peek>
 80088cc:	b150      	cbz	r0, 80088e4 <uhal_uart_peek+0x28>
 80088ce:	f06f 0006 	mvn.w	r0, #6
 80088d2:	b003      	add	sp, #12
 80088d4:	f85d fb04 	ldr.w	pc, [sp], #4
 80088d8:	2802      	cmp	r0, #2
 80088da:	d1f8      	bne.n	80088ce <uhal_uart_peek+0x12>
 80088dc:	4804      	ldr	r0, [pc, #16]	; (80088f0 <uhal_uart_peek+0x34>)
 80088de:	f10d 0107 	add.w	r1, sp, #7
 80088e2:	e7f1      	b.n	80088c8 <uhal_uart_peek+0xc>
 80088e4:	f89d 0007 	ldrb.w	r0, [sp, #7]
 80088e8:	e7f3      	b.n	80088d2 <uhal_uart_peek+0x16>
 80088ea:	bf00      	nop
 80088ec:	20000014 	.word	0x20000014
 80088f0:	20000028 	.word	0x20000028

080088f4 <uhal_uart_flush>:
 80088f4:	4770      	bx	lr
	...

080088f8 <uhal_uart_read_available>:
 80088f8:	2801      	cmp	r0, #1
 80088fa:	d102      	bne.n	8008902 <uhal_uart_read_available+0xa>
 80088fc:	4804      	ldr	r0, [pc, #16]	; (8008910 <uhal_uart_read_available+0x18>)
 80088fe:	f000 baef 	b.w	8008ee0 <fund_circular_queue_utilization_get>
 8008902:	2802      	cmp	r0, #2
 8008904:	d101      	bne.n	800890a <uhal_uart_read_available+0x12>
 8008906:	4803      	ldr	r0, [pc, #12]	; (8008914 <uhal_uart_read_available+0x1c>)
 8008908:	e7f9      	b.n	80088fe <uhal_uart_read_available+0x6>
 800890a:	f06f 0006 	mvn.w	r0, #6
 800890e:	4770      	bx	lr
 8008910:	20000014 	.word	0x20000014
 8008914:	20000028 	.word	0x20000028

08008918 <uhal_uart_suspend>:
 8008918:	b5f8      	push	{r3, r4, r5, r6, r7, lr}
 800891a:	4d22      	ldr	r5, [pc, #136]	; (80089a4 <uhal_uart_suspend+0x8c>)
 800891c:	4f22      	ldr	r7, [pc, #136]	; (80089a8 <uhal_uart_suspend+0x90>)
 800891e:	2400      	movs	r4, #0
 8008920:	230c      	movs	r3, #12
 8008922:	4a22      	ldr	r2, [pc, #136]	; (80089ac <uhal_uart_suspend+0x94>)
 8008924:	4363      	muls	r3, r4
 8008926:	5c9b      	ldrb	r3, [r3, r2]
 8008928:	b1cb      	cbz	r3, 800895e <uhal_uart_suspend+0x46>
 800892a:	2c02      	cmp	r4, #2
 800892c:	d11b      	bne.n	8008966 <uhal_uart_suspend+0x4e>
 800892e:	4e20      	ldr	r6, [pc, #128]	; (80089b0 <uhal_uart_suspend+0x98>)
 8008930:	6833      	ldr	r3, [r6, #0]
 8008932:	69da      	ldr	r2, [r3, #28]
 8008934:	03d1      	lsls	r1, r2, #15
 8008936:	d4fc      	bmi.n	8008932 <uhal_uart_suspend+0x1a>
 8008938:	69da      	ldr	r2, [r3, #28]
 800893a:	0252      	lsls	r2, r2, #9
 800893c:	d5fc      	bpl.n	8008938 <uhal_uart_suspend+0x20>
 800893e:	481c      	ldr	r0, [pc, #112]	; (80089b0 <uhal_uart_suspend+0x98>)
 8008940:	f00d fdff 	bl	8016542 <HAL_UARTEx_EnableStopMode>
 8008944:	6833      	ldr	r3, [r6, #0]
 8008946:	481a      	ldr	r0, [pc, #104]	; (80089b0 <uhal_uart_suspend+0x98>)
 8008948:	2210      	movs	r2, #16
 800894a:	621a      	str	r2, [r3, #32]
 800894c:	681a      	ldr	r2, [r3, #0]
 800894e:	f022 0210 	bic.w	r2, r2, #16
 8008952:	601a      	str	r2, [r3, #0]
 8008954:	f00c ff91 	bl	801587a <HAL_UART_DMAStop>
 8008958:	6ff0      	ldr	r0, [r6, #124]	; 0x7c
 800895a:	f00e fdab 	bl	80174b4 <HAL_DMA_DeInit>
 800895e:	3401      	adds	r4, #1
 8008960:	2c03      	cmp	r4, #3
 8008962:	d1dd      	bne.n	8008920 <uhal_uart_suspend+0x8>
 8008964:	bdf8      	pop	{r3, r4, r5, r6, r7, pc}
 8008966:	2c01      	cmp	r4, #1
 8008968:	d1f9      	bne.n	800895e <uhal_uart_suspend+0x46>
 800896a:	2308      	movs	r3, #8
 800896c:	622b      	str	r3, [r5, #32]
 800896e:	f44f 1380 	mov.w	r3, #1048576	; 0x100000
 8008972:	622b      	str	r3, [r5, #32]
 8008974:	e855 3f00 	ldrex	r3, [r5]
 8008978:	f043 0302 	orr.w	r3, r3, #2
 800897c:	e845 3200 	strex	r2, r3, [r5]
 8008980:	2a00      	cmp	r2, #0
 8008982:	d1f7      	bne.n	8008974 <uhal_uart_suspend+0x5c>
 8008984:	e857 3f00 	ldrex	r3, [r7]
 8008988:	f443 0380 	orr.w	r3, r3, #4194304	; 0x400000
 800898c:	e847 3200 	strex	r2, r3, [r7]
 8008990:	2a00      	cmp	r2, #0
 8008992:	d1f7      	bne.n	8008984 <uhal_uart_suspend+0x6c>
 8008994:	4a07      	ldr	r2, [pc, #28]	; (80089b4 <uhal_uart_suspend+0x9c>)
 8008996:	f8d2 3080 	ldr.w	r3, [r2, #128]	; 0x80
 800899a:	f043 6380 	orr.w	r3, r3, #67108864	; 0x4000000
 800899e:	f8c2 3080 	str.w	r3, [r2, #128]	; 0x80
 80089a2:	e7dc      	b.n	800895e <uhal_uart_suspend+0x46>
 80089a4:	40013800 	.word	0x40013800
 80089a8:	40013808 	.word	0x40013808
 80089ac:	200021c8 	.word	0x200021c8
 80089b0:	20001fa0 	.word	0x20001fa0
 80089b4:	58000800 	.word	0x58000800

080089b8 <uhal_uart_resume>:
 80089b8:	b573      	push	{r0, r1, r4, r5, r6, lr}
 80089ba:	4c0b      	ldr	r4, [pc, #44]	; (80089e8 <uhal_uart_resume+0x30>)
 80089bc:	4e0b      	ldr	r6, [pc, #44]	; (80089ec <uhal_uart_resume+0x34>)
 80089be:	f04f 35ff 	mov.w	r5, #4294967295	; 0xffffffff
 80089c2:	2d01      	cmp	r5, #1
 80089c4:	d90b      	bls.n	80089de <uhal_uart_resume+0x26>
 80089c6:	7823      	ldrb	r3, [r4, #0]
 80089c8:	b14b      	cbz	r3, 80089de <uhal_uart_resume+0x26>
 80089ca:	7833      	ldrb	r3, [r6, #0]
 80089cc:	9301      	str	r3, [sp, #4]
 80089ce:	7aa3      	ldrb	r3, [r4, #10]
 80089d0:	9300      	str	r3, [sp, #0]
 80089d2:	7a22      	ldrb	r2, [r4, #8]
 80089d4:	7a63      	ldrb	r3, [r4, #9]
 80089d6:	6861      	ldr	r1, [r4, #4]
 80089d8:	2000      	movs	r0, #0
 80089da:	f7ff fdf3 	bl	80085c4 <uart_init>
 80089de:	3501      	adds	r5, #1
 80089e0:	2d02      	cmp	r5, #2
 80089e2:	d1ee      	bne.n	80089c2 <uhal_uart_resume+0xa>
 80089e4:	b002      	add	sp, #8
 80089e6:	bd70      	pop	{r4, r5, r6, pc}
 80089e8:	200021c8 	.word	0x200021c8
 80089ec:	200021ec 	.word	0x200021ec

080089f0 <HAL_UART_RxCpltCallback>:
 80089f0:	b570      	push	{r4, r5, r6, lr}
 80089f2:	4b1d      	ldr	r3, [pc, #116]	; (8008a68 <HAL_UART_RxCpltCallback+0x78>)
 80089f4:	6802      	ldr	r2, [r0, #0]
 80089f6:	429a      	cmp	r2, r3
 80089f8:	4604      	mov	r4, r0
 80089fa:	d115      	bne.n	8008a28 <HAL_UART_RxCpltCallback+0x38>
 80089fc:	f00c ff3d 	bl	801587a <HAL_UART_DMAStop>
 8008a00:	4e1a      	ldr	r6, [pc, #104]	; (8008a6c <HAL_UART_RxCpltCallback+0x7c>)
 8008a02:	2500      	movs	r5, #0
 8008a04:	f816 1b01 	ldrb.w	r1, [r6], #1
 8008a08:	2002      	movs	r0, #2
 8008a0a:	3501      	adds	r5, #1
 8008a0c:	f00c f92e 	bl	8014c6c <serial_fallback_handler>
 8008a10:	2d80      	cmp	r5, #128	; 0x80
 8008a12:	d1f7      	bne.n	8008a04 <HAL_UART_RxCpltCallback+0x14>
 8008a14:	4915      	ldr	r1, [pc, #84]	; (8008a6c <HAL_UART_RxCpltCallback+0x7c>)
 8008a16:	4816      	ldr	r0, [pc, #88]	; (8008a70 <HAL_UART_RxCpltCallback+0x80>)
 8008a18:	462a      	mov	r2, r5
 8008a1a:	f000 fa70 	bl	8008efe <fund_circular_queue_in>
 8008a1e:	4913      	ldr	r1, [pc, #76]	; (8008a6c <HAL_UART_RxCpltCallback+0x7c>)
 8008a20:	462a      	mov	r2, r5
 8008a22:	4620      	mov	r0, r4
 8008a24:	f00d fcf4 	bl	8016410 <HAL_UART_Receive_DMA>
 8008a28:	6822      	ldr	r2, [r4, #0]
 8008a2a:	4b12      	ldr	r3, [pc, #72]	; (8008a74 <HAL_UART_RxCpltCallback+0x84>)
 8008a2c:	429a      	cmp	r2, r3
 8008a2e:	d116      	bne.n	8008a5e <HAL_UART_RxCpltCallback+0x6e>
 8008a30:	4620      	mov	r0, r4
 8008a32:	f00c ff22 	bl	801587a <HAL_UART_DMAStop>
 8008a36:	4e10      	ldr	r6, [pc, #64]	; (8008a78 <HAL_UART_RxCpltCallback+0x88>)
 8008a38:	2500      	movs	r5, #0
 8008a3a:	f816 1b01 	ldrb.w	r1, [r6], #1
 8008a3e:	2001      	movs	r0, #1
 8008a40:	3501      	adds	r5, #1
 8008a42:	f00c f913 	bl	8014c6c <serial_fallback_handler>
 8008a46:	2d80      	cmp	r5, #128	; 0x80
 8008a48:	d1f7      	bne.n	8008a3a <HAL_UART_RxCpltCallback+0x4a>
 8008a4a:	490b      	ldr	r1, [pc, #44]	; (8008a78 <HAL_UART_RxCpltCallback+0x88>)
 8008a4c:	480b      	ldr	r0, [pc, #44]	; (8008a7c <HAL_UART_RxCpltCallback+0x8c>)
 8008a4e:	462a      	mov	r2, r5
 8008a50:	f000 fa55 	bl	8008efe <fund_circular_queue_in>
 8008a54:	4908      	ldr	r1, [pc, #32]	; (8008a78 <HAL_UART_RxCpltCallback+0x88>)
 8008a56:	462a      	mov	r2, r5
 8008a58:	4620      	mov	r0, r4
 8008a5a:	f00d fcd9 	bl	8016410 <HAL_UART_Receive_DMA>
 8008a5e:	e8bd 4070 	ldmia.w	sp!, {r4, r5, r6, lr}
 8008a62:	4807      	ldr	r0, [pc, #28]	; (8008a80 <HAL_UART_RxCpltCallback+0x90>)
 8008a64:	f00c b968 	b.w	8014d38 <udrv_system_event_produce>
 8008a68:	40008000 	.word	0x40008000
 8008a6c:	200020c0 	.word	0x200020c0
 8008a70:	20000028 	.word	0x20000028
 8008a74:	40013800 	.word	0x40013800
 8008a78:	20002148 	.word	0x20002148
 8008a7c:	20000014 	.word	0x20000014
 8008a80:	20002140 	.word	0x20002140

08008a84 <HAL_UART_RxHalfCpltCallback>:
 8008a84:	6802      	ldr	r2, [r0, #0]
 8008a86:	4b05      	ldr	r3, [pc, #20]	; (8008a9c <HAL_UART_RxHalfCpltCallback+0x18>)
 8008a88:	429a      	cmp	r2, r3
 8008a8a:	d105      	bne.n	8008a98 <HAL_UART_RxHalfCpltCallback+0x14>
 8008a8c:	4b04      	ldr	r3, [pc, #16]	; (8008aa0 <HAL_UART_RxHalfCpltCallback+0x1c>)
 8008a8e:	681b      	ldr	r3, [r3, #0]
 8008a90:	b113      	cbz	r3, 8008a98 <HAL_UART_RxHalfCpltCallback+0x14>
 8008a92:	2101      	movs	r1, #1
 8008a94:	4608      	mov	r0, r1
 8008a96:	4718      	bx	r3
 8008a98:	4770      	bx	lr
 8008a9a:	bf00      	nop
 8008a9c:	40013800 	.word	0x40013800
 8008aa0:	20001ad8 	.word	0x20001ad8

08008aa4 <HAL_UARTEx_RxEventCallback>:
 8008aa4:	4770      	bx	lr
	...

08008aa8 <USAR_UART_IDLECallback>:
 8008aa8:	b5f8      	push	{r3, r4, r5, r6, r7, lr}
 8008aaa:	4b2f      	ldr	r3, [pc, #188]	; (8008b68 <USAR_UART_IDLECallback+0xc0>)
 8008aac:	6802      	ldr	r2, [r0, #0]
 8008aae:	429a      	cmp	r2, r3
 8008ab0:	4604      	mov	r4, r0
 8008ab2:	d11d      	bne.n	8008af0 <USAR_UART_IDLECallback+0x48>
 8008ab4:	f00c fee1 	bl	801587a <HAL_UART_DMAStop>
 8008ab8:	4b2c      	ldr	r3, [pc, #176]	; (8008b6c <USAR_UART_IDLECallback+0xc4>)
 8008aba:	4f2d      	ldr	r7, [pc, #180]	; (8008b70 <USAR_UART_IDLECallback+0xc8>)
 8008abc:	681b      	ldr	r3, [r3, #0]
 8008abe:	685d      	ldr	r5, [r3, #4]
 8008ac0:	f1c5 0580 	rsb	r5, r5, #128	; 0x80
 8008ac4:	b2ad      	uxth	r5, r5
 8008ac6:	2600      	movs	r6, #0
 8008ac8:	42b5      	cmp	r5, r6
 8008aca:	dc3f      	bgt.n	8008b4c <USAR_UART_IDLECallback+0xa4>
 8008acc:	4928      	ldr	r1, [pc, #160]	; (8008b70 <USAR_UART_IDLECallback+0xc8>)
 8008ace:	4829      	ldr	r0, [pc, #164]	; (8008b74 <USAR_UART_IDLECallback+0xcc>)
 8008ad0:	462a      	mov	r2, r5
 8008ad2:	f000 fa14 	bl	8008efe <fund_circular_queue_in>
 8008ad6:	2280      	movs	r2, #128	; 0x80
 8008ad8:	4925      	ldr	r1, [pc, #148]	; (8008b70 <USAR_UART_IDLECallback+0xc8>)
 8008ada:	4620      	mov	r0, r4
 8008adc:	f00d fc98 	bl	8016410 <HAL_UART_Receive_DMA>
 8008ae0:	4b25      	ldr	r3, [pc, #148]	; (8008b78 <USAR_UART_IDLECallback+0xd0>)
 8008ae2:	781a      	ldrb	r2, [r3, #0]
 8008ae4:	2a01      	cmp	r2, #1
 8008ae6:	d103      	bne.n	8008af0 <USAR_UART_IDLECallback+0x48>
 8008ae8:	2200      	movs	r2, #0
 8008aea:	701a      	strb	r2, [r3, #0]
 8008aec:	f00b fe5a 	bl	80147a4 <udrv_powersave_wake_unlock>
 8008af0:	6822      	ldr	r2, [r4, #0]
 8008af2:	4b22      	ldr	r3, [pc, #136]	; (8008b7c <USAR_UART_IDLECallback+0xd4>)
 8008af4:	429a      	cmp	r2, r3
 8008af6:	d124      	bne.n	8008b42 <USAR_UART_IDLECallback+0x9a>
 8008af8:	4620      	mov	r0, r4
 8008afa:	f00c febe 	bl	801587a <HAL_UART_DMAStop>
 8008afe:	4b20      	ldr	r3, [pc, #128]	; (8008b80 <USAR_UART_IDLECallback+0xd8>)
 8008b00:	4f20      	ldr	r7, [pc, #128]	; (8008b84 <USAR_UART_IDLECallback+0xdc>)
 8008b02:	681b      	ldr	r3, [r3, #0]
 8008b04:	685d      	ldr	r5, [r3, #4]
 8008b06:	f1c5 0580 	rsb	r5, r5, #128	; 0x80
 8008b0a:	b2ad      	uxth	r5, r5
 8008b0c:	2600      	movs	r6, #0
 8008b0e:	42b5      	cmp	r5, r6
 8008b10:	dc23      	bgt.n	8008b5a <USAR_UART_IDLECallback+0xb2>
 8008b12:	491c      	ldr	r1, [pc, #112]	; (8008b84 <USAR_UART_IDLECallback+0xdc>)
 8008b14:	481c      	ldr	r0, [pc, #112]	; (8008b88 <USAR_UART_IDLECallback+0xe0>)
 8008b16:	462a      	mov	r2, r5
 8008b18:	f000 f9f1 	bl	8008efe <fund_circular_queue_in>
 8008b1c:	2280      	movs	r2, #128	; 0x80
 8008b1e:	4919      	ldr	r1, [pc, #100]	; (8008b84 <USAR_UART_IDLECallback+0xdc>)
 8008b20:	4620      	mov	r0, r4
 8008b22:	f00d fc75 	bl	8016410 <HAL_UART_Receive_DMA>
 8008b26:	4b14      	ldr	r3, [pc, #80]	; (8008b78 <USAR_UART_IDLECallback+0xd0>)
 8008b28:	781a      	ldrb	r2, [r3, #0]
 8008b2a:	2a01      	cmp	r2, #1
 8008b2c:	d103      	bne.n	8008b36 <USAR_UART_IDLECallback+0x8e>
 8008b2e:	2200      	movs	r2, #0
 8008b30:	701a      	strb	r2, [r3, #0]
 8008b32:	f00b fe37 	bl	80147a4 <udrv_powersave_wake_unlock>
 8008b36:	4b15      	ldr	r3, [pc, #84]	; (8008b8c <USAR_UART_IDLECallback+0xe4>)
 8008b38:	681b      	ldr	r3, [r3, #0]
 8008b3a:	b113      	cbz	r3, 8008b42 <USAR_UART_IDLECallback+0x9a>
 8008b3c:	2101      	movs	r1, #1
 8008b3e:	4608      	mov	r0, r1
 8008b40:	4798      	blx	r3
 8008b42:	e8bd 40f8 	ldmia.w	sp!, {r3, r4, r5, r6, r7, lr}
 8008b46:	4812      	ldr	r0, [pc, #72]	; (8008b90 <USAR_UART_IDLECallback+0xe8>)
 8008b48:	f00c b8f6 	b.w	8014d38 <udrv_system_event_produce>
 8008b4c:	f817 1b01 	ldrb.w	r1, [r7], #1
 8008b50:	2002      	movs	r0, #2
 8008b52:	f00c f88b 	bl	8014c6c <serial_fallback_handler>
 8008b56:	3601      	adds	r6, #1
 8008b58:	e7b6      	b.n	8008ac8 <USAR_UART_IDLECallback+0x20>
 8008b5a:	f817 1b01 	ldrb.w	r1, [r7], #1
 8008b5e:	2001      	movs	r0, #1
 8008b60:	f00c f884 	bl	8014c6c <serial_fallback_handler>
 8008b64:	3601      	adds	r6, #1
 8008b66:	e7d2      	b.n	8008b0e <USAR_UART_IDLECallback+0x66>
 8008b68:	40008000 	.word	0x40008000
 8008b6c:	20001ee0 	.word	0x20001ee0
 8008b70:	200020c0 	.word	0x200020c0
 8008b74:	20000028 	.word	0x20000028
 8008b78:	20001ad4 	.word	0x20001ad4
 8008b7c:	40013800 	.word	0x40013800
 8008b80:	20001f40 	.word	0x20001f40
 8008b84:	20002148 	.word	0x20002148
 8008b88:	20000014 	.word	0x20000014
 8008b8c:	20001ad8 	.word	0x20001ad8
 8008b90:	20002140 	.word	0x20002140

08008b94 <HAL_UARTEx_WakeupCallback>:
 8008b94:	b573      	push	{r0, r1, r4, r5, r6, lr}
 8008b96:	4b31      	ldr	r3, [pc, #196]	; (8008c5c <HAL_UARTEx_WakeupCallback+0xc8>)
 8008b98:	2600      	movs	r6, #0
 8008b9a:	701e      	strb	r6, [r3, #0]
 8008b9c:	6803      	ldr	r3, [r0, #0]
 8008b9e:	6a5a      	ldr	r2, [r3, #36]	; 0x24
 8008ba0:	f88d 2007 	strb.w	r2, [sp, #7]
 8008ba4:	4a2e      	ldr	r2, [pc, #184]	; (8008c60 <HAL_UARTEx_WakeupCallback+0xcc>)
 8008ba6:	4293      	cmp	r3, r2
 8008ba8:	4605      	mov	r5, r0
 8008baa:	d119      	bne.n	8008be0 <HAL_UARTEx_WakeupCallback+0x4c>
 8008bac:	482d      	ldr	r0, [pc, #180]	; (8008c64 <HAL_UARTEx_WakeupCallback+0xd0>)
 8008bae:	4c2e      	ldr	r4, [pc, #184]	; (8008c68 <HAL_UARTEx_WakeupCallback+0xd4>)
 8008bb0:	f00d fcdd 	bl	801656e <HAL_UARTEx_DisableStopMode>
 8008bb4:	492d      	ldr	r1, [pc, #180]	; (8008c6c <HAL_UARTEx_WakeupCallback+0xd8>)
 8008bb6:	6226      	str	r6, [r4, #32]
 8008bb8:	2315      	movs	r3, #21
 8008bba:	e9c4 1300 	strd	r1, r3, [r4]
 8008bbe:	4620      	mov	r0, r4
 8008bc0:	2380      	movs	r3, #128	; 0x80
 8008bc2:	e9c4 6602 	strd	r6, r6, [r4, #8]
 8008bc6:	e9c4 3604 	strd	r3, r6, [r4, #16]
 8008bca:	e9c4 6606 	strd	r6, r6, [r4, #24]
 8008bce:	f00e fbff 	bl	80173d0 <HAL_DMA_Init>
 8008bd2:	b108      	cbz	r0, 8008bd8 <HAL_UARTEx_WakeupCallback+0x44>
 8008bd4:	f7fe fe22 	bl	800781c <Error_Handler>
 8008bd8:	67ec      	str	r4, [r5, #124]	; 0x7c
 8008bda:	62a5      	str	r5, [r4, #40]	; 0x28
 8008bdc:	f7ff fcc6 	bl	800856c <StartReception.part.0>
 8008be0:	682a      	ldr	r2, [r5, #0]
 8008be2:	4b23      	ldr	r3, [pc, #140]	; (8008c70 <HAL_UARTEx_WakeupCallback+0xdc>)
 8008be4:	429a      	cmp	r2, r3
 8008be6:	d11b      	bne.n	8008c20 <HAL_UARTEx_WakeupCallback+0x8c>
 8008be8:	4822      	ldr	r0, [pc, #136]	; (8008c74 <HAL_UARTEx_WakeupCallback+0xe0>)
 8008bea:	4c23      	ldr	r4, [pc, #140]	; (8008c78 <HAL_UARTEx_WakeupCallback+0xe4>)
 8008bec:	f00d fcbf 	bl	801656e <HAL_UARTEx_DisableStopMode>
 8008bf0:	4a22      	ldr	r2, [pc, #136]	; (8008c7c <HAL_UARTEx_WakeupCallback+0xe8>)
 8008bf2:	2311      	movs	r3, #17
 8008bf4:	e9c4 2300 	strd	r2, r3, [r4]
 8008bf8:	4620      	mov	r0, r4
 8008bfa:	2300      	movs	r3, #0
 8008bfc:	2280      	movs	r2, #128	; 0x80
 8008bfe:	e9c4 3302 	strd	r3, r3, [r4, #8]
 8008c02:	e9c4 2304 	strd	r2, r3, [r4, #16]
 8008c06:	e9c4 3306 	strd	r3, r3, [r4, #24]
 8008c0a:	6223      	str	r3, [r4, #32]
 8008c0c:	f00e fbe0 	bl	80173d0 <HAL_DMA_Init>
 8008c10:	b108      	cbz	r0, 8008c16 <HAL_UARTEx_WakeupCallback+0x82>
 8008c12:	f7fe fe03 	bl	800781c <Error_Handler>
 8008c16:	67ec      	str	r4, [r5, #124]	; 0x7c
 8008c18:	2001      	movs	r0, #1
 8008c1a:	62a5      	str	r5, [r4, #40]	; 0x28
 8008c1c:	f7ff fcb8 	bl	8008590 <StartReception>
 8008c20:	682c      	ldr	r4, [r5, #0]
 8008c22:	4b0f      	ldr	r3, [pc, #60]	; (8008c60 <HAL_UARTEx_WakeupCallback+0xcc>)
 8008c24:	429c      	cmp	r4, r3
 8008c26:	d10d      	bne.n	8008c44 <HAL_UARTEx_WakeupCallback+0xb0>
 8008c28:	f89d 1007 	ldrb.w	r1, [sp, #7]
 8008c2c:	2002      	movs	r0, #2
 8008c2e:	f00c f81d 	bl	8014c6c <serial_fallback_handler>
 8008c32:	682b      	ldr	r3, [r5, #0]
 8008c34:	42a3      	cmp	r3, r4
 8008c36:	d105      	bne.n	8008c44 <HAL_UARTEx_WakeupCallback+0xb0>
 8008c38:	4811      	ldr	r0, [pc, #68]	; (8008c80 <HAL_UARTEx_WakeupCallback+0xec>)
 8008c3a:	2201      	movs	r2, #1
 8008c3c:	f10d 0107 	add.w	r1, sp, #7
 8008c40:	f000 f95d 	bl	8008efe <fund_circular_queue_in>
 8008c44:	480f      	ldr	r0, [pc, #60]	; (8008c84 <HAL_UARTEx_WakeupCallback+0xf0>)
 8008c46:	f00c f877 	bl	8014d38 <udrv_system_event_produce>
 8008c4a:	4b0f      	ldr	r3, [pc, #60]	; (8008c88 <HAL_UARTEx_WakeupCallback+0xf4>)
 8008c4c:	781a      	ldrb	r2, [r3, #0]
 8008c4e:	b91a      	cbnz	r2, 8008c58 <HAL_UARTEx_WakeupCallback+0xc4>
 8008c50:	2201      	movs	r2, #1
 8008c52:	701a      	strb	r2, [r3, #0]
 8008c54:	f00b fd9e 	bl	8014794 <udrv_powersave_wake_lock>
 8008c58:	b002      	add	sp, #8
 8008c5a:	bd70      	pop	{r4, r5, r6, pc}
 8008c5c:	20008142 	.word	0x20008142
 8008c60:	40008000 	.word	0x40008000
 8008c64:	20001fa0 	.word	0x20001fa0
 8008c68:	20001ee0 	.word	0x20001ee0
 8008c6c:	40020008 	.word	0x40020008
 8008c70:	40013800 	.word	0x40013800
 8008c74:	20002030 	.word	0x20002030
 8008c78:	20001f40 	.word	0x20001f40
 8008c7c:	40020044 	.word	0x40020044
 8008c80:	20000028 	.word	0x20000028
 8008c84:	20002140 	.word	0x20002140
 8008c88:	20001ad4 	.word	0x20001ad4

08008c8c <HAL_UART_MspInit>:
 8008c8c:	b570      	push	{r4, r5, r6, lr}
 8008c8e:	b096      	sub	sp, #88	; 0x58
 8008c90:	4605      	mov	r5, r0
 8008c92:	2214      	movs	r2, #20
 8008c94:	2100      	movs	r1, #0
 8008c96:	a803      	add	r0, sp, #12
 8008c98:	f022 fee8 	bl	802ba6c <memset>
 8008c9c:	2238      	movs	r2, #56	; 0x38
 8008c9e:	2100      	movs	r1, #0
 8008ca0:	a808      	add	r0, sp, #32
 8008ca2:	f022 fee3 	bl	802ba6c <memset>
 8008ca6:	682b      	ldr	r3, [r5, #0]
 8008ca8:	4a5f      	ldr	r2, [pc, #380]	; (8008e28 <HAL_UART_MspInit+0x19c>)
 8008caa:	4293      	cmp	r3, r2
 8008cac:	d166      	bne.n	8008d7c <HAL_UART_MspInit+0xf0>
 8008cae:	4b5f      	ldr	r3, [pc, #380]	; (8008e2c <HAL_UART_MspInit+0x1a0>)
 8008cb0:	2401      	movs	r4, #1
 8008cb2:	a808      	add	r0, sp, #32
 8008cb4:	e9cd 4308 	strd	r4, r3, [sp, #32]
 8008cb8:	f00e f9a6 	bl	8017008 <HAL_RCCEx_PeriphCLKConfig>
 8008cbc:	b108      	cbz	r0, 8008cc2 <HAL_UART_MspInit+0x36>
 8008cbe:	f7fe fdad 	bl	800781c <Error_Handler>
 8008cc2:	f04f 43b0 	mov.w	r3, #1476395008	; 0x58000000
 8008cc6:	2016      	movs	r0, #22
 8008cc8:	6e1a      	ldr	r2, [r3, #96]	; 0x60
 8008cca:	f442 4280 	orr.w	r2, r2, #16384	; 0x4000
 8008cce:	661a      	str	r2, [r3, #96]	; 0x60
 8008cd0:	6e1b      	ldr	r3, [r3, #96]	; 0x60
 8008cd2:	f403 4380 	and.w	r3, r3, #16384	; 0x4000
 8008cd6:	9301      	str	r3, [sp, #4]
 8008cd8:	9b01      	ldr	r3, [sp, #4]
 8008cda:	f7ff faab 	bl	8008234 <PinToGPIOx>
 8008cde:	f1b0 4f90 	cmp.w	r0, #1207959552	; 0x48000000
 8008ce2:	d138      	bne.n	8008d56 <HAL_UART_MspInit+0xca>
 8008ce4:	2001      	movs	r0, #1
 8008ce6:	f7ff fc34 	bl	8008552 <LL_AHB2_GRP1_EnableClock>
 8008cea:	2002      	movs	r0, #2
 8008cec:	f7ff fc31 	bl	8008552 <LL_AHB2_GRP1_EnableClock>
 8008cf0:	4b4f      	ldr	r3, [pc, #316]	; (8008e30 <HAL_UART_MspInit+0x1a4>)
 8008cf2:	6a9b      	ldr	r3, [r3, #40]	; 0x28
 8008cf4:	2b08      	cmp	r3, #8
 8008cf6:	d136      	bne.n	8008d66 <HAL_UART_MspInit+0xda>
 8008cf8:	2017      	movs	r0, #23
 8008cfa:	f7ff faa0 	bl	800823e <PinToGPIO_Pin>
 8008cfe:	2312      	movs	r3, #18
 8008d00:	9003      	str	r0, [sp, #12]
 8008d02:	2600      	movs	r6, #0
 8008d04:	9304      	str	r3, [sp, #16]
 8008d06:	2301      	movs	r3, #1
 8008d08:	e9cd 3605 	strd	r3, r6, [sp, #20]
 8008d0c:	4849      	ldr	r0, [pc, #292]	; (8008e34 <HAL_UART_MspInit+0x1a8>)
 8008d0e:	4c4a      	ldr	r4, [pc, #296]	; (8008e38 <HAL_UART_MspInit+0x1ac>)
 8008d10:	2307      	movs	r3, #7
 8008d12:	a903      	add	r1, sp, #12
 8008d14:	9307      	str	r3, [sp, #28]
 8008d16:	f00e fd45 	bl	80177a4 <HAL_GPIO_Init>
 8008d1a:	4848      	ldr	r0, [pc, #288]	; (8008e3c <HAL_UART_MspInit+0x1b0>)
 8008d1c:	6226      	str	r6, [r4, #32]
 8008d1e:	2311      	movs	r3, #17
 8008d20:	e9c4 0300 	strd	r0, r3, [r4]
 8008d24:	2380      	movs	r3, #128	; 0x80
 8008d26:	4620      	mov	r0, r4
 8008d28:	e9c4 6602 	strd	r6, r6, [r4, #8]
 8008d2c:	e9c4 3604 	strd	r3, r6, [r4, #16]
 8008d30:	e9c4 6606 	strd	r6, r6, [r4, #24]
 8008d34:	f00e fb4c 	bl	80173d0 <HAL_DMA_Init>
 8008d38:	b108      	cbz	r0, 8008d3e <HAL_UART_MspInit+0xb2>
 8008d3a:	f7fe fd6f 	bl	800781c <Error_Handler>
 8008d3e:	2200      	movs	r2, #0
 8008d40:	2024      	movs	r0, #36	; 0x24
 8008d42:	67ec      	str	r4, [r5, #124]	; 0x7c
 8008d44:	4611      	mov	r1, r2
 8008d46:	62a5      	str	r5, [r4, #40]	; 0x28
 8008d48:	f00e fa4e 	bl	80171e8 <HAL_NVIC_SetPriority>
 8008d4c:	2024      	movs	r0, #36	; 0x24
 8008d4e:	f00e fa7d 	bl	801724c <HAL_NVIC_EnableIRQ>
 8008d52:	b016      	add	sp, #88	; 0x58
 8008d54:	bd70      	pop	{r4, r5, r6, pc}
 8008d56:	2016      	movs	r0, #22
 8008d58:	f7ff fa6c 	bl	8008234 <PinToGPIOx>
 8008d5c:	4b35      	ldr	r3, [pc, #212]	; (8008e34 <HAL_UART_MspInit+0x1a8>)
 8008d5e:	4298      	cmp	r0, r3
 8008d60:	d1c3      	bne.n	8008cea <HAL_UART_MspInit+0x5e>
 8008d62:	2002      	movs	r0, #2
 8008d64:	e7bf      	b.n	8008ce6 <HAL_UART_MspInit+0x5a>
 8008d66:	2016      	movs	r0, #22
 8008d68:	f7ff fa69 	bl	800823e <PinToGPIO_Pin>
 8008d6c:	4604      	mov	r4, r0
 8008d6e:	2017      	movs	r0, #23
 8008d70:	f7ff fa65 	bl	800823e <PinToGPIO_Pin>
 8008d74:	4304      	orrs	r4, r0
 8008d76:	9403      	str	r4, [sp, #12]
 8008d78:	2302      	movs	r3, #2
 8008d7a:	e7c2      	b.n	8008d02 <HAL_UART_MspInit+0x76>
 8008d7c:	4a30      	ldr	r2, [pc, #192]	; (8008e40 <HAL_UART_MspInit+0x1b4>)
 8008d7e:	4293      	cmp	r3, r2
 8008d80:	d1e7      	bne.n	8008d52 <HAL_UART_MspInit+0xc6>
 8008d82:	2320      	movs	r3, #32
 8008d84:	9308      	str	r3, [sp, #32]
 8008d86:	686b      	ldr	r3, [r5, #4]
 8008d88:	f5b3 6f16 	cmp.w	r3, #2400	; 0x960
 8008d8c:	bf94      	ite	ls
 8008d8e:	f44f 6340 	movls.w	r3, #3072	; 0xc00
 8008d92:	f44f 6300 	movhi.w	r3, #2048	; 0x800
 8008d96:	a808      	add	r0, sp, #32
 8008d98:	930c      	str	r3, [sp, #48]	; 0x30
 8008d9a:	f00e f935 	bl	8017008 <HAL_RCCEx_PeriphCLKConfig>
 8008d9e:	b108      	cbz	r0, 8008da4 <HAL_UART_MspInit+0x118>
 8008da0:	f7fe fd3c 	bl	800781c <Error_Handler>
 8008da4:	f04f 43b0 	mov.w	r3, #1476395008	; 0x58000000
 8008da8:	2001      	movs	r0, #1
 8008daa:	6dda      	ldr	r2, [r3, #92]	; 0x5c
 8008dac:	f042 0201 	orr.w	r2, r2, #1
 8008db0:	65da      	str	r2, [r3, #92]	; 0x5c
 8008db2:	6ddb      	ldr	r3, [r3, #92]	; 0x5c
 8008db4:	f003 0301 	and.w	r3, r3, #1
 8008db8:	9302      	str	r3, [sp, #8]
 8008dba:	9b02      	ldr	r3, [sp, #8]
 8008dbc:	f7ff fbc9 	bl	8008552 <LL_AHB2_GRP1_EnableClock>
 8008dc0:	2002      	movs	r0, #2
 8008dc2:	f7ff fa3c 	bl	800823e <PinToGPIO_Pin>
 8008dc6:	4604      	mov	r4, r0
 8008dc8:	2003      	movs	r0, #3
 8008dca:	f7ff fa38 	bl	800823e <PinToGPIO_Pin>
 8008dce:	2202      	movs	r2, #2
 8008dd0:	2301      	movs	r3, #1
 8008dd2:	2600      	movs	r6, #0
 8008dd4:	4304      	orrs	r4, r0
 8008dd6:	e9cd 2304 	strd	r2, r3, [sp, #16]
 8008dda:	a903      	add	r1, sp, #12
 8008ddc:	2308      	movs	r3, #8
 8008dde:	f04f 4090 	mov.w	r0, #1207959552	; 0x48000000
 8008de2:	e9cd 6306 	strd	r6, r3, [sp, #24]
 8008de6:	9403      	str	r4, [sp, #12]
 8008de8:	f00e fcdc 	bl	80177a4 <HAL_GPIO_Init>
 8008dec:	4c15      	ldr	r4, [pc, #84]	; (8008e44 <HAL_UART_MspInit+0x1b8>)
 8008dee:	4916      	ldr	r1, [pc, #88]	; (8008e48 <HAL_UART_MspInit+0x1bc>)
 8008df0:	61a6      	str	r6, [r4, #24]
 8008df2:	2315      	movs	r3, #21
 8008df4:	e9c4 1300 	strd	r1, r3, [r4]
 8008df8:	2380      	movs	r3, #128	; 0x80
 8008dfa:	e9c4 3604 	strd	r3, r6, [r4, #16]
 8008dfe:	4620      	mov	r0, r4
 8008e00:	2320      	movs	r3, #32
 8008e02:	e9c4 6602 	strd	r6, r6, [r4, #8]
 8008e06:	e9c4 3607 	strd	r3, r6, [r4, #28]
 8008e0a:	f00e fae1 	bl	80173d0 <HAL_DMA_Init>
 8008e0e:	b108      	cbz	r0, 8008e14 <HAL_UART_MspInit+0x188>
 8008e10:	f7fe fd04 	bl	800781c <Error_Handler>
 8008e14:	2200      	movs	r2, #0
 8008e16:	2026      	movs	r0, #38	; 0x26
 8008e18:	67ec      	str	r4, [r5, #124]	; 0x7c
 8008e1a:	4611      	mov	r1, r2
 8008e1c:	62a5      	str	r5, [r4, #40]	; 0x28
 8008e1e:	f00e f9e3 	bl	80171e8 <HAL_NVIC_SetPriority>
 8008e22:	2026      	movs	r0, #38	; 0x26
 8008e24:	e793      	b.n	8008d4e <HAL_UART_MspInit+0xc2>
 8008e26:	bf00      	nop
 8008e28:	40013800 	.word	0x40013800
 8008e2c:	00030002 	.word	0x00030002
 8008e30:	20002030 	.word	0x20002030
 8008e34:	48000400 	.word	0x48000400
 8008e38:	20001f40 	.word	0x20001f40
 8008e3c:	40020044 	.word	0x40020044
 8008e40:	40008000 	.word	0x40008000
 8008e44:	20001ee0 	.word	0x20001ee0
 8008e48:	40020008 	.word	0x40020008

08008e4c <HAL_UART_MspDeInit>:
 8008e4c:	b570      	push	{r4, r5, r6, lr}
 8008e4e:	4a1b      	ldr	r2, [pc, #108]	; (8008ebc <HAL_UART_MspDeInit+0x70>)
 8008e50:	6803      	ldr	r3, [r0, #0]
 8008e52:	4293      	cmp	r3, r2
 8008e54:	4604      	mov	r4, r0
 8008e56:	d11d      	bne.n	8008e94 <HAL_UART_MspDeInit+0x48>
 8008e58:	f04f 42b0 	mov.w	r2, #1476395008	; 0x58000000
 8008e5c:	2016      	movs	r0, #22
 8008e5e:	6e13      	ldr	r3, [r2, #96]	; 0x60
 8008e60:	f423 4380 	bic.w	r3, r3, #16384	; 0x4000
 8008e64:	6613      	str	r3, [r2, #96]	; 0x60
 8008e66:	f7ff f9e5 	bl	8008234 <PinToGPIOx>
 8008e6a:	4605      	mov	r5, r0
 8008e6c:	2016      	movs	r0, #22
 8008e6e:	f7ff f9e6 	bl	800823e <PinToGPIO_Pin>
 8008e72:	4606      	mov	r6, r0
 8008e74:	2017      	movs	r0, #23
 8008e76:	f7ff f9e2 	bl	800823e <PinToGPIO_Pin>
 8008e7a:	ea46 0100 	orr.w	r1, r6, r0
 8008e7e:	4628      	mov	r0, r5
 8008e80:	f00e fd42 	bl	8017908 <HAL_GPIO_DeInit>
 8008e84:	6fe0      	ldr	r0, [r4, #124]	; 0x7c
 8008e86:	f00e fb15 	bl	80174b4 <HAL_DMA_DeInit>
 8008e8a:	2024      	movs	r0, #36	; 0x24
 8008e8c:	e8bd 4070 	ldmia.w	sp!, {r4, r5, r6, lr}
 8008e90:	f00e b9ea 	b.w	8017268 <HAL_NVIC_DisableIRQ>
 8008e94:	4a0a      	ldr	r2, [pc, #40]	; (8008ec0 <HAL_UART_MspDeInit+0x74>)
 8008e96:	4293      	cmp	r3, r2
 8008e98:	d10f      	bne.n	8008eba <HAL_UART_MspDeInit+0x6e>
 8008e9a:	f04f 42b0 	mov.w	r2, #1476395008	; 0x58000000
 8008e9e:	210c      	movs	r1, #12
 8008ea0:	6dd3      	ldr	r3, [r2, #92]	; 0x5c
 8008ea2:	f023 0301 	bic.w	r3, r3, #1
 8008ea6:	65d3      	str	r3, [r2, #92]	; 0x5c
 8008ea8:	f04f 4090 	mov.w	r0, #1207959552	; 0x48000000
 8008eac:	f00e fd2c 	bl	8017908 <HAL_GPIO_DeInit>
 8008eb0:	6fa0      	ldr	r0, [r4, #120]	; 0x78
 8008eb2:	f00e faff 	bl	80174b4 <HAL_DMA_DeInit>
 8008eb6:	2026      	movs	r0, #38	; 0x26
 8008eb8:	e7e8      	b.n	8008e8c <HAL_UART_MspDeInit+0x40>
 8008eba:	bd70      	pop	{r4, r5, r6, pc}
 8008ebc:	40013800 	.word	0x40013800
 8008ec0:	40008000 	.word	0x40008000

08008ec4 <HAL_UART_ErrorCallback>:
 8008ec4:	b508      	push	{r3, lr}
 8008ec6:	4b05      	ldr	r3, [pc, #20]	; (8008edc <HAL_UART_ErrorCallback+0x18>)
 8008ec8:	6802      	ldr	r2, [r0, #0]
 8008eca:	429a      	cmp	r2, r3
 8008ecc:	d105      	bne.n	8008eda <HAL_UART_ErrorCallback+0x16>
 8008ece:	f00c ff6e 	bl	8015dae <HAL_UART_GetError>
 8008ed2:	e8bd 4008 	ldmia.w	sp!, {r3, lr}
 8008ed6:	f7ff bb49 	b.w	800856c <StartReception.part.0>
 8008eda:	bd08      	pop	{r3, pc}
 8008edc:	40008000 	.word	0x40008000

08008ee0 <fund_circular_queue_utilization_get>:
 8008ee0:	68c2      	ldr	r2, [r0, #12]
 8008ee2:	6903      	ldr	r3, [r0, #16]
 8008ee4:	429a      	cmp	r2, r3
 8008ee6:	bf82      	ittt	hi
 8008ee8:	6840      	ldrhi	r0, [r0, #4]
 8008eea:	181b      	addhi	r3, r3, r0
 8008eec:	3301      	addhi	r3, #1
 8008eee:	1a98      	subs	r0, r3, r2
 8008ef0:	4770      	bx	lr

08008ef2 <fund_circular_queue_available_get>:
 8008ef2:	b508      	push	{r3, lr}
 8008ef4:	6841      	ldr	r1, [r0, #4]
 8008ef6:	f7ff fff3 	bl	8008ee0 <fund_circular_queue_utilization_get>
 8008efa:	1a08      	subs	r0, r1, r0
 8008efc:	bd08      	pop	{r3, pc}

08008efe <fund_circular_queue_in>:
 8008efe:	e92d 43f7 	stmdb	sp!, {r0, r1, r2, r4, r5, r6, r7, r8, r9, lr}
 8008f02:	4604      	mov	r4, r0
 8008f04:	a801      	add	r0, sp, #4
 8008f06:	4616      	mov	r6, r2
 8008f08:	4688      	mov	r8, r1
 8008f0a:	f00b ff1f 	bl	8014d4c <udrv_system_critical_section_begin>
 8008f0e:	4620      	mov	r0, r4
 8008f10:	f7ff ffef 	bl	8008ef2 <fund_circular_queue_available_get>
 8008f14:	4286      	cmp	r6, r0
 8008f16:	bf28      	it	cs
 8008f18:	4606      	movcs	r6, r0
 8008f1a:	4620      	mov	r0, r4
 8008f1c:	f7ff ffe9 	bl	8008ef2 <fund_circular_queue_available_get>
 8008f20:	68e3      	ldr	r3, [r4, #12]
 8008f22:	6925      	ldr	r5, [r4, #16]
 8008f24:	68a2      	ldr	r2, [r4, #8]
 8008f26:	42ab      	cmp	r3, r5
 8008f28:	bf9c      	itt	ls
 8008f2a:	6863      	ldrls	r3, [r4, #4]
 8008f2c:	3301      	addls	r3, #1
 8008f2e:	1b5d      	subs	r5, r3, r5
 8008f30:	4681      	mov	r9, r0
 8008f32:	6923      	ldr	r3, [r4, #16]
 8008f34:	6820      	ldr	r0, [r4, #0]
 8008f36:	42ae      	cmp	r6, r5
 8008f38:	fb02 0003 	mla	r0, r2, r3, r0
 8008f3c:	d813      	bhi.n	8008f66 <fund_circular_queue_in+0x68>
 8008f3e:	4372      	muls	r2, r6
 8008f40:	4641      	mov	r1, r8
 8008f42:	f022 fd6b 	bl	802ba1c <memcpy>
 8008f46:	6923      	ldr	r3, [r4, #16]
 8008f48:	6862      	ldr	r2, [r4, #4]
 8008f4a:	4433      	add	r3, r6
 8008f4c:	4293      	cmp	r3, r2
 8008f4e:	bf96      	itet	ls
 8008f50:	6923      	ldrls	r3, [r4, #16]
 8008f52:	2300      	movhi	r3, #0
 8008f54:	199b      	addls	r3, r3, r6
 8008f56:	6123      	str	r3, [r4, #16]
 8008f58:	a801      	add	r0, sp, #4
 8008f5a:	f00b fef9 	bl	8014d50 <udrv_system_critical_section_end>
 8008f5e:	4630      	mov	r0, r6
 8008f60:	b003      	add	sp, #12
 8008f62:	e8bd 83f0 	ldmia.w	sp!, {r4, r5, r6, r7, r8, r9, pc}
 8008f66:	fb05 f702 	mul.w	r7, r5, r2
 8008f6a:	463a      	mov	r2, r7
 8008f6c:	4641      	mov	r1, r8
 8008f6e:	f022 fd55 	bl	802ba1c <memcpy>
 8008f72:	68a2      	ldr	r2, [r4, #8]
 8008f74:	6820      	ldr	r0, [r4, #0]
 8008f76:	1b75      	subs	r5, r6, r5
 8008f78:	436a      	muls	r2, r5
 8008f7a:	eb08 0107 	add.w	r1, r8, r7
 8008f7e:	f022 fd4d 	bl	802ba1c <memcpy>
 8008f82:	454e      	cmp	r6, r9
 8008f84:	6125      	str	r5, [r4, #16]
 8008f86:	d9e7      	bls.n	8008f58 <fund_circular_queue_in+0x5a>
 8008f88:	6923      	ldr	r3, [r4, #16]
 8008f8a:	6862      	ldr	r2, [r4, #4]
 8008f8c:	4293      	cmp	r3, r2
 8008f8e:	bf34      	ite	cc
 8008f90:	3301      	addcc	r3, #1
 8008f92:	2300      	movcs	r3, #0
 8008f94:	60e3      	str	r3, [r4, #12]
 8008f96:	e7df      	b.n	8008f58 <fund_circular_queue_in+0x5a>

08008f98 <fund_circular_queue_out>:
 8008f98:	e92d 41f3 	stmdb	sp!, {r0, r1, r4, r5, r6, r7, r8, lr}
 8008f9c:	4604      	mov	r4, r0
 8008f9e:	a801      	add	r0, sp, #4
 8008fa0:	4616      	mov	r6, r2
 8008fa2:	4688      	mov	r8, r1
 8008fa4:	f00b fed2 	bl	8014d4c <udrv_system_critical_section_begin>
 8008fa8:	4620      	mov	r0, r4
 8008faa:	f7ff ff99 	bl	8008ee0 <fund_circular_queue_utilization_get>
 8008fae:	68e7      	ldr	r7, [r4, #12]
 8008fb0:	68e5      	ldr	r5, [r4, #12]
 8008fb2:	6923      	ldr	r3, [r4, #16]
 8008fb4:	68a2      	ldr	r2, [r4, #8]
 8008fb6:	6821      	ldr	r1, [r4, #0]
 8008fb8:	4286      	cmp	r6, r0
 8008fba:	bf28      	it	cs
 8008fbc:	4606      	movcs	r6, r0
 8008fbe:	429d      	cmp	r5, r3
 8008fc0:	bf84      	itt	hi
 8008fc2:	6863      	ldrhi	r3, [r4, #4]
 8008fc4:	3301      	addhi	r3, #1
 8008fc6:	1b5d      	subs	r5, r3, r5
 8008fc8:	42ae      	cmp	r6, r5
 8008fca:	fb02 1107 	mla	r1, r2, r7, r1
 8008fce:	d810      	bhi.n	8008ff2 <fund_circular_queue_out+0x5a>
 8008fd0:	4372      	muls	r2, r6
 8008fd2:	4640      	mov	r0, r8
 8008fd4:	f022 fd22 	bl	802ba1c <memcpy>
 8008fd8:	6862      	ldr	r2, [r4, #4]
 8008fda:	4437      	add	r7, r6
 8008fdc:	4297      	cmp	r7, r2
 8008fde:	bf88      	it	hi
 8008fe0:	2700      	movhi	r7, #0
 8008fe2:	60e7      	str	r7, [r4, #12]
 8008fe4:	a801      	add	r0, sp, #4
 8008fe6:	f00b feb3 	bl	8014d50 <udrv_system_critical_section_end>
 8008fea:	4630      	mov	r0, r6
 8008fec:	b002      	add	sp, #8
 8008fee:	e8bd 81f0 	ldmia.w	sp!, {r4, r5, r6, r7, r8, pc}
 8008ff2:	fb05 f702 	mul.w	r7, r5, r2
 8008ff6:	463a      	mov	r2, r7
 8008ff8:	4640      	mov	r0, r8
 8008ffa:	f022 fd0f 	bl	802ba1c <memcpy>
 8008ffe:	68a2      	ldr	r2, [r4, #8]
 8009000:	6821      	ldr	r1, [r4, #0]
 8009002:	1b75      	subs	r5, r6, r5
 8009004:	436a      	muls	r2, r5
 8009006:	eb08 0007 	add.w	r0, r8, r7
 800900a:	f022 fd07 	bl	802ba1c <memcpy>
 800900e:	60e5      	str	r5, [r4, #12]
 8009010:	e7e8      	b.n	8008fe4 <fund_circular_queue_out+0x4c>

08009012 <fund_circular_queue_peek>:
 8009012:	b510      	push	{r4, lr}
 8009014:	4604      	mov	r4, r0
 8009016:	4608      	mov	r0, r1
 8009018:	68e2      	ldr	r2, [r4, #12]
 800901a:	6923      	ldr	r3, [r4, #16]
 800901c:	429a      	cmp	r2, r3
 800901e:	d023      	beq.n	8009068 <fund_circular_queue_peek+0x56>
 8009020:	68a2      	ldr	r2, [r4, #8]
 8009022:	68e1      	ldr	r1, [r4, #12]
 8009024:	6823      	ldr	r3, [r4, #0]
 8009026:	1e54      	subs	r4, r2, #1
 8009028:	2c07      	cmp	r4, #7
 800902a:	d818      	bhi.n	800905e <fund_circular_queue_peek+0x4c>
 800902c:	e8df f004 	tbb	[pc, r4]
 8009030:	0c170804 	.word	0x0c170804
 8009034:	10171717 	.word	0x10171717
 8009038:	5c5b      	ldrb	r3, [r3, r1]
 800903a:	7003      	strb	r3, [r0, #0]
 800903c:	2000      	movs	r0, #0
 800903e:	bd10      	pop	{r4, pc}
 8009040:	f833 3011 	ldrh.w	r3, [r3, r1, lsl #1]
 8009044:	8003      	strh	r3, [r0, #0]
 8009046:	e7f9      	b.n	800903c <fund_circular_queue_peek+0x2a>
 8009048:	f853 3021 	ldr.w	r3, [r3, r1, lsl #2]
 800904c:	6003      	str	r3, [r0, #0]
 800904e:	e7f5      	b.n	800903c <fund_circular_queue_peek+0x2a>
 8009050:	eb03 03c1 	add.w	r3, r3, r1, lsl #3
 8009054:	e9d3 2300 	ldrd	r2, r3, [r3]
 8009058:	e9c0 2300 	strd	r2, r3, [r0]
 800905c:	e7ee      	b.n	800903c <fund_circular_queue_peek+0x2a>
 800905e:	fb01 3102 	mla	r1, r1, r2, r3
 8009062:	f022 fcdb 	bl	802ba1c <memcpy>
 8009066:	e7e9      	b.n	800903c <fund_circular_queue_peek+0x2a>
 8009068:	f06f 000e 	mvn.w	r0, #14
 800906c:	e7e7      	b.n	800903e <fund_circular_queue_peek+0x2c>

0800906e <service_debug>:
 800906e:	b40f      	push	{r0, r1, r2, r3}
 8009070:	b500      	push	{lr}
 8009072:	f5ad 7d03 	sub.w	sp, sp, #524	; 0x20c
 8009076:	f00a fc6d 	bl	8013954 <service_nvm_get_debug_level_from_nvm>
 800907a:	b2c0      	uxtb	r0, r0
 800907c:	2801      	cmp	r0, #1
 800907e:	d10a      	bne.n	8009096 <service_debug+0x28>
 8009080:	ab85      	add	r3, sp, #532	; 0x214
 8009082:	9a84      	ldr	r2, [sp, #528]	; 0x210
 8009084:	9301      	str	r3, [sp, #4]
 8009086:	f44f 7100 	mov.w	r1, #512	; 0x200
 800908a:	a802      	add	r0, sp, #8
 800908c:	f012 f876 	bl	801b17c <tiny_vsnprintf_like>
 8009090:	a802      	add	r0, sp, #8
 8009092:	f00b fc61 	bl	8014958 <udrv_serial_log_printf>
 8009096:	f50d 7d03 	add.w	sp, sp, #524	; 0x20c
 800909a:	f85d eb04 	ldr.w	lr, [sp], #4
 800909e:	b004      	add	sp, #16
 80090a0:	4770      	bx	lr

080090a2 <service_set_debug_level>:
 80090a2:	f00a bc4b 	b.w	801393c <service_nvm_set_debug_level_to_nvm>

080090a6 <service_get_debug_level>:
 80090a6:	b508      	push	{r3, lr}
 80090a8:	f00a fc54 	bl	8013954 <service_nvm_get_debug_level_from_nvm>
 80090ac:	b2c0      	uxtb	r0, r0
 80090ae:	bd08      	pop	{r3, pc}

080090b0 <OnMacMcpsRequest>:
 80090b0:	4770      	bx	lr
	...

080090b4 <AlternateDrUS915Callback>:
 80090b4:	b508      	push	{r3, lr}
 80090b6:	f003 fef8 	bl	800ceaa <service_lora_get_chs>
 80090ba:	4602      	mov	r2, r0
 80090bc:	b158      	cbz	r0, 80090d6 <AlternateDrUS915Callback+0x22>
 80090be:	4b06      	ldr	r3, [pc, #24]	; (80090d8 <AlternateDrUS915Callback+0x24>)
 80090c0:	4906      	ldr	r1, [pc, #24]	; (80090dc <AlternateDrUS915Callback+0x28>)
 80090c2:	2000      	movs	r0, #0
 80090c4:	429a      	cmp	r2, r3
 80090c6:	bf08      	it	eq
 80090c8:	2004      	moveq	r0, #4
 80090ca:	f503 13c3 	add.w	r3, r3, #1597440	; 0x186000
 80090ce:	f503 6320 	add.w	r3, r3, #2560	; 0xa00
 80090d2:	428b      	cmp	r3, r1
 80090d4:	d1f6      	bne.n	80090c4 <AlternateDrUS915Callback+0x10>
 80090d6:	bd08      	pop	{r3, pc}
 80090d8:	35d2afc0 	.word	0x35d2afc0
 80090dc:	3695ffc0 	.word	0x3695ffc0

080090e0 <AlternateDrAU915Callback>:
 80090e0:	b508      	push	{r3, lr}
 80090e2:	f003 fee2 	bl	800ceaa <service_lora_get_chs>
 80090e6:	4602      	mov	r2, r0
 80090e8:	b158      	cbz	r0, 8009102 <AlternateDrAU915Callback+0x22>
 80090ea:	4b06      	ldr	r3, [pc, #24]	; (8009104 <AlternateDrAU915Callback+0x24>)
 80090ec:	4906      	ldr	r1, [pc, #24]	; (8009108 <AlternateDrAU915Callback+0x28>)
 80090ee:	2000      	movs	r0, #0
 80090f0:	429a      	cmp	r2, r3
 80090f2:	bf08      	it	eq
 80090f4:	2006      	moveq	r0, #6
 80090f6:	f503 13c3 	add.w	r3, r3, #1597440	; 0x186000
 80090fa:	f503 6320 	add.w	r3, r3, #2560	; 0xa00
 80090fe:	428b      	cmp	r3, r1
 8009100:	d1f6      	bne.n	80090f0 <AlternateDrAU915Callback+0x10>
 8009102:	bd08      	pop	{r3, pc}
 8009104:	36978660 	.word	0x36978660
 8009108:	375ad660 	.word	0x375ad660

0800910c <IsSingleChannelAU915Callback>:
 800910c:	f003 becd 	b.w	800ceaa <service_lora_get_chs>

08009110 <OnSysTimeUpdate>:
 8009110:	4801      	ldr	r0, [pc, #4]	; (8009118 <OnSysTimeUpdate+0x8>)
 8009112:	f00b bc21 	b.w	8014958 <udrv_serial_log_printf>
 8009116:	bf00      	nop
 8009118:	0802ef40 	.word	0x0802ef40

0800911c <OnMacProcessNotify>:
 800911c:	b508      	push	{r3, lr}
 800911e:	4803      	ldr	r0, [pc, #12]	; (800912c <OnMacProcessNotify+0x10>)
 8009120:	f00b fe0a 	bl	8014d38 <udrv_system_event_produce>
 8009124:	4b02      	ldr	r3, [pc, #8]	; (8009130 <OnMacProcessNotify+0x14>)
 8009126:	2200      	movs	r2, #0
 8009128:	701a      	strb	r2, [r3, #0]
 800912a:	bd08      	pop	{r3, pc}
 800912c:	20000084 	.word	0x20000084
 8009130:	20008142 	.word	0x20008142

08009134 <OnNvmDataChange>:
 8009134:	b530      	push	{r4, r5, lr}
 8009136:	b08b      	sub	sp, #44	; 0x2c
 8009138:	4604      	mov	r4, r0
 800913a:	2334      	movs	r3, #52	; 0x34
 800913c:	4668      	mov	r0, sp
 800913e:	f88d 3000 	strb.w	r3, [sp]
 8009142:	f014 f969 	bl	801d418 <LoRaMacMibGetRequestConfirm>
 8009146:	b314      	cbz	r4, 800918e <OnNvmDataChange+0x5a>
 8009148:	9d01      	ldr	r5, [sp, #4]
 800914a:	f014 f8e7 	bl	801d31c <LoRaMacStop>
 800914e:	b9f0      	cbnz	r0, 800918e <OnNvmDataChange+0x5a>
 8009150:	07e3      	lsls	r3, r4, #31
 8009152:	d502      	bpl.n	800915a <OnNvmDataChange+0x26>
 8009154:	4628      	mov	r0, r5
 8009156:	f00a ff05 	bl	8013f64 <service_nvm_set_crypto_to_nvm>
 800915a:	07a0      	lsls	r0, r4, #30
 800915c:	d503      	bpl.n	8009166 <OnNvmDataChange+0x32>
 800915e:	f105 0038 	add.w	r0, r5, #56	; 0x38
 8009162:	f00a ff17 	bl	8013f94 <service_nvm_set_macgroup1_to_nvm>
 8009166:	0761      	lsls	r1, r4, #29
 8009168:	d503      	bpl.n	8009172 <OnNvmDataChange+0x3e>
 800916a:	f105 0058 	add.w	r0, r5, #88	; 0x58
 800916e:	f00a ff29 	bl	8013fc4 <service_nvm_set_macgroup2_to_nvm>
 8009172:	0722      	lsls	r2, r4, #28
 8009174:	d503      	bpl.n	800917e <OnNvmDataChange+0x4a>
 8009176:	f505 70ee 	add.w	r0, r5, #476	; 0x1dc
 800917a:	f00a ff3d 	bl	8013ff8 <service_nvm_set_sec_element_to_nvm>
 800917e:	06a3      	lsls	r3, r4, #26
 8009180:	d503      	bpl.n	800918a <OnNvmDataChange+0x56>
 8009182:	f505 7064 	add.w	r0, r5, #912	; 0x390
 8009186:	f00a ff51 	bl	801402c <service_nvm_set_regionchannels_to_nvm>
 800918a:	f014 f8bd 	bl	801d308 <LoRaMacStart>
 800918e:	b00b      	add	sp, #44	; 0x2c
 8009190:	bd30      	pop	{r4, r5, pc}

08009192 <service_lora_stop>:
 8009192:	b510      	push	{r4, lr}
 8009194:	f014 f8c2 	bl	801d31c <LoRaMacStop>
 8009198:	2801      	cmp	r0, #1
 800919a:	4604      	mov	r4, r0
 800919c:	d004      	beq.n	80091a8 <service_lora_stop+0x16>
 800919e:	b930      	cbnz	r0, 80091ae <service_lora_stop+0x1c>
 80091a0:	f00b fde4 	bl	8014d6c <udrv_system_timer_stop>
 80091a4:	4620      	mov	r0, r4
 80091a6:	bd10      	pop	{r4, pc}
 80091a8:	f06f 0005 	mvn.w	r0, #5
 80091ac:	e7fb      	b.n	80091a6 <service_lora_stop+0x14>
 80091ae:	f06f 0006 	mvn.w	r0, #6
 80091b2:	e7f8      	b.n	80091a6 <service_lora_stop+0x14>

080091b4 <McpsConfirm>:
 80091b4:	b510      	push	{r4, lr}
 80091b6:	4b13      	ldr	r3, [pc, #76]	; (8009204 <McpsConfirm+0x50>)
 80091b8:	4a13      	ldr	r2, [pc, #76]	; (8009208 <McpsConfirm+0x54>)
 80091ba:	681b      	ldr	r3, [r3, #0]
 80091bc:	4604      	mov	r4, r0
 80091be:	7840      	ldrb	r0, [r0, #1]
 80091c0:	b960      	cbnz	r0, 80091dc <McpsConfirm+0x28>
 80091c2:	7921      	ldrb	r1, [r4, #4]
 80091c4:	7011      	strb	r1, [r2, #0]
 80091c6:	b103      	cbz	r3, 80091ca <McpsConfirm+0x16>
 80091c8:	4798      	blx	r3
 80091ca:	7823      	ldrb	r3, [r4, #0]
 80091cc:	2b01      	cmp	r3, #1
 80091ce:	d117      	bne.n	8009200 <McpsConfirm+0x4c>
 80091d0:	7923      	ldrb	r3, [r4, #4]
 80091d2:	b12b      	cbz	r3, 80091e0 <McpsConfirm+0x2c>
 80091d4:	480d      	ldr	r0, [pc, #52]	; (800920c <McpsConfirm+0x58>)
 80091d6:	f00b fbbf 	bl	8014958 <udrv_serial_log_printf>
 80091da:	e005      	b.n	80091e8 <McpsConfirm+0x34>
 80091dc:	2100      	movs	r1, #0
 80091de:	e7f1      	b.n	80091c4 <McpsConfirm+0x10>
 80091e0:	7861      	ldrb	r1, [r4, #1]
 80091e2:	480b      	ldr	r0, [pc, #44]	; (8009210 <McpsConfirm+0x5c>)
 80091e4:	f00b fbb8 	bl	8014958 <udrv_serial_log_printf>
 80091e8:	2000      	movs	r0, #0
 80091ea:	f002 faf9 	bl	800b7e0 <service_lora_lptp_send_callback>
 80091ee:	7c20      	ldrb	r0, [r4, #16]
 80091f0:	f002 fcfa 	bl	800bbe8 <service_lora_arssi_tx_callback>
 80091f4:	4621      	mov	r1, r4
 80091f6:	2000      	movs	r0, #0
 80091f8:	e8bd 4010 	ldmia.w	sp!, {r4, lr}
 80091fc:	f005 bd5e 	b.w	800ecbc <LmHandlerPackagesNotify>
 8009200:	4804      	ldr	r0, [pc, #16]	; (8009214 <McpsConfirm+0x60>)
 8009202:	e7e8      	b.n	80091d6 <McpsConfirm+0x22>
 8009204:	20002598 	.word	0x20002598
 8009208:	20002467 	.word	0x20002467
 800920c:	0802ef52 	.word	0x0802ef52
 8009210:	0802ef6b 	.word	0x0802ef6b
 8009214:	0802ef8c 	.word	0x0802ef8c

08009218 <OnClassChange>:
 8009218:	2802      	cmp	r0, #2
 800921a:	b513      	push	{r0, r1, r4, lr}
 800921c:	4604      	mov	r4, r0
 800921e:	d005      	beq.n	800922c <OnClassChange+0x14>
 8009220:	4814      	ldr	r0, [pc, #80]	; (8009274 <OnClassChange+0x5c>)
 8009222:	b002      	add	sp, #8
 8009224:	e8bd 4010 	ldmia.w	sp!, {r4, lr}
 8009228:	f00b bb96 	b.w	8014958 <udrv_serial_log_printf>
 800922c:	4812      	ldr	r0, [pc, #72]	; (8009278 <OnClassChange+0x60>)
 800922e:	f00b fb93 	bl	8014958 <udrv_serial_log_printf>
 8009232:	23ff      	movs	r3, #255	; 0xff
 8009234:	f88d 3003 	strb.w	r3, [sp, #3]
 8009238:	f10d 0203 	add.w	r2, sp, #3
 800923c:	f04f 3304 	mov.w	r3, #67372036	; 0x4040404
 8009240:	2101      	movs	r1, #1
 8009242:	480e      	ldr	r0, [pc, #56]	; (800927c <OnClassChange+0x64>)
 8009244:	9301      	str	r3, [sp, #4]
 8009246:	f00b f995 	bl	8014574 <udrv_flash_write>
 800924a:	aa01      	add	r2, sp, #4
 800924c:	2104      	movs	r1, #4
 800924e:	480c      	ldr	r0, [pc, #48]	; (8009280 <OnClassChange+0x68>)
 8009250:	f00b f990 	bl	8014574 <udrv_flash_write>
 8009254:	4620      	mov	r0, r4
 8009256:	f00b fb0b 	bl	8014870 <udrv_serial_deinit>
 800925a:	2001      	movs	r0, #1
 800925c:	f00b fb08 	bl	8014870 <udrv_serial_deinit>
 8009260:	f04f 6300 	mov.w	r3, #134217728	; 0x8000000
 8009264:	685a      	ldr	r2, [r3, #4]
 8009266:	681b      	ldr	r3, [r3, #0]
 8009268:	f383 8808 	msr	MSP, r3
 800926c:	4790      	blx	r2
 800926e:	b002      	add	sp, #8
 8009270:	bd10      	pop	{r4, pc}
 8009272:	bf00      	nop
 8009274:	0802ef9b 	.word	0x0802ef9b
 8009278:	0802efac 	.word	0x0802efac
 800927c:	08004000 	.word	0x08004000
 8009280:	08004004 	.word	0x08004004

08009284 <MlmeIndication>:
 8009284:	b570      	push	{r4, r5, r6, lr}
 8009286:	4604      	mov	r4, r0
 8009288:	4601      	mov	r1, r0
 800928a:	b08a      	sub	sp, #40	; 0x28
 800928c:	2003      	movs	r0, #3
 800928e:	f005 fd15 	bl	800ecbc <LmHandlerPackagesNotify>
 8009292:	7823      	ldrb	r3, [r4, #0]
 8009294:	2b0a      	cmp	r3, #10
 8009296:	d010      	beq.n	80092ba <MlmeIndication+0x36>
 8009298:	2b0e      	cmp	r3, #14
 800929a:	d10c      	bne.n	80092b6 <MlmeIndication+0x32>
 800929c:	483e      	ldr	r0, [pc, #248]	; (8009398 <MlmeIndication+0x114>)
 800929e:	f00b fb5b 	bl	8014958 <udrv_serial_log_printf>
 80092a2:	4a3e      	ldr	r2, [pc, #248]	; (800939c <MlmeIndication+0x118>)
 80092a4:	2300      	movs	r3, #0
 80092a6:	4668      	mov	r0, sp
 80092a8:	7013      	strb	r3, [r2, #0]
 80092aa:	f88d 3000 	strb.w	r3, [sp]
 80092ae:	f88d 3004 	strb.w	r3, [sp, #4]
 80092b2:	f014 f9ff 	bl	801d6b4 <LoRaMacMibSetRequestConfirm>
 80092b6:	b00a      	add	sp, #40	; 0x28
 80092b8:	bd70      	pop	{r4, r5, r6, pc}
 80092ba:	7863      	ldrb	r3, [r4, #1]
 80092bc:	2b0d      	cmp	r3, #13
 80092be:	d164      	bne.n	800938a <MlmeIndication+0x106>
 80092c0:	4837      	ldr	r0, [pc, #220]	; (80093a0 <MlmeIndication+0x11c>)
 80092c2:	f00b fb49 	bl	8014958 <udrv_serial_log_printf>
 80092c6:	4b35      	ldr	r3, [pc, #212]	; (800939c <MlmeIndication+0x118>)
 80092c8:	781a      	ldrb	r2, [r3, #0]
 80092ca:	2a04      	cmp	r2, #4
 80092cc:	d01c      	beq.n	8009308 <MlmeIndication+0x84>
 80092ce:	2602      	movs	r6, #2
 80092d0:	2000      	movs	r0, #0
 80092d2:	701e      	strb	r6, [r3, #0]
 80092d4:	f00b fd4a 	bl	8014d6c <udrv_system_timer_stop>
 80092d8:	2200      	movs	r2, #0
 80092da:	4932      	ldr	r1, [pc, #200]	; (80093a4 <MlmeIndication+0x120>)
 80092dc:	4610      	mov	r0, r2
 80092de:	f00b fd41 	bl	8014d64 <udrv_system_timer_create>
 80092e2:	4605      	mov	r5, r0
 80092e4:	b9b8      	cbnz	r0, 8009316 <MlmeIndication+0x92>
 80092e6:	f00b fd47 	bl	8014d78 <rand1>
 80092ea:	4242      	negs	r2, r0
 80092ec:	f002 021f 	and.w	r2, r2, #31
 80092f0:	f000 001f 	and.w	r0, r0, #31
 80092f4:	f44f 717a 	mov.w	r1, #1000	; 0x3e8
 80092f8:	bf58      	it	pl
 80092fa:	4250      	negpl	r0, r2
 80092fc:	fb00 1101 	mla	r1, r0, r1, r1
 8009300:	4632      	mov	r2, r6
 8009302:	4628      	mov	r0, r5
 8009304:	f00b fd30 	bl	8014d68 <udrv_system_timer_start>
 8009308:	7da3      	ldrb	r3, [r4, #22]
 800930a:	2b03      	cmp	r3, #3
 800930c:	d81f      	bhi.n	800934e <MlmeIndication+0xca>
 800930e:	e8df f003 	tbb	[pc, r3]
 8009312:	240b      	.short	0x240b
 8009314:	2a27      	.short	0x2a27
 8009316:	f240 21de 	movw	r1, #734	; 0x2de
 800931a:	4823      	ldr	r0, [pc, #140]	; (80093a8 <MlmeIndication+0x124>)
 800931c:	f00b fb1c 	bl	8014958 <udrv_serial_log_printf>
 8009320:	2000      	movs	r0, #0
 8009322:	f00b fd23 	bl	8014d6c <udrv_system_timer_stop>
 8009326:	e7ef      	b.n	8009308 <MlmeIndication+0x84>
 8009328:	4a20      	ldr	r2, [pc, #128]	; (80093ac <MlmeIndication+0x128>)
 800932a:	2300      	movs	r3, #0
 800932c:	8013      	strh	r3, [r2, #0]
 800932e:	7e23      	ldrb	r3, [r4, #24]
 8009330:	7e61      	ldrb	r1, [r4, #25]
 8009332:	021b      	lsls	r3, r3, #8
 8009334:	ea43 4301 	orr.w	r3, r3, r1, lsl #16
 8009338:	7de1      	ldrb	r1, [r4, #23]
 800933a:	430b      	orrs	r3, r1
 800933c:	6053      	str	r3, [r2, #4]
 800933e:	7ee3      	ldrb	r3, [r4, #27]
 8009340:	7f21      	ldrb	r1, [r4, #28]
 8009342:	021b      	lsls	r3, r3, #8
 8009344:	ea43 4301 	orr.w	r3, r3, r1, lsl #16
 8009348:	7ea1      	ldrb	r1, [r4, #26]
 800934a:	430b      	orrs	r3, r1
 800934c:	6093      	str	r3, [r2, #8]
 800934e:	e9d4 0101 	ldrd	r0, r1, [r4, #4]
 8009352:	4b17      	ldr	r3, [pc, #92]	; (80093b0 <MlmeIndication+0x12c>)
 8009354:	e883 0003 	stmia.w	r3, {r0, r1}
 8009358:	e7ad      	b.n	80092b6 <MlmeIndication+0x32>
 800935a:	4a14      	ldr	r2, [pc, #80]	; (80093ac <MlmeIndication+0x128>)
 800935c:	2301      	movs	r3, #1
 800935e:	e7e5      	b.n	800932c <MlmeIndication+0xa8>
 8009360:	4a12      	ldr	r2, [pc, #72]	; (80093ac <MlmeIndication+0x128>)
 8009362:	2302      	movs	r3, #2
 8009364:	e7e2      	b.n	800932c <MlmeIndication+0xa8>
 8009366:	7e23      	ldrb	r3, [r4, #24]
 8009368:	7e61      	ldrb	r1, [r4, #25]
 800936a:	4a10      	ldr	r2, [pc, #64]	; (80093ac <MlmeIndication+0x128>)
 800936c:	021b      	lsls	r3, r3, #8
 800936e:	ea43 4301 	orr.w	r3, r3, r1, lsl #16
 8009372:	7de1      	ldrb	r1, [r4, #23]
 8009374:	430b      	orrs	r3, r1
 8009376:	60d3      	str	r3, [r2, #12]
 8009378:	7ee3      	ldrb	r3, [r4, #27]
 800937a:	7f21      	ldrb	r1, [r4, #28]
 800937c:	021b      	lsls	r3, r3, #8
 800937e:	ea43 4301 	orr.w	r3, r3, r1, lsl #16
 8009382:	7ea1      	ldrb	r1, [r4, #26]
 8009384:	430b      	orrs	r3, r1
 8009386:	6113      	str	r3, [r2, #16]
 8009388:	e7e1      	b.n	800934e <MlmeIndication+0xca>
 800938a:	2b0e      	cmp	r3, #14
 800938c:	d1df      	bne.n	800934e <MlmeIndication+0xca>
 800938e:	4809      	ldr	r0, [pc, #36]	; (80093b4 <MlmeIndication+0x130>)
 8009390:	f00b fae2 	bl	8014958 <udrv_serial_log_printf>
 8009394:	e7db      	b.n	800934e <MlmeIndication+0xca>
 8009396:	bf00      	nop
 8009398:	0802efc1 	.word	0x0802efc1
 800939c:	20002360 	.word	0x20002360
 80093a0:	0802efcc 	.word	0x0802efcc
 80093a4:	08009a49 	.word	0x08009a49
 80093a8:	0802efd9 	.word	0x0802efd9
 80093ac:	20002344 	.word	0x20002344
 80093b0:	20002358 	.word	0x20002358
 80093b4:	0802efe9 	.word	0x0802efe9

080093b8 <OnMacMlmeRequest>:
 80093b8:	4770      	bx	lr

080093ba <IsSingleChannelUS915Callback>:
 80093ba:	f003 bd76 	b.w	800ceaa <service_lora_get_chs>

080093be <service_lora_get_mask>:
 80093be:	b57f      	push	{r0, r1, r2, r3, r4, r5, r6, lr}
 80093c0:	4605      	mov	r5, r0
 80093c2:	f003 fd70 	bl	800cea6 <service_lora_get_band>
 80093c6:	1e43      	subs	r3, r0, #1
 80093c8:	b2db      	uxtb	r3, r3
 80093ca:	2b01      	cmp	r3, #1
 80093cc:	4604      	mov	r4, r0
 80093ce:	d903      	bls.n	80093d8 <service_lora_get_mask+0x1a>
 80093d0:	f000 03fd 	and.w	r3, r0, #253	; 0xfd
 80093d4:	2b08      	cmp	r3, #8
 80093d6:	d11d      	bne.n	8009414 <service_lora_get_mask+0x56>
 80093d8:	a801      	add	r0, sp, #4
 80093da:	f00a fad3 	bl	8013984 <service_nvm_get_mask_from_nvm>
 80093de:	2200      	movs	r2, #0
 80093e0:	a901      	add	r1, sp, #4
 80093e2:	4613      	mov	r3, r2
 80093e4:	2001      	movs	r0, #1
 80093e6:	f811 6b01 	ldrb.w	r6, [r1], #1
 80093ea:	b11e      	cbz	r6, 80093f4 <service_lora_get_mask+0x36>
 80093ec:	fa00 f602 	lsl.w	r6, r0, r2
 80093f0:	4333      	orrs	r3, r6
 80093f2:	b29b      	uxth	r3, r3
 80093f4:	3201      	adds	r2, #1
 80093f6:	2a0c      	cmp	r2, #12
 80093f8:	d1f5      	bne.n	80093e6 <service_lora_get_mask+0x28>
 80093fa:	f004 02fd 	and.w	r2, r4, #253	; 0xfd
 80093fe:	2a08      	cmp	r2, #8
 8009400:	d001      	beq.n	8009406 <service_lora_get_mask+0x48>
 8009402:	2c01      	cmp	r4, #1
 8009404:	d102      	bne.n	800940c <service_lora_get_mask+0x4e>
 8009406:	f423 7380 	bic.w	r3, r3, #256	; 0x100
 800940a:	b29b      	uxth	r3, r3
 800940c:	802b      	strh	r3, [r5, #0]
 800940e:	2000      	movs	r0, #0
 8009410:	b004      	add	sp, #16
 8009412:	bd70      	pop	{r4, r5, r6, pc}
 8009414:	f06f 0002 	mvn.w	r0, #2
 8009418:	e7fa      	b.n	8009410 <service_lora_get_mask+0x52>

0800941a <service_lora_set_mask>:
 800941a:	b5f0      	push	{r4, r5, r6, r7, lr}
 800941c:	b08f      	sub	sp, #60	; 0x3c
 800941e:	4606      	mov	r6, r0
 8009420:	460f      	mov	r7, r1
 8009422:	f003 fd40 	bl	800cea6 <service_lora_get_band>
 8009426:	23ff      	movs	r3, #255	; 0xff
 8009428:	f8ad 3000 	strh.w	r3, [sp]
 800942c:	f44f 437f 	mov.w	r3, #65280	; 0xff00
 8009430:	f8ad 3002 	strh.w	r3, [sp, #2]
 8009434:	1e43      	subs	r3, r0, #1
 8009436:	b2db      	uxtb	r3, r3
 8009438:	2400      	movs	r4, #0
 800943a:	2b01      	cmp	r3, #1
 800943c:	e9cd 4401 	strd	r4, r4, [sp, #4]
 8009440:	4605      	mov	r5, r0
 8009442:	9403      	str	r4, [sp, #12]
 8009444:	d903      	bls.n	800944e <service_lora_set_mask+0x34>
 8009446:	f000 03fd 	and.w	r3, r0, #253	; 0xfd
 800944a:	2b08      	cmp	r3, #8
 800944c:	d17e      	bne.n	800954c <service_lora_set_mask+0x132>
 800944e:	f7ff fea0 	bl	8009192 <service_lora_stop>
 8009452:	4604      	mov	r4, r0
 8009454:	2800      	cmp	r0, #0
 8009456:	d16f      	bne.n	8009538 <service_lora_set_mask+0x11e>
 8009458:	8833      	ldrh	r3, [r6, #0]
 800945a:	b923      	cbnz	r3, 8009466 <service_lora_set_mask+0x4c>
 800945c:	2d01      	cmp	r5, #1
 800945e:	d150      	bne.n	8009502 <service_lora_set_mask+0xe8>
 8009460:	f240 13ff 	movw	r3, #511	; 0x1ff
 8009464:	8033      	strh	r3, [r6, #0]
 8009466:	220c      	movs	r2, #12
 8009468:	2100      	movs	r1, #0
 800946a:	a801      	add	r0, sp, #4
 800946c:	f022 fafe 	bl	802ba6c <memset>
 8009470:	8830      	ldrh	r0, [r6, #0]
 8009472:	2200      	movs	r2, #0
 8009474:	fa40 f102 	asr.w	r1, r0, r2
 8009478:	07ce      	lsls	r6, r1, #31
 800947a:	b2d3      	uxtb	r3, r2
 800947c:	d50e      	bpl.n	800949c <service_lora_set_mask+0x82>
 800947e:	ae0e      	add	r6, sp, #56	; 0x38
 8009480:	f003 01fe 	and.w	r1, r3, #254	; 0xfe
 8009484:	f003 0301 	and.w	r3, r3, #1
 8009488:	4431      	add	r1, r6
 800948a:	eb06 0343 	add.w	r3, r6, r3, lsl #1
 800948e:	f831 6c34 	ldrh.w	r6, [r1, #-52]
 8009492:	f833 3c38 	ldrh.w	r3, [r3, #-56]
 8009496:	4333      	orrs	r3, r6
 8009498:	f821 3c34 	strh.w	r3, [r1, #-52]
 800949c:	3201      	adds	r2, #1
 800949e:	2a0c      	cmp	r2, #12
 80094a0:	d1e8      	bne.n	8009474 <service_lora_set_mask+0x5a>
 80094a2:	f005 03fd 	and.w	r3, r5, #253	; 0xfd
 80094a6:	2b08      	cmp	r3, #8
 80094a8:	d001      	beq.n	80094ae <service_lora_set_mask+0x94>
 80094aa:	2d01      	cmp	r5, #1
 80094ac:	d10e      	bne.n	80094cc <service_lora_set_mask+0xb2>
 80094ae:	f8bd 300c 	ldrh.w	r3, [sp, #12]
 80094b2:	2200      	movs	r2, #0
 80094b4:	f403 437f 	and.w	r3, r3, #65280	; 0xff00
 80094b8:	f8ad 300c 	strh.w	r3, [sp, #12]
 80094bc:	4611      	mov	r1, r2
 80094be:	2601      	movs	r6, #1
 80094c0:	b2d5      	uxtb	r5, r2
 80094c2:	2d07      	cmp	r5, #7
 80094c4:	d928      	bls.n	8009518 <service_lora_set_mask+0xfe>
 80094c6:	b109      	cbz	r1, 80094cc <service_lora_set_mask+0xb2>
 80094c8:	f8ad 300c 	strh.w	r3, [sp, #12]
 80094cc:	2323      	movs	r3, #35	; 0x23
 80094ce:	f88d 3010 	strb.w	r3, [sp, #16]
 80094d2:	a804      	add	r0, sp, #16
 80094d4:	ab01      	add	r3, sp, #4
 80094d6:	9305      	str	r3, [sp, #20]
 80094d8:	f014 f8ec 	bl	801d6b4 <LoRaMacMibSetRequestConfirm>
 80094dc:	4605      	mov	r5, r0
 80094de:	b968      	cbnz	r0, 80094fc <service_lora_set_mask+0xe2>
 80094e0:	2324      	movs	r3, #36	; 0x24
 80094e2:	f88d 3010 	strb.w	r3, [sp, #16]
 80094e6:	a804      	add	r0, sp, #16
 80094e8:	ab01      	add	r3, sp, #4
 80094ea:	9305      	str	r3, [sp, #20]
 80094ec:	f014 f8e2 	bl	801d6b4 <LoRaMacMibSetRequestConfirm>
 80094f0:	f00a fdce 	bl	8014090 <service_nvm_get_chs_from_nvm>
 80094f4:	b9d8      	cbnz	r0, 800952e <service_lora_set_mask+0x114>
 80094f6:	f013 ff07 	bl	801d308 <LoRaMacStart>
 80094fa:	b300      	cbz	r0, 800953e <service_lora_set_mask+0x124>
 80094fc:	f06f 0406 	mvn.w	r4, #6
 8009500:	e01a      	b.n	8009538 <service_lora_set_mask+0x11e>
 8009502:	f005 03fd 	and.w	r3, r5, #253	; 0xfd
 8009506:	2b08      	cmp	r3, #8
 8009508:	bf04      	itt	eq
 800950a:	23ff      	moveq	r3, #255	; 0xff
 800950c:	8033      	strheq	r3, [r6, #0]
 800950e:	2d02      	cmp	r5, #2
 8009510:	d1a9      	bne.n	8009466 <service_lora_set_mask+0x4c>
 8009512:	f640 73ff 	movw	r3, #4095	; 0xfff
 8009516:	e7a5      	b.n	8009464 <service_lora_set_mask+0x4a>
 8009518:	fa40 f502 	asr.w	r5, r0, r2
 800951c:	07ed      	lsls	r5, r5, #31
 800951e:	bf41      	itttt	mi
 8009520:	fa06 f102 	lslmi.w	r1, r6, r2
 8009524:	430b      	orrmi	r3, r1
 8009526:	b29b      	uxthmi	r3, r3
 8009528:	2101      	movmi	r1, #1
 800952a:	3201      	adds	r2, #1
 800952c:	e7c8      	b.n	80094c0 <service_lora_set_mask+0xa6>
 800952e:	4628      	mov	r0, r5
 8009530:	f00a fdb4 	bl	801409c <service_nvm_set_chs_to_nvm>
 8009534:	2800      	cmp	r0, #0
 8009536:	d0de      	beq.n	80094f6 <service_lora_set_mask+0xdc>
 8009538:	4620      	mov	r0, r4
 800953a:	b00f      	add	sp, #60	; 0x3c
 800953c:	bdf0      	pop	{r4, r5, r6, r7, pc}
 800953e:	2f00      	cmp	r7, #0
 8009540:	d0fa      	beq.n	8009538 <service_lora_set_mask+0x11e>
 8009542:	a801      	add	r0, sp, #4
 8009544:	f00a fa28 	bl	8013998 <service_nvm_set_mask_to_nvm>
 8009548:	4604      	mov	r4, r0
 800954a:	e7f5      	b.n	8009538 <service_lora_set_mask+0x11e>
 800954c:	f06f 0402 	mvn.w	r4, #2
 8009550:	e7f2      	b.n	8009538 <service_lora_set_mask+0x11e>
	...

08009554 <service_lora_join>:
 8009554:	e92d 43f0 	stmdb	sp!, {r4, r5, r6, r7, r8, r9, lr}
 8009558:	b095      	sub	sp, #84	; 0x54
 800955a:	4604      	mov	r4, r0
 800955c:	460d      	mov	r5, r1
 800955e:	4690      	mov	r8, r2
 8009560:	461f      	mov	r7, r3
 8009562:	f003 faf2 	bl	800cb4a <service_lora_get_njm>
 8009566:	1c61      	adds	r1, r4, #1
 8009568:	4606      	mov	r6, r0
 800956a:	d129      	bne.n	80095c0 <service_lora_join+0x6c>
 800956c:	1c6a      	adds	r2, r5, #1
 800956e:	d00a      	beq.n	8009586 <service_lora_join+0x32>
 8009570:	3d00      	subs	r5, #0
 8009572:	bf18      	it	ne
 8009574:	2501      	movne	r5, #1
 8009576:	f003 fc74 	bl	800ce62 <service_lora_get_auto_join>
 800957a:	4285      	cmp	r5, r0
 800957c:	d003      	beq.n	8009586 <service_lora_join+0x32>
 800957e:	4628      	mov	r0, r5
 8009580:	f003 fc71 	bl	800ce66 <service_lora_set_auto_join>
 8009584:	bb50      	cbnz	r0, 80095dc <service_lora_join+0x88>
 8009586:	f1b8 3fff 	cmp.w	r8, #4294967295	; 0xffffffff
 800958a:	d007      	beq.n	800959c <service_lora_join+0x48>
 800958c:	f003 fc6d 	bl	800ce6a <service_lora_get_auto_join_period>
 8009590:	4540      	cmp	r0, r8
 8009592:	d003      	beq.n	800959c <service_lora_join+0x48>
 8009594:	4640      	mov	r0, r8
 8009596:	f003 fc6a 	bl	800ce6e <service_lora_set_auto_join_period>
 800959a:	b9f8      	cbnz	r0, 80095dc <service_lora_join+0x88>
 800959c:	1c7b      	adds	r3, r7, #1
 800959e:	d007      	beq.n	80095b0 <service_lora_join+0x5c>
 80095a0:	f003 fc67 	bl	800ce72 <service_lora_get_auto_join_max_cnt>
 80095a4:	42b8      	cmp	r0, r7
 80095a6:	d003      	beq.n	80095b0 <service_lora_join+0x5c>
 80095a8:	4638      	mov	r0, r7
 80095aa:	f003 fc64 	bl	800ce76 <service_lora_set_auto_join_max_cnt>
 80095ae:	b9a8      	cbnz	r0, 80095dc <service_lora_join+0x88>
 80095b0:	b9bc      	cbnz	r4, 80095e2 <service_lora_join+0x8e>
 80095b2:	4620      	mov	r0, r4
 80095b4:	f00b fbda 	bl	8014d6c <udrv_system_timer_stop>
 80095b8:	4b75      	ldr	r3, [pc, #468]	; (8009790 <service_lora_join+0x23c>)
 80095ba:	601c      	str	r4, [r3, #0]
 80095bc:	2000      	movs	r0, #0
 80095be:	e00d      	b.n	80095dc <service_lora_join+0x88>
 80095c0:	f1b4 0900 	subs.w	r9, r4, #0
 80095c4:	bf18      	it	ne
 80095c6:	f04f 0901 	movne.w	r9, #1
 80095ca:	f003 fc46 	bl	800ce5a <service_lora_get_join_start>
 80095ce:	4581      	cmp	r9, r0
 80095d0:	d0cc      	beq.n	800956c <service_lora_join+0x18>
 80095d2:	4648      	mov	r0, r9
 80095d4:	f003 fc43 	bl	800ce5e <service_lora_set_join_start>
 80095d8:	2800      	cmp	r0, #0
 80095da:	d0c7      	beq.n	800956c <service_lora_join+0x18>
 80095dc:	b015      	add	sp, #84	; 0x54
 80095de:	e8bd 83f0 	ldmia.w	sp!, {r4, r5, r6, r7, r8, r9, pc}
 80095e2:	f003 fc60 	bl	800cea6 <service_lora_get_band>
 80095e6:	f003 fc72 	bl	800cece <service_lora_region_isActive>
 80095ea:	2800      	cmp	r0, #0
 80095ec:	f000 80cc 	beq.w	8009788 <service_lora_join+0x234>
 80095f0:	2e01      	cmp	r6, #1
 80095f2:	f040 8096 	bne.w	8009722 <service_lora_join+0x1ce>
 80095f6:	f88d 6000 	strb.w	r6, [sp]
 80095fa:	f00a fb4b 	bl	8013c94 <service_nvm_get_dr_from_nvm>
 80095fe:	2302      	movs	r3, #2
 8009600:	f88d 0005 	strb.w	r0, [sp, #5]
 8009604:	4668      	mov	r0, sp
 8009606:	f88d 3004 	strb.w	r3, [sp, #4]
 800960a:	f014 fcff 	bl	801e00c <LoRaMacMlmeRequest>
 800960e:	4b61      	ldr	r3, [pc, #388]	; (8009794 <service_lora_join+0x240>)
 8009610:	9a04      	ldr	r2, [sp, #16]
 8009612:	601a      	str	r2, [r3, #0]
 8009614:	4604      	mov	r4, r0
 8009616:	2800      	cmp	r0, #0
 8009618:	d154      	bne.n	80096c4 <service_lora_join+0x170>
 800961a:	f003 fb71 	bl	800cd00 <service_lora_get_class>
 800961e:	2801      	cmp	r0, #1
 8009620:	bf08      	it	eq
 8009622:	4b5d      	ldreq	r3, [pc, #372]	; (8009798 <service_lora_join+0x244>)
 8009624:	a80a      	add	r0, sp, #40	; 0x28
 8009626:	bf08      	it	eq
 8009628:	701c      	strbeq	r4, [r3, #0]
 800962a:	2334      	movs	r3, #52	; 0x34
 800962c:	f88d 3028 	strb.w	r3, [sp, #40]	; 0x28
 8009630:	f013 fef2 	bl	801d418 <LoRaMacMibGetRequestConfirm>
 8009634:	9b0b      	ldr	r3, [sp, #44]	; 0x2c
 8009636:	8898      	ldrh	r0, [r3, #4]
 8009638:	f003 fc2d 	bl	800ce96 <service_lora_set_DevNonce>
 800963c:	f7ff fd33 	bl	80090a6 <service_get_debug_level>
 8009640:	2800      	cmp	r0, #0
 8009642:	d0cb      	beq.n	80095dc <service_lora_join+0x88>
 8009644:	2334      	movs	r3, #52	; 0x34
 8009646:	a80a      	add	r0, sp, #40	; 0x28
 8009648:	f88d 3028 	strb.w	r3, [sp, #40]	; 0x28
 800964c:	f013 fee4 	bl	801d418 <LoRaMacMibGetRequestConfirm>
 8009650:	a80a      	add	r0, sp, #40	; 0x28
 8009652:	f013 fee1 	bl	801d418 <LoRaMacMibGetRequestConfirm>
 8009656:	2800      	cmp	r0, #0
 8009658:	d1b0      	bne.n	80095bc <service_lora_join+0x68>
 800965a:	4d50      	ldr	r5, [pc, #320]	; (800979c <service_lora_join+0x248>)
 800965c:	9b0b      	ldr	r3, [sp, #44]	; 0x2c
 800965e:	782a      	ldrb	r2, [r5, #0]
 8009660:	f893 4058 	ldrb.w	r4, [r3, #88]	; 0x58
 8009664:	484e      	ldr	r0, [pc, #312]	; (80097a0 <service_lora_join+0x24c>)
 8009666:	260c      	movs	r6, #12
 8009668:	fb06 3302 	mla	r3, r6, r2, r3
 800966c:	f8d3 1390 	ldr.w	r1, [r3, #912]	; 0x390
 8009670:	f00b f972 	bl	8014958 <udrv_serial_log_printf>
 8009674:	2c01      	cmp	r4, #1
 8009676:	9a0b      	ldr	r2, [sp, #44]	; 0x2c
 8009678:	d001      	beq.n	800967e <service_lora_join+0x12a>
 800967a:	2c08      	cmp	r4, #8
 800967c:	d16e      	bne.n	800975c <service_lora_join+0x208>
 800967e:	782b      	ldrb	r3, [r5, #0]
 8009680:	f8d2 20c4 	ldr.w	r2, [r2, #196]	; 0xc4
 8009684:	4947      	ldr	r1, [pc, #284]	; (80097a4 <service_lora_join+0x250>)
 8009686:	f003 0307 	and.w	r3, r3, #7
 800968a:	fb01 2103 	mla	r1, r1, r3, r2
 800968e:	4846      	ldr	r0, [pc, #280]	; (80097a8 <service_lora_join+0x254>)
 8009690:	f00b f962 	bl	8014958 <udrv_serial_log_printf>
 8009694:	9b0b      	ldr	r3, [sp, #44]	; 0x2c
 8009696:	4845      	ldr	r0, [pc, #276]	; (80097ac <service_lora_join+0x258>)
 8009698:	f8d3 10c4 	ldr.w	r1, [r3, #196]	; 0xc4
 800969c:	f00b f95c 	bl	8014958 <udrv_serial_log_printf>
 80096a0:	9b0b      	ldr	r3, [sp, #44]	; 0x2c
 80096a2:	4843      	ldr	r0, [pc, #268]	; (80097b0 <service_lora_join+0x25c>)
 80096a4:	f993 1049 	ldrsb.w	r1, [r3, #73]	; 0x49
 80096a8:	f00b f956 	bl	8014958 <udrv_serial_log_printf>
 80096ac:	9b0b      	ldr	r3, [sp, #44]	; 0x2c
 80096ae:	4841      	ldr	r0, [pc, #260]	; (80097b4 <service_lora_join+0x260>)
 80096b0:	f993 1048 	ldrsb.w	r1, [r3, #72]	; 0x48
 80096b4:	f00b f950 	bl	8014958 <udrv_serial_log_printf>
 80096b8:	9b0b      	ldr	r3, [sp, #44]	; 0x2c
 80096ba:	483f      	ldr	r0, [pc, #252]	; (80097b8 <service_lora_join+0x264>)
 80096bc:	68d9      	ldr	r1, [r3, #12]
 80096be:	f00b f94b 	bl	8014958 <udrv_serial_log_printf>
 80096c2:	e77b      	b.n	80095bc <service_lora_join+0x68>
 80096c4:	2801      	cmp	r0, #1
 80096c6:	d012      	beq.n	80096ee <service_lora_join+0x19a>
 80096c8:	280b      	cmp	r0, #11
 80096ca:	d12b      	bne.n	8009724 <service_lora_join+0x1d0>
 80096cc:	4d30      	ldr	r5, [pc, #192]	; (8009790 <service_lora_join+0x23c>)
 80096ce:	2000      	movs	r0, #0
 80096d0:	f00b fb4c 	bl	8014d6c <udrv_system_timer_stop>
 80096d4:	682c      	ldr	r4, [r5, #0]
 80096d6:	3401      	adds	r4, #1
 80096d8:	602c      	str	r4, [r5, #0]
 80096da:	f003 fbca 	bl	800ce72 <service_lora_get_auto_join_max_cnt>
 80096de:	4284      	cmp	r4, r0
 80096e0:	d908      	bls.n	80096f4 <service_lora_join+0x1a0>
 80096e2:	2300      	movs	r3, #0
 80096e4:	602b      	str	r3, [r5, #0]
 80096e6:	9904      	ldr	r1, [sp, #16]
 80096e8:	4834      	ldr	r0, [pc, #208]	; (80097bc <service_lora_join+0x268>)
 80096ea:	f00b f935 	bl	8014958 <udrv_serial_log_printf>
 80096ee:	f06f 0005 	mvn.w	r0, #5
 80096f2:	e773      	b.n	80095dc <service_lora_join+0x88>
 80096f4:	2200      	movs	r2, #0
 80096f6:	4932      	ldr	r1, [pc, #200]	; (80097c0 <service_lora_join+0x26c>)
 80096f8:	4610      	mov	r0, r2
 80096fa:	f00b fb33 	bl	8014d64 <udrv_system_timer_create>
 80096fe:	4604      	mov	r4, r0
 8009700:	b948      	cbnz	r0, 8009716 <service_lora_join+0x1c2>
 8009702:	f003 fbb2 	bl	800ce6a <service_lora_get_auto_join_period>
 8009706:	f44f 717a 	mov.w	r1, #1000	; 0x3e8
 800970a:	4341      	muls	r1, r0
 800970c:	4622      	mov	r2, r4
 800970e:	4620      	mov	r0, r4
 8009710:	f00b fb2a 	bl	8014d68 <udrv_system_timer_start>
 8009714:	e7e7      	b.n	80096e6 <service_lora_join+0x192>
 8009716:	f240 615e 	movw	r1, #1630	; 0x65e
 800971a:	482a      	ldr	r0, [pc, #168]	; (80097c4 <service_lora_join+0x270>)
 800971c:	f00b f91c 	bl	8014958 <udrv_serial_log_printf>
 8009720:	e7e1      	b.n	80096e6 <service_lora_join+0x192>
 8009722:	b116      	cbz	r6, 800972a <service_lora_join+0x1d6>
 8009724:	f06f 0006 	mvn.w	r0, #6
 8009728:	e758      	b.n	80095dc <service_lora_join+0x88>
 800972a:	2301      	movs	r3, #1
 800972c:	4668      	mov	r0, sp
 800972e:	f88d 3000 	strb.w	r3, [sp]
 8009732:	f88d 3004 	strb.w	r3, [sp, #4]
 8009736:	f013 ffbd 	bl	801d6b4 <LoRaMacMibSetRequestConfirm>
 800973a:	2800      	cmp	r0, #0
 800973c:	d1f2      	bne.n	8009724 <service_lora_join+0x1d0>
 800973e:	f003 fadf 	bl	800cd00 <service_lora_get_class>
 8009742:	2802      	cmp	r0, #2
 8009744:	d107      	bne.n	8009756 <service_lora_join+0x202>
 8009746:	f88d 0004 	strb.w	r0, [sp, #4]
 800974a:	4668      	mov	r0, sp
 800974c:	f88d 6000 	strb.w	r6, [sp]
 8009750:	f013 ffb0 	bl	801d6b4 <LoRaMacMibSetRequestConfirm>
 8009754:	e772      	b.n	800963c <service_lora_join+0xe8>
 8009756:	f003 fad3 	bl	800cd00 <service_lora_get_class>
 800975a:	e76f      	b.n	800963c <service_lora_join+0xe8>
 800975c:	2c02      	cmp	r4, #2
 800975e:	7829      	ldrb	r1, [r5, #0]
 8009760:	d109      	bne.n	8009776 <service_lora_join+0x222>
 8009762:	2330      	movs	r3, #48	; 0x30
 8009764:	fbb1 f0f3 	udiv	r0, r1, r3
 8009768:	fb03 1110 	mls	r1, r3, r0, r1
 800976c:	b2cb      	uxtb	r3, r1
 800976e:	f8d2 20c4 	ldr.w	r2, [r2, #196]	; 0xc4
 8009772:	4915      	ldr	r1, [pc, #84]	; (80097c8 <service_lora_join+0x274>)
 8009774:	e789      	b.n	800968a <service_lora_join+0x136>
 8009776:	fb06 2201 	mla	r2, r6, r1, r2
 800977a:	f8d2 1394 	ldr.w	r1, [r2, #916]	; 0x394
 800977e:	2900      	cmp	r1, #0
 8009780:	d185      	bne.n	800968e <service_lora_join+0x13a>
 8009782:	f8d2 1390 	ldr.w	r1, [r2, #912]	; 0x390
 8009786:	e782      	b.n	800968e <service_lora_join+0x13a>
 8009788:	f06f 0010 	mvn.w	r0, #16
 800978c:	e726      	b.n	80095dc <service_lora_join+0x88>
 800978e:	bf00      	nop
 8009790:	20002340 	.word	0x20002340
 8009794:	200022e4 	.word	0x200022e4
 8009798:	20002360 	.word	0x20002360
 800979c:	20003068 	.word	0x20003068
 80097a0:	0802f027 	.word	0x0802f027
 80097a4:	000927c0 	.word	0x000927c0
 80097a8:	0802f024 	.word	0x0802f024
 80097ac:	0802f036 	.word	0x0802f036
 80097b0:	0802f048 	.word	0x0802f048
 80097b4:	0802f05e 	.word	0x0802f05e
 80097b8:	0802f073 	.word	0x0802f073
 80097bc:	0802f00c 	.word	0x0802f00c
 80097c0:	080097cd 	.word	0x080097cd
 80097c4:	0802eff6 	.word	0x0802eff6
 80097c8:	00030d40 	.word	0x00030d40

080097cc <service_lora_auto_join>:
 80097cc:	f04f 33ff 	mov.w	r3, #4294967295	; 0xffffffff
 80097d0:	461a      	mov	r2, r3
 80097d2:	4619      	mov	r1, r3
 80097d4:	2001      	movs	r0, #1
 80097d6:	f7ff bebd 	b.w	8009554 <service_lora_join>
	...

080097dc <service_lora_send>:
 80097dc:	e92d 41f0 	stmdb	sp!, {r4, r5, r6, r7, r8, lr}
 80097e0:	b09a      	sub	sp, #104	; 0x68
 80097e2:	460d      	mov	r5, r1
 80097e4:	a902      	add	r1, sp, #8
 80097e6:	e881 000c 	stmia.w	r1, {r2, r3}
 80097ea:	4680      	mov	r8, r0
 80097ec:	f00a fa52 	bl	8013c94 <service_nvm_get_dr_from_nvm>
 80097f0:	4607      	mov	r7, r0
 80097f2:	f003 f9ac 	bl	800cb4e <service_lora_get_njs>
 80097f6:	4606      	mov	r6, r0
 80097f8:	2800      	cmp	r0, #0
 80097fa:	f000 80ff 	beq.w	80099fc <service_lora_send+0x220>
 80097fe:	f012 ffbf 	bl	801c780 <LoRaMacIsBusy>
 8009802:	4604      	mov	r4, r0
 8009804:	b110      	cbz	r0, 800980c <service_lora_send+0x30>
 8009806:	f06f 0005 	mvn.w	r0, #5
 800980a:	e096      	b.n	800993a <service_lora_send+0x15e>
 800980c:	f003 fa78 	bl	800cd00 <service_lora_get_class>
 8009810:	2802      	cmp	r0, #2
 8009812:	f040 8095 	bne.w	8009940 <service_lora_send+0x164>
 8009816:	f88d 0044 	strb.w	r0, [sp, #68]	; 0x44
 800981a:	a810      	add	r0, sp, #64	; 0x40
 800981c:	f88d 4040 	strb.w	r4, [sp, #64]	; 0x40
 8009820:	f013 ff48 	bl	801d6b4 <LoRaMacMibSetRequestConfirm>
 8009824:	f88d 7026 	strb.w	r7, [sp, #38]	; 0x26
 8009828:	f00a fad6 	bl	8013dd8 <service_nvm_get_linkcheck_from_nvm>
 800982c:	b160      	cbz	r0, 8009848 <service_lora_send+0x6c>
 800982e:	f00a fad3 	bl	8013dd8 <service_nvm_get_linkcheck_from_nvm>
 8009832:	2801      	cmp	r0, #1
 8009834:	d102      	bne.n	800983c <service_lora_send+0x60>
 8009836:	2000      	movs	r0, #0
 8009838:	f003 fb08 	bl	800ce4c <service_lora_set_linkcheck>
 800983c:	2305      	movs	r3, #5
 800983e:	a810      	add	r0, sp, #64	; 0x40
 8009840:	f88d 3040 	strb.w	r3, [sp, #64]	; 0x40
 8009844:	f014 fbe2 	bl	801e00c <LoRaMacMlmeRequest>
 8009848:	4b6f      	ldr	r3, [pc, #444]	; (8009a08 <service_lora_send+0x22c>)
 800984a:	781b      	ldrb	r3, [r3, #0]
 800984c:	2b01      	cmp	r3, #1
 800984e:	d105      	bne.n	800985c <service_lora_send+0x80>
 8009850:	2309      	movs	r3, #9
 8009852:	a810      	add	r0, sp, #64	; 0x40
 8009854:	f88d 3040 	strb.w	r3, [sp, #64]	; 0x40
 8009858:	f014 fbd8 	bl	801e00c <LoRaMacMlmeRequest>
 800985c:	a905      	add	r1, sp, #20
 800985e:	b2e8      	uxtb	r0, r5
 8009860:	f013 fd7a 	bl	801d358 <LoRaMacQueryTxPossible>
 8009864:	4607      	mov	r7, r0
 8009866:	f7ff fc1e 	bl	80090a6 <service_get_debug_level>
 800986a:	b160      	cbz	r0, 8009886 <service_lora_send+0xaa>
 800986c:	f89d 3014 	ldrb.w	r3, [sp, #20]
 8009870:	f89d 2015 	ldrb.w	r2, [sp, #21]
 8009874:	4965      	ldr	r1, [pc, #404]	; (8009a0c <service_lora_send+0x230>)
 8009876:	4866      	ldr	r0, [pc, #408]	; (8009a10 <service_lora_send+0x234>)
 8009878:	f851 1027 	ldr.w	r1, [r1, r7, lsl #2]
 800987c:	1ad2      	subs	r2, r2, r3
 800987e:	9200      	str	r2, [sp, #0]
 8009880:	462a      	mov	r2, r5
 8009882:	f00b f869 	bl	8014958 <udrv_serial_log_printf>
 8009886:	2f00      	cmp	r7, #0
 8009888:	d079      	beq.n	800997e <service_lora_send+0x1a2>
 800988a:	2300      	movs	r3, #0
 800988c:	f88d 3018 	strb.w	r3, [sp, #24]
 8009890:	9308      	str	r3, [sp, #32]
 8009892:	f8ad 3024 	strh.w	r3, [sp, #36]	; 0x24
 8009896:	a806      	add	r0, sp, #24
 8009898:	f015 fa8c 	bl	801edb4 <LoRaMacMcpsRequest>
 800989c:	4b5d      	ldr	r3, [pc, #372]	; (8009a14 <service_lora_send+0x238>)
 800989e:	9a0a      	ldr	r2, [sp, #40]	; 0x28
 80098a0:	601a      	str	r2, [r3, #0]
 80098a2:	4605      	mov	r5, r0
 80098a4:	f7ff fbff 	bl	80090a6 <service_get_debug_level>
 80098a8:	2800      	cmp	r0, #0
 80098aa:	d03f      	beq.n	800992c <service_lora_send+0x150>
 80098ac:	2334      	movs	r3, #52	; 0x34
 80098ae:	a810      	add	r0, sp, #64	; 0x40
 80098b0:	f88d 3040 	strb.w	r3, [sp, #64]	; 0x40
 80098b4:	f013 fdb0 	bl	801d418 <LoRaMacMibGetRequestConfirm>
 80098b8:	a810      	add	r0, sp, #64	; 0x40
 80098ba:	f013 fdad 	bl	801d418 <LoRaMacMibGetRequestConfirm>
 80098be:	2800      	cmp	r0, #0
 80098c0:	d134      	bne.n	800992c <service_lora_send+0x150>
 80098c2:	4f55      	ldr	r7, [pc, #340]	; (8009a18 <service_lora_send+0x23c>)
 80098c4:	9b11      	ldr	r3, [sp, #68]	; 0x44
 80098c6:	783a      	ldrb	r2, [r7, #0]
 80098c8:	f893 6058 	ldrb.w	r6, [r3, #88]	; 0x58
 80098cc:	4853      	ldr	r0, [pc, #332]	; (8009a1c <service_lora_send+0x240>)
 80098ce:	f04f 080c 	mov.w	r8, #12
 80098d2:	fb08 3302 	mla	r3, r8, r2, r3
 80098d6:	f8d3 1390 	ldr.w	r1, [r3, #912]	; 0x390
 80098da:	f00b f83d 	bl	8014958 <udrv_serial_log_printf>
 80098de:	2e01      	cmp	r6, #1
 80098e0:	9a11      	ldr	r2, [sp, #68]	; 0x44
 80098e2:	d001      	beq.n	80098e8 <service_lora_send+0x10c>
 80098e4:	2e08      	cmp	r6, #8
 80098e6:	d166      	bne.n	80099b6 <service_lora_send+0x1da>
 80098e8:	783b      	ldrb	r3, [r7, #0]
 80098ea:	f8d2 20c4 	ldr.w	r2, [r2, #196]	; 0xc4
 80098ee:	494c      	ldr	r1, [pc, #304]	; (8009a20 <service_lora_send+0x244>)
 80098f0:	f003 0307 	and.w	r3, r3, #7
 80098f4:	fb01 2103 	mla	r1, r1, r3, r2
 80098f8:	484a      	ldr	r0, [pc, #296]	; (8009a24 <service_lora_send+0x248>)
 80098fa:	f00b f82d 	bl	8014958 <udrv_serial_log_printf>
 80098fe:	9b11      	ldr	r3, [sp, #68]	; 0x44
 8009900:	4849      	ldr	r0, [pc, #292]	; (8009a28 <service_lora_send+0x24c>)
 8009902:	f8d3 10c4 	ldr.w	r1, [r3, #196]	; 0xc4
 8009906:	f00b f827 	bl	8014958 <udrv_serial_log_printf>
 800990a:	9b11      	ldr	r3, [sp, #68]	; 0x44
 800990c:	4847      	ldr	r0, [pc, #284]	; (8009a2c <service_lora_send+0x250>)
 800990e:	f993 1049 	ldrsb.w	r1, [r3, #73]	; 0x49
 8009912:	f00b f821 	bl	8014958 <udrv_serial_log_printf>
 8009916:	9b11      	ldr	r3, [sp, #68]	; 0x44
 8009918:	4845      	ldr	r0, [pc, #276]	; (8009a30 <service_lora_send+0x254>)
 800991a:	f993 1048 	ldrsb.w	r1, [r3, #72]	; 0x48
 800991e:	f00b f81b 	bl	8014958 <udrv_serial_log_printf>
 8009922:	9b11      	ldr	r3, [sp, #68]	; 0x44
 8009924:	4843      	ldr	r0, [pc, #268]	; (8009a34 <service_lora_send+0x258>)
 8009926:	68d9      	ldr	r1, [r3, #12]
 8009928:	f00b f816 	bl	8014958 <udrv_serial_log_printf>
 800992c:	2d00      	cmp	r5, #0
 800992e:	d158      	bne.n	80099e2 <service_lora_send+0x206>
 8009930:	2c00      	cmp	r4, #0
 8009932:	bf0c      	ite	eq
 8009934:	f06f 0002 	mvneq.w	r0, #2
 8009938:	2000      	movne	r0, #0
 800993a:	b01a      	add	sp, #104	; 0x68
 800993c:	e8bd 81f0 	ldmia.w	sp!, {r4, r5, r6, r7, r8, pc}
 8009940:	f003 f9de 	bl	800cd00 <service_lora_get_class>
 8009944:	2801      	cmp	r0, #1
 8009946:	f47f af6d 	bne.w	8009824 <service_lora_send+0x48>
 800994a:	4b3b      	ldr	r3, [pc, #236]	; (8009a38 <service_lora_send+0x25c>)
 800994c:	781b      	ldrb	r3, [r3, #0]
 800994e:	b17b      	cbz	r3, 8009970 <service_lora_send+0x194>
 8009950:	2b02      	cmp	r3, #2
 8009952:	f47f af67 	bne.w	8009824 <service_lora_send+0x48>
 8009956:	4620      	mov	r0, r4
 8009958:	f00b fa08 	bl	8014d6c <udrv_system_timer_stop>
 800995c:	230c      	movs	r3, #12
 800995e:	f88d 302c 	strb.w	r3, [sp, #44]	; 0x2c
 8009962:	f003 fa13 	bl	800cd8c <service_lora_get_ping_slot_periodicity>
 8009966:	f000 0007 	and.w	r0, r0, #7
 800996a:	f88d 0030 	strb.w	r0, [sp, #48]	; 0x30
 800996e:	e002      	b.n	8009976 <service_lora_send+0x19a>
 8009970:	2309      	movs	r3, #9
 8009972:	f88d 302c 	strb.w	r3, [sp, #44]	; 0x2c
 8009976:	a80b      	add	r0, sp, #44	; 0x2c
 8009978:	f014 fb48 	bl	801e00c <LoRaMacMlmeRequest>
 800997c:	e752      	b.n	8009824 <service_lora_send+0x48>
 800997e:	f89d 3008 	ldrb.w	r3, [sp, #8]
 8009982:	f88d 301c 	strb.w	r3, [sp, #28]
 8009986:	f89d 300b 	ldrb.w	r3, [sp, #11]
 800998a:	f8ad 5024 	strh.w	r5, [sp, #36]	; 0x24
 800998e:	f8cd 8020 	str.w	r8, [sp, #32]
 8009992:	b153      	cbz	r3, 80099aa <service_lora_send+0x1ce>
 8009994:	f89d 300c 	ldrb.w	r3, [sp, #12]
 8009998:	b95b      	cbnz	r3, 80099b2 <service_lora_send+0x1d6>
 800999a:	2300      	movs	r3, #0
 800999c:	f88d 3018 	strb.w	r3, [sp, #24]
 80099a0:	4b26      	ldr	r3, [pc, #152]	; (8009a3c <service_lora_send+0x260>)
 80099a2:	2200      	movs	r2, #0
 80099a4:	701a      	strb	r2, [r3, #0]
 80099a6:	4634      	mov	r4, r6
 80099a8:	e775      	b.n	8009896 <service_lora_send+0xba>
 80099aa:	f003 f945 	bl	800cc38 <service_lora_get_cfm>
 80099ae:	2800      	cmp	r0, #0
 80099b0:	d0f3      	beq.n	800999a <service_lora_send+0x1be>
 80099b2:	2301      	movs	r3, #1
 80099b4:	e7f2      	b.n	800999c <service_lora_send+0x1c0>
 80099b6:	2e02      	cmp	r6, #2
 80099b8:	7839      	ldrb	r1, [r7, #0]
 80099ba:	d109      	bne.n	80099d0 <service_lora_send+0x1f4>
 80099bc:	2330      	movs	r3, #48	; 0x30
 80099be:	fbb1 f0f3 	udiv	r0, r1, r3
 80099c2:	fb03 1110 	mls	r1, r3, r0, r1
 80099c6:	b2cb      	uxtb	r3, r1
 80099c8:	f8d2 20c4 	ldr.w	r2, [r2, #196]	; 0xc4
 80099cc:	491c      	ldr	r1, [pc, #112]	; (8009a40 <service_lora_send+0x264>)
 80099ce:	e791      	b.n	80098f4 <service_lora_send+0x118>
 80099d0:	fb08 2201 	mla	r2, r8, r1, r2
 80099d4:	f8d2 1394 	ldr.w	r1, [r2, #916]	; 0x394
 80099d8:	2900      	cmp	r1, #0
 80099da:	d18d      	bne.n	80098f8 <service_lora_send+0x11c>
 80099dc:	f8d2 1390 	ldr.w	r1, [r2, #912]	; 0x390
 80099e0:	e78a      	b.n	80098f8 <service_lora_send+0x11c>
 80099e2:	f1a5 030e 	sub.w	r3, r5, #14
 80099e6:	b2db      	uxtb	r3, r3
 80099e8:	2b01      	cmp	r3, #1
 80099ea:	f67f af0c 	bls.w	8009806 <service_lora_send+0x2a>
 80099ee:	2d0b      	cmp	r5, #11
 80099f0:	d107      	bne.n	8009a02 <service_lora_send+0x226>
 80099f2:	990a      	ldr	r1, [sp, #40]	; 0x28
 80099f4:	4813      	ldr	r0, [pc, #76]	; (8009a44 <service_lora_send+0x268>)
 80099f6:	f00a ffaf 	bl	8014958 <udrv_serial_log_printf>
 80099fa:	e704      	b.n	8009806 <service_lora_send+0x2a>
 80099fc:	f06f 000b 	mvn.w	r0, #11
 8009a00:	e79b      	b.n	800993a <service_lora_send+0x15e>
 8009a02:	f06f 0006 	mvn.w	r0, #6
 8009a06:	e798      	b.n	800993a <service_lora_send+0x15e>
 8009a08:	200025a1 	.word	0x200025a1
 8009a0c:	0802f48c 	.word	0x0802f48c
 8009a10:	0802f07f 	.word	0x0802f07f
 8009a14:	200022e4 	.word	0x200022e4
 8009a18:	20003068 	.word	0x20003068
 8009a1c:	0802f027 	.word	0x0802f027
 8009a20:	000927c0 	.word	0x000927c0
 8009a24:	0802f024 	.word	0x0802f024
 8009a28:	0802f036 	.word	0x0802f036
 8009a2c:	0802f048 	.word	0x0802f048
 8009a30:	0802f05e 	.word	0x0802f05e
 8009a34:	0802f073 	.word	0x0802f073
 8009a38:	20002360 	.word	0x20002360
 8009a3c:	20002467 	.word	0x20002467
 8009a40:	00030d40 	.word	0x00030d40
 8009a44:	0802f00c 	.word	0x0802f00c

08009a48 <service_lora_send_null>:
 8009a48:	b51f      	push	{r0, r1, r2, r3, r4, lr}
 8009a4a:	2301      	movs	r3, #1
 8009a4c:	f88d 3008 	strb.w	r3, [sp, #8]
 8009a50:	f88d 3009 	strb.w	r3, [sp, #9]
 8009a54:	2100      	movs	r1, #0
 8009a56:	2303      	movs	r3, #3
 8009a58:	f88d 300a 	strb.w	r3, [sp, #10]
 8009a5c:	f88d 100b 	strb.w	r1, [sp, #11]
 8009a60:	9100      	str	r1, [sp, #0]
 8009a62:	ab04      	add	r3, sp, #16
 8009a64:	e913 000c 	ldmdb	r3, {r2, r3}
 8009a68:	4802      	ldr	r0, [pc, #8]	; (8009a74 <service_lora_send_null+0x2c>)
 8009a6a:	f7ff feb7 	bl	80097dc <service_lora_send>
 8009a6e:	b005      	add	sp, #20
 8009a70:	f85d fb04 	ldr.w	pc, [sp], #4
 8009a74:	0802f564 	.word	0x0802f564

08009a78 <McpsIndication>:
 8009a78:	e92d 4ff0 	stmdb	sp!, {r4, r5, r6, r7, r8, r9, sl, fp, lr}
 8009a7c:	7843      	ldrb	r3, [r0, #1]
 8009a7e:	b08d      	sub	sp, #52	; 0x34
 8009a80:	4604      	mov	r4, r0
 8009a82:	2b00      	cmp	r3, #0
 8009a84:	f040 80a7 	bne.w	8009bd6 <McpsIndication+0x15e>
 8009a88:	f9b0 000e 	ldrsh.w	r0, [r0, #14]
 8009a8c:	4f77      	ldr	r7, [pc, #476]	; (8009c6c <McpsIndication+0x1f4>)
 8009a8e:	4e78      	ldr	r6, [pc, #480]	; (8009c70 <McpsIndication+0x1f8>)
 8009a90:	7c23      	ldrb	r3, [r4, #16]
 8009a92:	8038      	strh	r0, [r7, #0]
 8009a94:	b240      	sxtb	r0, r0
 8009a96:	7033      	strb	r3, [r6, #0]
 8009a98:	f002 f8ac 	bl	800bbf4 <service_lora_arssi_rx_callback>
 8009a9c:	7b23      	ldrb	r3, [r4, #12]
 8009a9e:	2b00      	cmp	r3, #0
 8009aa0:	d03b      	beq.n	8009b1a <McpsIndication+0xa2>
 8009aa2:	7c60      	ldrb	r0, [r4, #17]
 8009aa4:	4973      	ldr	r1, [pc, #460]	; (8009c74 <McpsIndication+0x1fc>)
 8009aa6:	f9b7 2000 	ldrsh.w	r2, [r7]
 8009aaa:	f851 1020 	ldr.w	r1, [r1, r0, lsl #2]
 8009aae:	f996 3000 	ldrsb.w	r3, [r6]
 8009ab2:	4871      	ldr	r0, [pc, #452]	; (8009c78 <McpsIndication+0x200>)
 8009ab4:	f8df 91c4 	ldr.w	r9, [pc, #452]	; 8009c7c <McpsIndication+0x204>
 8009ab8:	f8df a1c4 	ldr.w	sl, [pc, #452]	; 8009c80 <McpsIndication+0x208>
 8009abc:	f00a ff4c 	bl	8014958 <udrv_serial_log_printf>
 8009ac0:	78a3      	ldrb	r3, [r4, #2]
 8009ac2:	2b01      	cmp	r3, #1
 8009ac4:	bf0c      	ite	eq
 8009ac6:	486f      	ldreq	r0, [pc, #444]	; (8009c84 <McpsIndication+0x20c>)
 8009ac8:	486f      	ldrne	r0, [pc, #444]	; (8009c88 <McpsIndication+0x210>)
 8009aca:	f00a ff45 	bl	8014958 <udrv_serial_log_printf>
 8009ace:	78e1      	ldrb	r1, [r4, #3]
 8009ad0:	486e      	ldr	r0, [pc, #440]	; (8009c8c <McpsIndication+0x214>)
 8009ad2:	f00a ff41 	bl	8014958 <udrv_serial_log_printf>
 8009ad6:	f04f 0800 	mov.w	r8, #0
 8009ada:	fa5f fb88 	uxtb.w	fp, r8
 8009ade:	4658      	mov	r0, fp
 8009ae0:	f009 fdf0 	bl	80136c4 <service_nvm_get_mode_type_from_nvm>
 8009ae4:	4605      	mov	r5, r0
 8009ae6:	b940      	cbnz	r0, 8009afa <McpsIndication+0x82>
 8009ae8:	7b22      	ldrb	r2, [r4, #12]
 8009aea:	b2eb      	uxtb	r3, r5
 8009aec:	429a      	cmp	r2, r3
 8009aee:	f200 80a3 	bhi.w	8009c38 <McpsIndication+0x1c0>
 8009af2:	4651      	mov	r1, sl
 8009af4:	4658      	mov	r0, fp
 8009af6:	f00a fef7 	bl	80148e8 <udrv_serial_printf>
 8009afa:	f108 0801 	add.w	r8, r8, #1
 8009afe:	f1b8 0f03 	cmp.w	r8, #3
 8009b02:	d1ea      	bne.n	8009ada <McpsIndication+0x62>
 8009b04:	7b22      	ldrb	r2, [r4, #12]
 8009b06:	68a1      	ldr	r1, [r4, #8]
 8009b08:	4861      	ldr	r0, [pc, #388]	; (8009c90 <McpsIndication+0x218>)
 8009b0a:	f021 ff87 	bl	802ba1c <memcpy>
 8009b0e:	4b61      	ldr	r3, [pc, #388]	; (8009c94 <McpsIndication+0x21c>)
 8009b10:	7b22      	ldrb	r2, [r4, #12]
 8009b12:	701a      	strb	r2, [r3, #0]
 8009b14:	4b60      	ldr	r3, [pc, #384]	; (8009c98 <McpsIndication+0x220>)
 8009b16:	78e2      	ldrb	r2, [r4, #3]
 8009b18:	701a      	strb	r2, [r3, #0]
 8009b1a:	7963      	ldrb	r3, [r4, #5]
 8009b1c:	2b01      	cmp	r3, #1
 8009b1e:	f000 8093 	beq.w	8009c48 <McpsIndication+0x1d0>
 8009b22:	7823      	ldrb	r3, [r4, #0]
 8009b24:	2b01      	cmp	r3, #1
 8009b26:	d102      	bne.n	8009b2e <McpsIndication+0xb6>
 8009b28:	4b5c      	ldr	r3, [pc, #368]	; (8009c9c <McpsIndication+0x224>)
 8009b2a:	2201      	movs	r2, #1
 8009b2c:	701a      	strb	r2, [r3, #0]
 8009b2e:	4b5c      	ldr	r3, [pc, #368]	; (8009ca0 <McpsIndication+0x228>)
 8009b30:	781a      	ldrb	r2, [r3, #0]
 8009b32:	b32a      	cbz	r2, 8009b80 <McpsIndication+0x108>
 8009b34:	f8df 916c 	ldr.w	r9, [pc, #364]	; 8009ca4 <McpsIndication+0x22c>
 8009b38:	2200      	movs	r2, #0
 8009b3a:	701a      	strb	r2, [r3, #0]
 8009b3c:	f899 3000 	ldrb.w	r3, [r9]
 8009b40:	b9f3      	cbnz	r3, 8009b80 <McpsIndication+0x108>
 8009b42:	f996 3000 	ldrsb.w	r3, [r6]
 8009b46:	4d58      	ldr	r5, [pc, #352]	; (8009ca8 <McpsIndication+0x230>)
 8009b48:	f8df 8160 	ldr.w	r8, [pc, #352]	; 8009cac <McpsIndication+0x234>
 8009b4c:	9300      	str	r3, [sp, #0]
 8009b4e:	782a      	ldrb	r2, [r5, #0]
 8009b50:	f9b7 3000 	ldrsh.w	r3, [r7]
 8009b54:	f898 1000 	ldrb.w	r1, [r8]
 8009b58:	4855      	ldr	r0, [pc, #340]	; (8009cb0 <McpsIndication+0x238>)
 8009b5a:	f00a fefd 	bl	8014958 <udrv_serial_log_printf>
 8009b5e:	4b55      	ldr	r3, [pc, #340]	; (8009cb4 <McpsIndication+0x23c>)
 8009b60:	681b      	ldr	r3, [r3, #0]
 8009b62:	b16b      	cbz	r3, 8009b80 <McpsIndication+0x108>
 8009b64:	4854      	ldr	r0, [pc, #336]	; (8009cb8 <McpsIndication+0x240>)
 8009b66:	f899 2000 	ldrb.w	r2, [r9]
 8009b6a:	7002      	strb	r2, [r0, #0]
 8009b6c:	f898 2000 	ldrb.w	r2, [r8]
 8009b70:	7042      	strb	r2, [r0, #1]
 8009b72:	782a      	ldrb	r2, [r5, #0]
 8009b74:	7082      	strb	r2, [r0, #2]
 8009b76:	883a      	ldrh	r2, [r7, #0]
 8009b78:	8082      	strh	r2, [r0, #4]
 8009b7a:	7832      	ldrb	r2, [r6, #0]
 8009b7c:	7182      	strb	r2, [r0, #6]
 8009b7e:	4798      	blx	r3
 8009b80:	78e2      	ldrb	r2, [r4, #3]
 8009b82:	2ae0      	cmp	r2, #224	; 0xe0
 8009b84:	d011      	beq.n	8009baa <McpsIndication+0x132>
 8009b86:	4b4d      	ldr	r3, [pc, #308]	; (8009cbc <McpsIndication+0x244>)
 8009b88:	681b      	ldr	r3, [r3, #0]
 8009b8a:	b173      	cbz	r3, 8009baa <McpsIndication+0x132>
 8009b8c:	484c      	ldr	r0, [pc, #304]	; (8009cc0 <McpsIndication+0x248>)
 8009b8e:	7002      	strb	r2, [r0, #0]
 8009b90:	7922      	ldrb	r2, [r4, #4]
 8009b92:	7042      	strb	r2, [r0, #1]
 8009b94:	68a2      	ldr	r2, [r4, #8]
 8009b96:	6042      	str	r2, [r0, #4]
 8009b98:	7b22      	ldrb	r2, [r4, #12]
 8009b9a:	7202      	strb	r2, [r0, #8]
 8009b9c:	89e2      	ldrh	r2, [r4, #14]
 8009b9e:	8142      	strh	r2, [r0, #10]
 8009ba0:	7c22      	ldrb	r2, [r4, #16]
 8009ba2:	7302      	strb	r2, [r0, #12]
 8009ba4:	6962      	ldr	r2, [r4, #20]
 8009ba6:	6102      	str	r2, [r0, #16]
 8009ba8:	4798      	blx	r3
 8009baa:	4621      	mov	r1, r4
 8009bac:	2001      	movs	r0, #1
 8009bae:	f005 f885 	bl	800ecbc <LmHandlerPackagesNotify>
 8009bb2:	4844      	ldr	r0, [pc, #272]	; (8009cc4 <McpsIndication+0x24c>)
 8009bb4:	f890 3102 	ldrb.w	r3, [r0, #258]	; 0x102
 8009bb8:	b16b      	cbz	r3, 8009bd6 <McpsIndication+0x15e>
 8009bba:	2300      	movs	r3, #0
 8009bbc:	f880 3102 	strb.w	r3, [r0, #258]	; 0x102
 8009bc0:	f88d 300b 	strb.w	r3, [sp, #11]
 8009bc4:	9300      	str	r3, [sp, #0]
 8009bc6:	f88d 3009 	strb.w	r3, [sp, #9]
 8009bca:	e9dd 2302 	ldrd	r2, r3, [sp, #8]
 8009bce:	f8b0 1100 	ldrh.w	r1, [r0, #256]	; 0x100
 8009bd2:	f7ff fe03 	bl	80097dc <service_lora_send>
 8009bd6:	f7ff fa66 	bl	80090a6 <service_get_debug_level>
 8009bda:	b350      	cbz	r0, 8009c32 <McpsIndication+0x1ba>
 8009bdc:	2334      	movs	r3, #52	; 0x34
 8009bde:	a802      	add	r0, sp, #8
 8009be0:	f88d 3008 	strb.w	r3, [sp, #8]
 8009be4:	f013 fc18 	bl	801d418 <LoRaMacMibGetRequestConfirm>
 8009be8:	a802      	add	r0, sp, #8
 8009bea:	f013 fc15 	bl	801d418 <LoRaMacMibGetRequestConfirm>
 8009bee:	2800      	cmp	r0, #0
 8009bf0:	d138      	bne.n	8009c64 <McpsIndication+0x1ec>
 8009bf2:	7c63      	ldrb	r3, [r4, #17]
 8009bf4:	bb73      	cbnz	r3, 8009c54 <McpsIndication+0x1dc>
 8009bf6:	4834      	ldr	r0, [pc, #208]	; (8009cc8 <McpsIndication+0x250>)
 8009bf8:	f00a feae 	bl	8014958 <udrv_serial_log_printf>
 8009bfc:	69a1      	ldr	r1, [r4, #24]
 8009bfe:	4833      	ldr	r0, [pc, #204]	; (8009ccc <McpsIndication+0x254>)
 8009c00:	f00a feaa 	bl	8014958 <udrv_serial_log_printf>
 8009c04:	78e1      	ldrb	r1, [r4, #3]
 8009c06:	4832      	ldr	r0, [pc, #200]	; (8009cd0 <McpsIndication+0x258>)
 8009c08:	f00a fea6 	bl	8014958 <udrv_serial_log_printf>
 8009c0c:	f9b4 100e 	ldrsh.w	r1, [r4, #14]
 8009c10:	4830      	ldr	r0, [pc, #192]	; (8009cd4 <McpsIndication+0x25c>)
 8009c12:	f00a fea1 	bl	8014958 <udrv_serial_log_printf>
 8009c16:	f994 1010 	ldrsb.w	r1, [r4, #16]
 8009c1a:	482f      	ldr	r0, [pc, #188]	; (8009cd8 <McpsIndication+0x260>)
 8009c1c:	f00a fe9c 	bl	8014958 <udrv_serial_log_printf>
 8009c20:	7921      	ldrb	r1, [r4, #4]
 8009c22:	482e      	ldr	r0, [pc, #184]	; (8009cdc <McpsIndication+0x264>)
 8009c24:	f00a fe98 	bl	8014958 <udrv_serial_log_printf>
 8009c28:	9b03      	ldr	r3, [sp, #12]
 8009c2a:	482d      	ldr	r0, [pc, #180]	; (8009ce0 <McpsIndication+0x268>)
 8009c2c:	6999      	ldr	r1, [r3, #24]
 8009c2e:	f00a fe93 	bl	8014958 <udrv_serial_log_printf>
 8009c32:	b00d      	add	sp, #52	; 0x34
 8009c34:	e8bd 8ff0 	ldmia.w	sp!, {r4, r5, r6, r7, r8, r9, sl, fp, pc}
 8009c38:	68a2      	ldr	r2, [r4, #8]
 8009c3a:	4649      	mov	r1, r9
 8009c3c:	5cd2      	ldrb	r2, [r2, r3]
 8009c3e:	4658      	mov	r0, fp
 8009c40:	f00a fe52 	bl	80148e8 <udrv_serial_printf>
 8009c44:	3501      	adds	r5, #1
 8009c46:	e74f      	b.n	8009ae8 <McpsIndication+0x70>
 8009c48:	f003 f85a 	bl	800cd00 <service_lora_get_class>
 8009c4c:	2800      	cmp	r0, #0
 8009c4e:	f47f af68 	bne.w	8009b22 <McpsIndication+0xaa>
 8009c52:	e769      	b.n	8009b28 <McpsIndication+0xb0>
 8009c54:	2b01      	cmp	r3, #1
 8009c56:	d101      	bne.n	8009c5c <McpsIndication+0x1e4>
 8009c58:	4822      	ldr	r0, [pc, #136]	; (8009ce4 <McpsIndication+0x26c>)
 8009c5a:	e7cd      	b.n	8009bf8 <McpsIndication+0x180>
 8009c5c:	2b02      	cmp	r3, #2
 8009c5e:	d1cd      	bne.n	8009bfc <McpsIndication+0x184>
 8009c60:	4821      	ldr	r0, [pc, #132]	; (8009ce8 <McpsIndication+0x270>)
 8009c62:	e7c9      	b.n	8009bf8 <McpsIndication+0x180>
 8009c64:	4821      	ldr	r0, [pc, #132]	; (8009cec <McpsIndication+0x274>)
 8009c66:	f00a fe77 	bl	8014958 <udrv_serial_log_printf>
 8009c6a:	e7e2      	b.n	8009c32 <McpsIndication+0x1ba>
 8009c6c:	20002588 	.word	0x20002588
 8009c70:	200025a0 	.word	0x200025a0
 8009c74:	0802f50c 	.word	0x0802f50c
 8009c78:	0802f0d1 	.word	0x0802f0d1
 8009c7c:	0802f0f6 	.word	0x0802f0f6
 8009c80:	0802f562 	.word	0x0802f562
 8009c84:	0802f0e2 	.word	0x0802f0e2
 8009c88:	0802f0ed 	.word	0x0802f0ed
 8009c8c:	0802f821 	.word	0x0802f821
 8009c90:	20002468 	.word	0x20002468
 8009c94:	20002568 	.word	0x20002568
 8009c98:	20002569 	.word	0x20002569
 8009c9c:	200022e8 	.word	0x200022e8
 8009ca0:	20002572 	.word	0x20002572
 8009ca4:	20002573 	.word	0x20002573
 8009ca8:	2000233c 	.word	0x2000233c
 8009cac:	200022e1 	.word	0x200022e1
 8009cb0:	0802f0fb 	.word	0x0802f0fb
 8009cb4:	20002590 	.word	0x20002590
 8009cb8:	2000256a 	.word	0x2000256a
 8009cbc:	20002594 	.word	0x20002594
 8009cc0:	20002574 	.word	0x20002574
 8009cc4:	20002362 	.word	0x20002362
 8009cc8:	0802f11a 	.word	0x0802f11a
 8009ccc:	0802f177 	.word	0x0802f177
 8009cd0:	0802f189 	.word	0x0802f189
 8009cd4:	0802f193 	.word	0x0802f193
 8009cd8:	0802f19d 	.word	0x0802f19d
 8009cdc:	0802f1a6 	.word	0x0802f1a6
 8009ce0:	0802f1b6 	.word	0x0802f1b6
 8009ce4:	0802f137 	.word	0x0802f137
 8009ce8:	0802f154 	.word	0x0802f154
 8009cec:	0802f1c4 	.word	0x0802f1c4

08009cf0 <service_lora_set_chs>:
 8009cf0:	b5f0      	push	{r4, r5, r6, r7, lr}
 8009cf2:	b091      	sub	sp, #68	; 0x44
 8009cf4:	2600      	movs	r6, #0
 8009cf6:	ac03      	add	r4, sp, #12
 8009cf8:	e9c4 6601 	strd	r6, r6, [r4, #4]
 8009cfc:	4605      	mov	r5, r0
 8009cfe:	9603      	str	r6, [sp, #12]
 8009d00:	f003 f8d1 	bl	800cea6 <service_lora_get_band>
 8009d04:	1e43      	subs	r3, r0, #1
 8009d06:	b2db      	uxtb	r3, r3
 8009d08:	2b01      	cmp	r3, #1
 8009d0a:	d90a      	bls.n	8009d22 <service_lora_set_chs+0x32>
 8009d0c:	2808      	cmp	r0, #8
 8009d0e:	d008      	beq.n	8009d22 <service_lora_set_chs+0x32>
 8009d10:	2805      	cmp	r0, #5
 8009d12:	d06a      	beq.n	8009dea <service_lora_set_chs+0xfa>
 8009d14:	280a      	cmp	r0, #10
