
/home/jenkins/workspace/RUI_Release/rui-v3/image/RUI_5.0.0_RAK3172-E_fuota_app:     file format elf32-littlearm


Disassembly of section .text:

08006140 <__do_global_dtors_aux>:
 8006140:	b510      	push	{r4, lr}
 8006142:	4c05      	ldr	r4, [pc, #20]	; (8006158 <__do_global_dtors_aux+0x18>)
 8006144:	7823      	ldrb	r3, [r4, #0]
 8006146:	b933      	cbnz	r3, 8006156 <__do_global_dtors_aux+0x16>
 8006148:	4b04      	ldr	r3, [pc, #16]	; (800615c <__do_global_dtors_aux+0x1c>)
 800614a:	b113      	cbz	r3, 8006152 <__do_global_dtors_aux+0x12>
 800614c:	4804      	ldr	r0, [pc, #16]	; (8006160 <__do_global_dtors_aux+0x20>)
 800614e:	f3af 8000 	nop.w
 8006152:	2301      	movs	r3, #1
 8006154:	7023      	strb	r3, [r4, #0]
 8006156:	bd10      	pop	{r4, pc}
 8006158:	20006cd0 	.word	0x20006cd0
 800615c:	00000000 	.word	0x00000000
 8006160:	08017148 	.word	0x08017148

08006164 <frame_dummy>:
 8006164:	b508      	push	{r3, lr}
 8006166:	4b03      	ldr	r3, [pc, #12]	; (8006174 <frame_dummy+0x10>)
 8006168:	b11b      	cbz	r3, 8006172 <frame_dummy+0xe>
 800616a:	4903      	ldr	r1, [pc, #12]	; (8006178 <frame_dummy+0x14>)
 800616c:	4803      	ldr	r0, [pc, #12]	; (800617c <frame_dummy+0x18>)
 800616e:	f3af 8000 	nop.w
 8006172:	bd08      	pop	{r3, pc}
 8006174:	00000000 	.word	0x00000000
 8006178:	20006cd4 	.word	0x20006cd4
 800617c:	08017148 	.word	0x08017148

08006180 <strcmp>:
 8006180:	f810 2b01 	ldrb.w	r2, [r0], #1
 8006184:	f811 3b01 	ldrb.w	r3, [r1], #1
 8006188:	2a01      	cmp	r2, #1
 800618a:	bf28      	it	cs
 800618c:	429a      	cmpcs	r2, r3
 800618e:	d0f7      	beq.n	8006180 <strcmp>
 8006190:	1ad0      	subs	r0, r2, r3
 8006192:	4770      	bx	lr

08006194 <strlen>:
 8006194:	4603      	mov	r3, r0
 8006196:	f813 2b01 	ldrb.w	r2, [r3], #1
 800619a:	2a00      	cmp	r2, #0
 800619c:	d1fb      	bne.n	8006196 <strlen+0x2>
 800619e:	1a18      	subs	r0, r3, r0
 80061a0:	3801      	subs	r0, #1
 80061a2:	4770      	bx	lr
	...

080061b0 <memchr>:
 80061b0:	f001 01ff 	and.w	r1, r1, #255	; 0xff
 80061b4:	2a10      	cmp	r2, #16
 80061b6:	db2b      	blt.n	8006210 <memchr+0x60>
 80061b8:	f010 0f07 	tst.w	r0, #7
 80061bc:	d008      	beq.n	80061d0 <memchr+0x20>
 80061be:	f810 3b01 	ldrb.w	r3, [r0], #1
 80061c2:	3a01      	subs	r2, #1
 80061c4:	428b      	cmp	r3, r1
 80061c6:	d02d      	beq.n	8006224 <memchr+0x74>
 80061c8:	f010 0f07 	tst.w	r0, #7
 80061cc:	b342      	cbz	r2, 8006220 <memchr+0x70>
 80061ce:	d1f6      	bne.n	80061be <memchr+0xe>
 80061d0:	b4f0      	push	{r4, r5, r6, r7}
 80061d2:	ea41 2101 	orr.w	r1, r1, r1, lsl #8
 80061d6:	ea41 4101 	orr.w	r1, r1, r1, lsl #16
 80061da:	f022 0407 	bic.w	r4, r2, #7
 80061de:	f07f 0700 	mvns.w	r7, #0
 80061e2:	2300      	movs	r3, #0
 80061e4:	e8f0 5602 	ldrd	r5, r6, [r0], #8
 80061e8:	3c08      	subs	r4, #8
 80061ea:	ea85 0501 	eor.w	r5, r5, r1
 80061ee:	ea86 0601 	eor.w	r6, r6, r1
 80061f2:	fa85 f547 	uadd8	r5, r5, r7
 80061f6:	faa3 f587 	sel	r5, r3, r7
 80061fa:	fa86 f647 	uadd8	r6, r6, r7
 80061fe:	faa5 f687 	sel	r6, r5, r7
 8006202:	b98e      	cbnz	r6, 8006228 <memchr+0x78>
 8006204:	d1ee      	bne.n	80061e4 <memchr+0x34>
 8006206:	bcf0      	pop	{r4, r5, r6, r7}
 8006208:	f001 01ff 	and.w	r1, r1, #255	; 0xff
 800620c:	f002 0207 	and.w	r2, r2, #7
 8006210:	b132      	cbz	r2, 8006220 <memchr+0x70>
 8006212:	f810 3b01 	ldrb.w	r3, [r0], #1
 8006216:	3a01      	subs	r2, #1
 8006218:	ea83 0301 	eor.w	r3, r3, r1
 800621c:	b113      	cbz	r3, 8006224 <memchr+0x74>
 800621e:	d1f8      	bne.n	8006212 <memchr+0x62>
 8006220:	2000      	movs	r0, #0
 8006222:	4770      	bx	lr
 8006224:	3801      	subs	r0, #1
 8006226:	4770      	bx	lr
 8006228:	2d00      	cmp	r5, #0
 800622a:	bf06      	itte	eq
 800622c:	4635      	moveq	r5, r6
 800622e:	3803      	subeq	r0, #3
 8006230:	3807      	subne	r0, #7
 8006232:	f015 0f01 	tst.w	r5, #1
 8006236:	d107      	bne.n	8006248 <memchr+0x98>
 8006238:	3001      	adds	r0, #1
 800623a:	f415 7f80 	tst.w	r5, #256	; 0x100
 800623e:	bf02      	ittt	eq
 8006240:	3001      	addeq	r0, #1
 8006242:	f415 3fc0 	tsteq.w	r5, #98304	; 0x18000
 8006246:	3001      	addeq	r0, #1
 8006248:	bcf0      	pop	{r4, r5, r6, r7}
 800624a:	3801      	subs	r0, #1
 800624c:	4770      	bx	lr
 800624e:	bf00      	nop

08006250 <__aeabi_dmul>:
 8006250:	b570      	push	{r4, r5, r6, lr}
 8006252:	f04f 0cff 	mov.w	ip, #255	; 0xff
 8006256:	f44c 6ce0 	orr.w	ip, ip, #1792	; 0x700
 800625a:	ea1c 5411 	ands.w	r4, ip, r1, lsr #20
 800625e:	bf1d      	ittte	ne
 8006260:	ea1c 5513 	andsne.w	r5, ip, r3, lsr #20
 8006264:	ea94 0f0c 	teqne	r4, ip
 8006268:	ea95 0f0c 	teqne	r5, ip
 800626c:	f000 f8de 	bleq	800642c <__aeabi_dmul+0x1dc>
 8006270:	442c      	add	r4, r5
 8006272:	ea81 0603 	eor.w	r6, r1, r3
 8006276:	ea21 514c 	bic.w	r1, r1, ip, lsl #21
 800627a:	ea23 534c 	bic.w	r3, r3, ip, lsl #21
 800627e:	ea50 3501 	orrs.w	r5, r0, r1, lsl #12
 8006282:	bf18      	it	ne
 8006284:	ea52 3503 	orrsne.w	r5, r2, r3, lsl #12
 8006288:	f441 1180 	orr.w	r1, r1, #1048576	; 0x100000
 800628c:	f443 1380 	orr.w	r3, r3, #1048576	; 0x100000
 8006290:	d038      	beq.n	8006304 <__aeabi_dmul+0xb4>
 8006292:	fba0 ce02 	umull	ip, lr, r0, r2
 8006296:	f04f 0500 	mov.w	r5, #0
 800629a:	fbe1 e502 	umlal	lr, r5, r1, r2
 800629e:	f006 4200 	and.w	r2, r6, #2147483648	; 0x80000000
 80062a2:	fbe0 e503 	umlal	lr, r5, r0, r3
 80062a6:	f04f 0600 	mov.w	r6, #0
 80062aa:	fbe1 5603 	umlal	r5, r6, r1, r3
 80062ae:	f09c 0f00 	teq	ip, #0
 80062b2:	bf18      	it	ne
 80062b4:	f04e 0e01 	orrne.w	lr, lr, #1
 80062b8:	f1a4 04ff 	sub.w	r4, r4, #255	; 0xff
 80062bc:	f5b6 7f00 	cmp.w	r6, #512	; 0x200
 80062c0:	f564 7440 	sbc.w	r4, r4, #768	; 0x300
 80062c4:	d204      	bcs.n	80062d0 <__aeabi_dmul+0x80>
 80062c6:	ea5f 0e4e 	movs.w	lr, lr, lsl #1
 80062ca:	416d      	adcs	r5, r5
 80062cc:	eb46 0606 	adc.w	r6, r6, r6
 80062d0:	ea42 21c6 	orr.w	r1, r2, r6, lsl #11
 80062d4:	ea41 5155 	orr.w	r1, r1, r5, lsr #21
 80062d8:	ea4f 20c5 	mov.w	r0, r5, lsl #11
 80062dc:	ea40 505e 	orr.w	r0, r0, lr, lsr #21
 80062e0:	ea4f 2ece 	mov.w	lr, lr, lsl #11
 80062e4:	f1b4 0cfd 	subs.w	ip, r4, #253	; 0xfd
 80062e8:	bf88      	it	hi
 80062ea:	f5bc 6fe0 	cmphi.w	ip, #1792	; 0x700
 80062ee:	d81e      	bhi.n	800632e <__aeabi_dmul+0xde>
 80062f0:	f1be 4f00 	cmp.w	lr, #2147483648	; 0x80000000
 80062f4:	bf08      	it	eq
 80062f6:	ea5f 0e50 	movseq.w	lr, r0, lsr #1
 80062fa:	f150 0000 	adcs.w	r0, r0, #0
 80062fe:	eb41 5104 	adc.w	r1, r1, r4, lsl #20
 8006302:	bd70      	pop	{r4, r5, r6, pc}
 8006304:	f006 4600 	and.w	r6, r6, #2147483648	; 0x80000000
 8006308:	ea46 0101 	orr.w	r1, r6, r1
 800630c:	ea40 0002 	orr.w	r0, r0, r2
 8006310:	ea81 0103 	eor.w	r1, r1, r3
 8006314:	ebb4 045c 	subs.w	r4, r4, ip, lsr #1
 8006318:	bfc2      	ittt	gt
 800631a:	ebd4 050c 	rsbsgt	r5, r4, ip
 800631e:	ea41 5104 	orrgt.w	r1, r1, r4, lsl #20
 8006322:	bd70      	popgt	{r4, r5, r6, pc}
 8006324:	f441 1180 	orr.w	r1, r1, #1048576	; 0x100000
 8006328:	f04f 0e00 	mov.w	lr, #0
 800632c:	3c01      	subs	r4, #1
 800632e:	f300 80ab 	bgt.w	8006488 <__aeabi_dmul+0x238>
 8006332:	f114 0f36 	cmn.w	r4, #54	; 0x36
 8006336:	bfde      	ittt	le
 8006338:	2000      	movle	r0, #0
 800633a:	f001 4100 	andle.w	r1, r1, #2147483648	; 0x80000000
 800633e:	bd70      	pople	{r4, r5, r6, pc}
 8006340:	f1c4 0400 	rsb	r4, r4, #0
 8006344:	3c20      	subs	r4, #32
 8006346:	da35      	bge.n	80063b4 <__aeabi_dmul+0x164>
 8006348:	340c      	adds	r4, #12
 800634a:	dc1b      	bgt.n	8006384 <__aeabi_dmul+0x134>
 800634c:	f104 0414 	add.w	r4, r4, #20
 8006350:	f1c4 0520 	rsb	r5, r4, #32
 8006354:	fa00 f305 	lsl.w	r3, r0, r5
 8006358:	fa20 f004 	lsr.w	r0, r0, r4
 800635c:	fa01 f205 	lsl.w	r2, r1, r5
 8006360:	ea40 0002 	orr.w	r0, r0, r2
 8006364:	f001 4200 	and.w	r2, r1, #2147483648	; 0x80000000
 8006368:	f021 4100 	bic.w	r1, r1, #2147483648	; 0x80000000
 800636c:	eb10 70d3 	adds.w	r0, r0, r3, lsr #31
 8006370:	fa21 f604 	lsr.w	r6, r1, r4
 8006374:	eb42 0106 	adc.w	r1, r2, r6
 8006378:	ea5e 0e43 	orrs.w	lr, lr, r3, lsl #1
 800637c:	bf08      	it	eq
 800637e:	ea20 70d3 	biceq.w	r0, r0, r3, lsr #31
 8006382:	bd70      	pop	{r4, r5, r6, pc}
 8006384:	f1c4 040c 	rsb	r4, r4, #12
 8006388:	f1c4 0520 	rsb	r5, r4, #32
 800638c:	fa00 f304 	lsl.w	r3, r0, r4
 8006390:	fa20 f005 	lsr.w	r0, r0, r5
 8006394:	fa01 f204 	lsl.w	r2, r1, r4
 8006398:	ea40 0002 	orr.w	r0, r0, r2
 800639c:	f001 4100 	and.w	r1, r1, #2147483648	; 0x80000000
 80063a0:	eb10 70d3 	adds.w	r0, r0, r3, lsr #31
 80063a4:	f141 0100 	adc.w	r1, r1, #0
 80063a8:	ea5e 0e43 	orrs.w	lr, lr, r3, lsl #1
 80063ac:	bf08      	it	eq
 80063ae:	ea20 70d3 	biceq.w	r0, r0, r3, lsr #31
 80063b2:	bd70      	pop	{r4, r5, r6, pc}
 80063b4:	f1c4 0520 	rsb	r5, r4, #32
 80063b8:	fa00 f205 	lsl.w	r2, r0, r5
 80063bc:	ea4e 0e02 	orr.w	lr, lr, r2
 80063c0:	fa20 f304 	lsr.w	r3, r0, r4
 80063c4:	fa01 f205 	lsl.w	r2, r1, r5
 80063c8:	ea43 0302 	orr.w	r3, r3, r2
 80063cc:	fa21 f004 	lsr.w	r0, r1, r4
 80063d0:	f001 4100 	and.w	r1, r1, #2147483648	; 0x80000000
 80063d4:	fa21 f204 	lsr.w	r2, r1, r4
 80063d8:	ea20 0002 	bic.w	r0, r0, r2
 80063dc:	eb00 70d3 	add.w	r0, r0, r3, lsr #31
 80063e0:	ea5e 0e43 	orrs.w	lr, lr, r3, lsl #1
 80063e4:	bf08      	it	eq
 80063e6:	ea20 70d3 	biceq.w	r0, r0, r3, lsr #31
 80063ea:	bd70      	pop	{r4, r5, r6, pc}
 80063ec:	f094 0f00 	teq	r4, #0
 80063f0:	d10f      	bne.n	8006412 <__aeabi_dmul+0x1c2>
 80063f2:	f001 4600 	and.w	r6, r1, #2147483648	; 0x80000000
 80063f6:	0040      	lsls	r0, r0, #1
 80063f8:	eb41 0101 	adc.w	r1, r1, r1
 80063fc:	f411 1f80 	tst.w	r1, #1048576	; 0x100000
 8006400:	bf08      	it	eq
 8006402:	3c01      	subeq	r4, #1
 8006404:	d0f7      	beq.n	80063f6 <__aeabi_dmul+0x1a6>
 8006406:	ea41 0106 	orr.w	r1, r1, r6
 800640a:	f095 0f00 	teq	r5, #0
 800640e:	bf18      	it	ne
 8006410:	4770      	bxne	lr
 8006412:	f003 4600 	and.w	r6, r3, #2147483648	; 0x80000000
 8006416:	0052      	lsls	r2, r2, #1
 8006418:	eb43 0303 	adc.w	r3, r3, r3
 800641c:	f413 1f80 	tst.w	r3, #1048576	; 0x100000
 8006420:	bf08      	it	eq
 8006422:	3d01      	subeq	r5, #1
 8006424:	d0f7      	beq.n	8006416 <__aeabi_dmul+0x1c6>
 8006426:	ea43 0306 	orr.w	r3, r3, r6
 800642a:	4770      	bx	lr
 800642c:	ea94 0f0c 	teq	r4, ip
 8006430:	ea0c 5513 	and.w	r5, ip, r3, lsr #20
 8006434:	bf18      	it	ne
 8006436:	ea95 0f0c 	teqne	r5, ip
 800643a:	d00c      	beq.n	8006456 <__aeabi_dmul+0x206>
 800643c:	ea50 0641 	orrs.w	r6, r0, r1, lsl #1
 8006440:	bf18      	it	ne
 8006442:	ea52 0643 	orrsne.w	r6, r2, r3, lsl #1
 8006446:	d1d1      	bne.n	80063ec <__aeabi_dmul+0x19c>
 8006448:	ea81 0103 	eor.w	r1, r1, r3
 800644c:	f001 4100 	and.w	r1, r1, #2147483648	; 0x80000000
 8006450:	f04f 0000 	mov.w	r0, #0
 8006454:	bd70      	pop	{r4, r5, r6, pc}
 8006456:	ea50 0641 	orrs.w	r6, r0, r1, lsl #1
 800645a:	bf06      	itte	eq
 800645c:	4610      	moveq	r0, r2
 800645e:	4619      	moveq	r1, r3
 8006460:	ea52 0643 	orrsne.w	r6, r2, r3, lsl #1
 8006464:	d019      	beq.n	800649a <__aeabi_dmul+0x24a>
 8006466:	ea94 0f0c 	teq	r4, ip
 800646a:	d102      	bne.n	8006472 <__aeabi_dmul+0x222>
 800646c:	ea50 3601 	orrs.w	r6, r0, r1, lsl #12
 8006470:	d113      	bne.n	800649a <__aeabi_dmul+0x24a>
 8006472:	ea95 0f0c 	teq	r5, ip
 8006476:	d105      	bne.n	8006484 <__aeabi_dmul+0x234>
 8006478:	ea52 3603 	orrs.w	r6, r2, r3, lsl #12
 800647c:	bf1c      	itt	ne
 800647e:	4610      	movne	r0, r2
 8006480:	4619      	movne	r1, r3
 8006482:	d10a      	bne.n	800649a <__aeabi_dmul+0x24a>
 8006484:	ea81 0103 	eor.w	r1, r1, r3
 8006488:	f001 4100 	and.w	r1, r1, #2147483648	; 0x80000000
 800648c:	f041 41fe 	orr.w	r1, r1, #2130706432	; 0x7f000000
 8006490:	f441 0170 	orr.w	r1, r1, #15728640	; 0xf00000
 8006494:	f04f 0000 	mov.w	r0, #0
 8006498:	bd70      	pop	{r4, r5, r6, pc}
 800649a:	f041 41fe 	orr.w	r1, r1, #2130706432	; 0x7f000000
 800649e:	f441 0178 	orr.w	r1, r1, #16252928	; 0xf80000
 80064a2:	bd70      	pop	{r4, r5, r6, pc}

080064a4 <__aeabi_ddiv>:
 80064a4:	b570      	push	{r4, r5, r6, lr}
 80064a6:	f04f 0cff 	mov.w	ip, #255	; 0xff
 80064aa:	f44c 6ce0 	orr.w	ip, ip, #1792	; 0x700
 80064ae:	ea1c 5411 	ands.w	r4, ip, r1, lsr #20
 80064b2:	bf1d      	ittte	ne
 80064b4:	ea1c 5513 	andsne.w	r5, ip, r3, lsr #20
 80064b8:	ea94 0f0c 	teqne	r4, ip
 80064bc:	ea95 0f0c 	teqne	r5, ip
 80064c0:	f000 f8a7 	bleq	8006612 <__aeabi_ddiv+0x16e>
 80064c4:	eba4 0405 	sub.w	r4, r4, r5
 80064c8:	ea81 0e03 	eor.w	lr, r1, r3
 80064cc:	ea52 3503 	orrs.w	r5, r2, r3, lsl #12
 80064d0:	ea4f 3101 	mov.w	r1, r1, lsl #12
 80064d4:	f000 8088 	beq.w	80065e8 <__aeabi_ddiv+0x144>
 80064d8:	ea4f 3303 	mov.w	r3, r3, lsl #12
 80064dc:	f04f 5580 	mov.w	r5, #268435456	; 0x10000000
 80064e0:	ea45 1313 	orr.w	r3, r5, r3, lsr #4
 80064e4:	ea43 6312 	orr.w	r3, r3, r2, lsr #24
 80064e8:	ea4f 2202 	mov.w	r2, r2, lsl #8
 80064ec:	ea45 1511 	orr.w	r5, r5, r1, lsr #4
 80064f0:	ea45 6510 	orr.w	r5, r5, r0, lsr #24
 80064f4:	ea4f 2600 	mov.w	r6, r0, lsl #8
 80064f8:	f00e 4100 	and.w	r1, lr, #2147483648	; 0x80000000
 80064fc:	429d      	cmp	r5, r3
 80064fe:	bf08      	it	eq
 8006500:	4296      	cmpeq	r6, r2
 8006502:	f144 04fd 	adc.w	r4, r4, #253	; 0xfd
 8006506:	f504 7440 	add.w	r4, r4, #768	; 0x300
 800650a:	d202      	bcs.n	8006512 <__aeabi_ddiv+0x6e>
 800650c:	085b      	lsrs	r3, r3, #1
 800650e:	ea4f 0232 	mov.w	r2, r2, rrx
 8006512:	1ab6      	subs	r6, r6, r2
 8006514:	eb65 0503 	sbc.w	r5, r5, r3
 8006518:	085b      	lsrs	r3, r3, #1
 800651a:	ea4f 0232 	mov.w	r2, r2, rrx
 800651e:	f44f 1080 	mov.w	r0, #1048576	; 0x100000
 8006522:	f44f 2c00 	mov.w	ip, #524288	; 0x80000
 8006526:	ebb6 0e02 	subs.w	lr, r6, r2
 800652a:	eb75 0e03 	sbcs.w	lr, r5, r3
 800652e:	bf22      	ittt	cs
 8006530:	1ab6      	subcs	r6, r6, r2
 8006532:	4675      	movcs	r5, lr
 8006534:	ea40 000c 	orrcs.w	r0, r0, ip
 8006538:	085b      	lsrs	r3, r3, #1
 800653a:	ea4f 0232 	mov.w	r2, r2, rrx
 800653e:	ebb6 0e02 	subs.w	lr, r6, r2
 8006542:	eb75 0e03 	sbcs.w	lr, r5, r3
 8006546:	bf22      	ittt	cs
 8006548:	1ab6      	subcs	r6, r6, r2
 800654a:	4675      	movcs	r5, lr
 800654c:	ea40 005c 	orrcs.w	r0, r0, ip, lsr #1
 8006550:	085b      	lsrs	r3, r3, #1
 8006552:	ea4f 0232 	mov.w	r2, r2, rrx
 8006556:	ebb6 0e02 	subs.w	lr, r6, r2
 800655a:	eb75 0e03 	sbcs.w	lr, r5, r3
 800655e:	bf22      	ittt	cs
 8006560:	1ab6      	subcs	r6, r6, r2
 8006562:	4675      	movcs	r5, lr
 8006564:	ea40 009c 	orrcs.w	r0, r0, ip, lsr #2
 8006568:	085b      	lsrs	r3, r3, #1
 800656a:	ea4f 0232 	mov.w	r2, r2, rrx
 800656e:	ebb6 0e02 	subs.w	lr, r6, r2
 8006572:	eb75 0e03 	sbcs.w	lr, r5, r3
 8006576:	bf22      	ittt	cs
 8006578:	1ab6      	subcs	r6, r6, r2
 800657a:	4675      	movcs	r5, lr
 800657c:	ea40 00dc 	orrcs.w	r0, r0, ip, lsr #3
 8006580:	ea55 0e06 	orrs.w	lr, r5, r6
 8006584:	d018      	beq.n	80065b8 <__aeabi_ddiv+0x114>
 8006586:	ea4f 1505 	mov.w	r5, r5, lsl #4
 800658a:	ea45 7516 	orr.w	r5, r5, r6, lsr #28
 800658e:	ea4f 1606 	mov.w	r6, r6, lsl #4
 8006592:	ea4f 03c3 	mov.w	r3, r3, lsl #3
 8006596:	ea43 7352 	orr.w	r3, r3, r2, lsr #29
 800659a:	ea4f 02c2 	mov.w	r2, r2, lsl #3
 800659e:	ea5f 1c1c 	movs.w	ip, ip, lsr #4
 80065a2:	d1c0      	bne.n	8006526 <__aeabi_ddiv+0x82>
 80065a4:	f411 1f80 	tst.w	r1, #1048576	; 0x100000
 80065a8:	d10b      	bne.n	80065c2 <__aeabi_ddiv+0x11e>
 80065aa:	ea41 0100 	orr.w	r1, r1, r0
 80065ae:	f04f 0000 	mov.w	r0, #0
 80065b2:	f04f 4c00 	mov.w	ip, #2147483648	; 0x80000000
 80065b6:	e7b6      	b.n	8006526 <__aeabi_ddiv+0x82>
 80065b8:	f411 1f80 	tst.w	r1, #1048576	; 0x100000
 80065bc:	bf04      	itt	eq
 80065be:	4301      	orreq	r1, r0
 80065c0:	2000      	moveq	r0, #0
 80065c2:	f1b4 0cfd 	subs.w	ip, r4, #253	; 0xfd
 80065c6:	bf88      	it	hi
 80065c8:	f5bc 6fe0 	cmphi.w	ip, #1792	; 0x700
 80065cc:	f63f aeaf 	bhi.w	800632e <__aeabi_dmul+0xde>
 80065d0:	ebb5 0c03 	subs.w	ip, r5, r3
 80065d4:	bf04      	itt	eq
 80065d6:	ebb6 0c02 	subseq.w	ip, r6, r2
 80065da:	ea5f 0c50 	movseq.w	ip, r0, lsr #1
 80065de:	f150 0000 	adcs.w	r0, r0, #0
 80065e2:	eb41 5104 	adc.w	r1, r1, r4, lsl #20
 80065e6:	bd70      	pop	{r4, r5, r6, pc}
 80065e8:	f00e 4e00 	and.w	lr, lr, #2147483648	; 0x80000000
 80065ec:	ea4e 3111 	orr.w	r1, lr, r1, lsr #12
 80065f0:	eb14 045c 	adds.w	r4, r4, ip, lsr #1
 80065f4:	bfc2      	ittt	gt
 80065f6:	ebd4 050c 	rsbsgt	r5, r4, ip
 80065fa:	ea41 5104 	orrgt.w	r1, r1, r4, lsl #20
 80065fe:	bd70      	popgt	{r4, r5, r6, pc}
 8006600:	f441 1180 	orr.w	r1, r1, #1048576	; 0x100000
 8006604:	f04f 0e00 	mov.w	lr, #0
 8006608:	3c01      	subs	r4, #1
 800660a:	e690      	b.n	800632e <__aeabi_dmul+0xde>
 800660c:	ea45 0e06 	orr.w	lr, r5, r6
 8006610:	e68d      	b.n	800632e <__aeabi_dmul+0xde>
 8006612:	ea0c 5513 	and.w	r5, ip, r3, lsr #20
 8006616:	ea94 0f0c 	teq	r4, ip
 800661a:	bf08      	it	eq
 800661c:	ea95 0f0c 	teqeq	r5, ip
 8006620:	f43f af3b 	beq.w	800649a <__aeabi_dmul+0x24a>
 8006624:	ea94 0f0c 	teq	r4, ip
 8006628:	d10a      	bne.n	8006640 <__aeabi_ddiv+0x19c>
 800662a:	ea50 3401 	orrs.w	r4, r0, r1, lsl #12
 800662e:	f47f af34 	bne.w	800649a <__aeabi_dmul+0x24a>
 8006632:	ea95 0f0c 	teq	r5, ip
 8006636:	f47f af25 	bne.w	8006484 <__aeabi_dmul+0x234>
 800663a:	4610      	mov	r0, r2
 800663c:	4619      	mov	r1, r3
 800663e:	e72c      	b.n	800649a <__aeabi_dmul+0x24a>
 8006640:	ea95 0f0c 	teq	r5, ip
 8006644:	d106      	bne.n	8006654 <__aeabi_ddiv+0x1b0>
 8006646:	ea52 3503 	orrs.w	r5, r2, r3, lsl #12
 800664a:	f43f aefd 	beq.w	8006448 <__aeabi_dmul+0x1f8>
 800664e:	4610      	mov	r0, r2
 8006650:	4619      	mov	r1, r3
 8006652:	e722      	b.n	800649a <__aeabi_dmul+0x24a>
 8006654:	ea50 0641 	orrs.w	r6, r0, r1, lsl #1
 8006658:	bf18      	it	ne
 800665a:	ea52 0643 	orrsne.w	r6, r2, r3, lsl #1
 800665e:	f47f aec5 	bne.w	80063ec <__aeabi_dmul+0x19c>
 8006662:	ea50 0441 	orrs.w	r4, r0, r1, lsl #1
 8006666:	f47f af0d 	bne.w	8006484 <__aeabi_dmul+0x234>
 800666a:	ea52 0543 	orrs.w	r5, r2, r3, lsl #1
 800666e:	f47f aeeb 	bne.w	8006448 <__aeabi_dmul+0x1f8>
 8006672:	e712      	b.n	800649a <__aeabi_dmul+0x24a>

08006674 <__aeabi_dcmpun>:
 8006674:	ea4f 0c41 	mov.w	ip, r1, lsl #1
 8006678:	ea7f 5c6c 	mvns.w	ip, ip, asr #21
 800667c:	d102      	bne.n	8006684 <__aeabi_dcmpun+0x10>
 800667e:	ea50 3c01 	orrs.w	ip, r0, r1, lsl #12
 8006682:	d10a      	bne.n	800669a <__aeabi_dcmpun+0x26>
 8006684:	ea4f 0c43 	mov.w	ip, r3, lsl #1
 8006688:	ea7f 5c6c 	mvns.w	ip, ip, asr #21
 800668c:	d102      	bne.n	8006694 <__aeabi_dcmpun+0x20>
 800668e:	ea52 3c03 	orrs.w	ip, r2, r3, lsl #12
 8006692:	d102      	bne.n	800669a <__aeabi_dcmpun+0x26>
 8006694:	f04f 0000 	mov.w	r0, #0
 8006698:	4770      	bx	lr
 800669a:	f04f 0001 	mov.w	r0, #1
 800669e:	4770      	bx	lr

080066a0 <__aeabi_fmul>:
 80066a0:	f04f 0cff 	mov.w	ip, #255	; 0xff
 80066a4:	ea1c 52d0 	ands.w	r2, ip, r0, lsr #23
 80066a8:	bf1e      	ittt	ne
 80066aa:	ea1c 53d1 	andsne.w	r3, ip, r1, lsr #23
 80066ae:	ea92 0f0c 	teqne	r2, ip
 80066b2:	ea93 0f0c 	teqne	r3, ip
 80066b6:	d06f      	beq.n	8006798 <__aeabi_fmul+0xf8>
 80066b8:	441a      	add	r2, r3
 80066ba:	ea80 0c01 	eor.w	ip, r0, r1
 80066be:	0240      	lsls	r0, r0, #9
 80066c0:	bf18      	it	ne
 80066c2:	ea5f 2141 	movsne.w	r1, r1, lsl #9
 80066c6:	d01e      	beq.n	8006706 <__aeabi_fmul+0x66>
 80066c8:	f04f 6300 	mov.w	r3, #134217728	; 0x8000000
 80066cc:	ea43 1050 	orr.w	r0, r3, r0, lsr #5
 80066d0:	ea43 1151 	orr.w	r1, r3, r1, lsr #5
 80066d4:	fba0 3101 	umull	r3, r1, r0, r1
 80066d8:	f00c 4000 	and.w	r0, ip, #2147483648	; 0x80000000
 80066dc:	f5b1 0f00 	cmp.w	r1, #8388608	; 0x800000
 80066e0:	bf3e      	ittt	cc
 80066e2:	0049      	lslcc	r1, r1, #1
 80066e4:	ea41 71d3 	orrcc.w	r1, r1, r3, lsr #31
 80066e8:	005b      	lslcc	r3, r3, #1
 80066ea:	ea40 0001 	orr.w	r0, r0, r1
 80066ee:	f162 027f 	sbc.w	r2, r2, #127	; 0x7f
 80066f2:	2afd      	cmp	r2, #253	; 0xfd
 80066f4:	d81d      	bhi.n	8006732 <__aeabi_fmul+0x92>
 80066f6:	f1b3 4f00 	cmp.w	r3, #2147483648	; 0x80000000
 80066fa:	eb40 50c2 	adc.w	r0, r0, r2, lsl #23
 80066fe:	bf08      	it	eq
 8006700:	f020 0001 	biceq.w	r0, r0, #1
 8006704:	4770      	bx	lr
 8006706:	f090 0f00 	teq	r0, #0
 800670a:	f00c 4c00 	and.w	ip, ip, #2147483648	; 0x80000000
 800670e:	bf08      	it	eq
 8006710:	0249      	lsleq	r1, r1, #9
 8006712:	ea4c 2050 	orr.w	r0, ip, r0, lsr #9
 8006716:	ea40 2051 	orr.w	r0, r0, r1, lsr #9
 800671a:	3a7f      	subs	r2, #127	; 0x7f
 800671c:	bfc2      	ittt	gt
 800671e:	f1d2 03ff 	rsbsgt	r3, r2, #255	; 0xff
 8006722:	ea40 50c2 	orrgt.w	r0, r0, r2, lsl #23
 8006726:	4770      	bxgt	lr
 8006728:	f440 0000 	orr.w	r0, r0, #8388608	; 0x800000
 800672c:	f04f 0300 	mov.w	r3, #0
 8006730:	3a01      	subs	r2, #1
 8006732:	dc5d      	bgt.n	80067f0 <__aeabi_fmul+0x150>
 8006734:	f112 0f19 	cmn.w	r2, #25
 8006738:	bfdc      	itt	le
 800673a:	f000 4000 	andle.w	r0, r0, #2147483648	; 0x80000000
 800673e:	4770      	bxle	lr
 8006740:	f1c2 0200 	rsb	r2, r2, #0
 8006744:	0041      	lsls	r1, r0, #1
 8006746:	fa21 f102 	lsr.w	r1, r1, r2
 800674a:	f1c2 0220 	rsb	r2, r2, #32
 800674e:	fa00 fc02 	lsl.w	ip, r0, r2
 8006752:	ea5f 0031 	movs.w	r0, r1, rrx
 8006756:	f140 0000 	adc.w	r0, r0, #0
 800675a:	ea53 034c 	orrs.w	r3, r3, ip, lsl #1
 800675e:	bf08      	it	eq
 8006760:	ea20 70dc 	biceq.w	r0, r0, ip, lsr #31
 8006764:	4770      	bx	lr
 8006766:	f092 0f00 	teq	r2, #0
 800676a:	f000 4c00 	and.w	ip, r0, #2147483648	; 0x80000000
 800676e:	bf02      	ittt	eq
 8006770:	0040      	lsleq	r0, r0, #1
 8006772:	f410 0f00 	tsteq.w	r0, #8388608	; 0x800000
 8006776:	3a01      	subeq	r2, #1
 8006778:	d0f9      	beq.n	800676e <__aeabi_fmul+0xce>
 800677a:	ea40 000c 	orr.w	r0, r0, ip
 800677e:	f093 0f00 	teq	r3, #0
 8006782:	f001 4c00 	and.w	ip, r1, #2147483648	; 0x80000000
 8006786:	bf02      	ittt	eq
 8006788:	0049      	lsleq	r1, r1, #1
 800678a:	f411 0f00 	tsteq.w	r1, #8388608	; 0x800000
 800678e:	3b01      	subeq	r3, #1
 8006790:	d0f9      	beq.n	8006786 <__aeabi_fmul+0xe6>
 8006792:	ea41 010c 	orr.w	r1, r1, ip
 8006796:	e78f      	b.n	80066b8 <__aeabi_fmul+0x18>
 8006798:	ea0c 53d1 	and.w	r3, ip, r1, lsr #23
 800679c:	ea92 0f0c 	teq	r2, ip
 80067a0:	bf18      	it	ne
 80067a2:	ea93 0f0c 	teqne	r3, ip
 80067a6:	d00a      	beq.n	80067be <__aeabi_fmul+0x11e>
 80067a8:	f030 4c00 	bics.w	ip, r0, #2147483648	; 0x80000000
 80067ac:	bf18      	it	ne
 80067ae:	f031 4c00 	bicsne.w	ip, r1, #2147483648	; 0x80000000
 80067b2:	d1d8      	bne.n	8006766 <__aeabi_fmul+0xc6>
 80067b4:	ea80 0001 	eor.w	r0, r0, r1
 80067b8:	f000 4000 	and.w	r0, r0, #2147483648	; 0x80000000
 80067bc:	4770      	bx	lr
 80067be:	f090 0f00 	teq	r0, #0
 80067c2:	bf17      	itett	ne
 80067c4:	f090 4f00 	teqne	r0, #2147483648	; 0x80000000
 80067c8:	4608      	moveq	r0, r1
 80067ca:	f091 0f00 	teqne	r1, #0
 80067ce:	f091 4f00 	teqne	r1, #2147483648	; 0x80000000
 80067d2:	d014      	beq.n	80067fe <__aeabi_fmul+0x15e>
 80067d4:	ea92 0f0c 	teq	r2, ip
 80067d8:	d101      	bne.n	80067de <__aeabi_fmul+0x13e>
 80067da:	0242      	lsls	r2, r0, #9
 80067dc:	d10f      	bne.n	80067fe <__aeabi_fmul+0x15e>
 80067de:	ea93 0f0c 	teq	r3, ip
 80067e2:	d103      	bne.n	80067ec <__aeabi_fmul+0x14c>
 80067e4:	024b      	lsls	r3, r1, #9
 80067e6:	bf18      	it	ne
 80067e8:	4608      	movne	r0, r1
 80067ea:	d108      	bne.n	80067fe <__aeabi_fmul+0x15e>
 80067ec:	ea80 0001 	eor.w	r0, r0, r1
 80067f0:	f000 4000 	and.w	r0, r0, #2147483648	; 0x80000000
 80067f4:	f040 40fe 	orr.w	r0, r0, #2130706432	; 0x7f000000
 80067f8:	f440 0000 	orr.w	r0, r0, #8388608	; 0x800000
 80067fc:	4770      	bx	lr
 80067fe:	f040 40fe 	orr.w	r0, r0, #2130706432	; 0x7f000000
 8006802:	f440 0040 	orr.w	r0, r0, #12582912	; 0xc00000
 8006806:	4770      	bx	lr

08006808 <__aeabi_fdiv>:
 8006808:	f04f 0cff 	mov.w	ip, #255	; 0xff
 800680c:	ea1c 52d0 	ands.w	r2, ip, r0, lsr #23
 8006810:	bf1e      	ittt	ne
 8006812:	ea1c 53d1 	andsne.w	r3, ip, r1, lsr #23
 8006816:	ea92 0f0c 	teqne	r2, ip
 800681a:	ea93 0f0c 	teqne	r3, ip
 800681e:	d069      	beq.n	80068f4 <__aeabi_fdiv+0xec>
 8006820:	eba2 0203 	sub.w	r2, r2, r3
 8006824:	ea80 0c01 	eor.w	ip, r0, r1
 8006828:	0249      	lsls	r1, r1, #9
 800682a:	ea4f 2040 	mov.w	r0, r0, lsl #9
 800682e:	d037      	beq.n	80068a0 <__aeabi_fdiv+0x98>
 8006830:	f04f 5380 	mov.w	r3, #268435456	; 0x10000000
 8006834:	ea43 1111 	orr.w	r1, r3, r1, lsr #4
 8006838:	ea43 1310 	orr.w	r3, r3, r0, lsr #4
 800683c:	f00c 4000 	and.w	r0, ip, #2147483648	; 0x80000000
 8006840:	428b      	cmp	r3, r1
 8006842:	bf38      	it	cc
 8006844:	005b      	lslcc	r3, r3, #1
 8006846:	f142 027d 	adc.w	r2, r2, #125	; 0x7d
 800684a:	f44f 0c00 	mov.w	ip, #8388608	; 0x800000
 800684e:	428b      	cmp	r3, r1
 8006850:	bf24      	itt	cs
 8006852:	1a5b      	subcs	r3, r3, r1
 8006854:	ea40 000c 	orrcs.w	r0, r0, ip
 8006858:	ebb3 0f51 	cmp.w	r3, r1, lsr #1
 800685c:	bf24      	itt	cs
 800685e:	eba3 0351 	subcs.w	r3, r3, r1, lsr #1
 8006862:	ea40 005c 	orrcs.w	r0, r0, ip, lsr #1
 8006866:	ebb3 0f91 	cmp.w	r3, r1, lsr #2
 800686a:	bf24      	itt	cs
 800686c:	eba3 0391 	subcs.w	r3, r3, r1, lsr #2
 8006870:	ea40 009c 	orrcs.w	r0, r0, ip, lsr #2
 8006874:	ebb3 0fd1 	cmp.w	r3, r1, lsr #3
 8006878:	bf24      	itt	cs
 800687a:	eba3 03d1 	subcs.w	r3, r3, r1, lsr #3
 800687e:	ea40 00dc 	orrcs.w	r0, r0, ip, lsr #3
 8006882:	011b      	lsls	r3, r3, #4
 8006884:	bf18      	it	ne
 8006886:	ea5f 1c1c 	movsne.w	ip, ip, lsr #4
 800688a:	d1e0      	bne.n	800684e <__aeabi_fdiv+0x46>
 800688c:	2afd      	cmp	r2, #253	; 0xfd
 800688e:	f63f af50 	bhi.w	8006732 <__aeabi_fmul+0x92>
 8006892:	428b      	cmp	r3, r1
 8006894:	eb40 50c2 	adc.w	r0, r0, r2, lsl #23
 8006898:	bf08      	it	eq
 800689a:	f020 0001 	biceq.w	r0, r0, #1
 800689e:	4770      	bx	lr
 80068a0:	f00c 4c00 	and.w	ip, ip, #2147483648	; 0x80000000
 80068a4:	ea4c 2050 	orr.w	r0, ip, r0, lsr #9
 80068a8:	327f      	adds	r2, #127	; 0x7f
 80068aa:	bfc2      	ittt	gt
 80068ac:	f1d2 03ff 	rsbsgt	r3, r2, #255	; 0xff
 80068b0:	ea40 50c2 	orrgt.w	r0, r0, r2, lsl #23
 80068b4:	4770      	bxgt	lr
 80068b6:	f440 0000 	orr.w	r0, r0, #8388608	; 0x800000
 80068ba:	f04f 0300 	mov.w	r3, #0
 80068be:	3a01      	subs	r2, #1
 80068c0:	e737      	b.n	8006732 <__aeabi_fmul+0x92>
 80068c2:	f092 0f00 	teq	r2, #0
 80068c6:	f000 4c00 	and.w	ip, r0, #2147483648	; 0x80000000
 80068ca:	bf02      	ittt	eq
 80068cc:	0040      	lsleq	r0, r0, #1
 80068ce:	f410 0f00 	tsteq.w	r0, #8388608	; 0x800000
 80068d2:	3a01      	subeq	r2, #1
 80068d4:	d0f9      	beq.n	80068ca <__aeabi_fdiv+0xc2>
 80068d6:	ea40 000c 	orr.w	r0, r0, ip
 80068da:	f093 0f00 	teq	r3, #0
 80068de:	f001 4c00 	and.w	ip, r1, #2147483648	; 0x80000000
 80068e2:	bf02      	ittt	eq
 80068e4:	0049      	lsleq	r1, r1, #1
 80068e6:	f411 0f00 	tsteq.w	r1, #8388608	; 0x800000
 80068ea:	3b01      	subeq	r3, #1
 80068ec:	d0f9      	beq.n	80068e2 <__aeabi_fdiv+0xda>
 80068ee:	ea41 010c 	orr.w	r1, r1, ip
 80068f2:	e795      	b.n	8006820 <__aeabi_fdiv+0x18>
 80068f4:	ea0c 53d1 	and.w	r3, ip, r1, lsr #23
 80068f8:	ea92 0f0c 	teq	r2, ip
 80068fc:	d108      	bne.n	8006910 <__aeabi_fdiv+0x108>
 80068fe:	0242      	lsls	r2, r0, #9
 8006900:	f47f af7d 	bne.w	80067fe <__aeabi_fmul+0x15e>
 8006904:	ea93 0f0c 	teq	r3, ip
 8006908:	f47f af70 	bne.w	80067ec <__aeabi_fmul+0x14c>
 800690c:	4608      	mov	r0, r1
 800690e:	e776      	b.n	80067fe <__aeabi_fmul+0x15e>
 8006910:	ea93 0f0c 	teq	r3, ip
 8006914:	d104      	bne.n	8006920 <__aeabi_fdiv+0x118>
 8006916:	024b      	lsls	r3, r1, #9
 8006918:	f43f af4c 	beq.w	80067b4 <__aeabi_fmul+0x114>
 800691c:	4608      	mov	r0, r1
 800691e:	e76e      	b.n	80067fe <__aeabi_fmul+0x15e>
 8006920:	f030 4c00 	bics.w	ip, r0, #2147483648	; 0x80000000
 8006924:	bf18      	it	ne
 8006926:	f031 4c00 	bicsne.w	ip, r1, #2147483648	; 0x80000000
 800692a:	d1ca      	bne.n	80068c2 <__aeabi_fdiv+0xba>
 800692c:	f030 4200 	bics.w	r2, r0, #2147483648	; 0x80000000
 8006930:	f47f af5c 	bne.w	80067ec <__aeabi_fmul+0x14c>
 8006934:	f031 4300 	bics.w	r3, r1, #2147483648	; 0x80000000
 8006938:	f47f af3c 	bne.w	80067b4 <__aeabi_fmul+0x114>
 800693c:	e75f      	b.n	80067fe <__aeabi_fmul+0x15e>
 800693e:	bf00      	nop

08006940 <SystemClock_Config>:
 8006940:	b510      	push	{r4, lr}
 8006942:	b09a      	sub	sp, #104	; 0x68
 8006944:	2248      	movs	r2, #72	; 0x48
 8006946:	2100      	movs	r1, #0
 8006948:	a808      	add	r0, sp, #32
 800694a:	f00d fbef 	bl	801412c <memset>
 800694e:	2218      	movs	r2, #24
 8006950:	2100      	movs	r1, #0
 8006952:	a802      	add	r0, sp, #8
 8006954:	f00d fbea 	bl	801412c <memset>
 8006958:	f022 fd52 	bl	8029400 <HAL_PWR_EnableBkUpAccess>
 800695c:	f04f 42b0 	mov.w	r2, #1476395008	; 0x58000000
 8006960:	2400      	movs	r4, #0
 8006962:	f8d2 3090 	ldr.w	r3, [r2, #144]	; 0x90
 8006966:	f023 0318 	bic.w	r3, r3, #24
 800696a:	f8c2 3090 	str.w	r3, [r2, #144]	; 0x90
 800696e:	f8d2 3400 	ldr.w	r3, [r2, #1024]	; 0x400
 8006972:	f423 63c0 	bic.w	r3, r3, #1536	; 0x600
 8006976:	f443 7300 	orr.w	r3, r3, #512	; 0x200
 800697a:	f8c2 3400 	str.w	r3, [r2, #1024]	; 0x400
 800697e:	f8d2 3400 	ldr.w	r3, [r2, #1024]	; 0x400
 8006982:	9411      	str	r4, [sp, #68]	; 0x44
 8006984:	f403 63c0 	and.w	r3, r3, #1536	; 0x600
 8006988:	9301      	str	r3, [sp, #4]
 800698a:	f44f 7280 	mov.w	r2, #256	; 0x100
 800698e:	9b01      	ldr	r3, [sp, #4]
 8006990:	920c      	str	r2, [sp, #48]	; 0x30
 8006992:	232e      	movs	r3, #46	; 0x2e
 8006994:	2240      	movs	r2, #64	; 0x40
 8006996:	9308      	str	r3, [sp, #32]
 8006998:	2381      	movs	r3, #129	; 0x81
 800699a:	930b      	str	r3, [sp, #44]	; 0x2c
 800699c:	920d      	str	r2, [sp, #52]	; 0x34
 800699e:	2301      	movs	r3, #1
 80069a0:	22b0      	movs	r2, #176	; 0xb0
 80069a2:	a808      	add	r0, sp, #32
 80069a4:	e9cd 340e 	strd	r3, r4, [sp, #56]	; 0x38
 80069a8:	9310      	str	r3, [sp, #64]	; 0x40
 80069aa:	9212      	str	r2, [sp, #72]	; 0x48
 80069ac:	9413      	str	r4, [sp, #76]	; 0x4c
 80069ae:	f020 f9d9 	bl	8026d64 <HAL_RCC_OscConfig>
 80069b2:	b108      	cbz	r0, 80069b8 <SystemClock_Config+0x78>
 80069b4:	f01b fe42 	bl	802263c <Error_Handler>
 80069b8:	234f      	movs	r3, #79	; 0x4f
 80069ba:	2102      	movs	r1, #2
 80069bc:	a802      	add	r0, sp, #8
 80069be:	e9cd 3402 	strd	r3, r4, [sp, #8]
 80069c2:	e9cd 4404 	strd	r4, r4, [sp, #16]
 80069c6:	e9cd 4406 	strd	r4, r4, [sp, #24]
 80069ca:	f020 fc6d 	bl	80272a8 <HAL_RCC_ClockConfig>
 80069ce:	b108      	cbz	r0, 80069d4 <SystemClock_Config+0x94>
 80069d0:	f01b fe34 	bl	802263c <Error_Handler>
 80069d4:	b01a      	add	sp, #104	; 0x68
 80069d6:	bd10      	pop	{r4, pc}

080069d8 <rui_event_handler_func>:
 80069d8:	b513      	push	{r0, r1, r4, lr}
 80069da:	7803      	ldrb	r3, [r0, #0]
 80069dc:	2b08      	cmp	r3, #8
 80069de:	f200 80a2 	bhi.w	8006b26 <rui_event_handler_func+0x14e>
 80069e2:	e8df f003 	tbb	[pc, r3]
 80069e6:	8413      	.short	0x8413
 80069e8:	9494a08b 	.word	0x9494a08b
 80069ec:	a005      	.short	0xa005
 80069ee:	9a          	.byte	0x9a
 80069ef:	00          	.byte	0x00
 80069f0:	7904      	ldrb	r4, [r0, #4]
 80069f2:	4620      	mov	r0, r4
 80069f4:	f01b ff6c 	bl	80228d0 <service_nvm_get_mode_type_from_nvm>
 80069f8:	4620      	mov	r0, r4
 80069fa:	f005 fb1b 	bl	800c034 <service_mode_cli_init>
 80069fe:	2100      	movs	r1, #0
 8006a00:	4620      	mov	r0, r4
 8006a02:	b002      	add	sp, #8
 8006a04:	e8bd 4010 	ldmia.w	sp!, {r4, lr}
 8006a08:	f01b bf6a 	b.w	80228e0 <service_nvm_set_mode_type_to_nvm>
 8006a0c:	2000      	movs	r0, #0
 8006a0e:	f01b ff5f 	bl	80228d0 <service_nvm_get_mode_type_from_nvm>
 8006a12:	2801      	cmp	r0, #1
 8006a14:	d126      	bne.n	8006a64 <rui_event_handler_func+0x8c>
 8006a16:	2001      	movs	r0, #1
 8006a18:	f01b ff5a 	bl	80228d0 <service_nvm_get_mode_type_from_nvm>
 8006a1c:	2801      	cmp	r0, #1
 8006a1e:	d004      	beq.n	8006a2a <rui_event_handler_func+0x52>
 8006a20:	2001      	movs	r0, #1
 8006a22:	f00a fa1b 	bl	8010e5c <udrv_serial_read_available>
 8006a26:	2800      	cmp	r0, #0
 8006a28:	dc2a      	bgt.n	8006a80 <rui_event_handler_func+0xa8>
 8006a2a:	2002      	movs	r0, #2
 8006a2c:	f01b ff50 	bl	80228d0 <service_nvm_get_mode_type_from_nvm>
 8006a30:	2801      	cmp	r0, #1
 8006a32:	d004      	beq.n	8006a3e <rui_event_handler_func+0x66>
 8006a34:	2002      	movs	r0, #2
 8006a36:	f00a fa11 	bl	8010e5c <udrv_serial_read_available>
 8006a3a:	2800      	cmp	r0, #0
 8006a3c:	dc3b      	bgt.n	8006ab6 <rui_event_handler_func+0xde>
 8006a3e:	b002      	add	sp, #8
 8006a40:	bd10      	pop	{r4, pc}
 8006a42:	2201      	movs	r2, #1
 8006a44:	a901      	add	r1, sp, #4
 8006a46:	2000      	movs	r0, #0
 8006a48:	f00a f8d0 	bl	8010bec <udrv_serial_read>
 8006a4c:	2000      	movs	r0, #0
 8006a4e:	f01b ff3f 	bl	80228d0 <service_nvm_get_mode_type_from_nvm>
 8006a52:	4604      	mov	r4, r0
 8006a54:	b930      	cbnz	r0, 8006a64 <rui_event_handler_func+0x8c>
 8006a56:	f00a f9dd 	bl	8010e14 <udrv_serial_get_lock_state>
 8006a5a:	b948      	cbnz	r0, 8006a70 <rui_event_handler_func+0x98>
 8006a5c:	f89d 1004 	ldrb.w	r1, [sp, #4]
 8006a60:	f005 fa54 	bl	800bf0c <service_mode_cli_handler>
 8006a64:	2000      	movs	r0, #0
 8006a66:	f00a f9f9 	bl	8010e5c <udrv_serial_read_available>
 8006a6a:	2800      	cmp	r0, #0
 8006a6c:	dce9      	bgt.n	8006a42 <rui_event_handler_func+0x6a>
 8006a6e:	e7d2      	b.n	8006a16 <rui_event_handler_func+0x3e>
 8006a70:	2801      	cmp	r0, #1
 8006a72:	d1f7      	bne.n	8006a64 <rui_event_handler_func+0x8c>
 8006a74:	f89d 1004 	ldrb.w	r1, [sp, #4]
 8006a78:	4620      	mov	r0, r4
 8006a7a:	f00a f925 	bl	8010cc8 <udrv_serial_wlock_handler>
 8006a7e:	e7f1      	b.n	8006a64 <rui_event_handler_func+0x8c>
 8006a80:	2201      	movs	r2, #1
 8006a82:	a901      	add	r1, sp, #4
 8006a84:	4610      	mov	r0, r2
 8006a86:	f00a f8b1 	bl	8010bec <udrv_serial_read>
 8006a8a:	2001      	movs	r0, #1
 8006a8c:	f01b ff20 	bl	80228d0 <service_nvm_get_mode_type_from_nvm>
 8006a90:	2800      	cmp	r0, #0
 8006a92:	d1c5      	bne.n	8006a20 <rui_event_handler_func+0x48>
 8006a94:	2001      	movs	r0, #1
 8006a96:	f00a f9bd 	bl	8010e14 <udrv_serial_get_lock_state>
 8006a9a:	b928      	cbnz	r0, 8006aa8 <rui_event_handler_func+0xd0>
 8006a9c:	f89d 1004 	ldrb.w	r1, [sp, #4]
 8006aa0:	2001      	movs	r0, #1
 8006aa2:	f005 fa33 	bl	800bf0c <service_mode_cli_handler>
 8006aa6:	e7bb      	b.n	8006a20 <rui_event_handler_func+0x48>
 8006aa8:	2801      	cmp	r0, #1
 8006aaa:	d1b9      	bne.n	8006a20 <rui_event_handler_func+0x48>
 8006aac:	f89d 1004 	ldrb.w	r1, [sp, #4]
 8006ab0:	f00a f90a 	bl	8010cc8 <udrv_serial_wlock_handler>
 8006ab4:	e7b4      	b.n	8006a20 <rui_event_handler_func+0x48>
 8006ab6:	2201      	movs	r2, #1
 8006ab8:	a901      	add	r1, sp, #4
 8006aba:	2002      	movs	r0, #2
 8006abc:	f00a f896 	bl	8010bec <udrv_serial_read>
 8006ac0:	2002      	movs	r0, #2
 8006ac2:	f01b ff05 	bl	80228d0 <service_nvm_get_mode_type_from_nvm>
 8006ac6:	2800      	cmp	r0, #0
 8006ac8:	d1b4      	bne.n	8006a34 <rui_event_handler_func+0x5c>
 8006aca:	2002      	movs	r0, #2
 8006acc:	f00a f9a2 	bl	8010e14 <udrv_serial_get_lock_state>
 8006ad0:	b928      	cbnz	r0, 8006ade <rui_event_handler_func+0x106>
 8006ad2:	f89d 1004 	ldrb.w	r1, [sp, #4]
 8006ad6:	2002      	movs	r0, #2
 8006ad8:	f005 fa18 	bl	800bf0c <service_mode_cli_handler>
 8006adc:	e7aa      	b.n	8006a34 <rui_event_handler_func+0x5c>
 8006ade:	2801      	cmp	r0, #1
 8006ae0:	d1a8      	bne.n	8006a34 <rui_event_handler_func+0x5c>
 8006ae2:	f89d 1004 	ldrb.w	r1, [sp, #4]
 8006ae6:	2002      	movs	r0, #2
 8006ae8:	f00a f8ee 	bl	8010cc8 <udrv_serial_wlock_handler>
 8006aec:	e7a2      	b.n	8006a34 <rui_event_handler_func+0x5c>
 8006aee:	f02a f923 	bl	8030d38 <LoRaMacProcess>
 8006af2:	b002      	add	sp, #8
 8006af4:	e8bd 4010 	ldmia.w	sp!, {r4, lr}
 8006af8:	f01a bb4e 	b.w	8021198 <LmHandlerPackagesProcess>
 8006afc:	4b0e      	ldr	r3, [pc, #56]	; (8006b38 <rui_event_handler_func+0x160>)
 8006afe:	681b      	ldr	r3, [r3, #0]
 8006b00:	2b00      	cmp	r3, #0
 8006b02:	d09c      	beq.n	8006a3e <rui_event_handler_func+0x66>
 8006b04:	6840      	ldr	r0, [r0, #4]
 8006b06:	b002      	add	sp, #8
 8006b08:	e8bd 4010 	ldmia.w	sp!, {r4, lr}
 8006b0c:	4718      	bx	r3
 8006b0e:	6840      	ldr	r0, [r0, #4]
 8006b10:	b002      	add	sp, #8
 8006b12:	e8bd 4010 	ldmia.w	sp!, {r4, lr}
 8006b16:	f00a ba37 	b.w	8010f88 <udrv_system_timer_handler_handler>
 8006b1a:	6840      	ldr	r0, [r0, #4]
 8006b1c:	b002      	add	sp, #8
 8006b1e:	e8bd 4010 	ldmia.w	sp!, {r4, lr}
 8006b22:	f009 bed1 	b.w	80108c8 <udrv_gpio_handler_handler>
 8006b26:	4b05      	ldr	r3, [pc, #20]	; (8006b3c <rui_event_handler_func+0x164>)
 8006b28:	6e1b      	ldr	r3, [r3, #96]	; 0x60
 8006b2a:	2b00      	cmp	r3, #0
 8006b2c:	d087      	beq.n	8006a3e <rui_event_handler_func+0x66>
 8006b2e:	b002      	add	sp, #8
 8006b30:	e8bd 4010 	ldmia.w	sp!, {r4, lr}
 8006b34:	4718      	bx	r3
 8006b36:	bf00      	nop
 8006b38:	200079ec 	.word	0x200079ec
 8006b3c:	0803c988 	.word	0x0803c988

08006b40 <rui_init>:
 8006b40:	b530      	push	{r4, r5, lr}
 8006b42:	4b2d      	ldr	r3, [pc, #180]	; (8006bf8 <rui_init+0xb8>)
 8006b44:	4a2d      	ldr	r2, [pc, #180]	; (8006bfc <rui_init+0xbc>)
 8006b46:	609a      	str	r2, [r3, #8]
 8006b48:	b085      	sub	sp, #20
 8006b4a:	f01f fe3f 	bl	80267cc <HAL_Init>
 8006b4e:	f7ff fef7 	bl	8006940 <SystemClock_Config>
 8006b52:	f04f 43b0 	mov.w	r3, #1476395008	; 0x58000000
 8006b56:	200b      	movs	r0, #11
 8006b58:	6c9a      	ldr	r2, [r3, #72]	; 0x48
 8006b5a:	f042 0204 	orr.w	r2, r2, #4
 8006b5e:	649a      	str	r2, [r3, #72]	; 0x48
 8006b60:	6c9a      	ldr	r2, [r3, #72]	; 0x48
 8006b62:	f002 0204 	and.w	r2, r2, #4
 8006b66:	9203      	str	r2, [sp, #12]
 8006b68:	9a03      	ldr	r2, [sp, #12]
 8006b6a:	6c9a      	ldr	r2, [r3, #72]	; 0x48
 8006b6c:	f042 0201 	orr.w	r2, r2, #1
 8006b70:	649a      	str	r2, [r3, #72]	; 0x48
 8006b72:	6c9b      	ldr	r3, [r3, #72]	; 0x48
 8006b74:	2200      	movs	r2, #0
 8006b76:	f003 0301 	and.w	r3, r3, #1
 8006b7a:	4611      	mov	r1, r2
 8006b7c:	9302      	str	r3, [sp, #8]
 8006b7e:	9b02      	ldr	r3, [sp, #8]
 8006b80:	f01d f92a 	bl	8023dd8 <HAL_NVIC_SetPriority>
 8006b84:	200b      	movs	r0, #11
 8006b86:	f01d f959 	bl	8023e3c <HAL_NVIC_EnableIRQ>
 8006b8a:	f00a f9f1 	bl	8010f70 <udrv_timer_init>
 8006b8e:	f009 fe55 	bl	801083c <service_nvm_init_config>
 8006b92:	f01c f815 	bl	8022bc0 <service_nvm_get_baudrate_from_nvm>
 8006b96:	2400      	movs	r4, #0
 8006b98:	4601      	mov	r1, r0
 8006b9a:	4605      	mov	r5, r0
 8006b9c:	4623      	mov	r3, r4
 8006b9e:	2203      	movs	r2, #3
 8006ba0:	2001      	movs	r0, #1
 8006ba2:	e9cd 4400 	strd	r4, r4, [sp]
 8006ba6:	f009 ff47 	bl	8010a38 <udrv_serial_init>
 8006baa:	4623      	mov	r3, r4
 8006bac:	2203      	movs	r2, #3
 8006bae:	4629      	mov	r1, r5
 8006bb0:	2002      	movs	r0, #2
 8006bb2:	e9cd 4400 	strd	r4, r4, [sp]
 8006bb6:	f009 ff3f 	bl	8010a38 <udrv_serial_init>
 8006bba:	f01c fdf9 	bl	80237b0 <service_lora_mac_nvm_data_init>
 8006bbe:	f01c f89d 	bl	8022cfc <service_nvm_get_band_from_nvm>
 8006bc2:	f002 fd15 	bl	80095f0 <service_lora_init>
 8006bc6:	b2e5      	uxtb	r5, r4
 8006bc8:	4628      	mov	r0, r5
 8006bca:	f01b fe81 	bl	80228d0 <service_nvm_get_mode_type_from_nvm>
 8006bce:	b910      	cbnz	r0, 8006bd6 <rui_init+0x96>
 8006bd0:	4628      	mov	r0, r5
 8006bd2:	f005 fa2f 	bl	800c034 <service_mode_cli_init>
 8006bd6:	3401      	adds	r4, #1
 8006bd8:	2c03      	cmp	r4, #3
 8006bda:	d1f4      	bne.n	8006bc6 <rui_init+0x86>
 8006bdc:	f00a f9b0 	bl	8010f40 <udrv_system_event_init>
 8006be0:	f01c fdd4 	bl	802378c <service_nvm_get_certi_from_nvm>
 8006be4:	2801      	cmp	r0, #1
 8006be6:	d104      	bne.n	8006bf2 <rui_init+0xb2>
 8006be8:	b005      	add	sp, #20
 8006bea:	e8bd 4030 	ldmia.w	sp!, {r4, r5, lr}
 8006bee:	f003 bd51 	b.w	800a694 <service_lora_certification>
 8006bf2:	b005      	add	sp, #20
 8006bf4:	bd30      	pop	{r4, r5, pc}
 8006bf6:	bf00      	nop
 8006bf8:	e000ed00 	.word	0xe000ed00
 8006bfc:	08006000 	.word	0x08006000

08006c00 <rui_running>:
 8006c00:	b508      	push	{r3, lr}
 8006c02:	f00a f9ab 	bl	8010f5c <udrv_system_event_consume>
 8006c06:	e8bd 4008 	ldmia.w	sp!, {r3, lr}
 8006c0a:	f01a bac5 	b.w	8021198 <LmHandlerPackagesProcess>
	...

08006c10 <main>:
 8006c10:	b513      	push	{r0, r1, r4, lr}
 8006c12:	f7ff ff95 	bl	8006b40 <rui_init>
 8006c16:	f04f 43b0 	mov.w	r3, #1476395008	; 0x58000000
 8006c1a:	6cda      	ldr	r2, [r3, #76]	; 0x4c
 8006c1c:	f042 0202 	orr.w	r2, r2, #2
 8006c20:	64da      	str	r2, [r3, #76]	; 0x4c
 8006c22:	6cdb      	ldr	r3, [r3, #76]	; 0x4c
 8006c24:	f003 0302 	and.w	r3, r3, #2
 8006c28:	9301      	str	r3, [sp, #4]
 8006c2a:	9b01      	ldr	r3, [sp, #4]
 8006c2c:	f00b fd2a 	bl	8012684 <rui_setup>
 8006c30:	f019 f986 	bl	801ff40 <BoardGetHardwareFreq>
 8006c34:	b1f0      	cbz	r0, 8006c74 <main+0x64>
 8006c36:	4816      	ldr	r0, [pc, #88]	; (8006c90 <main+0x80>)
 8006c38:	f001 fa8d 	bl	8008156 <service_debug>
 8006c3c:	4b15      	ldr	r3, [pc, #84]	; (8006c94 <main+0x84>)
 8006c3e:	4816      	ldr	r0, [pc, #88]	; (8006c98 <main+0x88>)
 8006c40:	681a      	ldr	r2, [r3, #0]
 8006c42:	4b16      	ldr	r3, [pc, #88]	; (8006c9c <main+0x8c>)
 8006c44:	6819      	ldr	r1, [r3, #0]
 8006c46:	f001 fa86 	bl	8008156 <service_debug>
 8006c4a:	4815      	ldr	r0, [pc, #84]	; (8006ca0 <main+0x90>)
 8006c4c:	f009 ff90 	bl	8010b70 <udrv_serial_log_printf>
 8006c50:	f019 f9ca 	bl	801ffe8 <service_lora_get_nwm>
 8006c54:	2801      	cmp	r0, #1
 8006c56:	d00f      	beq.n	8006c78 <main+0x68>
 8006c58:	2802      	cmp	r0, #2
 8006c5a:	d00f      	beq.n	8006c7c <main+0x6c>
 8006c5c:	b910      	cbnz	r0, 8006c64 <main+0x54>
 8006c5e:	4811      	ldr	r0, [pc, #68]	; (8006ca4 <main+0x94>)
 8006c60:	f009 ff86 	bl	8010b70 <udrv_serial_log_printf>
 8006c64:	4c10      	ldr	r4, [pc, #64]	; (8006ca8 <main+0x98>)
 8006c66:	f7ff ffcb 	bl	8006c00 <rui_running>
 8006c6a:	7823      	ldrb	r3, [r4, #0]
 8006c6c:	b943      	cbnz	r3, 8006c80 <main+0x70>
 8006c6e:	f00b fd0b 	bl	8012688 <rui_loop>
 8006c72:	e7f8      	b.n	8006c66 <main+0x56>
 8006c74:	480d      	ldr	r0, [pc, #52]	; (8006cac <main+0x9c>)
 8006c76:	e7df      	b.n	8006c38 <main+0x28>
 8006c78:	480d      	ldr	r0, [pc, #52]	; (8006cb0 <main+0xa0>)
 8006c7a:	e7f1      	b.n	8006c60 <main+0x50>
 8006c7c:	480d      	ldr	r0, [pc, #52]	; (8006cb4 <main+0xa4>)
 8006c7e:	e7ef      	b.n	8006c60 <main+0x50>
 8006c80:	f01b fe6e 	bl	8022960 <service_nvm_get_auto_sleep_time_from_nvm>
 8006c84:	2800      	cmp	r0, #0
 8006c86:	d0ee      	beq.n	8006c66 <main+0x56>
 8006c88:	2000      	movs	r0, #0
 8006c8a:	f009 fe9f 	bl	80109cc <udrv_sleep_ms>
 8006c8e:	e7ea      	b.n	8006c66 <main+0x56>
 8006c90:	080171a3 	.word	0x080171a3
 8006c94:	200002bc 	.word	0x200002bc
 8006c98:	080171b9 	.word	0x080171b9
 8006c9c:	200002b0 	.word	0x200002b0
 8006ca0:	080171c9 	.word	0x080171c9
 8006ca4:	080171dd 	.word	0x080171dd
 8006ca8:	20006cec 	.word	0x20006cec
 8006cac:	080171ae 	.word	0x080171ae
 8006cb0:	080171e9 	.word	0x080171e9
 8006cb4:	080171f4 	.word	0x080171f4

08006cb8 <Reset_Handler>:
 8006cb8:	4817      	ldr	r0, [pc, #92]	; (8006d18 <LoopForever+0x4>)
 8006cba:	4685      	mov	sp, r0
 8006cbc:	f01b fcd0 	bl	8022660 <SystemInit>
 8006cc0:	4816      	ldr	r0, [pc, #88]	; (8006d1c <LoopForever+0x8>)
 8006cc2:	4917      	ldr	r1, [pc, #92]	; (8006d20 <LoopForever+0xc>)
 8006cc4:	4a17      	ldr	r2, [pc, #92]	; (8006d24 <LoopForever+0x10>)
 8006cc6:	2300      	movs	r3, #0
 8006cc8:	e002      	b.n	8006cd0 <LoopCopyDataInit_lora>

08006cca <CopyDataInit_lora>:
 8006cca:	58d4      	ldr	r4, [r2, r3]
 8006ccc:	50c4      	str	r4, [r0, r3]
 8006cce:	3304      	adds	r3, #4

08006cd0 <LoopCopyDataInit_lora>:
 8006cd0:	18c4      	adds	r4, r0, r3
 8006cd2:	428c      	cmp	r4, r1
 8006cd4:	d3f9      	bcc.n	8006cca <CopyDataInit_lora>
 8006cd6:	4a14      	ldr	r2, [pc, #80]	; (8006d28 <LoopForever+0x14>)
 8006cd8:	4c14      	ldr	r4, [pc, #80]	; (8006d2c <LoopForever+0x18>)
 8006cda:	2300      	movs	r3, #0
 8006cdc:	e001      	b.n	8006ce2 <LoopFillZerobss_lora>

08006cde <FillZerobss_lora>:
 8006cde:	6013      	str	r3, [r2, #0]
 8006ce0:	3204      	adds	r2, #4

08006ce2 <LoopFillZerobss_lora>:
 8006ce2:	42a2      	cmp	r2, r4
 8006ce4:	d3fb      	bcc.n	8006cde <FillZerobss_lora>
 8006ce6:	4812      	ldr	r0, [pc, #72]	; (8006d30 <LoopForever+0x1c>)
 8006ce8:	4912      	ldr	r1, [pc, #72]	; (8006d34 <LoopForever+0x20>)
 8006cea:	4a13      	ldr	r2, [pc, #76]	; (8006d38 <LoopForever+0x24>)
 8006cec:	2300      	movs	r3, #0
 8006cee:	e002      	b.n	8006cf6 <LoopCopyDataInit>

08006cf0 <CopyDataInit>:
 8006cf0:	58d4      	ldr	r4, [r2, r3]
 8006cf2:	50c4      	str	r4, [r0, r3]
 8006cf4:	3304      	adds	r3, #4

08006cf6 <LoopCopyDataInit>:
 8006cf6:	18c4      	adds	r4, r0, r3
 8006cf8:	428c      	cmp	r4, r1
 8006cfa:	d3f9      	bcc.n	8006cf0 <CopyDataInit>
 8006cfc:	4a0f      	ldr	r2, [pc, #60]	; (8006d3c <LoopForever+0x28>)
 8006cfe:	4c10      	ldr	r4, [pc, #64]	; (8006d40 <LoopForever+0x2c>)
 8006d00:	2300      	movs	r3, #0
 8006d02:	e001      	b.n	8006d08 <LoopFillZerobss>

08006d04 <FillZerobss>:
 8006d04:	6013      	str	r3, [r2, #0]
 8006d06:	3204      	adds	r2, #4

08006d08 <LoopFillZerobss>:
 8006d08:	42a2      	cmp	r2, r4
 8006d0a:	d3fb      	bcc.n	8006d04 <FillZerobss>
 8006d0c:	f00d f992 	bl	8014034 <__libc_init_array>
 8006d10:	f7ff ff7e 	bl	8006c10 <main>

08006d14 <LoopForever>:
 8006d14:	e7fe      	b.n	8006d14 <LoopForever>
 8006d16:	0000      	.short	0x0000
 8006d18:	2000fc00 	.word	0x2000fc00
 8006d1c:	20000000 	.word	0x20000000
 8006d20:	200002d0 	.word	0x200002d0
 8006d24:	0803cfc8 	.word	0x0803cfc8
 8006d28:	200002d0 	.word	0x200002d0
 8006d2c:	20005e98 	.word	0x20005e98
 8006d30:	20006000 	.word	0x20006000
 8006d34:	20006cd0 	.word	0x20006cd0
 8006d38:	08019f38 	.word	0x08019f38
 8006d3c:	20006cd0 	.word	0x20006cd0
 8006d40:	2000a0d8 	.word	0x2000a0d8

08006d44 <ADC_IRQHandler>:
 8006d44:	f000 b85a 	b.w	8006dfc <HardFault_Handler>

08006d48 <USER_UART_IRQHandler>:
 8006d48:	6803      	ldr	r3, [r0, #0]
 8006d4a:	4a07      	ldr	r2, [pc, #28]	; (8006d68 <USER_UART_IRQHandler+0x20>)
 8006d4c:	4293      	cmp	r3, r2
 8006d4e:	d106      	bne.n	8006d5e <USER_UART_IRQHandler+0x16>
 8006d50:	69da      	ldr	r2, [r3, #28]
 8006d52:	06d2      	lsls	r2, r2, #27
 8006d54:	d506      	bpl.n	8006d64 <USER_UART_IRQHandler+0x1c>
 8006d56:	2210      	movs	r2, #16
 8006d58:	621a      	str	r2, [r3, #32]
 8006d5a:	f000 bf19 	b.w	8007b90 <USAR_UART_IDLECallback>
 8006d5e:	4a03      	ldr	r2, [pc, #12]	; (8006d6c <USER_UART_IRQHandler+0x24>)
 8006d60:	4293      	cmp	r3, r2
 8006d62:	d0f5      	beq.n	8006d50 <USER_UART_IRQHandler+0x8>
 8006d64:	4770      	bx	lr
 8006d66:	bf00      	nop
 8006d68:	40008000 	.word	0x40008000
 8006d6c:	40013800 	.word	0x40013800

08006d70 <NMI_Handler>:
 8006d70:	f04f 43b0 	mov.w	r3, #1476395008	; 0x58000000
 8006d74:	f04f 31ff 	mov.w	r1, #4294967295	; 0xffffffff
 8006d78:	6b9a      	ldr	r2, [r3, #56]	; 0x38
 8006d7a:	6399      	str	r1, [r3, #56]	; 0x38
 8006d7c:	6bda      	ldr	r2, [r3, #60]	; 0x3c
 8006d7e:	63d9      	str	r1, [r3, #60]	; 0x3c
 8006d80:	6b9a      	ldr	r2, [r3, #56]	; 0x38
 8006d82:	2200      	movs	r2, #0
 8006d84:	639a      	str	r2, [r3, #56]	; 0x38
 8006d86:	6bd8      	ldr	r0, [r3, #60]	; 0x3c
 8006d88:	63da      	str	r2, [r3, #60]	; 0x3c
 8006d8a:	6c18      	ldr	r0, [r3, #64]	; 0x40
 8006d8c:	6419      	str	r1, [r3, #64]	; 0x40
 8006d8e:	6c18      	ldr	r0, [r3, #64]	; 0x40
 8006d90:	641a      	str	r2, [r3, #64]	; 0x40
 8006d92:	6c58      	ldr	r0, [r3, #68]	; 0x44
 8006d94:	6459      	str	r1, [r3, #68]	; 0x44
 8006d96:	6c58      	ldr	r0, [r3, #68]	; 0x44
 8006d98:	645a      	str	r2, [r3, #68]	; 0x44
 8006d9a:	6a98      	ldr	r0, [r3, #40]	; 0x28
 8006d9c:	6299      	str	r1, [r3, #40]	; 0x28
 8006d9e:	6a98      	ldr	r0, [r3, #40]	; 0x28
 8006da0:	629a      	str	r2, [r3, #40]	; 0x28
 8006da2:	6ad8      	ldr	r0, [r3, #44]	; 0x2c
 8006da4:	62d9      	str	r1, [r3, #44]	; 0x2c
 8006da6:	6ad8      	ldr	r0, [r3, #44]	; 0x2c
 8006da8:	62da      	str	r2, [r3, #44]	; 0x2c
 8006daa:	6b18      	ldr	r0, [r3, #48]	; 0x30
 8006dac:	6319      	str	r1, [r3, #48]	; 0x30
 8006dae:	6b19      	ldr	r1, [r3, #48]	; 0x30
 8006db0:	631a      	str	r2, [r3, #48]	; 0x30
 8006db2:	6c5a      	ldr	r2, [r3, #68]	; 0x44
 8006db4:	f042 0201 	orr.w	r2, r2, #1
 8006db8:	645a      	str	r2, [r3, #68]	; 0x44
 8006dba:	6c5a      	ldr	r2, [r3, #68]	; 0x44
 8006dbc:	f022 0201 	bic.w	r2, r2, #1
 8006dc0:	645a      	str	r2, [r3, #68]	; 0x44
 8006dc2:	f8d3 2090 	ldr.w	r2, [r3, #144]	; 0x90
 8006dc6:	f442 3280 	orr.w	r2, r2, #65536	; 0x10000
 8006dca:	f8c3 2090 	str.w	r2, [r3, #144]	; 0x90
 8006dce:	f8d3 2090 	ldr.w	r2, [r3, #144]	; 0x90
 8006dd2:	f422 3280 	bic.w	r2, r2, #65536	; 0x10000
 8006dd6:	f8c3 2090 	str.w	r2, [r3, #144]	; 0x90
 8006dda:	f3bf 8f4f 	dsb	sy
 8006dde:	4905      	ldr	r1, [pc, #20]	; (8006df4 <NMI_Handler+0x84>)
 8006de0:	4b05      	ldr	r3, [pc, #20]	; (8006df8 <NMI_Handler+0x88>)
 8006de2:	68ca      	ldr	r2, [r1, #12]
 8006de4:	f402 62e0 	and.w	r2, r2, #1792	; 0x700
 8006de8:	4313      	orrs	r3, r2
 8006dea:	60cb      	str	r3, [r1, #12]
 8006dec:	f3bf 8f4f 	dsb	sy
 8006df0:	bf00      	nop
 8006df2:	e7fd      	b.n	8006df0 <NMI_Handler+0x80>
 8006df4:	e000ed00 	.word	0xe000ed00
 8006df8:	05fa0004 	.word	0x05fa0004

08006dfc <HardFault_Handler>:
 8006dfc:	f04f 43b0 	mov.w	r3, #1476395008	; 0x58000000
 8006e00:	f04f 31ff 	mov.w	r1, #4294967295	; 0xffffffff
 8006e04:	6b9a      	ldr	r2, [r3, #56]	; 0x38
 8006e06:	6399      	str	r1, [r3, #56]	; 0x38
 8006e08:	6bda      	ldr	r2, [r3, #60]	; 0x3c
 8006e0a:	63d9      	str	r1, [r3, #60]	; 0x3c
 8006e0c:	6b9a      	ldr	r2, [r3, #56]	; 0x38
 8006e0e:	2200      	movs	r2, #0
 8006e10:	639a      	str	r2, [r3, #56]	; 0x38
 8006e12:	6bd8      	ldr	r0, [r3, #60]	; 0x3c
 8006e14:	63da      	str	r2, [r3, #60]	; 0x3c
 8006e16:	6c18      	ldr	r0, [r3, #64]	; 0x40
 8006e18:	6419      	str	r1, [r3, #64]	; 0x40
 8006e1a:	6c18      	ldr	r0, [r3, #64]	; 0x40
 8006e1c:	641a      	str	r2, [r3, #64]	; 0x40
 8006e1e:	6c58      	ldr	r0, [r3, #68]	; 0x44
 8006e20:	6459      	str	r1, [r3, #68]	; 0x44
 8006e22:	6c58      	ldr	r0, [r3, #68]	; 0x44
 8006e24:	645a      	str	r2, [r3, #68]	; 0x44
 8006e26:	6a98      	ldr	r0, [r3, #40]	; 0x28
 8006e28:	6299      	str	r1, [r3, #40]	; 0x28
 8006e2a:	6a98      	ldr	r0, [r3, #40]	; 0x28
 8006e2c:	629a      	str	r2, [r3, #40]	; 0x28
 8006e2e:	6ad8      	ldr	r0, [r3, #44]	; 0x2c
 8006e30:	62d9      	str	r1, [r3, #44]	; 0x2c
 8006e32:	6ad8      	ldr	r0, [r3, #44]	; 0x2c
 8006e34:	62da      	str	r2, [r3, #44]	; 0x2c
 8006e36:	6b18      	ldr	r0, [r3, #48]	; 0x30
 8006e38:	6319      	str	r1, [r3, #48]	; 0x30
 8006e3a:	6b19      	ldr	r1, [r3, #48]	; 0x30
 8006e3c:	631a      	str	r2, [r3, #48]	; 0x30
 8006e3e:	6c5a      	ldr	r2, [r3, #68]	; 0x44
 8006e40:	f042 0201 	orr.w	r2, r2, #1
 8006e44:	645a      	str	r2, [r3, #68]	; 0x44
 8006e46:	6c5a      	ldr	r2, [r3, #68]	; 0x44
 8006e48:	f022 0201 	bic.w	r2, r2, #1
 8006e4c:	645a      	str	r2, [r3, #68]	; 0x44
 8006e4e:	f8d3 2090 	ldr.w	r2, [r3, #144]	; 0x90
 8006e52:	f442 3280 	orr.w	r2, r2, #65536	; 0x10000
 8006e56:	f8c3 2090 	str.w	r2, [r3, #144]	; 0x90
 8006e5a:	f8d3 2090 	ldr.w	r2, [r3, #144]	; 0x90
 8006e5e:	f422 3280 	bic.w	r2, r2, #65536	; 0x10000
 8006e62:	f8c3 2090 	str.w	r2, [r3, #144]	; 0x90
 8006e66:	e7fe      	b.n	8006e66 <HardFault_Handler+0x6a>

08006e68 <MemManage_Handler>:
 8006e68:	e7fe      	b.n	8006e68 <MemManage_Handler>

08006e6a <BusFault_Handler>:
 8006e6a:	e7fe      	b.n	8006e6a <BusFault_Handler>

08006e6c <UsageFault_Handler>:
 8006e6c:	e7fe      	b.n	8006e6c <UsageFault_Handler>

08006e6e <SVC_Handler>:
 8006e6e:	4770      	bx	lr

08006e70 <DebugMon_Handler>:
 8006e70:	4770      	bx	lr

08006e72 <SysTick_Handler>:
 8006e72:	f01f bcc1 	b.w	80267f8 <HAL_IncTick>
	...

08006e78 <RTC_Alarm_IRQHandler>:
 8006e78:	4801      	ldr	r0, [pc, #4]	; (8006e80 <RTC_Alarm_IRQHandler+0x8>)
 8006e7a:	f021 b8b3 	b.w	8027fe4 <HAL_RTC_AlarmIRQHandler>
 8006e7e:	bf00      	nop
 8006e80:	200044d8 	.word	0x200044d8

08006e84 <SUBGHZ_Radio_IRQHandler>:
 8006e84:	4801      	ldr	r0, [pc, #4]	; (8006e8c <SUBGHZ_Radio_IRQHandler+0x8>)
 8006e86:	f023 bb92 	b.w	802a5ae <HAL_SUBGHZ_IRQHandler>
 8006e8a:	bf00      	nop
 8006e8c:	200002d0 	.word	0x200002d0

08006e90 <TAMP_STAMP_LSECSS_SSRU_IRQHandler>:
 8006e90:	4801      	ldr	r0, [pc, #4]	; (8006e98 <TAMP_STAMP_LSECSS_SSRU_IRQHandler+0x8>)
 8006e92:	f022 b8e1 	b.w	8029058 <HAL_RTCEx_SSRUIRQHandler>
 8006e96:	bf00      	nop
 8006e98:	200044d8 	.word	0x200044d8

08006e9c <DMA1_Channel1_IRQHandler>:
 8006e9c:	4801      	ldr	r0, [pc, #4]	; (8006ea4 <DMA1_Channel1_IRQHandler+0x8>)
 8006e9e:	f026 bcbd 	b.w	802d81c <HAL_DMA_IRQHandler>
 8006ea2:	bf00      	nop
 8006ea4:	20007340 	.word	0x20007340

08006ea8 <DMA1_Channel2_IRQHandler>:
 8006ea8:	4801      	ldr	r0, [pc, #4]	; (8006eb0 <DMA1_Channel2_IRQHandler+0x8>)
 8006eaa:	f026 bcb7 	b.w	802d81c <HAL_DMA_IRQHandler>
 8006eae:	bf00      	nop
 8006eb0:	20006e74 	.word	0x20006e74

08006eb4 <DMA1_Channel3_IRQHandler>:
 8006eb4:	4801      	ldr	r0, [pc, #4]	; (8006ebc <DMA1_Channel3_IRQHandler+0x8>)
 8006eb6:	f026 bcb1 	b.w	802d81c <HAL_DMA_IRQHandler>
 8006eba:	bf00      	nop
 8006ebc:	20006ed4 	.word	0x20006ed4

08006ec0 <DMA1_Channel4_IRQHandler>:
 8006ec0:	4801      	ldr	r0, [pc, #4]	; (8006ec8 <DMA1_Channel4_IRQHandler+0x8>)
 8006ec2:	f026 bcab 	b.w	802d81c <HAL_DMA_IRQHandler>
 8006ec6:	bf00      	nop
 8006ec8:	200073a0 	.word	0x200073a0

08006ecc <USART1_IRQHandler>:
 8006ecc:	b510      	push	{r4, lr}
 8006ece:	4c04      	ldr	r4, [pc, #16]	; (8006ee0 <USART1_IRQHandler+0x14>)
 8006ed0:	4620      	mov	r0, r4
 8006ed2:	f00a fd5b 	bl	801198c <HAL_UART_IRQHandler>
 8006ed6:	4620      	mov	r0, r4
 8006ed8:	e8bd 4010 	ldmia.w	sp!, {r4, lr}
 8006edc:	f7ff bf34 	b.w	8006d48 <USER_UART_IRQHandler>
 8006ee0:	20007490 	.word	0x20007490

08006ee4 <USART2_IRQHandler>:
 8006ee4:	4770      	bx	lr

08006ee6 <EXTI0_IRQHandler>:
 8006ee6:	2001      	movs	r0, #1
 8006ee8:	f023 bd64 	b.w	802a9b4 <HAL_GPIO_EXTI_IRQHandler>

08006eec <EXTI1_IRQHandler>:
 8006eec:	2002      	movs	r0, #2
 8006eee:	f023 bd61 	b.w	802a9b4 <HAL_GPIO_EXTI_IRQHandler>

08006ef2 <EXTI2_IRQHandler>:
 8006ef2:	2004      	movs	r0, #4
 8006ef4:	f023 bd5e 	b.w	802a9b4 <HAL_GPIO_EXTI_IRQHandler>

08006ef8 <EXTI3_IRQHandler>:
 8006ef8:	2008      	movs	r0, #8
 8006efa:	f023 bd5b 	b.w	802a9b4 <HAL_GPIO_EXTI_IRQHandler>

08006efe <EXTI4_IRQHandler>:
 8006efe:	2010      	movs	r0, #16
 8006f00:	f023 bd58 	b.w	802a9b4 <HAL_GPIO_EXTI_IRQHandler>

08006f04 <EXTI9_5_IRQHandler>:
 8006f04:	4b0e      	ldr	r3, [pc, #56]	; (8006f40 <EXTI9_5_IRQHandler+0x3c>)
 8006f06:	68da      	ldr	r2, [r3, #12]
 8006f08:	0692      	lsls	r2, r2, #26
 8006f0a:	d502      	bpl.n	8006f12 <EXTI9_5_IRQHandler+0xe>
 8006f0c:	2020      	movs	r0, #32
 8006f0e:	f023 bd51 	b.w	802a9b4 <HAL_GPIO_EXTI_IRQHandler>
 8006f12:	68da      	ldr	r2, [r3, #12]
 8006f14:	0650      	lsls	r0, r2, #25
 8006f16:	d501      	bpl.n	8006f1c <EXTI9_5_IRQHandler+0x18>
 8006f18:	2040      	movs	r0, #64	; 0x40
 8006f1a:	e7f8      	b.n	8006f0e <EXTI9_5_IRQHandler+0xa>
 8006f1c:	68da      	ldr	r2, [r3, #12]
 8006f1e:	0611      	lsls	r1, r2, #24
 8006f20:	d501      	bpl.n	8006f26 <EXTI9_5_IRQHandler+0x22>
 8006f22:	2080      	movs	r0, #128	; 0x80
 8006f24:	e7f3      	b.n	8006f0e <EXTI9_5_IRQHandler+0xa>
 8006f26:	68da      	ldr	r2, [r3, #12]
 8006f28:	05d2      	lsls	r2, r2, #23
 8006f2a:	d502      	bpl.n	8006f32 <EXTI9_5_IRQHandler+0x2e>
 8006f2c:	f44f 7080 	mov.w	r0, #256	; 0x100
 8006f30:	e7ed      	b.n	8006f0e <EXTI9_5_IRQHandler+0xa>
 8006f32:	68db      	ldr	r3, [r3, #12]
 8006f34:	059b      	lsls	r3, r3, #22
 8006f36:	d502      	bpl.n	8006f3e <EXTI9_5_IRQHandler+0x3a>
 8006f38:	f44f 7000 	mov.w	r0, #512	; 0x200
 8006f3c:	e7e7      	b.n	8006f0e <EXTI9_5_IRQHandler+0xa>
 8006f3e:	4770      	bx	lr
 8006f40:	58000800 	.word	0x58000800

08006f44 <EXTI15_10_IRQHandler>:
 8006f44:	4b13      	ldr	r3, [pc, #76]	; (8006f94 <EXTI15_10_IRQHandler+0x50>)
 8006f46:	68da      	ldr	r2, [r3, #12]
 8006f48:	0551      	lsls	r1, r2, #21
 8006f4a:	d503      	bpl.n	8006f54 <EXTI15_10_IRQHandler+0x10>
 8006f4c:	f44f 6080 	mov.w	r0, #1024	; 0x400
 8006f50:	f023 bd30 	b.w	802a9b4 <HAL_GPIO_EXTI_IRQHandler>
 8006f54:	68da      	ldr	r2, [r3, #12]
 8006f56:	0512      	lsls	r2, r2, #20
 8006f58:	d502      	bpl.n	8006f60 <EXTI15_10_IRQHandler+0x1c>
 8006f5a:	f44f 6000 	mov.w	r0, #2048	; 0x800
 8006f5e:	e7f7      	b.n	8006f50 <EXTI15_10_IRQHandler+0xc>
 8006f60:	68da      	ldr	r2, [r3, #12]
 8006f62:	04d0      	lsls	r0, r2, #19
 8006f64:	d502      	bpl.n	8006f6c <EXTI15_10_IRQHandler+0x28>
 8006f66:	f44f 5080 	mov.w	r0, #4096	; 0x1000
 8006f6a:	e7f1      	b.n	8006f50 <EXTI15_10_IRQHandler+0xc>
 8006f6c:	68da      	ldr	r2, [r3, #12]
 8006f6e:	0491      	lsls	r1, r2, #18
 8006f70:	d502      	bpl.n	8006f78 <EXTI15_10_IRQHandler+0x34>
 8006f72:	f44f 5000 	mov.w	r0, #8192	; 0x2000
 8006f76:	e7eb      	b.n	8006f50 <EXTI15_10_IRQHandler+0xc>
 8006f78:	68da      	ldr	r2, [r3, #12]
 8006f7a:	0452      	lsls	r2, r2, #17
 8006f7c:	d502      	bpl.n	8006f84 <EXTI15_10_IRQHandler+0x40>
 8006f7e:	f44f 4080 	mov.w	r0, #16384	; 0x4000
 8006f82:	e7e5      	b.n	8006f50 <EXTI15_10_IRQHandler+0xc>
 8006f84:	68db      	ldr	r3, [r3, #12]
 8006f86:	041b      	lsls	r3, r3, #16
 8006f88:	d502      	bpl.n	8006f90 <EXTI15_10_IRQHandler+0x4c>
 8006f8a:	f44f 4000 	mov.w	r0, #32768	; 0x8000
 8006f8e:	e7df      	b.n	8006f50 <EXTI15_10_IRQHandler+0xc>
 8006f90:	4770      	bx	lr
 8006f92:	bf00      	nop
 8006f94:	58000800 	.word	0x58000800

08006f98 <LPUART1_IRQHandler>:
 8006f98:	b510      	push	{r4, lr}
 8006f9a:	4c04      	ldr	r4, [pc, #16]	; (8006fac <LPUART1_IRQHandler+0x14>)
 8006f9c:	4620      	mov	r0, r4
 8006f9e:	f00a fcf5 	bl	801198c <HAL_UART_IRQHandler>
 8006fa2:	4620      	mov	r0, r4
 8006fa4:	e8bd 4010 	ldmia.w	sp!, {r4, lr}
 8006fa8:	f7ff bece 	b.w	8006d48 <USER_UART_IRQHandler>
 8006fac:	20007400 	.word	0x20007400

08006fb0 <AES_IRQHandler>:
 8006fb0:	4801      	ldr	r0, [pc, #4]	; (8006fb8 <AES_IRQHandler+0x8>)
 8006fb2:	f025 be09 	b.w	802cbc8 <HAL_CRYP_IRQHandler>
 8006fb6:	bf00      	nop
 8006fb8:	20004510 	.word	0x20004510

08006fbc <LL_AHB2_GRP1_EnableClock>:
 8006fbc:	f04f 43b0 	mov.w	r3, #1476395008	; 0x58000000
 8006fc0:	b082      	sub	sp, #8
 8006fc2:	6cda      	ldr	r2, [r3, #76]	; 0x4c
 8006fc4:	4302      	orrs	r2, r0
 8006fc6:	64da      	str	r2, [r3, #76]	; 0x4c
 8006fc8:	6cdb      	ldr	r3, [r3, #76]	; 0x4c
 8006fca:	4018      	ands	r0, r3
 8006fcc:	9001      	str	r0, [sp, #4]
 8006fce:	9b01      	ldr	r3, [sp, #4]
 8006fd0:	b002      	add	sp, #8
 8006fd2:	4770      	bx	lr

08006fd4 <uhal_adc_read>:
 8006fd4:	b51f      	push	{r0, r1, r2, r3, r4, lr}
 8006fd6:	2814      	cmp	r0, #20
 8006fd8:	f04f 0300 	mov.w	r3, #0
 8006fdc:	e9cd 3302 	strd	r3, r3, [sp, #8]
 8006fe0:	460c      	mov	r4, r1
 8006fe2:	d80c      	bhi.n	8006ffe <uhal_adc_read+0x2a>
 8006fe4:	2809      	cmp	r0, #9
 8006fe6:	d912      	bls.n	800700e <uhal_adc_read+0x3a>
 8006fe8:	380a      	subs	r0, #10
 8006fea:	280a      	cmp	r0, #10
 8006fec:	d80f      	bhi.n	800700e <uhal_adc_read+0x3a>
 8006fee:	e8df f000 	tbb	[pc, r0]
 8006ff2:	0e7b      	.short	0x0e7b
 8006ff4:	820e0e0e 	.word	0x820e0e0e
 8006ff8:	11740e0e 	.word	0x11740e0e
 8006ffc:	6d          	.byte	0x6d
 8006ffd:	00          	.byte	0x00
 8006ffe:	28fe      	cmp	r0, #254	; 0xfe
 8007000:	f000 8083 	beq.w	800710a <uhal_adc_read+0x136>
 8007004:	28ff      	cmp	r0, #255	; 0xff
 8007006:	f000 8082 	beq.w	800710e <uhal_adc_read+0x13a>
 800700a:	28fd      	cmp	r0, #253	; 0xfd
 800700c:	d07a      	beq.n	8007104 <uhal_adc_read+0x130>
 800700e:	f06f 0003 	mvn.w	r0, #3
 8007012:	e059      	b.n	80070c8 <uhal_adc_read+0xf4>
 8007014:	4a3f      	ldr	r2, [pc, #252]	; (8007114 <uhal_adc_read+0x140>)
 8007016:	4b40      	ldr	r3, [pc, #256]	; (8007118 <uhal_adc_read+0x144>)
 8007018:	9301      	str	r3, [sp, #4]
 800701a:	7813      	ldrb	r3, [r2, #0]
 800701c:	f043 0301 	orr.w	r3, r3, #1
 8007020:	7013      	strb	r3, [r2, #0]
 8007022:	483e      	ldr	r0, [pc, #248]	; (800711c <uhal_adc_read+0x148>)
 8007024:	4a3e      	ldr	r2, [pc, #248]	; (8007120 <uhal_adc_read+0x14c>)
 8007026:	f04f 4300 	mov.w	r3, #2147483648	; 0x80000000
 800702a:	e9c0 2300 	strd	r2, r3, [r0]
 800702e:	4b3d      	ldr	r3, [pc, #244]	; (8007124 <uhal_adc_read+0x150>)
 8007030:	2204      	movs	r2, #4
 8007032:	681b      	ldr	r3, [r3, #0]
 8007034:	6083      	str	r3, [r0, #8]
 8007036:	6142      	str	r2, [r0, #20]
 8007038:	2300      	movs	r3, #0
 800703a:	2201      	movs	r2, #1
 800703c:	61c2      	str	r2, [r0, #28]
 800703e:	f44f 5180 	mov.w	r1, #4096	; 0x1000
 8007042:	2206      	movs	r2, #6
 8007044:	8303      	strh	r3, [r0, #24]
 8007046:	e9c0 3303 	strd	r3, r3, [r0, #12]
 800704a:	e9c0 3309 	strd	r3, r3, [r0, #36]	; 0x24
 800704e:	e9c0 120c 	strd	r1, r2, [r0, #48]	; 0x30
 8007052:	7683      	strb	r3, [r0, #26]
 8007054:	f880 3020 	strb.w	r3, [r0, #32]
 8007058:	f880 302c 	strb.w	r3, [r0, #44]	; 0x2c
 800705c:	6383      	str	r3, [r0, #56]	; 0x38
 800705e:	f880 303c 	strb.w	r3, [r0, #60]	; 0x3c
 8007062:	64c3      	str	r3, [r0, #76]	; 0x4c
 8007064:	f009 ff98 	bl	8010f98 <HAL_ADC_Init>
 8007068:	b108      	cbz	r0, 800706e <uhal_adc_read+0x9a>
 800706a:	f01b fae7 	bl	802263c <Error_Handler>
 800706e:	482b      	ldr	r0, [pc, #172]	; (800711c <uhal_adc_read+0x148>)
 8007070:	f00a fb5c 	bl	801172c <HAL_ADCEx_Calibration_Start>
 8007074:	b108      	cbz	r0, 800707a <uhal_adc_read+0xa6>
 8007076:	f01b fae1 	bl	802263c <Error_Handler>
 800707a:	2300      	movs	r3, #0
 800707c:	4827      	ldr	r0, [pc, #156]	; (800711c <uhal_adc_read+0x148>)
 800707e:	a901      	add	r1, sp, #4
 8007080:	e9cd 3302 	strd	r3, r3, [sp, #8]
 8007084:	f00a f910 	bl	80112a8 <HAL_ADC_ConfigChannel>
 8007088:	b108      	cbz	r0, 800708e <uhal_adc_read+0xba>
 800708a:	f01b fad7 	bl	802263c <Error_Handler>
 800708e:	4823      	ldr	r0, [pc, #140]	; (800711c <uhal_adc_read+0x148>)
 8007090:	f00a fa76 	bl	8011580 <HAL_ADC_Start>
 8007094:	b108      	cbz	r0, 800709a <uhal_adc_read+0xc6>
 8007096:	f01b fad1 	bl	802263c <Error_Handler>
 800709a:	210a      	movs	r1, #10
 800709c:	481f      	ldr	r0, [pc, #124]	; (800711c <uhal_adc_read+0x148>)
 800709e:	f00a f8a5 	bl	80111ec <HAL_ADC_PollForConversion>
 80070a2:	481e      	ldr	r0, [pc, #120]	; (800711c <uhal_adc_read+0x148>)
 80070a4:	f00a fb24 	bl	80116f0 <HAL_ADC_Stop>
 80070a8:	481c      	ldr	r0, [pc, #112]	; (800711c <uhal_adc_read+0x148>)
 80070aa:	f00a f8fa 	bl	80112a2 <HAL_ADC_GetValue>
 80070ae:	4b1e      	ldr	r3, [pc, #120]	; (8007128 <uhal_adc_read+0x154>)
 80070b0:	9a01      	ldr	r2, [sp, #4]
 80070b2:	b280      	uxth	r0, r0
 80070b4:	429a      	cmp	r2, r3
 80070b6:	8020      	strh	r0, [r4, #0]
 80070b8:	bf04      	itt	eq
 80070ba:	eb00 0040 	addeq.w	r0, r0, r0, lsl #1
 80070be:	8020      	strheq	r0, [r4, #0]
 80070c0:	4816      	ldr	r0, [pc, #88]	; (800711c <uhal_adc_read+0x148>)
 80070c2:	f00a fac1 	bl	8011648 <HAL_ADC_DeInit>
 80070c6:	2000      	movs	r0, #0
 80070c8:	b004      	add	sp, #16
 80070ca:	bd10      	pop	{r4, pc}
 80070cc:	4a11      	ldr	r2, [pc, #68]	; (8007114 <uhal_adc_read+0x140>)
 80070ce:	4b17      	ldr	r3, [pc, #92]	; (800712c <uhal_adc_read+0x158>)
 80070d0:	9301      	str	r3, [sp, #4]
 80070d2:	7813      	ldrb	r3, [r2, #0]
 80070d4:	f043 0302 	orr.w	r3, r3, #2
 80070d8:	e7a2      	b.n	8007020 <uhal_adc_read+0x4c>
 80070da:	4a0e      	ldr	r2, [pc, #56]	; (8007114 <uhal_adc_read+0x140>)
 80070dc:	4b14      	ldr	r3, [pc, #80]	; (8007130 <uhal_adc_read+0x15c>)
 80070de:	9301      	str	r3, [sp, #4]
 80070e0:	7813      	ldrb	r3, [r2, #0]
 80070e2:	f043 0304 	orr.w	r3, r3, #4
 80070e6:	e79b      	b.n	8007020 <uhal_adc_read+0x4c>
 80070e8:	4a0a      	ldr	r2, [pc, #40]	; (8007114 <uhal_adc_read+0x140>)
 80070ea:	4b12      	ldr	r3, [pc, #72]	; (8007134 <uhal_adc_read+0x160>)
 80070ec:	9301      	str	r3, [sp, #4]
 80070ee:	7813      	ldrb	r3, [r2, #0]
 80070f0:	f043 0308 	orr.w	r3, r3, #8
 80070f4:	e794      	b.n	8007020 <uhal_adc_read+0x4c>
 80070f6:	4a07      	ldr	r2, [pc, #28]	; (8007114 <uhal_adc_read+0x140>)
 80070f8:	4b0f      	ldr	r3, [pc, #60]	; (8007138 <uhal_adc_read+0x164>)
 80070fa:	9301      	str	r3, [sp, #4]
 80070fc:	7813      	ldrb	r3, [r2, #0]
 80070fe:	f043 0310 	orr.w	r3, r3, #16
 8007102:	e78d      	b.n	8007020 <uhal_adc_read+0x4c>
 8007104:	4b0d      	ldr	r3, [pc, #52]	; (800713c <uhal_adc_read+0x168>)
 8007106:	9301      	str	r3, [sp, #4]
 8007108:	e78b      	b.n	8007022 <uhal_adc_read+0x4e>
 800710a:	4b0d      	ldr	r3, [pc, #52]	; (8007140 <uhal_adc_read+0x16c>)
 800710c:	e7fb      	b.n	8007106 <uhal_adc_read+0x132>
 800710e:	4b06      	ldr	r3, [pc, #24]	; (8007128 <uhal_adc_read+0x154>)
 8007110:	e7f9      	b.n	8007106 <uhal_adc_read+0x132>
 8007112:	bf00      	nop
 8007114:	20006ced 	.word	0x20006ced
 8007118:	08000004 	.word	0x08000004
 800711c:	20006cf0 	.word	0x20006cf0
 8007120:	40012400 	.word	0x40012400
 8007124:	20006004 	.word	0x20006004
 8007128:	b8004000 	.word	0xb8004000
 800712c:	0c000008 	.word	0x0c000008
 8007130:	10000010 	.word	0x10000010
 8007134:	18000040 	.word	0x18000040
 8007138:	2c000800 	.word	0x2c000800
 800713c:	b0001000 	.word	0xb0001000
 8007140:	b4002000 	.word	0xb4002000

08007144 <uhal_adc_suspend>:
 8007144:	4770      	bx	lr

08007146 <uhal_adc_resume>:
 8007146:	4770      	bx	lr

08007148 <uhal_adc_get_resolution>:
 8007148:	4b01      	ldr	r3, [pc, #4]	; (8007150 <uhal_adc_get_resolution+0x8>)
 800714a:	7818      	ldrb	r0, [r3, #0]
 800714c:	4770      	bx	lr
 800714e:	bf00      	nop
 8007150:	20006009 	.word	0x20006009

08007154 <uhal_adc_get_mode>:
 8007154:	4b01      	ldr	r3, [pc, #4]	; (800715c <uhal_adc_get_mode+0x8>)
 8007156:	7818      	ldrb	r0, [r3, #0]
 8007158:	4770      	bx	lr
 800715a:	bf00      	nop
 800715c:	20006008 	.word	0x20006008

08007160 <HAL_ADC_MspInit>:
 8007160:	b510      	push	{r4, lr}
 8007162:	4604      	mov	r4, r0
 8007164:	b086      	sub	sp, #24
 8007166:	2214      	movs	r2, #20
 8007168:	2100      	movs	r1, #0
 800716a:	a801      	add	r0, sp, #4
 800716c:	f00c ffde 	bl	801412c <memset>
 8007170:	6822      	ldr	r2, [r4, #0]
 8007172:	4b5e      	ldr	r3, [pc, #376]	; (80072ec <HAL_ADC_MspInit+0x18c>)
 8007174:	429a      	cmp	r2, r3
 8007176:	f040 808e 	bne.w	8007296 <HAL_ADC_MspInit+0x136>
 800717a:	f04f 43b0 	mov.w	r3, #1476395008	; 0x58000000
 800717e:	4c5c      	ldr	r4, [pc, #368]	; (80072f0 <HAL_ADC_MspInit+0x190>)
 8007180:	6e1a      	ldr	r2, [r3, #96]	; 0x60
 8007182:	f442 7200 	orr.w	r2, r2, #512	; 0x200
 8007186:	661a      	str	r2, [r3, #96]	; 0x60
 8007188:	6e1b      	ldr	r3, [r3, #96]	; 0x60
 800718a:	f403 7300 	and.w	r3, r3, #512	; 0x200
 800718e:	9300      	str	r3, [sp, #0]
 8007190:	9b00      	ldr	r3, [sp, #0]
 8007192:	7823      	ldrb	r3, [r4, #0]
 8007194:	07da      	lsls	r2, r3, #31
 8007196:	d508      	bpl.n	80071aa <HAL_ADC_MspInit+0x4a>
 8007198:	2013      	movs	r0, #19
 800719a:	f000 f93d 	bl	8007418 <PinToGPIOx>
 800719e:	f1b0 4f90 	cmp.w	r0, #1207959552	; 0x48000000
 80071a2:	d17a      	bne.n	800729a <HAL_ADC_MspInit+0x13a>
 80071a4:	2001      	movs	r0, #1
 80071a6:	f7ff ff09 	bl	8006fbc <LL_AHB2_GRP1_EnableClock>
 80071aa:	7823      	ldrb	r3, [r4, #0]
 80071ac:	079b      	lsls	r3, r3, #30
 80071ae:	d508      	bpl.n	80071c2 <HAL_ADC_MspInit+0x62>
 80071b0:	2014      	movs	r0, #20
 80071b2:	f000 f931 	bl	8007418 <PinToGPIOx>
 80071b6:	f1b0 4f90 	cmp.w	r0, #1207959552	; 0x48000000
 80071ba:	d176      	bne.n	80072aa <HAL_ADC_MspInit+0x14a>
 80071bc:	2001      	movs	r0, #1
 80071be:	f7ff fefd 	bl	8006fbc <LL_AHB2_GRP1_EnableClock>
 80071c2:	7823      	ldrb	r3, [r4, #0]
 80071c4:	0758      	lsls	r0, r3, #29
 80071c6:	d508      	bpl.n	80071da <HAL_ADC_MspInit+0x7a>
 80071c8:	2012      	movs	r0, #18
 80071ca:	f000 f925 	bl	8007418 <PinToGPIOx>
 80071ce:	f1b0 4f90 	cmp.w	r0, #1207959552	; 0x48000000
 80071d2:	d172      	bne.n	80072ba <HAL_ADC_MspInit+0x15a>
 80071d4:	2001      	movs	r0, #1
 80071d6:	f7ff fef1 	bl	8006fbc <LL_AHB2_GRP1_EnableClock>
 80071da:	7823      	ldrb	r3, [r4, #0]
 80071dc:	0719      	lsls	r1, r3, #28
 80071de:	d508      	bpl.n	80071f2 <HAL_ADC_MspInit+0x92>
 80071e0:	200a      	movs	r0, #10
 80071e2:	f000 f919 	bl	8007418 <PinToGPIOx>
 80071e6:	f1b0 4f90 	cmp.w	r0, #1207959552	; 0x48000000
 80071ea:	d16e      	bne.n	80072ca <HAL_ADC_MspInit+0x16a>
 80071ec:	2001      	movs	r0, #1
 80071ee:	f7ff fee5 	bl	8006fbc <LL_AHB2_GRP1_EnableClock>
 80071f2:	7823      	ldrb	r3, [r4, #0]
 80071f4:	06da      	lsls	r2, r3, #27
 80071f6:	d508      	bpl.n	800720a <HAL_ADC_MspInit+0xaa>
 80071f8:	200f      	movs	r0, #15
 80071fa:	f000 f90d 	bl	8007418 <PinToGPIOx>
 80071fe:	f1b0 4f90 	cmp.w	r0, #1207959552	; 0x48000000
 8007202:	d16a      	bne.n	80072da <HAL_ADC_MspInit+0x17a>
 8007204:	2001      	movs	r0, #1
 8007206:	f7ff fed9 	bl	8006fbc <LL_AHB2_GRP1_EnableClock>
 800720a:	2300      	movs	r3, #0
 800720c:	f04f 0c03 	mov.w	ip, #3
 8007210:	e9cd c302 	strd	ip, r3, [sp, #8]
 8007214:	7823      	ldrb	r3, [r4, #0]
 8007216:	07db      	lsls	r3, r3, #31
 8007218:	d509      	bpl.n	800722e <HAL_ADC_MspInit+0xce>
 800721a:	2013      	movs	r0, #19
 800721c:	f000 f901 	bl	8007422 <PinToGPIO_Pin>
 8007220:	9001      	str	r0, [sp, #4]
 8007222:	2013      	movs	r0, #19
 8007224:	f000 f8f8 	bl	8007418 <PinToGPIOx>
 8007228:	a901      	add	r1, sp, #4
 800722a:	f023 fa73 	bl	802a714 <HAL_GPIO_Init>
 800722e:	7823      	ldrb	r3, [r4, #0]
 8007230:	0798      	lsls	r0, r3, #30
 8007232:	d509      	bpl.n	8007248 <HAL_ADC_MspInit+0xe8>
 8007234:	2014      	movs	r0, #20
 8007236:	f000 f8f4 	bl	8007422 <PinToGPIO_Pin>
 800723a:	9001      	str	r0, [sp, #4]
 800723c:	2014      	movs	r0, #20
 800723e:	f000 f8eb 	bl	8007418 <PinToGPIOx>
 8007242:	a901      	add	r1, sp, #4
 8007244:	f023 fa66 	bl	802a714 <HAL_GPIO_Init>
 8007248:	7823      	ldrb	r3, [r4, #0]
 800724a:	0759      	lsls	r1, r3, #29
 800724c:	d509      	bpl.n	8007262 <HAL_ADC_MspInit+0x102>
 800724e:	2012      	movs	r0, #18
 8007250:	f000 f8e7 	bl	8007422 <PinToGPIO_Pin>
 8007254:	9001      	str	r0, [sp, #4]
 8007256:	2012      	movs	r0, #18
 8007258:	f000 f8de 	bl	8007418 <PinToGPIOx>
 800725c:	a901      	add	r1, sp, #4
 800725e:	f023 fa59 	bl	802a714 <HAL_GPIO_Init>
 8007262:	7823      	ldrb	r3, [r4, #0]
 8007264:	071a      	lsls	r2, r3, #28
 8007266:	d509      	bpl.n	800727c <HAL_ADC_MspInit+0x11c>
 8007268:	200a      	movs	r0, #10
 800726a:	f000 f8da 	bl	8007422 <PinToGPIO_Pin>
 800726e:	9001      	str	r0, [sp, #4]
 8007270:	200a      	movs	r0, #10
 8007272:	f000 f8d1 	bl	8007418 <PinToGPIOx>
 8007276:	a901      	add	r1, sp, #4
 8007278:	f023 fa4c 	bl	802a714 <HAL_GPIO_Init>
 800727c:	7823      	ldrb	r3, [r4, #0]
 800727e:	06db      	lsls	r3, r3, #27
 8007280:	d509      	bpl.n	8007296 <HAL_ADC_MspInit+0x136>
 8007282:	200f      	movs	r0, #15
 8007284:	f000 f8cd 	bl	8007422 <PinToGPIO_Pin>
 8007288:	9001      	str	r0, [sp, #4]
 800728a:	200f      	movs	r0, #15
 800728c:	f000 f8c4 	bl	8007418 <PinToGPIOx>
 8007290:	a901      	add	r1, sp, #4
 8007292:	f023 fa3f 	bl	802a714 <HAL_GPIO_Init>
 8007296:	b006      	add	sp, #24
 8007298:	bd10      	pop	{r4, pc}
 800729a:	2013      	movs	r0, #19
 800729c:	f000 f8bc 	bl	8007418 <PinToGPIOx>
 80072a0:	4b14      	ldr	r3, [pc, #80]	; (80072f4 <HAL_ADC_MspInit+0x194>)
 80072a2:	4298      	cmp	r0, r3
 80072a4:	d181      	bne.n	80071aa <HAL_ADC_MspInit+0x4a>
 80072a6:	2002      	movs	r0, #2
 80072a8:	e77d      	b.n	80071a6 <HAL_ADC_MspInit+0x46>
 80072aa:	2014      	movs	r0, #20
 80072ac:	f000 f8b4 	bl	8007418 <PinToGPIOx>
 80072b0:	4b10      	ldr	r3, [pc, #64]	; (80072f4 <HAL_ADC_MspInit+0x194>)
 80072b2:	4298      	cmp	r0, r3
 80072b4:	d185      	bne.n	80071c2 <HAL_ADC_MspInit+0x62>
 80072b6:	2002      	movs	r0, #2
 80072b8:	e781      	b.n	80071be <HAL_ADC_MspInit+0x5e>
 80072ba:	2012      	movs	r0, #18
 80072bc:	f000 f8ac 	bl	8007418 <PinToGPIOx>
 80072c0:	4b0c      	ldr	r3, [pc, #48]	; (80072f4 <HAL_ADC_MspInit+0x194>)
 80072c2:	4298      	cmp	r0, r3
 80072c4:	d189      	bne.n	80071da <HAL_ADC_MspInit+0x7a>
 80072c6:	2002      	movs	r0, #2
 80072c8:	e785      	b.n	80071d6 <HAL_ADC_MspInit+0x76>
 80072ca:	200a      	movs	r0, #10
 80072cc:	f000 f8a4 	bl	8007418 <PinToGPIOx>
 80072d0:	4b08      	ldr	r3, [pc, #32]	; (80072f4 <HAL_ADC_MspInit+0x194>)
 80072d2:	4298      	cmp	r0, r3
 80072d4:	d18d      	bne.n	80071f2 <HAL_ADC_MspInit+0x92>
 80072d6:	2002      	movs	r0, #2
 80072d8:	e789      	b.n	80071ee <HAL_ADC_MspInit+0x8e>
 80072da:	200f      	movs	r0, #15
 80072dc:	f000 f89c 	bl	8007418 <PinToGPIOx>
 80072e0:	4b04      	ldr	r3, [pc, #16]	; (80072f4 <HAL_ADC_MspInit+0x194>)
 80072e2:	4298      	cmp	r0, r3
 80072e4:	d191      	bne.n	800720a <HAL_ADC_MspInit+0xaa>
 80072e6:	2002      	movs	r0, #2
 80072e8:	e78d      	b.n	8007206 <HAL_ADC_MspInit+0xa6>
 80072ea:	bf00      	nop
 80072ec:	40012400 	.word	0x40012400
 80072f0:	20006ced 	.word	0x20006ced
 80072f4:	48000400 	.word	0x48000400

080072f8 <HAL_ADC_MspDeInit>:
 80072f8:	b538      	push	{r3, r4, r5, lr}
 80072fa:	4b33      	ldr	r3, [pc, #204]	; (80073c8 <HAL_ADC_MspDeInit+0xd0>)
 80072fc:	6802      	ldr	r2, [r0, #0]
 80072fe:	429a      	cmp	r2, r3
 8007300:	d160      	bne.n	80073c4 <HAL_ADC_MspDeInit+0xcc>
 8007302:	f04f 42b0 	mov.w	r2, #1476395008	; 0x58000000
 8007306:	4c31      	ldr	r4, [pc, #196]	; (80073cc <HAL_ADC_MspDeInit+0xd4>)
 8007308:	6e13      	ldr	r3, [r2, #96]	; 0x60
 800730a:	f423 7300 	bic.w	r3, r3, #512	; 0x200
 800730e:	6613      	str	r3, [r2, #96]	; 0x60
 8007310:	7823      	ldrb	r3, [r4, #0]
 8007312:	07dd      	lsls	r5, r3, #31
 8007314:	d50e      	bpl.n	8007334 <HAL_ADC_MspDeInit+0x3c>
 8007316:	2013      	movs	r0, #19
 8007318:	f000 f87e 	bl	8007418 <PinToGPIOx>
 800731c:	4605      	mov	r5, r0
 800731e:	2013      	movs	r0, #19
 8007320:	f000 f87f 	bl	8007422 <PinToGPIO_Pin>
 8007324:	4601      	mov	r1, r0
 8007326:	4628      	mov	r0, r5
 8007328:	f023 faa6 	bl	802a878 <HAL_GPIO_DeInit>
 800732c:	7823      	ldrb	r3, [r4, #0]
 800732e:	f023 0301 	bic.w	r3, r3, #1
 8007332:	7023      	strb	r3, [r4, #0]
 8007334:	7823      	ldrb	r3, [r4, #0]
 8007336:	0798      	lsls	r0, r3, #30
 8007338:	d50e      	bpl.n	8007358 <HAL_ADC_MspDeInit+0x60>
 800733a:	2014      	movs	r0, #20
 800733c:	f000 f86c 	bl	8007418 <PinToGPIOx>
 8007340:	4605      	mov	r5, r0
 8007342:	2014      	movs	r0, #20
 8007344:	f000 f86d 	bl	8007422 <PinToGPIO_Pin>
 8007348:	4601      	mov	r1, r0
 800734a:	4628      	mov	r0, r5
 800734c:	f023 fa94 	bl	802a878 <HAL_GPIO_DeInit>
 8007350:	7823      	ldrb	r3, [r4, #0]
 8007352:	f023 0302 	bic.w	r3, r3, #2
 8007356:	7023      	strb	r3, [r4, #0]
 8007358:	7823      	ldrb	r3, [r4, #0]
 800735a:	0759      	lsls	r1, r3, #29
 800735c:	d50e      	bpl.n	800737c <HAL_ADC_MspDeInit+0x84>
 800735e:	2012      	movs	r0, #18
 8007360:	f000 f85a 	bl	8007418 <PinToGPIOx>
 8007364:	4605      	mov	r5, r0
 8007366:	2012      	movs	r0, #18
 8007368:	f000 f85b 	bl	8007422 <PinToGPIO_Pin>
 800736c:	4601      	mov	r1, r0
 800736e:	4628      	mov	r0, r5
 8007370:	f023 fa82 	bl	802a878 <HAL_GPIO_DeInit>
 8007374:	7823      	ldrb	r3, [r4, #0]
 8007376:	f023 0304 	bic.w	r3, r3, #4
 800737a:	7023      	strb	r3, [r4, #0]
 800737c:	7823      	ldrb	r3, [r4, #0]
 800737e:	071a      	lsls	r2, r3, #28
 8007380:	d50e      	bpl.n	80073a0 <HAL_ADC_MspDeInit+0xa8>
 8007382:	200a      	movs	r0, #10
 8007384:	f000 f848 	bl	8007418 <PinToGPIOx>
 8007388:	4605      	mov	r5, r0
 800738a:	200a      	movs	r0, #10
 800738c:	f000 f849 	bl	8007422 <PinToGPIO_Pin>
 8007390:	4601      	mov	r1, r0
 8007392:	4628      	mov	r0, r5
 8007394:	f023 fa70 	bl	802a878 <HAL_GPIO_DeInit>
 8007398:	7823      	ldrb	r3, [r4, #0]
 800739a:	f023 0308 	bic.w	r3, r3, #8
 800739e:	7023      	strb	r3, [r4, #0]
 80073a0:	7823      	ldrb	r3, [r4, #0]
 80073a2:	06db      	lsls	r3, r3, #27
 80073a4:	d50e      	bpl.n	80073c4 <HAL_ADC_MspDeInit+0xcc>
 80073a6:	200f      	movs	r0, #15
 80073a8:	f000 f836 	bl	8007418 <PinToGPIOx>
 80073ac:	4605      	mov	r5, r0
 80073ae:	200f      	movs	r0, #15
 80073b0:	f000 f837 	bl	8007422 <PinToGPIO_Pin>
 80073b4:	4601      	mov	r1, r0
 80073b6:	4628      	mov	r0, r5
 80073b8:	f023 fa5e 	bl	802a878 <HAL_GPIO_DeInit>
 80073bc:	7823      	ldrb	r3, [r4, #0]
 80073be:	f023 0310 	bic.w	r3, r3, #16
 80073c2:	7023      	strb	r3, [r4, #0]
 80073c4:	bd38      	pop	{r3, r4, r5, pc}
 80073c6:	bf00      	nop
 80073c8:	40012400 	.word	0x40012400
 80073cc:	20006ced 	.word	0x20006ced

080073d0 <gpio_wakeup_handler>:
 80073d0:	4b03      	ldr	r3, [pc, #12]	; (80073e0 <gpio_wakeup_handler+0x10>)
 80073d2:	2200      	movs	r2, #0
 80073d4:	701a      	strb	r2, [r3, #0]
 80073d6:	4b03      	ldr	r3, [pc, #12]	; (80073e4 <gpio_wakeup_handler+0x14>)
 80073d8:	2201      	movs	r2, #1
 80073da:	701a      	strb	r2, [r3, #0]
 80073dc:	4770      	bx	lr
 80073de:	bf00      	nop
 80073e0:	200093ef 	.word	0x200093ef
 80073e4:	200093ed 	.word	0x200093ed

080073e8 <LL_GPIO_GetPinPull>:
 80073e8:	68c2      	ldr	r2, [r0, #12]
 80073ea:	fa91 f0a1 	rbit	r0, r1
 80073ee:	fab0 f080 	clz	r0, r0
 80073f2:	0043      	lsls	r3, r0, #1
 80073f4:	2003      	movs	r0, #3
 80073f6:	4098      	lsls	r0, r3
 80073f8:	4010      	ands	r0, r2
 80073fa:	fa91 f1a1 	rbit	r1, r1
 80073fe:	fab1 f181 	clz	r1, r1
 8007402:	0049      	lsls	r1, r1, #1
 8007404:	40c8      	lsrs	r0, r1
 8007406:	4770      	bx	lr

08007408 <uhal_gpio_handler_handler>:
 8007408:	4b02      	ldr	r3, [pc, #8]	; (8007414 <uhal_gpio_handler_handler+0xc>)
 800740a:	f853 3020 	ldr.w	r3, [r3, r0, lsl #2]
 800740e:	b103      	cbz	r3, 8007412 <uhal_gpio_handler_handler+0xa>
 8007410:	4718      	bx	r3
 8007412:	4770      	bx	lr
 8007414:	20006db4 	.word	0x20006db4

08007418 <PinToGPIOx>:
 8007418:	0900      	lsrs	r0, r0, #4
 800741a:	f500 1090 	add.w	r0, r0, #1179648	; 0x120000
 800741e:	0280      	lsls	r0, r0, #10
 8007420:	4770      	bx	lr

08007422 <PinToGPIO_Pin>:
 8007422:	f000 030f 	and.w	r3, r0, #15
 8007426:	2001      	movs	r0, #1
 8007428:	4098      	lsls	r0, r3
 800742a:	b280      	uxth	r0, r0
 800742c:	4770      	bx	lr

0800742e <uhal_gpio_get_dir>:
 800742e:	282f      	cmp	r0, #47	; 0x2f
 8007430:	b508      	push	{r3, lr}
 8007432:	4603      	mov	r3, r0
 8007434:	d900      	bls.n	8007438 <uhal_gpio_get_dir+0xa>
 8007436:	bd08      	pop	{r3, pc}
 8007438:	f7ff ffee 	bl	8007418 <PinToGPIOx>
 800743c:	f003 020f 	and.w	r2, r3, #15
 8007440:	2301      	movs	r3, #1
 8007442:	6801      	ldr	r1, [r0, #0]
 8007444:	4093      	lsls	r3, r2
 8007446:	fa93 f2a3 	rbit	r2, r3
 800744a:	fab2 f082 	clz	r0, r2
 800744e:	0042      	lsls	r2, r0, #1
 8007450:	2003      	movs	r0, #3
 8007452:	4090      	lsls	r0, r2
 8007454:	4008      	ands	r0, r1
 8007456:	fa93 f3a3 	rbit	r3, r3
 800745a:	fab3 f383 	clz	r3, r3
 800745e:	005b      	lsls	r3, r3, #1
 8007460:	40d8      	lsrs	r0, r3
 8007462:	d0e8      	beq.n	8007436 <uhal_gpio_get_dir+0x8>
 8007464:	2801      	cmp	r0, #1
 8007466:	f04f 0000 	mov.w	r0, #0
 800746a:	bf08      	it	eq
 800746c:	2001      	moveq	r0, #1
 800746e:	e7e2      	b.n	8007436 <uhal_gpio_get_dir+0x8>

08007470 <uhal_gpio_intc_trigger_mode>:
 8007470:	b530      	push	{r4, r5, lr}
 8007472:	282f      	cmp	r0, #47	; 0x2f
 8007474:	b087      	sub	sp, #28
 8007476:	460b      	mov	r3, r1
 8007478:	d823      	bhi.n	80074c2 <uhal_gpio_intc_trigger_mode+0x52>
 800747a:	f000 040f 	and.w	r4, r0, #15
 800747e:	2101      	movs	r1, #1
 8007480:	40a1      	lsls	r1, r4
 8007482:	2202      	movs	r2, #2
 8007484:	2b03      	cmp	r3, #3
 8007486:	9101      	str	r1, [sp, #4]
 8007488:	9204      	str	r2, [sp, #16]
 800748a:	d81c      	bhi.n	80074c6 <uhal_gpio_intc_trigger_mode+0x56>
 800748c:	2b01      	cmp	r3, #1
 800748e:	d91d      	bls.n	80074cc <uhal_gpio_intc_trigger_mode+0x5c>
 8007490:	f44f 1388 	mov.w	r3, #1114112	; 0x110000
 8007494:	9302      	str	r3, [sp, #8]
 8007496:	f7ff ffbf 	bl	8007418 <PinToGPIOx>
 800749a:	4605      	mov	r5, r0
 800749c:	f7ff ffa4 	bl	80073e8 <LL_GPIO_GetPinPull>
 80074a0:	2801      	cmp	r0, #1
 80074a2:	d019      	beq.n	80074d8 <uhal_gpio_intc_trigger_mode+0x68>
 80074a4:	2802      	cmp	r0, #2
 80074a6:	d017      	beq.n	80074d8 <uhal_gpio_intc_trigger_mode+0x68>
 80074a8:	a901      	add	r1, sp, #4
 80074aa:	4628      	mov	r0, r5
 80074ac:	f023 f932 	bl	802a714 <HAL_GPIO_Init>
 80074b0:	b9a4      	cbnz	r4, 80074dc <uhal_gpio_intc_trigger_mode+0x6c>
 80074b2:	2006      	movs	r0, #6
 80074b4:	4622      	mov	r2, r4
 80074b6:	2102      	movs	r1, #2
 80074b8:	f01c fc8e 	bl	8023dd8 <HAL_NVIC_SetPriority>
 80074bc:	2006      	movs	r0, #6
 80074be:	f01c fcbd 	bl	8023e3c <HAL_NVIC_EnableIRQ>
 80074c2:	b007      	add	sp, #28
 80074c4:	bd30      	pop	{r4, r5, pc}
 80074c6:	3b04      	subs	r3, #4
 80074c8:	2b01      	cmp	r3, #1
 80074ca:	d902      	bls.n	80074d2 <uhal_gpio_intc_trigger_mode+0x62>
 80074cc:	f44f 1344 	mov.w	r3, #3211264	; 0x310000
 80074d0:	e7e0      	b.n	8007494 <uhal_gpio_intc_trigger_mode+0x24>
 80074d2:	f44f 1304 	mov.w	r3, #2162688	; 0x210000
 80074d6:	e7dd      	b.n	8007494 <uhal_gpio_intc_trigger_mode+0x24>
 80074d8:	9003      	str	r0, [sp, #12]
 80074da:	e7e5      	b.n	80074a8 <uhal_gpio_intc_trigger_mode+0x38>
 80074dc:	2c01      	cmp	r4, #1
 80074de:	d106      	bne.n	80074ee <uhal_gpio_intc_trigger_mode+0x7e>
 80074e0:	2007      	movs	r0, #7
 80074e2:	2200      	movs	r2, #0
 80074e4:	2102      	movs	r1, #2
 80074e6:	f01c fc77 	bl	8023dd8 <HAL_NVIC_SetPriority>
 80074ea:	2007      	movs	r0, #7
 80074ec:	e7e7      	b.n	80074be <uhal_gpio_intc_trigger_mode+0x4e>
 80074ee:	2c02      	cmp	r4, #2
 80074f0:	d106      	bne.n	8007500 <uhal_gpio_intc_trigger_mode+0x90>
 80074f2:	2008      	movs	r0, #8
 80074f4:	2200      	movs	r2, #0
 80074f6:	4621      	mov	r1, r4
 80074f8:	f01c fc6e 	bl	8023dd8 <HAL_NVIC_SetPriority>
 80074fc:	2008      	movs	r0, #8
 80074fe:	e7de      	b.n	80074be <uhal_gpio_intc_trigger_mode+0x4e>
 8007500:	2c03      	cmp	r4, #3
 8007502:	d106      	bne.n	8007512 <uhal_gpio_intc_trigger_mode+0xa2>
 8007504:	2009      	movs	r0, #9
 8007506:	2200      	movs	r2, #0
 8007508:	2102      	movs	r1, #2
 800750a:	f01c fc65 	bl	8023dd8 <HAL_NVIC_SetPriority>
 800750e:	2009      	movs	r0, #9
 8007510:	e7d5      	b.n	80074be <uhal_gpio_intc_trigger_mode+0x4e>
 8007512:	2c04      	cmp	r4, #4
 8007514:	d106      	bne.n	8007524 <uhal_gpio_intc_trigger_mode+0xb4>
 8007516:	200a      	movs	r0, #10
 8007518:	2200      	movs	r2, #0
 800751a:	2102      	movs	r1, #2
 800751c:	f01c fc5c 	bl	8023dd8 <HAL_NVIC_SetPriority>
 8007520:	200a      	movs	r0, #10
 8007522:	e7cc      	b.n	80074be <uhal_gpio_intc_trigger_mode+0x4e>
 8007524:	3c05      	subs	r4, #5
 8007526:	2c04      	cmp	r4, #4
 8007528:	f04f 0200 	mov.w	r2, #0
 800752c:	f04f 0102 	mov.w	r1, #2
 8007530:	d804      	bhi.n	800753c <uhal_gpio_intc_trigger_mode+0xcc>
 8007532:	2016      	movs	r0, #22
 8007534:	f01c fc50 	bl	8023dd8 <HAL_NVIC_SetPriority>
 8007538:	2016      	movs	r0, #22
 800753a:	e7c0      	b.n	80074be <uhal_gpio_intc_trigger_mode+0x4e>
 800753c:	2029      	movs	r0, #41	; 0x29
 800753e:	f01c fc4b 	bl	8023dd8 <HAL_NVIC_SetPriority>
 8007542:	2029      	movs	r0, #41	; 0x29
 8007544:	e7bb      	b.n	80074be <uhal_gpio_intc_trigger_mode+0x4e>
	...

08007548 <uhal_gpio_register_isr>:
 8007548:	4b04      	ldr	r3, [pc, #16]	; (800755c <uhal_gpio_register_isr+0x14>)
 800754a:	f000 000f 	and.w	r0, r0, #15
 800754e:	f853 2020 	ldr.w	r2, [r3, r0, lsl #2]
 8007552:	b90a      	cbnz	r2, 8007558 <uhal_gpio_register_isr+0x10>
 8007554:	f843 1020 	str.w	r1, [r3, r0, lsl #2]
 8007558:	2000      	movs	r0, #0
 800755a:	4770      	bx	lr
 800755c:	20006db4 	.word	0x20006db4

08007560 <uhal_gpio_suspend>:
 8007560:	b5f8      	push	{r3, r4, r5, r6, r7, lr}
 8007562:	4d0f      	ldr	r5, [pc, #60]	; (80075a0 <uhal_gpio_suspend+0x40>)
 8007564:	4e0f      	ldr	r6, [pc, #60]	; (80075a4 <uhal_gpio_suspend+0x44>)
 8007566:	4f10      	ldr	r7, [pc, #64]	; (80075a8 <uhal_gpio_suspend+0x48>)
 8007568:	2400      	movs	r4, #0
 800756a:	2c0f      	cmp	r4, #15
 800756c:	dd05      	ble.n	800757a <uhal_gpio_suspend+0x1a>
 800756e:	f1a4 0312 	sub.w	r3, r4, #18
 8007572:	2b05      	cmp	r3, #5
 8007574:	d901      	bls.n	800757a <uhal_gpio_suspend+0x1a>
 8007576:	2c1c      	cmp	r4, #28
 8007578:	d10e      	bne.n	8007598 <uhal_gpio_suspend+0x38>
 800757a:	f855 3024 	ldr.w	r3, [r5, r4, lsl #2]
 800757e:	b95b      	cbnz	r3, 8007598 <uhal_gpio_suspend+0x38>
 8007580:	eb06 0344 	add.w	r3, r6, r4, lsl #1
 8007584:	785b      	ldrb	r3, [r3, #1]
 8007586:	b13b      	cbz	r3, 8007598 <uhal_gpio_suspend+0x38>
 8007588:	7839      	ldrb	r1, [r7, #0]
 800758a:	4620      	mov	r0, r4
 800758c:	f7ff ff70 	bl	8007470 <uhal_gpio_intc_trigger_mode>
 8007590:	4906      	ldr	r1, [pc, #24]	; (80075ac <uhal_gpio_suspend+0x4c>)
 8007592:	4620      	mov	r0, r4
 8007594:	f7ff ffd8 	bl	8007548 <uhal_gpio_register_isr>
 8007598:	3401      	adds	r4, #1
 800759a:	2c30      	cmp	r4, #48	; 0x30
 800759c:	d1e5      	bne.n	800756a <uhal_gpio_suspend+0xa>
 800759e:	bdf8      	pop	{r3, r4, r5, r6, r7, pc}
 80075a0:	20006db4 	.word	0x20006db4
 80075a4:	20006d54 	.word	0x20006d54
 80075a8:	2000600a 	.word	0x2000600a
 80075ac:	080073d1 	.word	0x080073d1

080075b0 <uhal_gpio_resume>:
 80075b0:	e92d 41f0 	stmdb	sp!, {r4, r5, r6, r7, r8, lr}
 80075b4:	4d19      	ldr	r5, [pc, #100]	; (800761c <uhal_gpio_resume+0x6c>)
 80075b6:	4e1a      	ldr	r6, [pc, #104]	; (8007620 <uhal_gpio_resume+0x70>)
 80075b8:	b086      	sub	sp, #24
 80075ba:	2400      	movs	r4, #0
 80075bc:	2702      	movs	r7, #2
 80075be:	2c0f      	cmp	r4, #15
 80075c0:	dd05      	ble.n	80075ce <uhal_gpio_resume+0x1e>
 80075c2:	f1a4 0312 	sub.w	r3, r4, #18
 80075c6:	2b05      	cmp	r3, #5
 80075c8:	d901      	bls.n	80075ce <uhal_gpio_resume+0x1e>
 80075ca:	2c1c      	cmp	r4, #28
 80075cc:	d11f      	bne.n	800760e <uhal_gpio_resume+0x5e>
 80075ce:	f855 3024 	ldr.w	r3, [r5, r4, lsl #2]
 80075d2:	b9e3      	cbnz	r3, 800760e <uhal_gpio_resume+0x5e>
 80075d4:	f816 1014 	ldrb.w	r1, [r6, r4, lsl #1]
 80075d8:	2901      	cmp	r1, #1
 80075da:	d118      	bne.n	800760e <uhal_gpio_resume+0x5e>
 80075dc:	f004 030f 	and.w	r3, r4, #15
 80075e0:	4099      	lsls	r1, r3
 80075e2:	4620      	mov	r0, r4
 80075e4:	9101      	str	r1, [sp, #4]
 80075e6:	9704      	str	r7, [sp, #16]
 80075e8:	f7ff ff16 	bl	8007418 <PinToGPIOx>
 80075ec:	4680      	mov	r8, r0
 80075ee:	f7ff fefb 	bl	80073e8 <LL_GPIO_GetPinPull>
 80075f2:	9003      	str	r0, [sp, #12]
 80075f4:	4620      	mov	r0, r4
 80075f6:	f7ff ff1a 	bl	800742e <uhal_gpio_get_dir>
 80075fa:	2801      	cmp	r0, #1
 80075fc:	d101      	bne.n	8007602 <uhal_gpio_resume+0x52>
 80075fe:	9002      	str	r0, [sp, #8]
 8007600:	e001      	b.n	8007606 <uhal_gpio_resume+0x56>
 8007602:	2800      	cmp	r0, #0
 8007604:	d0fb      	beq.n	80075fe <uhal_gpio_resume+0x4e>
 8007606:	a901      	add	r1, sp, #4
 8007608:	4640      	mov	r0, r8
 800760a:	f023 f883 	bl	802a714 <HAL_GPIO_Init>
 800760e:	3401      	adds	r4, #1
 8007610:	2c30      	cmp	r4, #48	; 0x30
 8007612:	d1d4      	bne.n	80075be <uhal_gpio_resume+0xe>
 8007614:	b006      	add	sp, #24
 8007616:	e8bd 81f0 	ldmia.w	sp!, {r4, r5, r6, r7, r8, pc}
 800761a:	bf00      	nop
 800761c:	20006db4 	.word	0x20006db4
 8007620:	20006d54 	.word	0x20006d54

08007624 <LL_AHB1_GRP1_EnableClock>:
 8007624:	f04f 43b0 	mov.w	r3, #1476395008	; 0x58000000
 8007628:	b082      	sub	sp, #8
 800762a:	6c9a      	ldr	r2, [r3, #72]	; 0x48
 800762c:	4302      	orrs	r2, r0
 800762e:	649a      	str	r2, [r3, #72]	; 0x48
 8007630:	6c9b      	ldr	r3, [r3, #72]	; 0x48
 8007632:	4018      	ands	r0, r3
 8007634:	9001      	str	r0, [sp, #4]
 8007636:	9b01      	ldr	r3, [sp, #4]
 8007638:	b002      	add	sp, #8
 800763a:	4770      	bx	lr

0800763c <LL_AHB2_GRP1_EnableClock>:
 800763c:	f04f 43b0 	mov.w	r3, #1476395008	; 0x58000000
 8007640:	b082      	sub	sp, #8
 8007642:	6cda      	ldr	r2, [r3, #76]	; 0x4c
 8007644:	4302      	orrs	r2, r0
 8007646:	64da      	str	r2, [r3, #76]	; 0x4c
 8007648:	6cdb      	ldr	r3, [r3, #76]	; 0x4c
 800764a:	4018      	ands	r0, r3
 800764c:	9001      	str	r0, [sp, #4]
 800764e:	9b01      	ldr	r3, [sp, #4]
 8007650:	b002      	add	sp, #8
 8007652:	4770      	bx	lr

08007654 <StartReception.part.0>:
 8007654:	b510      	push	{r4, lr}
 8007656:	4c06      	ldr	r4, [pc, #24]	; (8007670 <StartReception.part.0+0x1c>)
 8007658:	4906      	ldr	r1, [pc, #24]	; (8007674 <StartReception.part.0+0x20>)
 800765a:	2280      	movs	r2, #128	; 0x80
 800765c:	4620      	mov	r0, r4
 800765e:	f00a fee3 	bl	8012428 <HAL_UART_Receive_DMA>
 8007662:	6822      	ldr	r2, [r4, #0]
 8007664:	6813      	ldr	r3, [r2, #0]
 8007666:	f043 0310 	orr.w	r3, r3, #16
 800766a:	6013      	str	r3, [r2, #0]
 800766c:	bd10      	pop	{r4, pc}
 800766e:	bf00      	nop
 8007670:	20007400 	.word	0x20007400
 8007674:	20007520 	.word	0x20007520

08007678 <StartReception>:
 8007678:	2801      	cmp	r0, #1
 800767a:	b510      	push	{r4, lr}
 800767c:	d10b      	bne.n	8007696 <StartReception+0x1e>
 800767e:	4c09      	ldr	r4, [pc, #36]	; (80076a4 <StartReception+0x2c>)
 8007680:	4909      	ldr	r1, [pc, #36]	; (80076a8 <StartReception+0x30>)
 8007682:	2280      	movs	r2, #128	; 0x80
 8007684:	4620      	mov	r0, r4
 8007686:	f00a fecf 	bl	8012428 <HAL_UART_Receive_DMA>
 800768a:	6822      	ldr	r2, [r4, #0]
 800768c:	6813      	ldr	r3, [r2, #0]
 800768e:	f043 0310 	orr.w	r3, r3, #16
 8007692:	6013      	str	r3, [r2, #0]
 8007694:	bd10      	pop	{r4, pc}
 8007696:	2802      	cmp	r0, #2
 8007698:	d1fc      	bne.n	8007694 <StartReception+0x1c>
 800769a:	e8bd 4010 	ldmia.w	sp!, {r4, lr}
 800769e:	f7ff bfd9 	b.w	8007654 <StartReception.part.0>
 80076a2:	bf00      	nop
 80076a4:	20007490 	.word	0x20007490
 80076a8:	200075a8 	.word	0x200075a8

080076ac <uart_init>:
 80076ac:	e92d 43f7 	stmdb	sp!, {r0, r1, r2, r4, r5, r6, r7, r8, r9, lr}
 80076b0:	f89d 5028 	ldrb.w	r5, [sp, #40]	; 0x28
 80076b4:	f89d 802c 	ldrb.w	r8, [sp, #44]	; 0x2c
 80076b8:	2b01      	cmp	r3, #1
 80076ba:	bf14      	ite	ne
 80076bc:	2700      	movne	r7, #0
 80076be:	f44f 5700 	moveq.w	r7, #8192	; 0x2000
 80076c2:	2d01      	cmp	r5, #1
 80076c4:	4604      	mov	r4, r0
 80076c6:	460e      	mov	r6, r1
 80076c8:	d069      	beq.n	800779e <uart_init+0xf2>
 80076ca:	2d03      	cmp	r5, #3
 80076cc:	d06a      	beq.n	80077a4 <uart_init+0xf8>
 80076ce:	2d00      	cmp	r5, #0
 80076d0:	d06b      	beq.n	80077aa <uart_init+0xfe>
 80076d2:	2500      	movs	r5, #0
 80076d4:	3a01      	subs	r2, #1
 80076d6:	b2d2      	uxtb	r2, r2
 80076d8:	2a02      	cmp	r2, #2
 80076da:	d86b      	bhi.n	80077b4 <uart_init+0x108>
 80076dc:	4b66      	ldr	r3, [pc, #408]	; (8007878 <uart_init+0x1cc>)
 80076de:	f853 9022 	ldr.w	r9, [r3, r2, lsl #2]
 80076e2:	2c01      	cmp	r4, #1
 80076e4:	d170      	bne.n	80077c8 <uart_init+0x11c>
 80076e6:	2004      	movs	r0, #4
 80076e8:	f7ff ff9c 	bl	8007624 <LL_AHB1_GRP1_EnableClock>
 80076ec:	4620      	mov	r0, r4
 80076ee:	f7ff ff99 	bl	8007624 <LL_AHB1_GRP1_EnableClock>
 80076f2:	2200      	movs	r2, #0
 80076f4:	4611      	mov	r1, r2
 80076f6:	200e      	movs	r0, #14
 80076f8:	f01c fb6e 	bl	8023dd8 <HAL_NVIC_SetPriority>
 80076fc:	200e      	movs	r0, #14
 80076fe:	f01c fb9d 	bl	8023e3c <HAL_NVIC_EnableIRQ>
 8007702:	4b5e      	ldr	r3, [pc, #376]	; (800787c <uart_init+0x1d0>)
 8007704:	485e      	ldr	r0, [pc, #376]	; (8007880 <uart_init+0x1d4>)
 8007706:	f883 8001 	strb.w	r8, [r3, #1]
 800770a:	4b5e      	ldr	r3, [pc, #376]	; (8007884 <uart_init+0x1d8>)
 800770c:	6105      	str	r5, [r0, #16]
 800770e:	e9c0 3600 	strd	r3, r6, [r0]
 8007712:	240c      	movs	r4, #12
 8007714:	2300      	movs	r3, #0
 8007716:	e9c0 9702 	strd	r9, r7, [r0, #8]
 800771a:	e9c0 4305 	strd	r4, r3, [r0, #20]
 800771e:	e9c0 3307 	strd	r3, r3, [r0, #28]
 8007722:	6243      	str	r3, [r0, #36]	; 0x24
 8007724:	f1b8 0f00 	cmp.w	r8, #0
 8007728:	d049      	beq.n	80077be <uart_init+0x112>
 800772a:	f1b8 0f02 	cmp.w	r8, #2
 800772e:	bf01      	itttt	eq
 8007730:	2308      	moveq	r3, #8
 8007732:	6283      	streq	r3, [r0, #40]	; 0x28
 8007734:	f44f 4300 	moveq.w	r3, #32768	; 0x8000
 8007738:	6383      	streq	r3, [r0, #56]	; 0x38
 800773a:	4851      	ldr	r0, [pc, #324]	; (8007880 <uart_init+0x1d4>)
 800773c:	f00a fde8 	bl	8012310 <HAL_HalfDuplex_Init>
 8007740:	b108      	cbz	r0, 8007746 <uart_init+0x9a>
 8007742:	f01a ff7b 	bl	802263c <Error_Handler>
 8007746:	484e      	ldr	r0, [pc, #312]	; (8007880 <uart_init+0x1d4>)
 8007748:	2100      	movs	r1, #0
 800774a:	f00a ff51 	bl	80125f0 <HAL_UARTEx_SetTxFifoThreshold>
 800774e:	b108      	cbz	r0, 8007754 <uart_init+0xa8>
 8007750:	f01a ff74 	bl	802263c <Error_Handler>
 8007754:	484a      	ldr	r0, [pc, #296]	; (8007880 <uart_init+0x1d4>)
 8007756:	2100      	movs	r1, #0
 8007758:	f00a ff6f 	bl	801263a <HAL_UARTEx_SetRxFifoThreshold>
 800775c:	b108      	cbz	r0, 8007762 <uart_init+0xb6>
 800775e:	f01a ff6d 	bl	802263c <Error_Handler>
 8007762:	4847      	ldr	r0, [pc, #284]	; (8007880 <uart_init+0x1d4>)
 8007764:	f00a ff25 	bl	80125b2 <HAL_UARTEx_DisableFifoMode>
 8007768:	b108      	cbz	r0, 800776e <uart_init+0xc2>
 800776a:	f01a ff67 	bl	802263c <Error_Handler>
 800776e:	2001      	movs	r0, #1
 8007770:	f7ff ff82 	bl	8007678 <StartReception>
 8007774:	f44f 1340 	mov.w	r3, #3145728	; 0x300000
 8007778:	9300      	str	r3, [sp, #0]
 800777a:	ab02      	add	r3, sp, #8
 800777c:	e913 0006 	ldmdb	r3, {r1, r2}
 8007780:	483f      	ldr	r0, [pc, #252]	; (8007880 <uart_init+0x1d4>)
 8007782:	f00a fe9f 	bl	80124c4 <HAL_UARTEx_StopModeWakeUpSourceConfig>
 8007786:	b108      	cbz	r0, 800778c <uart_init+0xe0>
 8007788:	f01a ff58 	bl	802263c <Error_Handler>
 800778c:	f04f 42b0 	mov.w	r2, #1476395008	; 0x58000000
 8007790:	6893      	ldr	r3, [r2, #8]
 8007792:	f443 4300 	orr.w	r3, r3, #32768	; 0x8000
 8007796:	6093      	str	r3, [r2, #8]
 8007798:	b003      	add	sp, #12
 800779a:	e8bd 83f0 	ldmia.w	sp!, {r4, r5, r6, r7, r8, r9, pc}
 800779e:	f44f 65c0 	mov.w	r5, #1536	; 0x600
 80077a2:	e797      	b.n	80076d4 <uart_init+0x28>
 80077a4:	f44f 6580 	mov.w	r5, #1024	; 0x400
 80077a8:	e794      	b.n	80076d4 <uart_init+0x28>
 80077aa:	2a02      	cmp	r2, #2
 80077ac:	d105      	bne.n	80077ba <uart_init+0x10e>
 80077ae:	f04f 5980 	mov.w	r9, #268435456	; 0x10000000
 80077b2:	e796      	b.n	80076e2 <uart_init+0x36>
 80077b4:	f04f 0900 	mov.w	r9, #0
 80077b8:	e793      	b.n	80076e2 <uart_init+0x36>
 80077ba:	46a9      	mov	r9, r5
 80077bc:	e791      	b.n	80076e2 <uart_init+0x36>
 80077be:	f8c0 8028 	str.w	r8, [r0, #40]	; 0x28
 80077c2:	f00a fd73 	bl	80122ac <HAL_UART_Init>
 80077c6:	e7bb      	b.n	8007740 <uart_init+0x94>
 80077c8:	2c02      	cmp	r4, #2
 80077ca:	d1e5      	bne.n	8007798 <uart_init+0xec>
 80077cc:	4b2b      	ldr	r3, [pc, #172]	; (800787c <uart_init+0x1d0>)
 80077ce:	4c2e      	ldr	r4, [pc, #184]	; (8007888 <uart_init+0x1dc>)
 80077d0:	f883 8002 	strb.w	r8, [r3, #2]
 80077d4:	2004      	movs	r0, #4
 80077d6:	f7ff ff25 	bl	8007624 <LL_AHB1_GRP1_EnableClock>
 80077da:	2001      	movs	r0, #1
 80077dc:	f7ff ff22 	bl	8007624 <LL_AHB1_GRP1_EnableClock>
 80077e0:	2200      	movs	r2, #0
 80077e2:	4611      	mov	r1, r2
 80077e4:	200b      	movs	r0, #11
 80077e6:	f01c faf7 	bl	8023dd8 <HAL_NVIC_SetPriority>
 80077ea:	200b      	movs	r0, #11
 80077ec:	f01c fb26 	bl	8023e3c <HAL_NVIC_EnableIRQ>
 80077f0:	4b26      	ldr	r3, [pc, #152]	; (800788c <uart_init+0x1e0>)
 80077f2:	6125      	str	r5, [r4, #16]
 80077f4:	e9c4 3600 	strd	r3, r6, [r4]
 80077f8:	220c      	movs	r2, #12
 80077fa:	2300      	movs	r3, #0
 80077fc:	4620      	mov	r0, r4
 80077fe:	e9c4 9702 	strd	r9, r7, [r4, #8]
 8007802:	e9c4 2305 	strd	r2, r3, [r4, #20]
 8007806:	e9c4 3308 	strd	r3, r3, [r4, #32]
 800780a:	62a3      	str	r3, [r4, #40]	; 0x28
 800780c:	6663      	str	r3, [r4, #100]	; 0x64
 800780e:	f00a fd4d 	bl	80122ac <HAL_UART_Init>
 8007812:	b108      	cbz	r0, 8007818 <uart_init+0x16c>
 8007814:	f01a ff12 	bl	802263c <Error_Handler>
 8007818:	481b      	ldr	r0, [pc, #108]	; (8007888 <uart_init+0x1dc>)
 800781a:	2100      	movs	r1, #0
 800781c:	f00a fee8 	bl	80125f0 <HAL_UARTEx_SetTxFifoThreshold>
 8007820:	b108      	cbz	r0, 8007826 <uart_init+0x17a>
 8007822:	f01a ff0b 	bl	802263c <Error_Handler>
 8007826:	4818      	ldr	r0, [pc, #96]	; (8007888 <uart_init+0x1dc>)
 8007828:	2100      	movs	r1, #0
 800782a:	f00a ff06 	bl	801263a <HAL_UARTEx_SetRxFifoThreshold>
 800782e:	b108      	cbz	r0, 8007834 <uart_init+0x188>
 8007830:	f01a ff04 	bl	802263c <Error_Handler>
 8007834:	4814      	ldr	r0, [pc, #80]	; (8007888 <uart_init+0x1dc>)
 8007836:	f00a febc 	bl	80125b2 <HAL_UARTEx_DisableFifoMode>
 800783a:	b108      	cbz	r0, 8007840 <uart_init+0x194>
 800783c:	f01a fefe 	bl	802263c <Error_Handler>
 8007840:	f7ff ff08 	bl	8007654 <StartReception.part.0>
 8007844:	f44f 1340 	mov.w	r3, #3145728	; 0x300000
 8007848:	9300      	str	r3, [sp, #0]
 800784a:	ab02      	add	r3, sp, #8
 800784c:	e913 0006 	ldmdb	r3, {r1, r2}
 8007850:	480d      	ldr	r0, [pc, #52]	; (8007888 <uart_init+0x1dc>)
 8007852:	f00a fe37 	bl	80124c4 <HAL_UARTEx_StopModeWakeUpSourceConfig>
 8007856:	b108      	cbz	r0, 800785c <uart_init+0x1b0>
 8007858:	f01a fef0 	bl	802263c <Error_Handler>
 800785c:	4a0c      	ldr	r2, [pc, #48]	; (8007890 <uart_init+0x1e4>)
 800785e:	f8d2 3080 	ldr.w	r3, [r2, #128]	; 0x80
 8007862:	f043 5380 	orr.w	r3, r3, #268435456	; 0x10000000
 8007866:	f8c2 3080 	str.w	r3, [r2, #128]	; 0x80
 800786a:	6822      	ldr	r2, [r4, #0]
 800786c:	6893      	ldr	r3, [r2, #8]
 800786e:	f443 0380 	orr.w	r3, r3, #4194304	; 0x400000
 8007872:	6093      	str	r3, [r2, #8]
 8007874:	e78a      	b.n	800778c <uart_init+0xe0>
 8007876:	bf00      	nop
 8007878:	080171fc 	.word	0x080171fc
 800787c:	2000764c 	.word	0x2000764c
 8007880:	20007490 	.word	0x20007490
 8007884:	40013800 	.word	0x40013800
 8007888:	20007400 	.word	0x20007400
 800788c:	40008000 	.word	0x40008000
 8007890:	58000800 	.word	0x58000800

08007894 <uhal_uart_init>:
 8007894:	e92d 41f3 	stmdb	sp!, {r0, r1, r4, r5, r6, r7, r8, lr}
 8007898:	f89d 8020 	ldrb.w	r8, [sp, #32]
 800789c:	f89d c024 	ldrb.w	ip, [sp, #36]	; 0x24
 80078a0:	e9cd 8c00 	strd	r8, ip, [sp]
 80078a4:	4616      	mov	r6, r2
 80078a6:	461d      	mov	r5, r3
 80078a8:	4604      	mov	r4, r0
 80078aa:	460f      	mov	r7, r1
 80078ac:	f7ff fefe 	bl	80076ac <uart_init>
 80078b0:	4b06      	ldr	r3, [pc, #24]	; (80078cc <uhal_uart_init+0x38>)
 80078b2:	200c      	movs	r0, #12
 80078b4:	4344      	muls	r4, r0
 80078b6:	1918      	adds	r0, r3, r4
 80078b8:	2201      	movs	r2, #1
 80078ba:	551a      	strb	r2, [r3, r4]
 80078bc:	6047      	str	r7, [r0, #4]
 80078be:	7206      	strb	r6, [r0, #8]
 80078c0:	7245      	strb	r5, [r0, #9]
 80078c2:	f880 800a 	strb.w	r8, [r0, #10]
 80078c6:	b002      	add	sp, #8
 80078c8:	e8bd 81f0 	ldmia.w	sp!, {r4, r5, r6, r7, r8, pc}
 80078cc:	20007628 	.word	0x20007628

080078d0 <uhal_uart_deinit>:
 80078d0:	2802      	cmp	r0, #2
 80078d2:	b510      	push	{r4, lr}
 80078d4:	4604      	mov	r4, r0
 80078d6:	d10b      	bne.n	80078f0 <uhal_uart_deinit+0x20>
 80078d8:	4807      	ldr	r0, [pc, #28]	; (80078f8 <uhal_uart_deinit+0x28>)
 80078da:	f009 ffb9 	bl	8011850 <HAL_UART_DeInit>
 80078de:	b108      	cbz	r0, 80078e4 <uhal_uart_deinit+0x14>
 80078e0:	f01a feac 	bl	802263c <Error_Handler>
 80078e4:	200c      	movs	r0, #12
 80078e6:	4b05      	ldr	r3, [pc, #20]	; (80078fc <uhal_uart_deinit+0x2c>)
 80078e8:	4344      	muls	r4, r0
 80078ea:	2200      	movs	r2, #0
 80078ec:	551a      	strb	r2, [r3, r4]
 80078ee:	bd10      	pop	{r4, pc}
 80078f0:	2801      	cmp	r0, #1
 80078f2:	d1f7      	bne.n	80078e4 <uhal_uart_deinit+0x14>
 80078f4:	4802      	ldr	r0, [pc, #8]	; (8007900 <uhal_uart_deinit+0x30>)
 80078f6:	e7f0      	b.n	80078da <uhal_uart_deinit+0xa>
 80078f8:	20007400 	.word	0x20007400
 80078fc:	20007628 	.word	0x20007628
 8007900:	20007490 	.word	0x20007490

08007904 <uhal_uart_write>:
 8007904:	2801      	cmp	r0, #1
 8007906:	b5f8      	push	{r3, r4, r5, r6, r7, lr}
 8007908:	4605      	mov	r5, r0
 800790a:	460e      	mov	r6, r1
 800790c:	461f      	mov	r7, r3
 800790e:	d12b      	bne.n	8007968 <uhal_uart_write+0x64>
 8007910:	b294      	uxth	r4, r2
 8007912:	4a18      	ldr	r2, [pc, #96]	; (8007974 <uhal_uart_write+0x70>)
 8007914:	7852      	ldrb	r2, [r2, #1]
 8007916:	3a01      	subs	r2, #1
 8007918:	2a01      	cmp	r2, #1
 800791a:	d817      	bhi.n	800794c <uhal_uart_write+0x48>
 800791c:	4816      	ldr	r0, [pc, #88]	; (8007978 <uhal_uart_write+0x74>)
 800791e:	f00a fa08 	bl	8011d32 <HAL_HalfDuplex_EnableTransmitter>
 8007922:	4622      	mov	r2, r4
 8007924:	4814      	ldr	r0, [pc, #80]	; (8007978 <uhal_uart_write+0x74>)
 8007926:	463b      	mov	r3, r7
 8007928:	4631      	mov	r1, r6
 800792a:	f00a fc2f 	bl	801218c <HAL_UART_Transmit>
 800792e:	4604      	mov	r4, r0
 8007930:	4811      	ldr	r0, [pc, #68]	; (8007978 <uhal_uart_write+0x74>)
 8007932:	f00a fa23 	bl	8011d7c <HAL_HalfDuplex_EnableReceiver>
 8007936:	b984      	cbnz	r4, 800795a <uhal_uart_write+0x56>
 8007938:	4b10      	ldr	r3, [pc, #64]	; (800797c <uhal_uart_write+0x78>)
 800793a:	681b      	ldr	r3, [r3, #0]
 800793c:	b90b      	cbnz	r3, 8007942 <uhal_uart_write+0x3e>
 800793e:	2000      	movs	r0, #0
 8007940:	bdf8      	pop	{r3, r4, r5, r6, r7, pc}
 8007942:	4621      	mov	r1, r4
 8007944:	4628      	mov	r0, r5
 8007946:	4798      	blx	r3
 8007948:	4620      	mov	r0, r4
 800794a:	e7f9      	b.n	8007940 <uhal_uart_write+0x3c>
 800794c:	480a      	ldr	r0, [pc, #40]	; (8007978 <uhal_uart_write+0x74>)
 800794e:	4622      	mov	r2, r4
 8007950:	f00a fc1c 	bl	801218c <HAL_UART_Transmit>
 8007954:	4604      	mov	r4, r0
 8007956:	2800      	cmp	r0, #0
 8007958:	d0f6      	beq.n	8007948 <uhal_uart_write+0x44>
 800795a:	2c02      	cmp	r4, #2
 800795c:	bf14      	ite	ne
 800795e:	f06f 0006 	mvnne.w	r0, #6
 8007962:	f06f 0005 	mvneq.w	r0, #5
 8007966:	e7eb      	b.n	8007940 <uhal_uart_write+0x3c>
 8007968:	2802      	cmp	r0, #2
 800796a:	d1e8      	bne.n	800793e <uhal_uart_write+0x3a>
 800796c:	4804      	ldr	r0, [pc, #16]	; (8007980 <uhal_uart_write+0x7c>)
 800796e:	b292      	uxth	r2, r2
 8007970:	e7ee      	b.n	8007950 <uhal_uart_write+0x4c>
 8007972:	bf00      	nop
 8007974:	2000764c 	.word	0x2000764c
 8007978:	20007490 	.word	0x20007490
 800797c:	20006f38 	.word	0x20006f38
 8007980:	20007400 	.word	0x20007400

08007984 <uhal_uart_read>:
 8007984:	2801      	cmp	r0, #1
 8007986:	d102      	bne.n	800798e <uhal_uart_read+0xa>
 8007988:	4804      	ldr	r0, [pc, #16]	; (800799c <uhal_uart_read+0x18>)
 800798a:	f000 bb79 	b.w	8008080 <fund_circular_queue_out>
 800798e:	2802      	cmp	r0, #2
 8007990:	d101      	bne.n	8007996 <uhal_uart_read+0x12>
 8007992:	4803      	ldr	r0, [pc, #12]	; (80079a0 <uhal_uart_read+0x1c>)
 8007994:	e7f9      	b.n	800798a <uhal_uart_read+0x6>
 8007996:	f06f 0006 	mvn.w	r0, #6
 800799a:	4770      	bx	lr
 800799c:	2000600c 	.word	0x2000600c
 80079a0:	20006020 	.word	0x20006020

080079a4 <uhal_uart_peek>:
 80079a4:	2801      	cmp	r0, #1
 80079a6:	b507      	push	{r0, r1, r2, lr}
 80079a8:	d10a      	bne.n	80079c0 <uhal_uart_peek+0x1c>
 80079aa:	480a      	ldr	r0, [pc, #40]	; (80079d4 <uhal_uart_peek+0x30>)
 80079ac:	f10d 0107 	add.w	r1, sp, #7
 80079b0:	f000 fba3 	bl	80080fa <fund_circular_queue_peek>
 80079b4:	b150      	cbz	r0, 80079cc <uhal_uart_peek+0x28>
 80079b6:	f06f 0006 	mvn.w	r0, #6
 80079ba:	b003      	add	sp, #12
 80079bc:	f85d fb04 	ldr.w	pc, [sp], #4
 80079c0:	2802      	cmp	r0, #2
 80079c2:	d1f8      	bne.n	80079b6 <uhal_uart_peek+0x12>
 80079c4:	4804      	ldr	r0, [pc, #16]	; (80079d8 <uhal_uart_peek+0x34>)
 80079c6:	f10d 0107 	add.w	r1, sp, #7
 80079ca:	e7f1      	b.n	80079b0 <uhal_uart_peek+0xc>
 80079cc:	f89d 0007 	ldrb.w	r0, [sp, #7]
 80079d0:	e7f3      	b.n	80079ba <uhal_uart_peek+0x16>
 80079d2:	bf00      	nop
 80079d4:	2000600c 	.word	0x2000600c
 80079d8:	20006020 	.word	0x20006020

080079dc <uhal_uart_flush>:
 80079dc:	4770      	bx	lr
	...

080079e0 <uhal_uart_read_available>:
 80079e0:	2801      	cmp	r0, #1
 80079e2:	d102      	bne.n	80079ea <uhal_uart_read_available+0xa>
 80079e4:	4804      	ldr	r0, [pc, #16]	; (80079f8 <uhal_uart_read_available+0x18>)
 80079e6:	f000 baef 	b.w	8007fc8 <fund_circular_queue_utilization_get>
 80079ea:	2802      	cmp	r0, #2
 80079ec:	d101      	bne.n	80079f2 <uhal_uart_read_available+0x12>
 80079ee:	4803      	ldr	r0, [pc, #12]	; (80079fc <uhal_uart_read_available+0x1c>)
 80079f0:	e7f9      	b.n	80079e6 <uhal_uart_read_available+0x6>
 80079f2:	f06f 0006 	mvn.w	r0, #6
 80079f6:	4770      	bx	lr
 80079f8:	2000600c 	.word	0x2000600c
 80079fc:	20006020 	.word	0x20006020

08007a00 <uhal_uart_suspend>:
 8007a00:	b5f8      	push	{r3, r4, r5, r6, r7, lr}
 8007a02:	4d22      	ldr	r5, [pc, #136]	; (8007a8c <uhal_uart_suspend+0x8c>)
 8007a04:	4f22      	ldr	r7, [pc, #136]	; (8007a90 <uhal_uart_suspend+0x90>)
 8007a06:	2400      	movs	r4, #0
 8007a08:	230c      	movs	r3, #12
 8007a0a:	4a22      	ldr	r2, [pc, #136]	; (8007a94 <uhal_uart_suspend+0x94>)
 8007a0c:	4363      	muls	r3, r4
 8007a0e:	5c9b      	ldrb	r3, [r3, r2]
 8007a10:	b1cb      	cbz	r3, 8007a46 <uhal_uart_suspend+0x46>
 8007a12:	2c02      	cmp	r4, #2
 8007a14:	d11b      	bne.n	8007a4e <uhal_uart_suspend+0x4e>
 8007a16:	4e20      	ldr	r6, [pc, #128]	; (8007a98 <uhal_uart_suspend+0x98>)
 8007a18:	6833      	ldr	r3, [r6, #0]
 8007a1a:	69da      	ldr	r2, [r3, #28]
 8007a1c:	03d1      	lsls	r1, r2, #15
 8007a1e:	d4fc      	bmi.n	8007a1a <uhal_uart_suspend+0x1a>
 8007a20:	69da      	ldr	r2, [r3, #28]
 8007a22:	0252      	lsls	r2, r2, #9
 8007a24:	d5fc      	bpl.n	8007a20 <uhal_uart_suspend+0x20>
 8007a26:	481c      	ldr	r0, [pc, #112]	; (8007a98 <uhal_uart_suspend+0x98>)
 8007a28:	f00a fd97 	bl	801255a <HAL_UARTEx_EnableStopMode>
 8007a2c:	6833      	ldr	r3, [r6, #0]
 8007a2e:	481a      	ldr	r0, [pc, #104]	; (8007a98 <uhal_uart_suspend+0x98>)
 8007a30:	2210      	movs	r2, #16
 8007a32:	621a      	str	r2, [r3, #32]
 8007a34:	681a      	ldr	r2, [r3, #0]
 8007a36:	f022 0210 	bic.w	r2, r2, #16
 8007a3a:	601a      	str	r2, [r3, #0]
 8007a3c:	f009 ff29 	bl	8011892 <HAL_UART_DMAStop>
 8007a40:	6ff0      	ldr	r0, [r6, #124]	; 0x7c
 8007a42:	f025 fd29 	bl	802d498 <HAL_DMA_DeInit>
 8007a46:	3401      	adds	r4, #1
 8007a48:	2c03      	cmp	r4, #3
 8007a4a:	d1dd      	bne.n	8007a08 <uhal_uart_suspend+0x8>
 8007a4c:	bdf8      	pop	{r3, r4, r5, r6, r7, pc}
 8007a4e:	2c01      	cmp	r4, #1
 8007a50:	d1f9      	bne.n	8007a46 <uhal_uart_suspend+0x46>
 8007a52:	2308      	movs	r3, #8
 8007a54:	622b      	str	r3, [r5, #32]
 8007a56:	f44f 1380 	mov.w	r3, #1048576	; 0x100000
 8007a5a:	622b      	str	r3, [r5, #32]
 8007a5c:	e855 3f00 	ldrex	r3, [r5]
 8007a60:	f043 0302 	orr.w	r3, r3, #2
 8007a64:	e845 3200 	strex	r2, r3, [r5]
 8007a68:	2a00      	cmp	r2, #0
 8007a6a:	d1f7      	bne.n	8007a5c <uhal_uart_suspend+0x5c>
 8007a6c:	e857 3f00 	ldrex	r3, [r7]
 8007a70:	f443 0380 	orr.w	r3, r3, #4194304	; 0x400000
 8007a74:	e847 3200 	strex	r2, r3, [r7]
 8007a78:	2a00      	cmp	r2, #0
 8007a7a:	d1f7      	bne.n	8007a6c <uhal_uart_suspend+0x6c>
 8007a7c:	4a07      	ldr	r2, [pc, #28]	; (8007a9c <uhal_uart_suspend+0x9c>)
 8007a7e:	f8d2 3080 	ldr.w	r3, [r2, #128]	; 0x80
 8007a82:	f043 6380 	orr.w	r3, r3, #67108864	; 0x4000000
 8007a86:	f8c2 3080 	str.w	r3, [r2, #128]	; 0x80
 8007a8a:	e7dc      	b.n	8007a46 <uhal_uart_suspend+0x46>
 8007a8c:	40013800 	.word	0x40013800
 8007a90:	40013808 	.word	0x40013808
 8007a94:	20007628 	.word	0x20007628
 8007a98:	20007400 	.word	0x20007400
 8007a9c:	58000800 	.word	0x58000800

08007aa0 <uhal_uart_resume>:
 8007aa0:	b573      	push	{r0, r1, r4, r5, r6, lr}
 8007aa2:	4c0b      	ldr	r4, [pc, #44]	; (8007ad0 <uhal_uart_resume+0x30>)
 8007aa4:	4e0b      	ldr	r6, [pc, #44]	; (8007ad4 <uhal_uart_resume+0x34>)
 8007aa6:	f04f 35ff 	mov.w	r5, #4294967295	; 0xffffffff
 8007aaa:	2d01      	cmp	r5, #1
 8007aac:	d90b      	bls.n	8007ac6 <uhal_uart_resume+0x26>
 8007aae:	7823      	ldrb	r3, [r4, #0]
 8007ab0:	b14b      	cbz	r3, 8007ac6 <uhal_uart_resume+0x26>
 8007ab2:	7833      	ldrb	r3, [r6, #0]
 8007ab4:	9301      	str	r3, [sp, #4]
 8007ab6:	7aa3      	ldrb	r3, [r4, #10]
 8007ab8:	9300      	str	r3, [sp, #0]
 8007aba:	7a22      	ldrb	r2, [r4, #8]
 8007abc:	7a63      	ldrb	r3, [r4, #9]
 8007abe:	6861      	ldr	r1, [r4, #4]
 8007ac0:	2000      	movs	r0, #0
 8007ac2:	f7ff fdf3 	bl	80076ac <uart_init>
 8007ac6:	3501      	adds	r5, #1
 8007ac8:	2d02      	cmp	r5, #2
 8007aca:	d1ee      	bne.n	8007aaa <uhal_uart_resume+0xa>
 8007acc:	b002      	add	sp, #8
 8007ace:	bd70      	pop	{r4, r5, r6, pc}
 8007ad0:	20007628 	.word	0x20007628
 8007ad4:	2000764c 	.word	0x2000764c

08007ad8 <HAL_UART_RxCpltCallback>:
 8007ad8:	b570      	push	{r4, r5, r6, lr}
 8007ada:	4b1d      	ldr	r3, [pc, #116]	; (8007b50 <HAL_UART_RxCpltCallback+0x78>)
 8007adc:	6802      	ldr	r2, [r0, #0]
 8007ade:	429a      	cmp	r2, r3
 8007ae0:	4604      	mov	r4, r0
 8007ae2:	d115      	bne.n	8007b10 <HAL_UART_RxCpltCallback+0x38>
 8007ae4:	f009 fed5 	bl	8011892 <HAL_UART_DMAStop>
 8007ae8:	4e1a      	ldr	r6, [pc, #104]	; (8007b54 <HAL_UART_RxCpltCallback+0x7c>)
 8007aea:	2500      	movs	r5, #0
 8007aec:	f816 1b01 	ldrb.w	r1, [r6], #1
 8007af0:	2002      	movs	r0, #2
 8007af2:	3501      	adds	r5, #1
 8007af4:	f009 f9c6 	bl	8010e84 <serial_fallback_handler>
 8007af8:	2d80      	cmp	r5, #128	; 0x80
 8007afa:	d1f7      	bne.n	8007aec <HAL_UART_RxCpltCallback+0x14>
 8007afc:	4915      	ldr	r1, [pc, #84]	; (8007b54 <HAL_UART_RxCpltCallback+0x7c>)
 8007afe:	4816      	ldr	r0, [pc, #88]	; (8007b58 <HAL_UART_RxCpltCallback+0x80>)
 8007b00:	462a      	mov	r2, r5
 8007b02:	f000 fa70 	bl	8007fe6 <fund_circular_queue_in>
 8007b06:	4913      	ldr	r1, [pc, #76]	; (8007b54 <HAL_UART_RxCpltCallback+0x7c>)
 8007b08:	462a      	mov	r2, r5
 8007b0a:	4620      	mov	r0, r4
 8007b0c:	f00a fc8c 	bl	8012428 <HAL_UART_Receive_DMA>
 8007b10:	6822      	ldr	r2, [r4, #0]
 8007b12:	4b12      	ldr	r3, [pc, #72]	; (8007b5c <HAL_UART_RxCpltCallback+0x84>)
 8007b14:	429a      	cmp	r2, r3
 8007b16:	d116      	bne.n	8007b46 <HAL_UART_RxCpltCallback+0x6e>
 8007b18:	4620      	mov	r0, r4
 8007b1a:	f009 feba 	bl	8011892 <HAL_UART_DMAStop>
 8007b1e:	4e10      	ldr	r6, [pc, #64]	; (8007b60 <HAL_UART_RxCpltCallback+0x88>)
 8007b20:	2500      	movs	r5, #0
 8007b22:	f816 1b01 	ldrb.w	r1, [r6], #1
 8007b26:	2001      	movs	r0, #1
 8007b28:	3501      	adds	r5, #1
 8007b2a:	f009 f9ab 	bl	8010e84 <serial_fallback_handler>
 8007b2e:	2d80      	cmp	r5, #128	; 0x80
 8007b30:	d1f7      	bne.n	8007b22 <HAL_UART_RxCpltCallback+0x4a>
 8007b32:	490b      	ldr	r1, [pc, #44]	; (8007b60 <HAL_UART_RxCpltCallback+0x88>)
 8007b34:	480b      	ldr	r0, [pc, #44]	; (8007b64 <HAL_UART_RxCpltCallback+0x8c>)
 8007b36:	462a      	mov	r2, r5
 8007b38:	f000 fa55 	bl	8007fe6 <fund_circular_queue_in>
 8007b3c:	4908      	ldr	r1, [pc, #32]	; (8007b60 <HAL_UART_RxCpltCallback+0x88>)
 8007b3e:	462a      	mov	r2, r5
 8007b40:	4620      	mov	r0, r4
 8007b42:	f00a fc71 	bl	8012428 <HAL_UART_Receive_DMA>
 8007b46:	e8bd 4070 	ldmia.w	sp!, {r4, r5, r6, lr}
 8007b4a:	4807      	ldr	r0, [pc, #28]	; (8007b68 <HAL_UART_RxCpltCallback+0x90>)
 8007b4c:	f009 ba00 	b.w	8010f50 <udrv_system_event_produce>
 8007b50:	40008000 	.word	0x40008000
 8007b54:	20007520 	.word	0x20007520
 8007b58:	20006020 	.word	0x20006020
 8007b5c:	40013800 	.word	0x40013800
 8007b60:	200075a8 	.word	0x200075a8
 8007b64:	2000600c 	.word	0x2000600c
 8007b68:	200075a0 	.word	0x200075a0

08007b6c <HAL_UART_RxHalfCpltCallback>:
 8007b6c:	6802      	ldr	r2, [r0, #0]
 8007b6e:	4b05      	ldr	r3, [pc, #20]	; (8007b84 <HAL_UART_RxHalfCpltCallback+0x18>)
 8007b70:	429a      	cmp	r2, r3
 8007b72:	d105      	bne.n	8007b80 <HAL_UART_RxHalfCpltCallback+0x14>
 8007b74:	4b04      	ldr	r3, [pc, #16]	; (8007b88 <HAL_UART_RxHalfCpltCallback+0x1c>)
 8007b76:	681b      	ldr	r3, [r3, #0]
 8007b78:	b113      	cbz	r3, 8007b80 <HAL_UART_RxHalfCpltCallback+0x14>
 8007b7a:	2101      	movs	r1, #1
 8007b7c:	4608      	mov	r0, r1
 8007b7e:	4718      	bx	r3
 8007b80:	4770      	bx	lr
 8007b82:	bf00      	nop
 8007b84:	40013800 	.word	0x40013800
 8007b88:	20006f38 	.word	0x20006f38

08007b8c <HAL_UARTEx_RxEventCallback>:
 8007b8c:	4770      	bx	lr
	...

08007b90 <USAR_UART_IDLECallback>:
 8007b90:	b5f8      	push	{r3, r4, r5, r6, r7, lr}
 8007b92:	4b2f      	ldr	r3, [pc, #188]	; (8007c50 <USAR_UART_IDLECallback+0xc0>)
 8007b94:	6802      	ldr	r2, [r0, #0]
 8007b96:	429a      	cmp	r2, r3
 8007b98:	4604      	mov	r4, r0
 8007b9a:	d11d      	bne.n	8007bd8 <USAR_UART_IDLECallback+0x48>
 8007b9c:	f009 fe79 	bl	8011892 <HAL_UART_DMAStop>
 8007ba0:	4b2c      	ldr	r3, [pc, #176]	; (8007c54 <USAR_UART_IDLECallback+0xc4>)
 8007ba2:	4f2d      	ldr	r7, [pc, #180]	; (8007c58 <USAR_UART_IDLECallback+0xc8>)
 8007ba4:	681b      	ldr	r3, [r3, #0]
 8007ba6:	685d      	ldr	r5, [r3, #4]
 8007ba8:	f1c5 0580 	rsb	r5, r5, #128	; 0x80
 8007bac:	b2ad      	uxth	r5, r5
 8007bae:	2600      	movs	r6, #0
 8007bb0:	42b5      	cmp	r5, r6
 8007bb2:	dc3f      	bgt.n	8007c34 <USAR_UART_IDLECallback+0xa4>
 8007bb4:	4928      	ldr	r1, [pc, #160]	; (8007c58 <USAR_UART_IDLECallback+0xc8>)
 8007bb6:	4829      	ldr	r0, [pc, #164]	; (8007c5c <USAR_UART_IDLECallback+0xcc>)
 8007bb8:	462a      	mov	r2, r5
 8007bba:	f000 fa14 	bl	8007fe6 <fund_circular_queue_in>
 8007bbe:	2280      	movs	r2, #128	; 0x80
 8007bc0:	4925      	ldr	r1, [pc, #148]	; (8007c58 <USAR_UART_IDLECallback+0xc8>)
 8007bc2:	4620      	mov	r0, r4
 8007bc4:	f00a fc30 	bl	8012428 <HAL_UART_Receive_DMA>
 8007bc8:	4b25      	ldr	r3, [pc, #148]	; (8007c60 <USAR_UART_IDLECallback+0xd0>)
 8007bca:	781a      	ldrb	r2, [r3, #0]
 8007bcc:	2a01      	cmp	r2, #1
 8007bce:	d103      	bne.n	8007bd8 <USAR_UART_IDLECallback+0x48>
 8007bd0:	2200      	movs	r2, #0
 8007bd2:	701a      	strb	r2, [r3, #0]
 8007bd4:	f008 fef2 	bl	80109bc <udrv_powersave_wake_unlock>
 8007bd8:	6822      	ldr	r2, [r4, #0]
 8007bda:	4b22      	ldr	r3, [pc, #136]	; (8007c64 <USAR_UART_IDLECallback+0xd4>)
 8007bdc:	429a      	cmp	r2, r3
 8007bde:	d124      	bne.n	8007c2a <USAR_UART_IDLECallback+0x9a>
 8007be0:	4620      	mov	r0, r4
 8007be2:	f009 fe56 	bl	8011892 <HAL_UART_DMAStop>
 8007be6:	4b20      	ldr	r3, [pc, #128]	; (8007c68 <USAR_UART_IDLECallback+0xd8>)
 8007be8:	4f20      	ldr	r7, [pc, #128]	; (8007c6c <USAR_UART_IDLECallback+0xdc>)
 8007bea:	681b      	ldr	r3, [r3, #0]
 8007bec:	685d      	ldr	r5, [r3, #4]
 8007bee:	f1c5 0580 	rsb	r5, r5, #128	; 0x80
 8007bf2:	b2ad      	uxth	r5, r5
 8007bf4:	2600      	movs	r6, #0
 8007bf6:	42b5      	cmp	r5, r6
 8007bf8:	dc23      	bgt.n	8007c42 <USAR_UART_IDLECallback+0xb2>
 8007bfa:	491c      	ldr	r1, [pc, #112]	; (8007c6c <USAR_UART_IDLECallback+0xdc>)
 8007bfc:	481c      	ldr	r0, [pc, #112]	; (8007c70 <USAR_UART_IDLECallback+0xe0>)
 8007bfe:	462a      	mov	r2, r5
 8007c00:	f000 f9f1 	bl	8007fe6 <fund_circular_queue_in>
 8007c04:	2280      	movs	r2, #128	; 0x80
 8007c06:	4919      	ldr	r1, [pc, #100]	; (8007c6c <USAR_UART_IDLECallback+0xdc>)
 8007c08:	4620      	mov	r0, r4
 8007c0a:	f00a fc0d 	bl	8012428 <HAL_UART_Receive_DMA>
 8007c0e:	4b14      	ldr	r3, [pc, #80]	; (8007c60 <USAR_UART_IDLECallback+0xd0>)
 8007c10:	781a      	ldrb	r2, [r3, #0]
 8007c12:	2a01      	cmp	r2, #1
 8007c14:	d103      	bne.n	8007c1e <USAR_UART_IDLECallback+0x8e>
 8007c16:	2200      	movs	r2, #0
 8007c18:	701a      	strb	r2, [r3, #0]
 8007c1a:	f008 fecf 	bl	80109bc <udrv_powersave_wake_unlock>
 8007c1e:	4b15      	ldr	r3, [pc, #84]	; (8007c74 <USAR_UART_IDLECallback+0xe4>)
 8007c20:	681b      	ldr	r3, [r3, #0]
 8007c22:	b113      	cbz	r3, 8007c2a <USAR_UART_IDLECallback+0x9a>
 8007c24:	2101      	movs	r1, #1
 8007c26:	4608      	mov	r0, r1
 8007c28:	4798      	blx	r3
 8007c2a:	e8bd 40f8 	ldmia.w	sp!, {r3, r4, r5, r6, r7, lr}
 8007c2e:	4812      	ldr	r0, [pc, #72]	; (8007c78 <USAR_UART_IDLECallback+0xe8>)
 8007c30:	f009 b98e 	b.w	8010f50 <udrv_system_event_produce>
 8007c34:	f817 1b01 	ldrb.w	r1, [r7], #1
 8007c38:	2002      	movs	r0, #2
 8007c3a:	f009 f923 	bl	8010e84 <serial_fallback_handler>
 8007c3e:	3601      	adds	r6, #1
 8007c40:	e7b6      	b.n	8007bb0 <USAR_UART_IDLECallback+0x20>
 8007c42:	f817 1b01 	ldrb.w	r1, [r7], #1
 8007c46:	2001      	movs	r0, #1
 8007c48:	f009 f91c 	bl	8010e84 <serial_fallback_handler>
 8007c4c:	3601      	adds	r6, #1
 8007c4e:	e7d2      	b.n	8007bf6 <USAR_UART_IDLECallback+0x66>
 8007c50:	40008000 	.word	0x40008000
 8007c54:	20007340 	.word	0x20007340
 8007c58:	20007520 	.word	0x20007520
 8007c5c:	20006020 	.word	0x20006020
 8007c60:	20006f34 	.word	0x20006f34
 8007c64:	40013800 	.word	0x40013800
 8007c68:	200073a0 	.word	0x200073a0
 8007c6c:	200075a8 	.word	0x200075a8
 8007c70:	2000600c 	.word	0x2000600c
 8007c74:	20006f38 	.word	0x20006f38
 8007c78:	200075a0 	.word	0x200075a0

08007c7c <HAL_UARTEx_WakeupCallback>:
 8007c7c:	b573      	push	{r0, r1, r4, r5, r6, lr}
 8007c7e:	4b31      	ldr	r3, [pc, #196]	; (8007d44 <HAL_UARTEx_WakeupCallback+0xc8>)
 8007c80:	2600      	movs	r6, #0
 8007c82:	701e      	strb	r6, [r3, #0]
 8007c84:	6803      	ldr	r3, [r0, #0]
 8007c86:	6a5a      	ldr	r2, [r3, #36]	; 0x24
 8007c88:	f88d 2007 	strb.w	r2, [sp, #7]
 8007c8c:	4a2e      	ldr	r2, [pc, #184]	; (8007d48 <HAL_UARTEx_WakeupCallback+0xcc>)
 8007c8e:	4293      	cmp	r3, r2
 8007c90:	4605      	mov	r5, r0
 8007c92:	d119      	bne.n	8007cc8 <HAL_UARTEx_WakeupCallback+0x4c>
 8007c94:	482d      	ldr	r0, [pc, #180]	; (8007d4c <HAL_UARTEx_WakeupCallback+0xd0>)
 8007c96:	4c2e      	ldr	r4, [pc, #184]	; (8007d50 <HAL_UARTEx_WakeupCallback+0xd4>)
 8007c98:	f00a fc75 	bl	8012586 <HAL_UARTEx_DisableStopMode>
 8007c9c:	492d      	ldr	r1, [pc, #180]	; (8007d54 <HAL_UARTEx_WakeupCallback+0xd8>)
 8007c9e:	6226      	str	r6, [r4, #32]
 8007ca0:	2315      	movs	r3, #21
 8007ca2:	e9c4 1300 	strd	r1, r3, [r4]
 8007ca6:	4620      	mov	r0, r4
 8007ca8:	2380      	movs	r3, #128	; 0x80
 8007caa:	e9c4 6602 	strd	r6, r6, [r4, #8]
 8007cae:	e9c4 3604 	strd	r3, r6, [r4, #16]
 8007cb2:	e9c4 6606 	strd	r6, r6, [r4, #24]
 8007cb6:	f025 fb7d 	bl	802d3b4 <HAL_DMA_Init>
 8007cba:	b108      	cbz	r0, 8007cc0 <HAL_UARTEx_WakeupCallback+0x44>
 8007cbc:	f01a fcbe 	bl	802263c <Error_Handler>
 8007cc0:	67ec      	str	r4, [r5, #124]	; 0x7c
 8007cc2:	62a5      	str	r5, [r4, #40]	; 0x28
 8007cc4:	f7ff fcc6 	bl	8007654 <StartReception.part.0>
 8007cc8:	682a      	ldr	r2, [r5, #0]
 8007cca:	4b23      	ldr	r3, [pc, #140]	; (8007d58 <HAL_UARTEx_WakeupCallback+0xdc>)
 8007ccc:	429a      	cmp	r2, r3
 8007cce:	d11b      	bne.n	8007d08 <HAL_UARTEx_WakeupCallback+0x8c>
 8007cd0:	4822      	ldr	r0, [pc, #136]	; (8007d5c <HAL_UARTEx_WakeupCallback+0xe0>)
 8007cd2:	4c23      	ldr	r4, [pc, #140]	; (8007d60 <HAL_UARTEx_WakeupCallback+0xe4>)
 8007cd4:	f00a fc57 	bl	8012586 <HAL_UARTEx_DisableStopMode>
 8007cd8:	4a22      	ldr	r2, [pc, #136]	; (8007d64 <HAL_UARTEx_WakeupCallback+0xe8>)
 8007cda:	2311      	movs	r3, #17
 8007cdc:	e9c4 2300 	strd	r2, r3, [r4]
 8007ce0:	4620      	mov	r0, r4
 8007ce2:	2300      	movs	r3, #0
 8007ce4:	2280      	movs	r2, #128	; 0x80
 8007ce6:	e9c4 3302 	strd	r3, r3, [r4, #8]
 8007cea:	e9c4 2304 	strd	r2, r3, [r4, #16]
 8007cee:	e9c4 3306 	strd	r3, r3, [r4, #24]
 8007cf2:	6223      	str	r3, [r4, #32]
 8007cf4:	f025 fb5e 	bl	802d3b4 <HAL_DMA_Init>
 8007cf8:	b108      	cbz	r0, 8007cfe <HAL_UARTEx_WakeupCallback+0x82>
 8007cfa:	f01a fc9f 	bl	802263c <Error_Handler>
 8007cfe:	67ec      	str	r4, [r5, #124]	; 0x7c
 8007d00:	2001      	movs	r0, #1
 8007d02:	62a5      	str	r5, [r4, #40]	; 0x28
 8007d04:	f7ff fcb8 	bl	8007678 <StartReception>
 8007d08:	682c      	ldr	r4, [r5, #0]
 8007d0a:	4b0f      	ldr	r3, [pc, #60]	; (8007d48 <HAL_UARTEx_WakeupCallback+0xcc>)
 8007d0c:	429c      	cmp	r4, r3
 8007d0e:	d10d      	bne.n	8007d2c <HAL_UARTEx_WakeupCallback+0xb0>
 8007d10:	f89d 1007 	ldrb.w	r1, [sp, #7]
 8007d14:	2002      	movs	r0, #2
 8007d16:	f009 f8b5 	bl	8010e84 <serial_fallback_handler>
 8007d1a:	682b      	ldr	r3, [r5, #0]
 8007d1c:	42a3      	cmp	r3, r4
 8007d1e:	d105      	bne.n	8007d2c <HAL_UARTEx_WakeupCallback+0xb0>
 8007d20:	4811      	ldr	r0, [pc, #68]	; (8007d68 <HAL_UARTEx_WakeupCallback+0xec>)
 8007d22:	2201      	movs	r2, #1
 8007d24:	f10d 0107 	add.w	r1, sp, #7
 8007d28:	f000 f95d 	bl	8007fe6 <fund_circular_queue_in>
 8007d2c:	480f      	ldr	r0, [pc, #60]	; (8007d6c <HAL_UARTEx_WakeupCallback+0xf0>)
 8007d2e:	f009 f90f 	bl	8010f50 <udrv_system_event_produce>
 8007d32:	4b0f      	ldr	r3, [pc, #60]	; (8007d70 <HAL_UARTEx_WakeupCallback+0xf4>)
 8007d34:	781a      	ldrb	r2, [r3, #0]
 8007d36:	b91a      	cbnz	r2, 8007d40 <HAL_UARTEx_WakeupCallback+0xc4>
 8007d38:	2201      	movs	r2, #1
 8007d3a:	701a      	strb	r2, [r3, #0]
 8007d3c:	f008 fe36 	bl	80109ac <udrv_powersave_wake_lock>
 8007d40:	b002      	add	sp, #8
 8007d42:	bd70      	pop	{r4, r5, r6, pc}
 8007d44:	200093ef 	.word	0x200093ef
 8007d48:	40008000 	.word	0x40008000
 8007d4c:	20007400 	.word	0x20007400
 8007d50:	20007340 	.word	0x20007340
 8007d54:	40020008 	.word	0x40020008
 8007d58:	40013800 	.word	0x40013800
 8007d5c:	20007490 	.word	0x20007490
 8007d60:	200073a0 	.word	0x200073a0
 8007d64:	40020044 	.word	0x40020044
 8007d68:	20006020 	.word	0x20006020
 8007d6c:	200075a0 	.word	0x200075a0
 8007d70:	20006f34 	.word	0x20006f34

08007d74 <HAL_UART_MspInit>:
 8007d74:	b570      	push	{r4, r5, r6, lr}
 8007d76:	b096      	sub	sp, #88	; 0x58
 8007d78:	4605      	mov	r5, r0
 8007d7a:	2214      	movs	r2, #20
 8007d7c:	2100      	movs	r1, #0
 8007d7e:	a803      	add	r0, sp, #12
 8007d80:	f00c f9d4 	bl	801412c <memset>
 8007d84:	2238      	movs	r2, #56	; 0x38
 8007d86:	2100      	movs	r1, #0
 8007d88:	a808      	add	r0, sp, #32
 8007d8a:	f00c f9cf 	bl	801412c <memset>
 8007d8e:	682b      	ldr	r3, [r5, #0]
 8007d90:	4a5f      	ldr	r2, [pc, #380]	; (8007f10 <HAL_UART_MspInit+0x19c>)
 8007d92:	4293      	cmp	r3, r2
 8007d94:	d166      	bne.n	8007e64 <HAL_UART_MspInit+0xf0>
 8007d96:	4b5f      	ldr	r3, [pc, #380]	; (8007f14 <HAL_UART_MspInit+0x1a0>)
 8007d98:	2401      	movs	r4, #1
 8007d9a:	a808      	add	r0, sp, #32
 8007d9c:	e9cd 4308 	strd	r4, r3, [sp, #32]
 8007da0:	f01f fcca 	bl	8027738 <HAL_RCCEx_PeriphCLKConfig>
 8007da4:	b108      	cbz	r0, 8007daa <HAL_UART_MspInit+0x36>
 8007da6:	f01a fc49 	bl	802263c <Error_Handler>
 8007daa:	f04f 43b0 	mov.w	r3, #1476395008	; 0x58000000
 8007dae:	2016      	movs	r0, #22
 8007db0:	6e1a      	ldr	r2, [r3, #96]	; 0x60
 8007db2:	f442 4280 	orr.w	r2, r2, #16384	; 0x4000
 8007db6:	661a      	str	r2, [r3, #96]	; 0x60
 8007db8:	6e1b      	ldr	r3, [r3, #96]	; 0x60
 8007dba:	f403 4380 	and.w	r3, r3, #16384	; 0x4000
 8007dbe:	9301      	str	r3, [sp, #4]
 8007dc0:	9b01      	ldr	r3, [sp, #4]
 8007dc2:	f7ff fb29 	bl	8007418 <PinToGPIOx>
 8007dc6:	f1b0 4f90 	cmp.w	r0, #1207959552	; 0x48000000
 8007dca:	d138      	bne.n	8007e3e <HAL_UART_MspInit+0xca>
 8007dcc:	2001      	movs	r0, #1
 8007dce:	f7ff fc35 	bl	800763c <LL_AHB2_GRP1_EnableClock>
 8007dd2:	2002      	movs	r0, #2
 8007dd4:	f7ff fc32 	bl	800763c <LL_AHB2_GRP1_EnableClock>
 8007dd8:	4b4f      	ldr	r3, [pc, #316]	; (8007f18 <HAL_UART_MspInit+0x1a4>)
 8007dda:	6a9b      	ldr	r3, [r3, #40]	; 0x28
 8007ddc:	2b08      	cmp	r3, #8
 8007dde:	d136      	bne.n	8007e4e <HAL_UART_MspInit+0xda>
 8007de0:	2017      	movs	r0, #23
 8007de2:	f7ff fb1e 	bl	8007422 <PinToGPIO_Pin>
 8007de6:	2312      	movs	r3, #18
 8007de8:	9003      	str	r0, [sp, #12]
 8007dea:	2600      	movs	r6, #0
 8007dec:	9304      	str	r3, [sp, #16]
 8007dee:	2301      	movs	r3, #1
 8007df0:	e9cd 3605 	strd	r3, r6, [sp, #20]
 8007df4:	4849      	ldr	r0, [pc, #292]	; (8007f1c <HAL_UART_MspInit+0x1a8>)
 8007df6:	4c4a      	ldr	r4, [pc, #296]	; (8007f20 <HAL_UART_MspInit+0x1ac>)
 8007df8:	2307      	movs	r3, #7
 8007dfa:	a903      	add	r1, sp, #12
 8007dfc:	9307      	str	r3, [sp, #28]
 8007dfe:	f022 fc89 	bl	802a714 <HAL_GPIO_Init>
 8007e02:	4848      	ldr	r0, [pc, #288]	; (8007f24 <HAL_UART_MspInit+0x1b0>)
 8007e04:	6226      	str	r6, [r4, #32]
 8007e06:	2311      	movs	r3, #17
 8007e08:	e9c4 0300 	strd	r0, r3, [r4]
 8007e0c:	2380      	movs	r3, #128	; 0x80
 8007e0e:	4620      	mov	r0, r4
 8007e10:	e9c4 6602 	strd	r6, r6, [r4, #8]
 8007e14:	e9c4 3604 	strd	r3, r6, [r4, #16]
 8007e18:	e9c4 6606 	strd	r6, r6, [r4, #24]
 8007e1c:	f025 faca 	bl	802d3b4 <HAL_DMA_Init>
 8007e20:	b108      	cbz	r0, 8007e26 <HAL_UART_MspInit+0xb2>
 8007e22:	f01a fc0b 	bl	802263c <Error_Handler>
 8007e26:	2200      	movs	r2, #0
 8007e28:	2024      	movs	r0, #36	; 0x24
 8007e2a:	67ec      	str	r4, [r5, #124]	; 0x7c
 8007e2c:	4611      	mov	r1, r2
 8007e2e:	62a5      	str	r5, [r4, #40]	; 0x28
 8007e30:	f01b ffd2 	bl	8023dd8 <HAL_NVIC_SetPriority>
 8007e34:	2024      	movs	r0, #36	; 0x24
 8007e36:	f01c f801 	bl	8023e3c <HAL_NVIC_EnableIRQ>
 8007e3a:	b016      	add	sp, #88	; 0x58
 8007e3c:	bd70      	pop	{r4, r5, r6, pc}
 8007e3e:	2016      	movs	r0, #22
 8007e40:	f7ff faea 	bl	8007418 <PinToGPIOx>
 8007e44:	4b35      	ldr	r3, [pc, #212]	; (8007f1c <HAL_UART_MspInit+0x1a8>)
 8007e46:	4298      	cmp	r0, r3
 8007e48:	d1c3      	bne.n	8007dd2 <HAL_UART_MspInit+0x5e>
 8007e4a:	2002      	movs	r0, #2
 8007e4c:	e7bf      	b.n	8007dce <HAL_UART_MspInit+0x5a>
 8007e4e:	2016      	movs	r0, #22
 8007e50:	f7ff fae7 	bl	8007422 <PinToGPIO_Pin>
 8007e54:	4604      	mov	r4, r0
 8007e56:	2017      	movs	r0, #23
 8007e58:	f7ff fae3 	bl	8007422 <PinToGPIO_Pin>
 8007e5c:	4304      	orrs	r4, r0
 8007e5e:	9403      	str	r4, [sp, #12]
 8007e60:	2302      	movs	r3, #2
 8007e62:	e7c2      	b.n	8007dea <HAL_UART_MspInit+0x76>
 8007e64:	4a30      	ldr	r2, [pc, #192]	; (8007f28 <HAL_UART_MspInit+0x1b4>)
 8007e66:	4293      	cmp	r3, r2
 8007e68:	d1e7      	bne.n	8007e3a <HAL_UART_MspInit+0xc6>
 8007e6a:	2320      	movs	r3, #32
 8007e6c:	9308      	str	r3, [sp, #32]
 8007e6e:	686b      	ldr	r3, [r5, #4]
 8007e70:	f5b3 6f16 	cmp.w	r3, #2400	; 0x960
 8007e74:	bf94      	ite	ls
 8007e76:	f44f 6340 	movls.w	r3, #3072	; 0xc00
 8007e7a:	f44f 6300 	movhi.w	r3, #2048	; 0x800
 8007e7e:	a808      	add	r0, sp, #32
 8007e80:	930c      	str	r3, [sp, #48]	; 0x30
 8007e82:	f01f fc59 	bl	8027738 <HAL_RCCEx_PeriphCLKConfig>
 8007e86:	b108      	cbz	r0, 8007e8c <HAL_UART_MspInit+0x118>
 8007e88:	f01a fbd8 	bl	802263c <Error_Handler>
 8007e8c:	f04f 43b0 	mov.w	r3, #1476395008	; 0x58000000
 8007e90:	2001      	movs	r0, #1
 8007e92:	6dda      	ldr	r2, [r3, #92]	; 0x5c
 8007e94:	f042 0201 	orr.w	r2, r2, #1
 8007e98:	65da      	str	r2, [r3, #92]	; 0x5c
 8007e9a:	6ddb      	ldr	r3, [r3, #92]	; 0x5c
 8007e9c:	f003 0301 	and.w	r3, r3, #1
 8007ea0:	9302      	str	r3, [sp, #8]
 8007ea2:	9b02      	ldr	r3, [sp, #8]
 8007ea4:	f7ff fbca 	bl	800763c <LL_AHB2_GRP1_EnableClock>
 8007ea8:	2002      	movs	r0, #2
 8007eaa:	f7ff faba 	bl	8007422 <PinToGPIO_Pin>
 8007eae:	4604      	mov	r4, r0
 8007eb0:	2003      	movs	r0, #3
 8007eb2:	f7ff fab6 	bl	8007422 <PinToGPIO_Pin>
 8007eb6:	2202      	movs	r2, #2
 8007eb8:	2301      	movs	r3, #1
 8007eba:	2600      	movs	r6, #0
 8007ebc:	4304      	orrs	r4, r0
 8007ebe:	e9cd 2304 	strd	r2, r3, [sp, #16]
 8007ec2:	a903      	add	r1, sp, #12
 8007ec4:	2308      	movs	r3, #8
 8007ec6:	f04f 4090 	mov.w	r0, #1207959552	; 0x48000000
 8007eca:	e9cd 6306 	strd	r6, r3, [sp, #24]
 8007ece:	9403      	str	r4, [sp, #12]
 8007ed0:	f022 fc20 	bl	802a714 <HAL_GPIO_Init>
 8007ed4:	4c15      	ldr	r4, [pc, #84]	; (8007f2c <HAL_UART_MspInit+0x1b8>)
 8007ed6:	4916      	ldr	r1, [pc, #88]	; (8007f30 <HAL_UART_MspInit+0x1bc>)
 8007ed8:	61a6      	str	r6, [r4, #24]
 8007eda:	2315      	movs	r3, #21
 8007edc:	e9c4 1300 	strd	r1, r3, [r4]
 8007ee0:	2380      	movs	r3, #128	; 0x80
 8007ee2:	e9c4 3604 	strd	r3, r6, [r4, #16]
 8007ee6:	4620      	mov	r0, r4
 8007ee8:	2320      	movs	r3, #32
 8007eea:	e9c4 6602 	strd	r6, r6, [r4, #8]
 8007eee:	e9c4 3607 	strd	r3, r6, [r4, #28]
 8007ef2:	f025 fa5f 	bl	802d3b4 <HAL_DMA_Init>
 8007ef6:	b108      	cbz	r0, 8007efc <HAL_UART_MspInit+0x188>
 8007ef8:	f01a fba0 	bl	802263c <Error_Handler>
 8007efc:	2200      	movs	r2, #0
 8007efe:	2026      	movs	r0, #38	; 0x26
 8007f00:	67ec      	str	r4, [r5, #124]	; 0x7c
 8007f02:	4611      	mov	r1, r2
 8007f04:	62a5      	str	r5, [r4, #40]	; 0x28
 8007f06:	f01b ff67 	bl	8023dd8 <HAL_NVIC_SetPriority>
 8007f0a:	2026      	movs	r0, #38	; 0x26
 8007f0c:	e793      	b.n	8007e36 <HAL_UART_MspInit+0xc2>
 8007f0e:	bf00      	nop
 8007f10:	40013800 	.word	0x40013800
 8007f14:	00030002 	.word	0x00030002
 8007f18:	20007490 	.word	0x20007490
 8007f1c:	48000400 	.word	0x48000400
 8007f20:	200073a0 	.word	0x200073a0
 8007f24:	40020044 	.word	0x40020044
 8007f28:	40008000 	.word	0x40008000
 8007f2c:	20007340 	.word	0x20007340
 8007f30:	40020008 	.word	0x40020008

08007f34 <HAL_UART_MspDeInit>:
 8007f34:	b570      	push	{r4, r5, r6, lr}
 8007f36:	4a1b      	ldr	r2, [pc, #108]	; (8007fa4 <HAL_UART_MspDeInit+0x70>)
 8007f38:	6803      	ldr	r3, [r0, #0]
 8007f3a:	4293      	cmp	r3, r2
 8007f3c:	4604      	mov	r4, r0
 8007f3e:	d11d      	bne.n	8007f7c <HAL_UART_MspDeInit+0x48>
 8007f40:	f04f 42b0 	mov.w	r2, #1476395008	; 0x58000000
 8007f44:	2016      	movs	r0, #22
 8007f46:	6e13      	ldr	r3, [r2, #96]	; 0x60
 8007f48:	f423 4380 	bic.w	r3, r3, #16384	; 0x4000
 8007f4c:	6613      	str	r3, [r2, #96]	; 0x60
 8007f4e:	f7ff fa63 	bl	8007418 <PinToGPIOx>
 8007f52:	4605      	mov	r5, r0
 8007f54:	2016      	movs	r0, #22
 8007f56:	f7ff fa64 	bl	8007422 <PinToGPIO_Pin>
 8007f5a:	4606      	mov	r6, r0
 8007f5c:	2017      	movs	r0, #23
 8007f5e:	f7ff fa60 	bl	8007422 <PinToGPIO_Pin>
 8007f62:	ea46 0100 	orr.w	r1, r6, r0
 8007f66:	4628      	mov	r0, r5
 8007f68:	f022 fc86 	bl	802a878 <HAL_GPIO_DeInit>
 8007f6c:	6fe0      	ldr	r0, [r4, #124]	; 0x7c
 8007f6e:	f025 fa93 	bl	802d498 <HAL_DMA_DeInit>
 8007f72:	2024      	movs	r0, #36	; 0x24
 8007f74:	e8bd 4070 	ldmia.w	sp!, {r4, r5, r6, lr}
 8007f78:	f01b bf6e 	b.w	8023e58 <HAL_NVIC_DisableIRQ>
 8007f7c:	4a0a      	ldr	r2, [pc, #40]	; (8007fa8 <HAL_UART_MspDeInit+0x74>)
 8007f7e:	4293      	cmp	r3, r2
 8007f80:	d10f      	bne.n	8007fa2 <HAL_UART_MspDeInit+0x6e>
 8007f82:	f04f 42b0 	mov.w	r2, #1476395008	; 0x58000000
 8007f86:	210c      	movs	r1, #12
 8007f88:	6dd3      	ldr	r3, [r2, #92]	; 0x5c
 8007f8a:	f023 0301 	bic.w	r3, r3, #1
 8007f8e:	65d3      	str	r3, [r2, #92]	; 0x5c
 8007f90:	f04f 4090 	mov.w	r0, #1207959552	; 0x48000000
 8007f94:	f022 fc70 	bl	802a878 <HAL_GPIO_DeInit>
 8007f98:	6fa0      	ldr	r0, [r4, #120]	; 0x78
 8007f9a:	f025 fa7d 	bl	802d498 <HAL_DMA_DeInit>
 8007f9e:	2026      	movs	r0, #38	; 0x26
 8007fa0:	e7e8      	b.n	8007f74 <HAL_UART_MspDeInit+0x40>
 8007fa2:	bd70      	pop	{r4, r5, r6, pc}
 8007fa4:	40013800 	.word	0x40013800
 8007fa8:	40008000 	.word	0x40008000

08007fac <HAL_UART_ErrorCallback>:
 8007fac:	b508      	push	{r3, lr}
 8007fae:	4b05      	ldr	r3, [pc, #20]	; (8007fc4 <HAL_UART_ErrorCallback+0x18>)
 8007fb0:	6802      	ldr	r2, [r0, #0]
 8007fb2:	429a      	cmp	r2, r3
 8007fb4:	d105      	bne.n	8007fc2 <HAL_UART_ErrorCallback+0x16>
 8007fb6:	f009 ff06 	bl	8011dc6 <HAL_UART_GetError>
 8007fba:	e8bd 4008 	ldmia.w	sp!, {r3, lr}
 8007fbe:	f7ff bb49 	b.w	8007654 <StartReception.part.0>
 8007fc2:	bd08      	pop	{r3, pc}
 8007fc4:	40008000 	.word	0x40008000

08007fc8 <fund_circular_queue_utilization_get>:
 8007fc8:	68c2      	ldr	r2, [r0, #12]
 8007fca:	6903      	ldr	r3, [r0, #16]
 8007fcc:	429a      	cmp	r2, r3
 8007fce:	bf82      	ittt	hi
 8007fd0:	6840      	ldrhi	r0, [r0, #4]
 8007fd2:	181b      	addhi	r3, r3, r0
 8007fd4:	3301      	addhi	r3, #1
 8007fd6:	1a98      	subs	r0, r3, r2
 8007fd8:	4770      	bx	lr

08007fda <fund_circular_queue_available_get>:
 8007fda:	b508      	push	{r3, lr}
 8007fdc:	6841      	ldr	r1, [r0, #4]
 8007fde:	f7ff fff3 	bl	8007fc8 <fund_circular_queue_utilization_get>
 8007fe2:	1a08      	subs	r0, r1, r0
 8007fe4:	bd08      	pop	{r3, pc}

08007fe6 <fund_circular_queue_in>:
 8007fe6:	e92d 43f7 	stmdb	sp!, {r0, r1, r2, r4, r5, r6, r7, r8, r9, lr}
 8007fea:	4604      	mov	r4, r0
 8007fec:	a801      	add	r0, sp, #4
 8007fee:	4616      	mov	r6, r2
 8007ff0:	4688      	mov	r8, r1
 8007ff2:	f008 ffb7 	bl	8010f64 <udrv_system_critical_section_begin>
 8007ff6:	4620      	mov	r0, r4
 8007ff8:	f7ff ffef 	bl	8007fda <fund_circular_queue_available_get>
 8007ffc:	4286      	cmp	r6, r0
 8007ffe:	bf28      	it	cs
 8008000:	4606      	movcs	r6, r0
 8008002:	4620      	mov	r0, r4
 8008004:	f7ff ffe9 	bl	8007fda <fund_circular_queue_available_get>
 8008008:	68e3      	ldr	r3, [r4, #12]
 800800a:	6925      	ldr	r5, [r4, #16]
 800800c:	68a2      	ldr	r2, [r4, #8]
 800800e:	42ab      	cmp	r3, r5
 8008010:	bf9c      	itt	ls
 8008012:	6863      	ldrls	r3, [r4, #4]
 8008014:	3301      	addls	r3, #1
 8008016:	1b5d      	subs	r5, r3, r5
 8008018:	4681      	mov	r9, r0
 800801a:	6923      	ldr	r3, [r4, #16]
 800801c:	6820      	ldr	r0, [r4, #0]
 800801e:	42ae      	cmp	r6, r5
 8008020:	fb02 0003 	mla	r0, r2, r3, r0
 8008024:	d813      	bhi.n	800804e <fund_circular_queue_in+0x68>
 8008026:	4372      	muls	r2, r6
 8008028:	4641      	mov	r1, r8
 800802a:	f00c f857 	bl	80140dc <memcpy>
 800802e:	6923      	ldr	r3, [r4, #16]
 8008030:	6862      	ldr	r2, [r4, #4]
 8008032:	4433      	add	r3, r6
 8008034:	4293      	cmp	r3, r2
 8008036:	bf96      	itet	ls
 8008038:	6923      	ldrls	r3, [r4, #16]
 800803a:	2300      	movhi	r3, #0
 800803c:	199b      	addls	r3, r3, r6
 800803e:	6123      	str	r3, [r4, #16]
 8008040:	a801      	add	r0, sp, #4
 8008042:	f008 ff91 	bl	8010f68 <udrv_system_critical_section_end>
 8008046:	4630      	mov	r0, r6
 8008048:	b003      	add	sp, #12
 800804a:	e8bd 83f0 	ldmia.w	sp!, {r4, r5, r6, r7, r8, r9, pc}
 800804e:	fb05 f702 	mul.w	r7, r5, r2
 8008052:	463a      	mov	r2, r7
 8008054:	4641      	mov	r1, r8
 8008056:	f00c f841 	bl	80140dc <memcpy>
 800805a:	68a2      	ldr	r2, [r4, #8]
 800805c:	6820      	ldr	r0, [r4, #0]
 800805e:	1b75      	subs	r5, r6, r5
 8008060:	436a      	muls	r2, r5
 8008062:	eb08 0107 	add.w	r1, r8, r7
 8008066:	f00c f839 	bl	80140dc <memcpy>
 800806a:	454e      	cmp	r6, r9
 800806c:	6125      	str	r5, [r4, #16]
 800806e:	d9e7      	bls.n	8008040 <fund_circular_queue_in+0x5a>
 8008070:	6923      	ldr	r3, [r4, #16]
 8008072:	6862      	ldr	r2, [r4, #4]
 8008074:	4293      	cmp	r3, r2
 8008076:	bf34      	ite	cc
 8008078:	3301      	addcc	r3, #1
 800807a:	2300      	movcs	r3, #0
 800807c:	60e3      	str	r3, [r4, #12]
 800807e:	e7df      	b.n	8008040 <fund_circular_queue_in+0x5a>

08008080 <fund_circular_queue_out>:
 8008080:	e92d 41f3 	stmdb	sp!, {r0, r1, r4, r5, r6, r7, r8, lr}
 8008084:	4604      	mov	r4, r0
 8008086:	a801      	add	r0, sp, #4
 8008088:	4616      	mov	r6, r2
 800808a:	4688      	mov	r8, r1
 800808c:	f008 ff6a 	bl	8010f64 <udrv_system_critical_section_begin>
 8008090:	4620      	mov	r0, r4
 8008092:	f7ff ff99 	bl	8007fc8 <fund_circular_queue_utilization_get>
 8008096:	68e7      	ldr	r7, [r4, #12]
 8008098:	68e5      	ldr	r5, [r4, #12]
 800809a:	6923      	ldr	r3, [r4, #16]
 800809c:	68a2      	ldr	r2, [r4, #8]
 800809e:	6821      	ldr	r1, [r4, #0]
 80080a0:	4286      	cmp	r6, r0
 80080a2:	bf28      	it	cs
 80080a4:	4606      	movcs	r6, r0
 80080a6:	429d      	cmp	r5, r3
 80080a8:	bf84      	itt	hi
 80080aa:	6863      	ldrhi	r3, [r4, #4]
 80080ac:	3301      	addhi	r3, #1
 80080ae:	1b5d      	subs	r5, r3, r5
 80080b0:	42ae      	cmp	r6, r5
 80080b2:	fb02 1107 	mla	r1, r2, r7, r1
 80080b6:	d810      	bhi.n	80080da <fund_circular_queue_out+0x5a>
 80080b8:	4372      	muls	r2, r6
 80080ba:	4640      	mov	r0, r8
 80080bc:	f00c f80e 	bl	80140dc <memcpy>
 80080c0:	6862      	ldr	r2, [r4, #4]
 80080c2:	4437      	add	r7, r6
 80080c4:	4297      	cmp	r7, r2
 80080c6:	bf88      	it	hi
 80080c8:	2700      	movhi	r7, #0
 80080ca:	60e7      	str	r7, [r4, #12]
 80080cc:	a801      	add	r0, sp, #4
 80080ce:	f008 ff4b 	bl	8010f68 <udrv_system_critical_section_end>
 80080d2:	4630      	mov	r0, r6
 80080d4:	b002      	add	sp, #8
 80080d6:	e8bd 81f0 	ldmia.w	sp!, {r4, r5, r6, r7, r8, pc}
 80080da:	fb05 f702 	mul.w	r7, r5, r2
 80080de:	463a      	mov	r2, r7
 80080e0:	4640      	mov	r0, r8
 80080e2:	f00b fffb 	bl	80140dc <memcpy>
 80080e6:	68a2      	ldr	r2, [r4, #8]
 80080e8:	6821      	ldr	r1, [r4, #0]
 80080ea:	1b75      	subs	r5, r6, r5
 80080ec:	436a      	muls	r2, r5
 80080ee:	eb08 0007 	add.w	r0, r8, r7
 80080f2:	f00b fff3 	bl	80140dc <memcpy>
 80080f6:	60e5      	str	r5, [r4, #12]
 80080f8:	e7e8      	b.n	80080cc <fund_circular_queue_out+0x4c>

080080fa <fund_circular_queue_peek>:
 80080fa:	b510      	push	{r4, lr}
 80080fc:	4604      	mov	r4, r0
 80080fe:	4608      	mov	r0, r1
 8008100:	68e2      	ldr	r2, [r4, #12]
 8008102:	6923      	ldr	r3, [r4, #16]
 8008104:	429a      	cmp	r2, r3
 8008106:	d023      	beq.n	8008150 <fund_circular_queue_peek+0x56>
 8008108:	68a2      	ldr	r2, [r4, #8]
 800810a:	68e1      	ldr	r1, [r4, #12]
 800810c:	6823      	ldr	r3, [r4, #0]
 800810e:	1e54      	subs	r4, r2, #1
 8008110:	2c07      	cmp	r4, #7
 8008112:	d818      	bhi.n	8008146 <fund_circular_queue_peek+0x4c>
 8008114:	e8df f004 	tbb	[pc, r4]
 8008118:	0c170804 	.word	0x0c170804
 800811c:	10171717 	.word	0x10171717
 8008120:	5c5b      	ldrb	r3, [r3, r1]
 8008122:	7003      	strb	r3, [r0, #0]
 8008124:	2000      	movs	r0, #0
 8008126:	bd10      	pop	{r4, pc}
 8008128:	f833 3011 	ldrh.w	r3, [r3, r1, lsl #1]
 800812c:	8003      	strh	r3, [r0, #0]
 800812e:	e7f9      	b.n	8008124 <fund_circular_queue_peek+0x2a>
 8008130:	f853 3021 	ldr.w	r3, [r3, r1, lsl #2]
 8008134:	6003      	str	r3, [r0, #0]
 8008136:	e7f5      	b.n	8008124 <fund_circular_queue_peek+0x2a>
 8008138:	eb03 03c1 	add.w	r3, r3, r1, lsl #3
 800813c:	e9d3 2300 	ldrd	r2, r3, [r3]
 8008140:	e9c0 2300 	strd	r2, r3, [r0]
 8008144:	e7ee      	b.n	8008124 <fund_circular_queue_peek+0x2a>
 8008146:	fb01 3102 	mla	r1, r1, r2, r3
 800814a:	f00b ffc7 	bl	80140dc <memcpy>
 800814e:	e7e9      	b.n	8008124 <fund_circular_queue_peek+0x2a>
 8008150:	f06f 000e 	mvn.w	r0, #14
 8008154:	e7e7      	b.n	8008126 <fund_circular_queue_peek+0x2c>

08008156 <service_debug>:
 8008156:	b40f      	push	{r0, r1, r2, r3}
 8008158:	b500      	push	{lr}
 800815a:	f5ad 7d03 	sub.w	sp, sp, #524	; 0x20c
 800815e:	f01a fdc7 	bl	8022cf0 <service_nvm_get_debug_level_from_nvm>
 8008162:	b2c0      	uxtb	r0, r0
 8008164:	2801      	cmp	r0, #1
 8008166:	d10a      	bne.n	800817e <service_debug+0x28>
 8008168:	ab85      	add	r3, sp, #532	; 0x214
 800816a:	9a84      	ldr	r2, [sp, #528]	; 0x210
 800816c:	9301      	str	r3, [sp, #4]
 800816e:	f44f 7100 	mov.w	r1, #512	; 0x200
 8008172:	a802      	add	r0, sp, #8
 8008174:	f01d ffd6 	bl	8026124 <tiny_vsnprintf_like>
 8008178:	a802      	add	r0, sp, #8
 800817a:	f008 fcf9 	bl	8010b70 <udrv_serial_log_printf>
 800817e:	f50d 7d03 	add.w	sp, sp, #524	; 0x20c
 8008182:	f85d eb04 	ldr.w	lr, [sp], #4
 8008186:	b004      	add	sp, #16
 8008188:	4770      	bx	lr

0800818a <service_set_debug_level>:
 800818a:	f01a bda5 	b.w	8022cd8 <service_nvm_set_debug_level_to_nvm>

0800818e <service_get_debug_level>:
 800818e:	b508      	push	{r3, lr}
 8008190:	f01a fdae 	bl	8022cf0 <service_nvm_get_debug_level_from_nvm>
 8008194:	b2c0      	uxtb	r0, r0
 8008196:	bd08      	pop	{r3, pc}

08008198 <service_lora_powersave_wakeup>:
 8008198:	4b01      	ldr	r3, [pc, #4]	; (80081a0 <service_lora_powersave_wakeup+0x8>)
 800819a:	2200      	movs	r2, #0
 800819c:	701a      	strb	r2, [r3, #0]
 800819e:	4770      	bx	lr
 80081a0:	200093ef 	.word	0x200093ef

080081a4 <OnMacMcpsRequest>:
 80081a4:	4770      	bx	lr
	...

080081a8 <AlternateDrUS915Callback>:
 80081a8:	b508      	push	{r3, lr}
 80081aa:	f018 f8dc 	bl	8020366 <service_lora_get_chs>
 80081ae:	4602      	mov	r2, r0
 80081b0:	b158      	cbz	r0, 80081ca <AlternateDrUS915Callback+0x22>
 80081b2:	4b06      	ldr	r3, [pc, #24]	; (80081cc <AlternateDrUS915Callback+0x24>)
 80081b4:	4906      	ldr	r1, [pc, #24]	; (80081d0 <AlternateDrUS915Callback+0x28>)
 80081b6:	2000      	movs	r0, #0
 80081b8:	429a      	cmp	r2, r3
 80081ba:	bf08      	it	eq
 80081bc:	2004      	moveq	r0, #4
 80081be:	f503 13c3 	add.w	r3, r3, #1597440	; 0x186000
 80081c2:	f503 6320 	add.w	r3, r3, #2560	; 0xa00
 80081c6:	428b      	cmp	r3, r1
 80081c8:	d1f6      	bne.n	80081b8 <AlternateDrUS915Callback+0x10>
 80081ca:	bd08      	pop	{r3, pc}
 80081cc:	35d2afc0 	.word	0x35d2afc0
 80081d0:	3695ffc0 	.word	0x3695ffc0

080081d4 <AlternateDrAU915Callback>:
 80081d4:	b508      	push	{r3, lr}
 80081d6:	f018 f8c6 	bl	8020366 <service_lora_get_chs>
 80081da:	4602      	mov	r2, r0
 80081dc:	b158      	cbz	r0, 80081f6 <AlternateDrAU915Callback+0x22>
 80081de:	4b06      	ldr	r3, [pc, #24]	; (80081f8 <AlternateDrAU915Callback+0x24>)
 80081e0:	4906      	ldr	r1, [pc, #24]	; (80081fc <AlternateDrAU915Callback+0x28>)
 80081e2:	2000      	movs	r0, #0
 80081e4:	429a      	cmp	r2, r3
 80081e6:	bf08      	it	eq
 80081e8:	2006      	moveq	r0, #6
 80081ea:	f503 13c3 	add.w	r3, r3, #1597440	; 0x186000
 80081ee:	f503 6320 	add.w	r3, r3, #2560	; 0xa00
 80081f2:	428b      	cmp	r3, r1
 80081f4:	d1f6      	bne.n	80081e4 <AlternateDrAU915Callback+0x10>
 80081f6:	bd08      	pop	{r3, pc}
 80081f8:	36978660 	.word	0x36978660
 80081fc:	375ad660 	.word	0x375ad660

08008200 <IsSingleChannelAU915Callback>:
 8008200:	f018 b8b1 	b.w	8020366 <service_lora_get_chs>

08008204 <OnSysTimeUpdate>:
 8008204:	4801      	ldr	r0, [pc, #4]	; (800820c <OnSysTimeUpdate+0x8>)
 8008206:	f008 bcb3 	b.w	8010b70 <udrv_serial_log_printf>
 800820a:	bf00      	nop
 800820c:	08017208 	.word	0x08017208

08008210 <OnMacProcessNotify>:
 8008210:	b508      	push	{r3, lr}
 8008212:	4803      	ldr	r0, [pc, #12]	; (8008220 <OnMacProcessNotify+0x10>)
 8008214:	f008 fe9c 	bl	8010f50 <udrv_system_event_produce>
 8008218:	4b02      	ldr	r3, [pc, #8]	; (8008224 <OnMacProcessNotify+0x14>)
 800821a:	2200      	movs	r2, #0
 800821c:	701a      	strb	r2, [r3, #0]
 800821e:	bd08      	pop	{r3, pc}
 8008220:	2000607c 	.word	0x2000607c
 8008224:	200093ef 	.word	0x200093ef

08008228 <OnNvmDataChange>:
 8008228:	b530      	push	{r4, r5, lr}
 800822a:	b08b      	sub	sp, #44	; 0x2c
 800822c:	4604      	mov	r4, r0
 800822e:	2334      	movs	r3, #52	; 0x34
 8008230:	4668      	mov	r0, sp
 8008232:	f88d 3000 	strb.w	r3, [sp]
 8008236:	f027 fe23 	bl	802fe80 <LoRaMacMibGetRequestConfirm>
 800823a:	b314      	cbz	r4, 8008282 <OnNvmDataChange+0x5a>
 800823c:	9d01      	ldr	r5, [sp, #4]
 800823e:	f027 fda1 	bl	802fd84 <LoRaMacStop>
 8008242:	b9f0      	cbnz	r0, 8008282 <OnNvmDataChange+0x5a>
 8008244:	07e3      	lsls	r3, r4, #31
 8008246:	d502      	bpl.n	800824e <OnNvmDataChange+0x26>
 8008248:	4628      	mov	r0, r5
 800824a:	f01b f873 	bl	8023334 <service_nvm_set_crypto_to_nvm>
 800824e:	07a0      	lsls	r0, r4, #30
 8008250:	d503      	bpl.n	800825a <OnNvmDataChange+0x32>
 8008252:	f105 0038 	add.w	r0, r5, #56	; 0x38
 8008256:	f01b f885 	bl	8023364 <service_nvm_set_macgroup1_to_nvm>
 800825a:	0761      	lsls	r1, r4, #29
 800825c:	d503      	bpl.n	8008266 <OnNvmDataChange+0x3e>
 800825e:	f105 0058 	add.w	r0, r5, #88	; 0x58
 8008262:	f01b f897 	bl	8023394 <service_nvm_set_macgroup2_to_nvm>
 8008266:	0722      	lsls	r2, r4, #28
 8008268:	d503      	bpl.n	8008272 <OnNvmDataChange+0x4a>
 800826a:	f505 70ee 	add.w	r0, r5, #476	; 0x1dc
 800826e:	f01b f8ab 	bl	80233c8 <service_nvm_set_sec_element_to_nvm>
 8008272:	06a3      	lsls	r3, r4, #26
 8008274:	d503      	bpl.n	800827e <OnNvmDataChange+0x56>
 8008276:	f505 7064 	add.w	r0, r5, #912	; 0x390
 800827a:	f01b f8bf 	bl	80233fc <service_nvm_set_regionchannels_to_nvm>
 800827e:	f027 fd77 	bl	802fd70 <LoRaMacStart>
 8008282:	b00b      	add	sp, #44	; 0x2c
 8008284:	bd30      	pop	{r4, r5, pc}

08008286 <service_lora_stop>:
 8008286:	b510      	push	{r4, lr}
 8008288:	f027 fd7c 	bl	802fd84 <LoRaMacStop>
 800828c:	2801      	cmp	r0, #1
 800828e:	4604      	mov	r4, r0
 8008290:	d004      	beq.n	800829c <service_lora_stop+0x16>
 8008292:	b930      	cbnz	r0, 80082a2 <service_lora_stop+0x1c>
 8008294:	f008 fe76 	bl	8010f84 <udrv_system_timer_stop>
 8008298:	4620      	mov	r0, r4
 800829a:	bd10      	pop	{r4, pc}
 800829c:	f06f 0005 	mvn.w	r0, #5
 80082a0:	e7fb      	b.n	800829a <service_lora_stop+0x14>
 80082a2:	f06f 0006 	mvn.w	r0, #6
 80082a6:	e7f8      	b.n	800829a <service_lora_stop+0x14>

080082a8 <McpsConfirm>:
 80082a8:	b510      	push	{r4, lr}
 80082aa:	4b13      	ldr	r3, [pc, #76]	; (80082f8 <McpsConfirm+0x50>)
 80082ac:	4a13      	ldr	r2, [pc, #76]	; (80082fc <McpsConfirm+0x54>)
 80082ae:	681b      	ldr	r3, [r3, #0]
 80082b0:	4604      	mov	r4, r0
 80082b2:	7840      	ldrb	r0, [r0, #1]
 80082b4:	b960      	cbnz	r0, 80082d0 <McpsConfirm+0x28>
 80082b6:	7921      	ldrb	r1, [r4, #4]
 80082b8:	7011      	strb	r1, [r2, #0]
 80082ba:	b103      	cbz	r3, 80082be <McpsConfirm+0x16>
 80082bc:	4798      	blx	r3
 80082be:	7823      	ldrb	r3, [r4, #0]
 80082c0:	2b01      	cmp	r3, #1
 80082c2:	d117      	bne.n	80082f4 <McpsConfirm+0x4c>
 80082c4:	7923      	ldrb	r3, [r4, #4]
 80082c6:	b12b      	cbz	r3, 80082d4 <McpsConfirm+0x2c>
 80082c8:	480d      	ldr	r0, [pc, #52]	; (8008300 <McpsConfirm+0x58>)
 80082ca:	f008 fc51 	bl	8010b70 <udrv_serial_log_printf>
 80082ce:	e005      	b.n	80082dc <McpsConfirm+0x34>
 80082d0:	2100      	movs	r1, #0
 80082d2:	e7f1      	b.n	80082b8 <McpsConfirm+0x10>
 80082d4:	7861      	ldrb	r1, [r4, #1]
 80082d6:	480b      	ldr	r0, [pc, #44]	; (8008304 <McpsConfirm+0x5c>)
 80082d8:	f008 fc4a 	bl	8010b70 <udrv_serial_log_printf>
 80082dc:	2000      	movs	r0, #0
 80082de:	f002 fb03 	bl	800a8e8 <service_lora_lptp_send_callback>
 80082e2:	7c20      	ldrb	r0, [r4, #16]
 80082e4:	f002 fb64 	bl	800a9b0 <service_lora_arssi_tx_callback>
 80082e8:	4621      	mov	r1, r4
 80082ea:	2000      	movs	r0, #0
 80082ec:	e8bd 4010 	ldmia.w	sp!, {r4, lr}
 80082f0:	f018 bf32 	b.w	8021158 <LmHandlerPackagesNotify>
 80082f4:	4804      	ldr	r0, [pc, #16]	; (8008308 <McpsConfirm+0x60>)
 80082f6:	e7e8      	b.n	80082ca <McpsConfirm+0x22>
 80082f8:	200079f8 	.word	0x200079f8
 80082fc:	200078c7 	.word	0x200078c7
 8008300:	0801721a 	.word	0x0801721a
 8008304:	08017233 	.word	0x08017233
 8008308:	08017254 	.word	0x08017254

0800830c <OnClassChange>:
 800830c:	2802      	cmp	r0, #2
 800830e:	b513      	push	{r0, r1, r4, lr}
 8008310:	4604      	mov	r4, r0
 8008312:	d005      	beq.n	8008320 <OnClassChange+0x14>
 8008314:	4814      	ldr	r0, [pc, #80]	; (8008368 <OnClassChange+0x5c>)
 8008316:	b002      	add	sp, #8
 8008318:	e8bd 4010 	ldmia.w	sp!, {r4, lr}
 800831c:	f008 bc28 	b.w	8010b70 <udrv_serial_log_printf>
 8008320:	4812      	ldr	r0, [pc, #72]	; (800836c <OnClassChange+0x60>)
 8008322:	f008 fc25 	bl	8010b70 <udrv_serial_log_printf>
 8008326:	23ff      	movs	r3, #255	; 0xff
 8008328:	f88d 3003 	strb.w	r3, [sp, #3]
 800832c:	f10d 0203 	add.w	r2, sp, #3
 8008330:	f04f 3304 	mov.w	r3, #67372036	; 0x4040404
 8008334:	2101      	movs	r1, #1
 8008336:	480e      	ldr	r0, [pc, #56]	; (8008370 <OnClassChange+0x64>)
 8008338:	9301      	str	r3, [sp, #4]
 800833a:	f01a f8df 	bl	80224fc <udrv_flash_write>
 800833e:	aa01      	add	r2, sp, #4
 8008340:	2104      	movs	r1, #4
 8008342:	480c      	ldr	r0, [pc, #48]	; (8008374 <OnClassChange+0x68>)
 8008344:	f01a f8da 	bl	80224fc <udrv_flash_write>
 8008348:	4620      	mov	r0, r4
 800834a:	f008 fb9d 	bl	8010a88 <udrv_serial_deinit>
 800834e:	2001      	movs	r0, #1
 8008350:	f008 fb9a 	bl	8010a88 <udrv_serial_deinit>
 8008354:	f04f 6300 	mov.w	r3, #134217728	; 0x8000000
 8008358:	685a      	ldr	r2, [r3, #4]
 800835a:	681b      	ldr	r3, [r3, #0]
 800835c:	f383 8808 	msr	MSP, r3
 8008360:	4790      	blx	r2
 8008362:	b002      	add	sp, #8
 8008364:	bd10      	pop	{r4, pc}
 8008366:	bf00      	nop
 8008368:	08017263 	.word	0x08017263
 800836c:	08017274 	.word	0x08017274
 8008370:	08004000 	.word	0x08004000
 8008374:	08004004 	.word	0x08004004

08008378 <MlmeIndication>:
 8008378:	b570      	push	{r4, r5, r6, lr}
 800837a:	4604      	mov	r4, r0
 800837c:	4601      	mov	r1, r0
 800837e:	b08a      	sub	sp, #40	; 0x28
 8008380:	2003      	movs	r0, #3
 8008382:	f018 fee9 	bl	8021158 <LmHandlerPackagesNotify>
 8008386:	7823      	ldrb	r3, [r4, #0]
 8008388:	2b0a      	cmp	r3, #10
 800838a:	d010      	beq.n	80083ae <MlmeIndication+0x36>
 800838c:	2b0e      	cmp	r3, #14
 800838e:	d10c      	bne.n	80083aa <MlmeIndication+0x32>
 8008390:	483e      	ldr	r0, [pc, #248]	; (800848c <MlmeIndication+0x114>)
 8008392:	f008 fbed 	bl	8010b70 <udrv_serial_log_printf>
 8008396:	4a3e      	ldr	r2, [pc, #248]	; (8008490 <MlmeIndication+0x118>)
 8008398:	2300      	movs	r3, #0
 800839a:	4668      	mov	r0, sp
 800839c:	7013      	strb	r3, [r2, #0]
 800839e:	f88d 3000 	strb.w	r3, [sp]
 80083a2:	f88d 3004 	strb.w	r3, [sp, #4]
 80083a6:	f027 feb9 	bl	803011c <LoRaMacMibSetRequestConfirm>
 80083aa:	b00a      	add	sp, #40	; 0x28
 80083ac:	bd70      	pop	{r4, r5, r6, pc}
 80083ae:	7863      	ldrb	r3, [r4, #1]
 80083b0:	2b0d      	cmp	r3, #13
 80083b2:	d164      	bne.n	800847e <MlmeIndication+0x106>
 80083b4:	4837      	ldr	r0, [pc, #220]	; (8008494 <MlmeIndication+0x11c>)
 80083b6:	f008 fbdb 	bl	8010b70 <udrv_serial_log_printf>
 80083ba:	4b35      	ldr	r3, [pc, #212]	; (8008490 <MlmeIndication+0x118>)
 80083bc:	781a      	ldrb	r2, [r3, #0]
 80083be:	2a04      	cmp	r2, #4
 80083c0:	d01c      	beq.n	80083fc <MlmeIndication+0x84>
 80083c2:	2602      	movs	r6, #2
 80083c4:	2000      	movs	r0, #0
 80083c6:	701e      	strb	r6, [r3, #0]
 80083c8:	f008 fddc 	bl	8010f84 <udrv_system_timer_stop>
 80083cc:	2200      	movs	r2, #0
 80083ce:	4932      	ldr	r1, [pc, #200]	; (8008498 <MlmeIndication+0x120>)
 80083d0:	4610      	mov	r0, r2
 80083d2:	f008 fdd3 	bl	8010f7c <udrv_system_timer_create>
 80083d6:	4605      	mov	r5, r0
 80083d8:	b9b8      	cbnz	r0, 800840a <MlmeIndication+0x92>
 80083da:	f025 fad5 	bl	802d988 <rand1>
 80083de:	4242      	negs	r2, r0
 80083e0:	f002 021f 	and.w	r2, r2, #31
 80083e4:	f000 001f 	and.w	r0, r0, #31
 80083e8:	f44f 717a 	mov.w	r1, #1000	; 0x3e8
 80083ec:	bf58      	it	pl
 80083ee:	4250      	negpl	r0, r2
 80083f0:	fb00 1101 	mla	r1, r0, r1, r1
 80083f4:	4632      	mov	r2, r6
 80083f6:	4628      	mov	r0, r5
 80083f8:	f008 fdc2 	bl	8010f80 <udrv_system_timer_start>
 80083fc:	7da3      	ldrb	r3, [r4, #22]
 80083fe:	2b03      	cmp	r3, #3
 8008400:	d81f      	bhi.n	8008442 <MlmeIndication+0xca>
 8008402:	e8df f003 	tbb	[pc, r3]
 8008406:	240b      	.short	0x240b
 8008408:	2a27      	.short	0x2a27
 800840a:	f240 21e3 	movw	r1, #739	; 0x2e3
 800840e:	4823      	ldr	r0, [pc, #140]	; (800849c <MlmeIndication+0x124>)
 8008410:	f008 fbae 	bl	8010b70 <udrv_serial_log_printf>
 8008414:	2000      	movs	r0, #0
 8008416:	f008 fdb5 	bl	8010f84 <udrv_system_timer_stop>
 800841a:	e7ef      	b.n	80083fc <MlmeIndication+0x84>
 800841c:	4a20      	ldr	r2, [pc, #128]	; (80084a0 <MlmeIndication+0x128>)
 800841e:	2300      	movs	r3, #0
 8008420:	8013      	strh	r3, [r2, #0]
 8008422:	7e23      	ldrb	r3, [r4, #24]
 8008424:	7e61      	ldrb	r1, [r4, #25]
 8008426:	021b      	lsls	r3, r3, #8
 8008428:	ea43 4301 	orr.w	r3, r3, r1, lsl #16
 800842c:	7de1      	ldrb	r1, [r4, #23]
 800842e:	430b      	orrs	r3, r1
 8008430:	6053      	str	r3, [r2, #4]
 8008432:	7ee3      	ldrb	r3, [r4, #27]
 8008434:	7f21      	ldrb	r1, [r4, #28]
 8008436:	021b      	lsls	r3, r3, #8
 8008438:	ea43 4301 	orr.w	r3, r3, r1, lsl #16
 800843c:	7ea1      	ldrb	r1, [r4, #26]
 800843e:	430b      	orrs	r3, r1
 8008440:	6093      	str	r3, [r2, #8]
 8008442:	e9d4 0101 	ldrd	r0, r1, [r4, #4]
 8008446:	4b17      	ldr	r3, [pc, #92]	; (80084a4 <MlmeIndication+0x12c>)
 8008448:	e883 0003 	stmia.w	r3, {r0, r1}
 800844c:	e7ad      	b.n	80083aa <MlmeIndication+0x32>
 800844e:	4a14      	ldr	r2, [pc, #80]	; (80084a0 <MlmeIndication+0x128>)
 8008450:	2301      	movs	r3, #1
 8008452:	e7e5      	b.n	8008420 <MlmeIndication+0xa8>
 8008454:	4a12      	ldr	r2, [pc, #72]	; (80084a0 <MlmeIndication+0x128>)
 8008456:	2302      	movs	r3, #2
 8008458:	e7e2      	b.n	8008420 <MlmeIndication+0xa8>
 800845a:	7e23      	ldrb	r3, [r4, #24]
 800845c:	7e61      	ldrb	r1, [r4, #25]
 800845e:	4a10      	ldr	r2, [pc, #64]	; (80084a0 <MlmeIndication+0x128>)
 8008460:	021b      	lsls	r3, r3, #8
 8008462:	ea43 4301 	orr.w	r3, r3, r1, lsl #16
 8008466:	7de1      	ldrb	r1, [r4, #23]
 8008468:	430b      	orrs	r3, r1
 800846a:	60d3      	str	r3, [r2, #12]
 800846c:	7ee3      	ldrb	r3, [r4, #27]
 800846e:	7f21      	ldrb	r1, [r4, #28]
 8008470:	021b      	lsls	r3, r3, #8
 8008472:	ea43 4301 	orr.w	r3, r3, r1, lsl #16
 8008476:	7ea1      	ldrb	r1, [r4, #26]
 8008478:	430b      	orrs	r3, r1
 800847a:	6113      	str	r3, [r2, #16]
 800847c:	e7e1      	b.n	8008442 <MlmeIndication+0xca>
 800847e:	2b0e      	cmp	r3, #14
 8008480:	d1df      	bne.n	8008442 <MlmeIndication+0xca>
 8008482:	4809      	ldr	r0, [pc, #36]	; (80084a8 <MlmeIndication+0x130>)
 8008484:	f008 fb74 	bl	8010b70 <udrv_serial_log_printf>
 8008488:	e7db      	b.n	8008442 <MlmeIndication+0xca>
 800848a:	bf00      	nop
 800848c:	08017289 	.word	0x08017289
 8008490:	200077c0 	.word	0x200077c0
 8008494:	08017294 	.word	0x08017294
 8008498:	08008b45 	.word	0x08008b45
 800849c:	080172a1 	.word	0x080172a1
 80084a0:	200077a4 	.word	0x200077a4
 80084a4:	200077b8 	.word	0x200077b8
 80084a8:	080172b1 	.word	0x080172b1

080084ac <OnMacMlmeRequest>:
 80084ac:	4770      	bx	lr

080084ae <IsSingleChannelUS915Callback>:
 80084ae:	f017 bf5a 	b.w	8020366 <service_lora_get_chs>

080084b2 <service_lora_get_mask>:
 80084b2:	b57f      	push	{r0, r1, r2, r3, r4, r5, r6, lr}
 80084b4:	4605      	mov	r5, r0
 80084b6:	f017 ff54 	bl	8020362 <service_lora_get_band>
 80084ba:	1e43      	subs	r3, r0, #1
 80084bc:	b2db      	uxtb	r3, r3
 80084be:	2b01      	cmp	r3, #1
 80084c0:	4604      	mov	r4, r0
 80084c2:	d903      	bls.n	80084cc <service_lora_get_mask+0x1a>
 80084c4:	f000 03fd 	and.w	r3, r0, #253	; 0xfd
 80084c8:	2b08      	cmp	r3, #8
 80084ca:	d11d      	bne.n	8008508 <service_lora_get_mask+0x56>
 80084cc:	a801      	add	r0, sp, #4
 80084ce:	f01a fc27 	bl	8022d20 <service_nvm_get_mask_from_nvm>
 80084d2:	2200      	movs	r2, #0
 80084d4:	a901      	add	r1, sp, #4
 80084d6:	4613      	mov	r3, r2
 80084d8:	2001      	movs	r0, #1
 80084da:	f811 6b01 	ldrb.w	r6, [r1], #1
 80084de:	b11e      	cbz	r6, 80084e8 <service_lora_get_mask+0x36>
 80084e0:	fa00 f602 	lsl.w	r6, r0, r2
 80084e4:	4333      	orrs	r3, r6
 80084e6:	b29b      	uxth	r3, r3
 80084e8:	3201      	adds	r2, #1
 80084ea:	2a0c      	cmp	r2, #12
 80084ec:	d1f5      	bne.n	80084da <service_lora_get_mask+0x28>
 80084ee:	f004 02fd 	and.w	r2, r4, #253	; 0xfd
 80084f2:	2a08      	cmp	r2, #8
 80084f4:	d001      	beq.n	80084fa <service_lora_get_mask+0x48>
 80084f6:	2c01      	cmp	r4, #1
 80084f8:	d102      	bne.n	8008500 <service_lora_get_mask+0x4e>
 80084fa:	f423 7380 	bic.w	r3, r3, #256	; 0x100
 80084fe:	b29b      	uxth	r3, r3
 8008500:	802b      	strh	r3, [r5, #0]
 8008502:	2000      	movs	r0, #0
 8008504:	b004      	add	sp, #16
 8008506:	bd70      	pop	{r4, r5, r6, pc}
 8008508:	f06f 0002 	mvn.w	r0, #2
 800850c:	e7fa      	b.n	8008504 <service_lora_get_mask+0x52>

0800850e <service_lora_set_mask>:
 800850e:	b5f0      	push	{r4, r5, r6, r7, lr}
 8008510:	b08f      	sub	sp, #60	; 0x3c
 8008512:	4606      	mov	r6, r0
 8008514:	460f      	mov	r7, r1
 8008516:	f017 ff24 	bl	8020362 <service_lora_get_band>
 800851a:	23ff      	movs	r3, #255	; 0xff
 800851c:	f8ad 3000 	strh.w	r3, [sp]
 8008520:	f44f 437f 	mov.w	r3, #65280	; 0xff00
 8008524:	f8ad 3002 	strh.w	r3, [sp, #2]
 8008528:	1e43      	subs	r3, r0, #1
 800852a:	b2db      	uxtb	r3, r3
 800852c:	2400      	movs	r4, #0
 800852e:	2b01      	cmp	r3, #1
 8008530:	e9cd 4401 	strd	r4, r4, [sp, #4]
 8008534:	4605      	mov	r5, r0
 8008536:	9403      	str	r4, [sp, #12]
 8008538:	d903      	bls.n	8008542 <service_lora_set_mask+0x34>
 800853a:	f000 03fd 	and.w	r3, r0, #253	; 0xfd
 800853e:	2b08      	cmp	r3, #8
 8008540:	d17e      	bne.n	8008640 <service_lora_set_mask+0x132>
 8008542:	f7ff fea0 	bl	8008286 <service_lora_stop>
 8008546:	4604      	mov	r4, r0
 8008548:	2800      	cmp	r0, #0
 800854a:	d16f      	bne.n	800862c <service_lora_set_mask+0x11e>
 800854c:	8833      	ldrh	r3, [r6, #0]
 800854e:	b923      	cbnz	r3, 800855a <service_lora_set_mask+0x4c>
 8008550:	2d01      	cmp	r5, #1
 8008552:	d150      	bne.n	80085f6 <service_lora_set_mask+0xe8>
 8008554:	f240 13ff 	movw	r3, #511	; 0x1ff
 8008558:	8033      	strh	r3, [r6, #0]
 800855a:	220c      	movs	r2, #12
 800855c:	2100      	movs	r1, #0
 800855e:	a801      	add	r0, sp, #4
 8008560:	f00b fde4 	bl	801412c <memset>
 8008564:	8830      	ldrh	r0, [r6, #0]
 8008566:	2200      	movs	r2, #0
 8008568:	fa40 f102 	asr.w	r1, r0, r2
 800856c:	07ce      	lsls	r6, r1, #31
 800856e:	b2d3      	uxtb	r3, r2
 8008570:	d50e      	bpl.n	8008590 <service_lora_set_mask+0x82>
 8008572:	ae0e      	add	r6, sp, #56	; 0x38
 8008574:	f003 01fe 	and.w	r1, r3, #254	; 0xfe
 8008578:	f003 0301 	and.w	r3, r3, #1
 800857c:	4431      	add	r1, r6
 800857e:	eb06 0343 	add.w	r3, r6, r3, lsl #1
 8008582:	f831 6c34 	ldrh.w	r6, [r1, #-52]
 8008586:	f833 3c38 	ldrh.w	r3, [r3, #-56]
 800858a:	4333      	orrs	r3, r6
 800858c:	f821 3c34 	strh.w	r3, [r1, #-52]
 8008590:	3201      	adds	r2, #1
 8008592:	2a0c      	cmp	r2, #12
 8008594:	d1e8      	bne.n	8008568 <service_lora_set_mask+0x5a>
 8008596:	f005 03fd 	and.w	r3, r5, #253	; 0xfd
 800859a:	2b08      	cmp	r3, #8
 800859c:	d001      	beq.n	80085a2 <service_lora_set_mask+0x94>
 800859e:	2d01      	cmp	r5, #1
 80085a0:	d10e      	bne.n	80085c0 <service_lora_set_mask+0xb2>
 80085a2:	f8bd 300c 	ldrh.w	r3, [sp, #12]
 80085a6:	2200      	movs	r2, #0
 80085a8:	f403 437f 	and.w	r3, r3, #65280	; 0xff00
 80085ac:	f8ad 300c 	strh.w	r3, [sp, #12]
 80085b0:	4611      	mov	r1, r2
 80085b2:	2601      	movs	r6, #1
 80085b4:	b2d5      	uxtb	r5, r2
 80085b6:	2d07      	cmp	r5, #7
 80085b8:	d928      	bls.n	800860c <service_lora_set_mask+0xfe>
 80085ba:	b109      	cbz	r1, 80085c0 <service_lora_set_mask+0xb2>
 80085bc:	f8ad 300c 	strh.w	r3, [sp, #12]
 80085c0:	2323      	movs	r3, #35	; 0x23
 80085c2:	f88d 3010 	strb.w	r3, [sp, #16]
 80085c6:	a804      	add	r0, sp, #16
 80085c8:	ab01      	add	r3, sp, #4
 80085ca:	9305      	str	r3, [sp, #20]
 80085cc:	f027 fda6 	bl	803011c <LoRaMacMibSetRequestConfirm>
 80085d0:	4605      	mov	r5, r0
 80085d2:	b968      	cbnz	r0, 80085f0 <service_lora_set_mask+0xe2>
 80085d4:	2324      	movs	r3, #36	; 0x24
 80085d6:	f88d 3010 	strb.w	r3, [sp, #16]
 80085da:	a804      	add	r0, sp, #16
 80085dc:	ab01      	add	r3, sp, #4
 80085de:	9305      	str	r3, [sp, #20]
 80085e0:	f027 fd9c 	bl	803011c <LoRaMacMibSetRequestConfirm>
 80085e4:	f01a ff58 	bl	8023498 <service_nvm_get_chs_from_nvm>
 80085e8:	b9d8      	cbnz	r0, 8008622 <service_lora_set_mask+0x114>
 80085ea:	f027 fbc1 	bl	802fd70 <LoRaMacStart>
 80085ee:	b300      	cbz	r0, 8008632 <service_lora_set_mask+0x124>
 80085f0:	f06f 0406 	mvn.w	r4, #6
 80085f4:	e01a      	b.n	800862c <service_lora_set_mask+0x11e>
 80085f6:	f005 03fd 	and.w	r3, r5, #253	; 0xfd
 80085fa:	2b08      	cmp	r3, #8
 80085fc:	bf04      	itt	eq
 80085fe:	23ff      	moveq	r3, #255	; 0xff
 8008600:	8033      	strheq	r3, [r6, #0]
 8008602:	2d02      	cmp	r5, #2
 8008604:	d1a9      	bne.n	800855a <service_lora_set_mask+0x4c>
 8008606:	f640 73ff 	movw	r3, #4095	; 0xfff
 800860a:	e7a5      	b.n	8008558 <service_lora_set_mask+0x4a>
 800860c:	fa40 f502 	asr.w	r5, r0, r2
 8008610:	07ed      	lsls	r5, r5, #31
 8008612:	bf41      	itttt	mi
 8008614:	fa06 f102 	lslmi.w	r1, r6, r2
 8008618:	430b      	orrmi	r3, r1
 800861a:	b29b      	uxthmi	r3, r3
 800861c:	2101      	movmi	r1, #1
 800861e:	3201      	adds	r2, #1
 8008620:	e7c8      	b.n	80085b4 <service_lora_set_mask+0xa6>
 8008622:	4628      	mov	r0, r5
 8008624:	f01a ff3e 	bl	80234a4 <service_nvm_set_chs_to_nvm>
 8008628:	2800      	cmp	r0, #0
 800862a:	d0de      	beq.n	80085ea <service_lora_set_mask+0xdc>
 800862c:	4620      	mov	r0, r4
 800862e:	b00f      	add	sp, #60	; 0x3c
 8008630:	bdf0      	pop	{r4, r5, r6, r7, pc}
 8008632:	2f00      	cmp	r7, #0
 8008634:	d0fa      	beq.n	800862c <service_lora_set_mask+0x11e>
 8008636:	a801      	add	r0, sp, #4
 8008638:	f01a fb7c 	bl	8022d34 <service_nvm_set_mask_to_nvm>
 800863c:	4604      	mov	r4, r0
 800863e:	e7f5      	b.n	800862c <service_lora_set_mask+0x11e>
 8008640:	f06f 0402 	mvn.w	r4, #2
 8008644:	e7f2      	b.n	800862c <service_lora_set_mask+0x11e>
	...

08008648 <service_lora_join>:
 8008648:	e92d 43f0 	stmdb	sp!, {r4, r5, r6, r7, r8, r9, lr}
 800864c:	b095      	sub	sp, #84	; 0x54
 800864e:	4604      	mov	r4, r0
 8008650:	460d      	mov	r5, r1
 8008652:	4690      	mov	r8, r2
 8008654:	461f      	mov	r7, r3
 8008656:	f017 fcd6 	bl	8020006 <service_lora_get_njm>
 800865a:	1c61      	adds	r1, r4, #1
 800865c:	4606      	mov	r6, r0
 800865e:	d129      	bne.n	80086b4 <service_lora_join+0x6c>
 8008660:	1c6a      	adds	r2, r5, #1
 8008662:	d00a      	beq.n	800867a <service_lora_join+0x32>
 8008664:	3d00      	subs	r5, #0
 8008666:	bf18      	it	ne
 8008668:	2501      	movne	r5, #1
 800866a:	f017 fe58 	bl	802031e <service_lora_get_auto_join>
 800866e:	4285      	cmp	r5, r0
 8008670:	d003      	beq.n	800867a <service_lora_join+0x32>
 8008672:	4628      	mov	r0, r5
 8008674:	f017 fe55 	bl	8020322 <service_lora_set_auto_join>
 8008678:	bb50      	cbnz	r0, 80086d0 <service_lora_join+0x88>
 800867a:	f1b8 3fff 	cmp.w	r8, #4294967295	; 0xffffffff
 800867e:	d007      	beq.n	8008690 <service_lora_join+0x48>
 8008680:	f017 fe51 	bl	8020326 <service_lora_get_auto_join_period>
 8008684:	4540      	cmp	r0, r8
 8008686:	d003      	beq.n	8008690 <service_lora_join+0x48>
 8008688:	4640      	mov	r0, r8
 800868a:	f017 fe4e 	bl	802032a <service_lora_set_auto_join_period>
 800868e:	b9f8      	cbnz	r0, 80086d0 <service_lora_join+0x88>
 8008690:	1c7b      	adds	r3, r7, #1
 8008692:	d007      	beq.n	80086a4 <service_lora_join+0x5c>
 8008694:	f017 fe4b 	bl	802032e <service_lora_get_auto_join_max_cnt>
 8008698:	42b8      	cmp	r0, r7
 800869a:	d003      	beq.n	80086a4 <service_lora_join+0x5c>
 800869c:	4638      	mov	r0, r7
 800869e:	f017 fe48 	bl	8020332 <service_lora_set_auto_join_max_cnt>
 80086a2:	b9a8      	cbnz	r0, 80086d0 <service_lora_join+0x88>
 80086a4:	b9bc      	cbnz	r4, 80086d6 <service_lora_join+0x8e>
 80086a6:	4620      	mov	r0, r4
 80086a8:	f008 fc6c 	bl	8010f84 <udrv_system_timer_stop>
 80086ac:	4b75      	ldr	r3, [pc, #468]	; (8008884 <service_lora_join+0x23c>)
 80086ae:	601c      	str	r4, [r3, #0]
 80086b0:	2000      	movs	r0, #0
 80086b2:	e00d      	b.n	80086d0 <service_lora_join+0x88>
 80086b4:	f1b4 0900 	subs.w	r9, r4, #0
 80086b8:	bf18      	it	ne
 80086ba:	f04f 0901 	movne.w	r9, #1
 80086be:	f017 fe2a 	bl	8020316 <service_lora_get_join_start>
 80086c2:	4581      	cmp	r9, r0
 80086c4:	d0cc      	beq.n	8008660 <service_lora_join+0x18>
 80086c6:	4648      	mov	r0, r9
 80086c8:	f017 fe27 	bl	802031a <service_lora_set_join_start>
 80086cc:	2800      	cmp	r0, #0
 80086ce:	d0c7      	beq.n	8008660 <service_lora_join+0x18>
 80086d0:	b015      	add	sp, #84	; 0x54
 80086d2:	e8bd 83f0 	ldmia.w	sp!, {r4, r5, r6, r7, r8, r9, pc}
 80086d6:	f017 fe44 	bl	8020362 <service_lora_get_band>
 80086da:	f017 fe56 	bl	802038a <service_lora_region_isActive>
 80086de:	2800      	cmp	r0, #0
 80086e0:	f000 80cc 	beq.w	800887c <service_lora_join+0x234>
 80086e4:	2e01      	cmp	r6, #1
 80086e6:	f040 8096 	bne.w	8008816 <service_lora_join+0x1ce>
 80086ea:	f88d 6000 	strb.w	r6, [sp]
 80086ee:	f01a fcb9 	bl	8023064 <service_nvm_get_dr_from_nvm>
 80086f2:	2302      	movs	r3, #2
 80086f4:	f88d 0005 	strb.w	r0, [sp, #5]
 80086f8:	4668      	mov	r0, sp
 80086fa:	f88d 3004 	strb.w	r3, [sp, #4]
 80086fe:	f028 fa07 	bl	8030b10 <LoRaMacMlmeRequest>
 8008702:	4b61      	ldr	r3, [pc, #388]	; (8008888 <service_lora_join+0x240>)
 8008704:	9a04      	ldr	r2, [sp, #16]
 8008706:	601a      	str	r2, [r3, #0]
 8008708:	4604      	mov	r4, r0
 800870a:	2800      	cmp	r0, #0
 800870c:	d154      	bne.n	80087b8 <service_lora_join+0x170>
 800870e:	f017 fd55 	bl	80201bc <service_lora_get_class>
 8008712:	2801      	cmp	r0, #1
 8008714:	bf08      	it	eq
 8008716:	4b5d      	ldreq	r3, [pc, #372]	; (800888c <service_lora_join+0x244>)
 8008718:	a80a      	add	r0, sp, #40	; 0x28
 800871a:	bf08      	it	eq
 800871c:	701c      	strbeq	r4, [r3, #0]
 800871e:	2334      	movs	r3, #52	; 0x34
 8008720:	f88d 3028 	strb.w	r3, [sp, #40]	; 0x28
 8008724:	f027 fbac 	bl	802fe80 <LoRaMacMibGetRequestConfirm>
 8008728:	9b0b      	ldr	r3, [sp, #44]	; 0x2c
 800872a:	8898      	ldrh	r0, [r3, #4]
 800872c:	f017 fe11 	bl	8020352 <service_lora_set_DevNonce>
 8008730:	f7ff fd2d 	bl	800818e <service_get_debug_level>
 8008734:	2800      	cmp	r0, #0
 8008736:	d0cb      	beq.n	80086d0 <service_lora_join+0x88>
 8008738:	2334      	movs	r3, #52	; 0x34
 800873a:	a80a      	add	r0, sp, #40	; 0x28
 800873c:	f88d 3028 	strb.w	r3, [sp, #40]	; 0x28
 8008740:	f027 fb9e 	bl	802fe80 <LoRaMacMibGetRequestConfirm>
 8008744:	a80a      	add	r0, sp, #40	; 0x28
 8008746:	f027 fb9b 	bl	802fe80 <LoRaMacMibGetRequestConfirm>
 800874a:	2800      	cmp	r0, #0
 800874c:	d1b0      	bne.n	80086b0 <service_lora_join+0x68>
 800874e:	4d50      	ldr	r5, [pc, #320]	; (8008890 <service_lora_join+0x248>)
 8008750:	9b0b      	ldr	r3, [sp, #44]	; 0x2c
 8008752:	782a      	ldrb	r2, [r5, #0]
 8008754:	f893 4058 	ldrb.w	r4, [r3, #88]	; 0x58
 8008758:	484e      	ldr	r0, [pc, #312]	; (8008894 <service_lora_join+0x24c>)
 800875a:	260c      	movs	r6, #12
 800875c:	fb06 3302 	mla	r3, r6, r2, r3
 8008760:	f8d3 1390 	ldr.w	r1, [r3, #912]	; 0x390
 8008764:	f008 fa04 	bl	8010b70 <udrv_serial_log_printf>
 8008768:	2c01      	cmp	r4, #1
 800876a:	9a0b      	ldr	r2, [sp, #44]	; 0x2c
 800876c:	d001      	beq.n	8008772 <service_lora_join+0x12a>
 800876e:	2c08      	cmp	r4, #8
 8008770:	d16e      	bne.n	8008850 <service_lora_join+0x208>
 8008772:	782b      	ldrb	r3, [r5, #0]
 8008774:	f8d2 20c4 	ldr.w	r2, [r2, #196]	; 0xc4
 8008778:	4947      	ldr	r1, [pc, #284]	; (8008898 <service_lora_join+0x250>)
 800877a:	f003 0307 	and.w	r3, r3, #7
 800877e:	fb01 2103 	mla	r1, r1, r3, r2
 8008782:	4846      	ldr	r0, [pc, #280]	; (800889c <service_lora_join+0x254>)
 8008784:	f008 f9f4 	bl	8010b70 <udrv_serial_log_printf>
 8008788:	9b0b      	ldr	r3, [sp, #44]	; 0x2c
 800878a:	4845      	ldr	r0, [pc, #276]	; (80088a0 <service_lora_join+0x258>)
 800878c:	f8d3 10c4 	ldr.w	r1, [r3, #196]	; 0xc4
 8008790:	f008 f9ee 	bl	8010b70 <udrv_serial_log_printf>
 8008794:	9b0b      	ldr	r3, [sp, #44]	; 0x2c
 8008796:	4843      	ldr	r0, [pc, #268]	; (80088a4 <service_lora_join+0x25c>)
 8008798:	f993 1049 	ldrsb.w	r1, [r3, #73]	; 0x49
 800879c:	f008 f9e8 	bl	8010b70 <udrv_serial_log_printf>
 80087a0:	9b0b      	ldr	r3, [sp, #44]	; 0x2c
 80087a2:	4841      	ldr	r0, [pc, #260]	; (80088a8 <service_lora_join+0x260>)
 80087a4:	f993 1048 	ldrsb.w	r1, [r3, #72]	; 0x48
 80087a8:	f008 f9e2 	bl	8010b70 <udrv_serial_log_printf>
 80087ac:	9b0b      	ldr	r3, [sp, #44]	; 0x2c
 80087ae:	483f      	ldr	r0, [pc, #252]	; (80088ac <service_lora_join+0x264>)
 80087b0:	68d9      	ldr	r1, [r3, #12]
 80087b2:	f008 f9dd 	bl	8010b70 <udrv_serial_log_printf>
 80087b6:	e77b      	b.n	80086b0 <service_lora_join+0x68>
 80087b8:	2801      	cmp	r0, #1
 80087ba:	d012      	beq.n	80087e2 <service_lora_join+0x19a>
 80087bc:	280b      	cmp	r0, #11
 80087be:	d12b      	bne.n	8008818 <service_lora_join+0x1d0>
 80087c0:	4d30      	ldr	r5, [pc, #192]	; (8008884 <service_lora_join+0x23c>)
 80087c2:	2000      	movs	r0, #0
 80087c4:	f008 fbde 	bl	8010f84 <udrv_system_timer_stop>
 80087c8:	682c      	ldr	r4, [r5, #0]
 80087ca:	3401      	adds	r4, #1
 80087cc:	602c      	str	r4, [r5, #0]
 80087ce:	f017 fdae 	bl	802032e <service_lora_get_auto_join_max_cnt>
 80087d2:	4284      	cmp	r4, r0
 80087d4:	d908      	bls.n	80087e8 <service_lora_join+0x1a0>
 80087d6:	2300      	movs	r3, #0
 80087d8:	602b      	str	r3, [r5, #0]
 80087da:	9904      	ldr	r1, [sp, #16]
 80087dc:	4834      	ldr	r0, [pc, #208]	; (80088b0 <service_lora_join+0x268>)
 80087de:	f008 f9c7 	bl	8010b70 <udrv_serial_log_printf>
 80087e2:	f06f 0005 	mvn.w	r0, #5
 80087e6:	e773      	b.n	80086d0 <service_lora_join+0x88>
 80087e8:	2200      	movs	r2, #0
 80087ea:	4932      	ldr	r1, [pc, #200]	; (80088b4 <service_lora_join+0x26c>)
 80087ec:	4610      	mov	r0, r2
 80087ee:	f008 fbc5 	bl	8010f7c <udrv_system_timer_create>
 80087f2:	4604      	mov	r4, r0
 80087f4:	b948      	cbnz	r0, 800880a <service_lora_join+0x1c2>
 80087f6:	f017 fd96 	bl	8020326 <service_lora_get_auto_join_period>
 80087fa:	f44f 717a 	mov.w	r1, #1000	; 0x3e8
 80087fe:	4341      	muls	r1, r0
 8008800:	4622      	mov	r2, r4
 8008802:	4620      	mov	r0, r4
 8008804:	f008 fbbc 	bl	8010f80 <udrv_system_timer_start>
 8008808:	e7e7      	b.n	80087da <service_lora_join+0x192>
 800880a:	f240 6164 	movw	r1, #1636	; 0x664
 800880e:	482a      	ldr	r0, [pc, #168]	; (80088b8 <service_lora_join+0x270>)
 8008810:	f008 f9ae 	bl	8010b70 <udrv_serial_log_printf>
 8008814:	e7e1      	b.n	80087da <service_lora_join+0x192>
 8008816:	b116      	cbz	r6, 800881e <service_lora_join+0x1d6>
 8008818:	f06f 0006 	mvn.w	r0, #6
 800881c:	e758      	b.n	80086d0 <service_lora_join+0x88>
 800881e:	2301      	movs	r3, #1
 8008820:	4668      	mov	r0, sp
 8008822:	f88d 3000 	strb.w	r3, [sp]
 8008826:	f88d 3004 	strb.w	r3, [sp, #4]
 800882a:	f027 fc77 	bl	803011c <LoRaMacMibSetRequestConfirm>
 800882e:	2800      	cmp	r0, #0
 8008830:	d1f2      	bne.n	8008818 <service_lora_join+0x1d0>
 8008832:	f017 fcc3 	bl	80201bc <service_lora_get_class>
 8008836:	2802      	cmp	r0, #2
 8008838:	d107      	bne.n	800884a <service_lora_join+0x202>
 800883a:	f88d 0004 	strb.w	r0, [sp, #4]
 800883e:	4668      	mov	r0, sp
 8008840:	f88d 6000 	strb.w	r6, [sp]
 8008844:	f027 fc6a 	bl	803011c <LoRaMacMibSetRequestConfirm>
 8008848:	e772      	b.n	8008730 <service_lora_join+0xe8>
 800884a:	f017 fcb7 	bl	80201bc <service_lora_get_class>
 800884e:	e76f      	b.n	8008730 <service_lora_join+0xe8>
 8008850:	2c02      	cmp	r4, #2
 8008852:	7829      	ldrb	r1, [r5, #0]
 8008854:	d109      	bne.n	800886a <service_lora_join+0x222>
 8008856:	2330      	movs	r3, #48	; 0x30
 8008858:	fbb1 f0f3 	udiv	r0, r1, r3
 800885c:	fb03 1110 	mls	r1, r3, r0, r1
 8008860:	b2cb      	uxtb	r3, r1
 8008862:	f8d2 20c4 	ldr.w	r2, [r2, #196]	; 0xc4
 8008866:	4915      	ldr	r1, [pc, #84]	; (80088bc <service_lora_join+0x274>)
 8008868:	e789      	b.n	800877e <service_lora_join+0x136>
 800886a:	fb06 2201 	mla	r2, r6, r1, r2
 800886e:	f8d2 1394 	ldr.w	r1, [r2, #916]	; 0x394
 8008872:	2900      	cmp	r1, #0
 8008874:	d185      	bne.n	8008782 <service_lora_join+0x13a>
 8008876:	f8d2 1390 	ldr.w	r1, [r2, #912]	; 0x390
 800887a:	e782      	b.n	8008782 <service_lora_join+0x13a>
 800887c:	f06f 0010 	mvn.w	r0, #16
 8008880:	e726      	b.n	80086d0 <service_lora_join+0x88>
 8008882:	bf00      	nop
 8008884:	200077a0 	.word	0x200077a0
 8008888:	20007744 	.word	0x20007744
 800888c:	200077c0 	.word	0x200077c0
 8008890:	200083f5 	.word	0x200083f5
 8008894:	080172ef 	.word	0x080172ef
 8008898:	000927c0 	.word	0x000927c0
 800889c:	080172ec 	.word	0x080172ec
 80088a0:	080172fe 	.word	0x080172fe
 80088a4:	08017310 	.word	0x08017310
 80088a8:	08017326 	.word	0x08017326
 80088ac:	0801733b 	.word	0x0801733b
 80088b0:	080172d4 	.word	0x080172d4
 80088b4:	080088c1 	.word	0x080088c1
 80088b8:	080172be 	.word	0x080172be
 80088bc:	00030d40 	.word	0x00030d40

080088c0 <service_lora_auto_join>:
 80088c0:	f04f 33ff 	mov.w	r3, #4294967295	; 0xffffffff
 80088c4:	461a      	mov	r2, r3
 80088c6:	4619      	mov	r1, r3
 80088c8:	2001      	movs	r0, #1
 80088ca:	f7ff bebd 	b.w	8008648 <service_lora_join>
	...

080088d0 <service_lora_send>:
 80088d0:	e92d 41f0 	stmdb	sp!, {r4, r5, r6, r7, r8, lr}
 80088d4:	b09a      	sub	sp, #104	; 0x68
 80088d6:	460d      	mov	r5, r1
 80088d8:	a902      	add	r1, sp, #8
 80088da:	e881 000c 	stmia.w	r1, {r2, r3}
 80088de:	4680      	mov	r8, r0
 80088e0:	f01a fbc0 	bl	8023064 <service_nvm_get_dr_from_nvm>
 80088e4:	4607      	mov	r7, r0
 80088e6:	f017 fb90 	bl	802000a <service_lora_get_njs>
 80088ea:	4606      	mov	r6, r0
 80088ec:	2800      	cmp	r0, #0
 80088ee:	f000 8103 	beq.w	8008af8 <service_lora_send+0x228>
 80088f2:	f026 fc79 	bl	802f1e8 <LoRaMacIsBusy>
 80088f6:	b110      	cbz	r0, 80088fe <service_lora_send+0x2e>
 80088f8:	f06f 0005 	mvn.w	r0, #5
 80088fc:	e09b      	b.n	8008a36 <service_lora_send+0x166>
 80088fe:	f019 f843 	bl	8021988 <FUOTA_StartTime_IsRunning>
 8008902:	4604      	mov	r4, r0
 8008904:	2800      	cmp	r0, #0
 8008906:	d1f7      	bne.n	80088f8 <service_lora_send+0x28>
 8008908:	f017 fc58 	bl	80201bc <service_lora_get_class>
 800890c:	2802      	cmp	r0, #2
 800890e:	f040 8095 	bne.w	8008a3c <service_lora_send+0x16c>
 8008912:	f88d 0044 	strb.w	r0, [sp, #68]	; 0x44
 8008916:	a810      	add	r0, sp, #64	; 0x40
 8008918:	f88d 4040 	strb.w	r4, [sp, #64]	; 0x40
 800891c:	f027 fbfe 	bl	803011c <LoRaMacMibSetRequestConfirm>
 8008920:	f88d 7026 	strb.w	r7, [sp, #38]	; 0x26
 8008924:	f01a fc40 	bl	80231a8 <service_nvm_get_linkcheck_from_nvm>
 8008928:	b160      	cbz	r0, 8008944 <service_lora_send+0x74>
 800892a:	f01a fc3d 	bl	80231a8 <service_nvm_get_linkcheck_from_nvm>
 800892e:	2801      	cmp	r0, #1
 8008930:	d102      	bne.n	8008938 <service_lora_send+0x68>
 8008932:	2000      	movs	r0, #0
 8008934:	f017 fce8 	bl	8020308 <service_lora_set_linkcheck>
 8008938:	2305      	movs	r3, #5
 800893a:	a810      	add	r0, sp, #64	; 0x40
 800893c:	f88d 3040 	strb.w	r3, [sp, #64]	; 0x40
 8008940:	f028 f8e6 	bl	8030b10 <LoRaMacMlmeRequest>
 8008944:	4b6f      	ldr	r3, [pc, #444]	; (8008b04 <service_lora_send+0x234>)
 8008946:	781b      	ldrb	r3, [r3, #0]
 8008948:	2b01      	cmp	r3, #1
 800894a:	d105      	bne.n	8008958 <service_lora_send+0x88>
 800894c:	2309      	movs	r3, #9
 800894e:	a810      	add	r0, sp, #64	; 0x40
 8008950:	f88d 3040 	strb.w	r3, [sp, #64]	; 0x40
 8008954:	f028 f8dc 	bl	8030b10 <LoRaMacMlmeRequest>
 8008958:	a905      	add	r1, sp, #20
 800895a:	b2e8      	uxtb	r0, r5
 800895c:	f027 fa30 	bl	802fdc0 <LoRaMacQueryTxPossible>
 8008960:	4607      	mov	r7, r0
 8008962:	f7ff fc14 	bl	800818e <service_get_debug_level>
 8008966:	b160      	cbz	r0, 8008982 <service_lora_send+0xb2>
 8008968:	f89d 3014 	ldrb.w	r3, [sp, #20]
 800896c:	f89d 2015 	ldrb.w	r2, [sp, #21]
 8008970:	4965      	ldr	r1, [pc, #404]	; (8008b08 <service_lora_send+0x238>)
 8008972:	4866      	ldr	r0, [pc, #408]	; (8008b0c <service_lora_send+0x23c>)
 8008974:	f851 1027 	ldr.w	r1, [r1, r7, lsl #2]
 8008978:	1ad2      	subs	r2, r2, r3
 800897a:	9200      	str	r2, [sp, #0]
 800897c:	462a      	mov	r2, r5
 800897e:	f008 f8f7 	bl	8010b70 <udrv_serial_log_printf>
 8008982:	2f00      	cmp	r7, #0
 8008984:	d079      	beq.n	8008a7a <service_lora_send+0x1aa>
 8008986:	2300      	movs	r3, #0
 8008988:	f88d 3018 	strb.w	r3, [sp, #24]
 800898c:	9308      	str	r3, [sp, #32]
 800898e:	f8ad 3024 	strh.w	r3, [sp, #36]	; 0x24
 8008992:	a806      	add	r0, sp, #24
 8008994:	f028 ff90 	bl	80318b8 <LoRaMacMcpsRequest>
 8008998:	4b5d      	ldr	r3, [pc, #372]	; (8008b10 <service_lora_send+0x240>)
 800899a:	9a0a      	ldr	r2, [sp, #40]	; 0x28
 800899c:	601a      	str	r2, [r3, #0]
 800899e:	4605      	mov	r5, r0
 80089a0:	f7ff fbf5 	bl	800818e <service_get_debug_level>
 80089a4:	2800      	cmp	r0, #0
 80089a6:	d03f      	beq.n	8008a28 <service_lora_send+0x158>
 80089a8:	2334      	movs	r3, #52	; 0x34
 80089aa:	a810      	add	r0, sp, #64	; 0x40
 80089ac:	f88d 3040 	strb.w	r3, [sp, #64]	; 0x40
 80089b0:	f027 fa66 	bl	802fe80 <LoRaMacMibGetRequestConfirm>
 80089b4:	a810      	add	r0, sp, #64	; 0x40
 80089b6:	f027 fa63 	bl	802fe80 <LoRaMacMibGetRequestConfirm>
 80089ba:	2800      	cmp	r0, #0
 80089bc:	d134      	bne.n	8008a28 <service_lora_send+0x158>
 80089be:	4f55      	ldr	r7, [pc, #340]	; (8008b14 <service_lora_send+0x244>)
 80089c0:	9b11      	ldr	r3, [sp, #68]	; 0x44
 80089c2:	783a      	ldrb	r2, [r7, #0]
 80089c4:	f893 6058 	ldrb.w	r6, [r3, #88]	; 0x58
 80089c8:	4853      	ldr	r0, [pc, #332]	; (8008b18 <service_lora_send+0x248>)
 80089ca:	f04f 080c 	mov.w	r8, #12
 80089ce:	fb08 3302 	mla	r3, r8, r2, r3
 80089d2:	f8d3 1390 	ldr.w	r1, [r3, #912]	; 0x390
 80089d6:	f008 f8cb 	bl	8010b70 <udrv_serial_log_printf>
 80089da:	2e01      	cmp	r6, #1
 80089dc:	9a11      	ldr	r2, [sp, #68]	; 0x44
 80089de:	d001      	beq.n	80089e4 <service_lora_send+0x114>
 80089e0:	2e08      	cmp	r6, #8
 80089e2:	d166      	bne.n	8008ab2 <service_lora_send+0x1e2>
 80089e4:	783b      	ldrb	r3, [r7, #0]
 80089e6:	f8d2 20c4 	ldr.w	r2, [r2, #196]	; 0xc4
 80089ea:	494c      	ldr	r1, [pc, #304]	; (8008b1c <service_lora_send+0x24c>)
 80089ec:	f003 0307 	and.w	r3, r3, #7
 80089f0:	fb01 2103 	mla	r1, r1, r3, r2
 80089f4:	484a      	ldr	r0, [pc, #296]	; (8008b20 <service_lora_send+0x250>)
 80089f6:	f008 f8bb 	bl	8010b70 <udrv_serial_log_printf>
 80089fa:	9b11      	ldr	r3, [sp, #68]	; 0x44
 80089fc:	4849      	ldr	r0, [pc, #292]	; (8008b24 <service_lora_send+0x254>)
 80089fe:	f8d3 10c4 	ldr.w	r1, [r3, #196]	; 0xc4
 8008a02:	f008 f8b5 	bl	8010b70 <udrv_serial_log_printf>
 8008a06:	9b11      	ldr	r3, [sp, #68]	; 0x44
 8008a08:	4847      	ldr	r0, [pc, #284]	; (8008b28 <service_lora_send+0x258>)
 8008a0a:	f993 1049 	ldrsb.w	r1, [r3, #73]	; 0x49
 8008a0e:	f008 f8af 	bl	8010b70 <udrv_serial_log_printf>
 8008a12:	9b11      	ldr	r3, [sp, #68]	; 0x44
 8008a14:	4845      	ldr	r0, [pc, #276]	; (8008b2c <service_lora_send+0x25c>)
 8008a16:	f993 1048 	ldrsb.w	r1, [r3, #72]	; 0x48
 8008a1a:	f008 f8a9 	bl	8010b70 <udrv_serial_log_printf>
 8008a1e:	9b11      	ldr	r3, [sp, #68]	; 0x44
 8008a20:	4843      	ldr	r0, [pc, #268]	; (8008b30 <service_lora_send+0x260>)
 8008a22:	68d9      	ldr	r1, [r3, #12]
 8008a24:	f008 f8a4 	bl	8010b70 <udrv_serial_log_printf>
 8008a28:	2d00      	cmp	r5, #0
 8008a2a:	d158      	bne.n	8008ade <service_lora_send+0x20e>
 8008a2c:	2c00      	cmp	r4, #0
 8008a2e:	bf0c      	ite	eq
 8008a30:	f06f 0002 	mvneq.w	r0, #2
 8008a34:	2000      	movne	r0, #0
 8008a36:	b01a      	add	sp, #104	; 0x68
 8008a38:	e8bd 81f0 	ldmia.w	sp!, {r4, r5, r6, r7, r8, pc}
 8008a3c:	f017 fbbe 	bl	80201bc <service_lora_get_class>
 8008a40:	2801      	cmp	r0, #1
 8008a42:	f47f af6d 	bne.w	8008920 <service_lora_send+0x50>
 8008a46:	4b3b      	ldr	r3, [pc, #236]	; (8008b34 <service_lora_send+0x264>)
 8008a48:	781b      	ldrb	r3, [r3, #0]
 8008a4a:	b17b      	cbz	r3, 8008a6c <service_lora_send+0x19c>
 8008a4c:	2b02      	cmp	r3, #2
 8008a4e:	f47f af67 	bne.w	8008920 <service_lora_send+0x50>
 8008a52:	4620      	mov	r0, r4
 8008a54:	f008 fa96 	bl	8010f84 <udrv_system_timer_stop>
 8008a58:	230c      	movs	r3, #12
 8008a5a:	f88d 302c 	strb.w	r3, [sp, #44]	; 0x2c
 8008a5e:	f017 fbf3 	bl	8020248 <service_lora_get_ping_slot_periodicity>
 8008a62:	f000 0007 	and.w	r0, r0, #7
 8008a66:	f88d 0030 	strb.w	r0, [sp, #48]	; 0x30
 8008a6a:	e002      	b.n	8008a72 <service_lora_send+0x1a2>
 8008a6c:	2309      	movs	r3, #9
 8008a6e:	f88d 302c 	strb.w	r3, [sp, #44]	; 0x2c
 8008a72:	a80b      	add	r0, sp, #44	; 0x2c
 8008a74:	f028 f84c 	bl	8030b10 <LoRaMacMlmeRequest>
 8008a78:	e752      	b.n	8008920 <service_lora_send+0x50>
 8008a7a:	f89d 3008 	ldrb.w	r3, [sp, #8]
 8008a7e:	f88d 301c 	strb.w	r3, [sp, #28]
 8008a82:	f89d 300b 	ldrb.w	r3, [sp, #11]
 8008a86:	f8ad 5024 	strh.w	r5, [sp, #36]	; 0x24
 8008a8a:	f8cd 8020 	str.w	r8, [sp, #32]
 8008a8e:	b153      	cbz	r3, 8008aa6 <service_lora_send+0x1d6>
 8008a90:	f89d 300c 	ldrb.w	r3, [sp, #12]
 8008a94:	b95b      	cbnz	r3, 8008aae <service_lora_send+0x1de>
 8008a96:	2300      	movs	r3, #0
 8008a98:	f88d 3018 	strb.w	r3, [sp, #24]
 8008a9c:	4b26      	ldr	r3, [pc, #152]	; (8008b38 <service_lora_send+0x268>)
 8008a9e:	2200      	movs	r2, #0
 8008aa0:	701a      	strb	r2, [r3, #0]
 8008aa2:	4634      	mov	r4, r6
 8008aa4:	e775      	b.n	8008992 <service_lora_send+0xc2>
 8008aa6:	f017 fb25 	bl	80200f4 <service_lora_get_cfm>
 8008aaa:	2800      	cmp	r0, #0
 8008aac:	d0f3      	beq.n	8008a96 <service_lora_send+0x1c6>
 8008aae:	2301      	movs	r3, #1
 8008ab0:	e7f2      	b.n	8008a98 <service_lora_send+0x1c8>
 8008ab2:	2e02      	cmp	r6, #2
 8008ab4:	7839      	ldrb	r1, [r7, #0]
 8008ab6:	d109      	bne.n	8008acc <service_lora_send+0x1fc>
 8008ab8:	2330      	movs	r3, #48	; 0x30
 8008aba:	fbb1 f0f3 	udiv	r0, r1, r3
 8008abe:	fb03 1110 	mls	r1, r3, r0, r1
 8008ac2:	b2cb      	uxtb	r3, r1
 8008ac4:	f8d2 20c4 	ldr.w	r2, [r2, #196]	; 0xc4
 8008ac8:	491c      	ldr	r1, [pc, #112]	; (8008b3c <service_lora_send+0x26c>)
 8008aca:	e791      	b.n	80089f0 <service_lora_send+0x120>
 8008acc:	fb08 2201 	mla	r2, r8, r1, r2
 8008ad0:	f8d2 1394 	ldr.w	r1, [r2, #916]	; 0x394
 8008ad4:	2900      	cmp	r1, #0
 8008ad6:	d18d      	bne.n	80089f4 <service_lora_send+0x124>
 8008ad8:	f8d2 1390 	ldr.w	r1, [r2, #912]	; 0x390
 8008adc:	e78a      	b.n	80089f4 <service_lora_send+0x124>
 8008ade:	f1a5 030e 	sub.w	r3, r5, #14
 8008ae2:	b2db      	uxtb	r3, r3
 8008ae4:	2b01      	cmp	r3, #1
 8008ae6:	f67f af07 	bls.w	80088f8 <service_lora_send+0x28>
 8008aea:	2d0b      	cmp	r5, #11
 8008aec:	d107      	bne.n	8008afe <service_lora_send+0x22e>
 8008aee:	990a      	ldr	r1, [sp, #40]	; 0x28
 8008af0:	4813      	ldr	r0, [pc, #76]	; (8008b40 <service_lora_send+0x270>)
 8008af2:	f008 f83d 	bl	8010b70 <udrv_serial_log_printf>
 8008af6:	e6ff      	b.n	80088f8 <service_lora_send+0x28>
 8008af8:	f06f 000b 	mvn.w	r0, #11
 8008afc:	e79b      	b.n	8008a36 <service_lora_send+0x166>
 8008afe:	f06f 0006 	mvn.w	r0, #6
 8008b02:	e798      	b.n	8008a36 <service_lora_send+0x166>
 8008b04:	20007a01 	.word	0x20007a01
 8008b08:	08017754 	.word	0x08017754
 8008b0c:	08017347 	.word	0x08017347
 8008b10:	20007744 	.word	0x20007744
 8008b14:	200083f5 	.word	0x200083f5
 8008b18:	080172ef 	.word	0x080172ef
 8008b1c:	000927c0 	.word	0x000927c0
 8008b20:	080172ec 	.word	0x080172ec
 8008b24:	080172fe 	.word	0x080172fe
 8008b28:	08017310 	.word	0x08017310
 8008b2c:	08017326 	.word	0x08017326
 8008b30:	0801733b 	.word	0x0801733b
 8008b34:	200077c0 	.word	0x200077c0
 8008b38:	200078c7 	.word	0x200078c7
 8008b3c:	00030d40 	.word	0x00030d40
 8008b40:	080172d4 	.word	0x080172d4

08008b44 <service_lora_send_null>:
 8008b44:	b51f      	push	{r0, r1, r2, r3, r4, lr}
 8008b46:	2301      	movs	r3, #1
 8008b48:	f88d 3008 	strb.w	r3, [sp, #8]
 8008b4c:	f88d 3009 	strb.w	r3, [sp, #9]
 8008b50:	2100      	movs	r1, #0
 8008b52:	2303      	movs	r3, #3
 8008b54:	f88d 300a 	strb.w	r3, [sp, #10]
 8008b58:	f88d 100b 	strb.w	r1, [sp, #11]
 8008b5c:	9100      	str	r1, [sp, #0]
 8008b5e:	ab04      	add	r3, sp, #16
 8008b60:	e913 000c 	ldmdb	r3, {r2, r3}
 8008b64:	4802      	ldr	r0, [pc, #8]	; (8008b70 <service_lora_send_null+0x2c>)
 8008b66:	f7ff feb3 	bl	80088d0 <service_lora_send>
 8008b6a:	b005      	add	sp, #20
 8008b6c:	f85d fb04 	ldr.w	pc, [sp], #4
 8008b70:	0801782c 	.word	0x0801782c

08008b74 <McpsIndication>:
 8008b74:	e92d 4ff0 	stmdb	sp!, {r4, r5, r6, r7, r8, r9, sl, fp, lr}
 8008b78:	7843      	ldrb	r3, [r0, #1]
 8008b7a:	b08d      	sub	sp, #52	; 0x34
 8008b7c:	4604      	mov	r4, r0
 8008b7e:	2b00      	cmp	r3, #0
 8008b80:	f040 80a7 	bne.w	8008cd2 <McpsIndication+0x15e>
 8008b84:	f9b0 000e 	ldrsh.w	r0, [r0, #14]
 8008b88:	4f77      	ldr	r7, [pc, #476]	; (8008d68 <McpsIndication+0x1f4>)
 8008b8a:	4e78      	ldr	r6, [pc, #480]	; (8008d6c <McpsIndication+0x1f8>)
 8008b8c:	7c23      	ldrb	r3, [r4, #16]
 8008b8e:	8038      	strh	r0, [r7, #0]
 8008b90:	b240      	sxtb	r0, r0
 8008b92:	7033      	strb	r3, [r6, #0]
 8008b94:	f001 ff12 	bl	800a9bc <service_lora_arssi_rx_callback>
 8008b98:	7b23      	ldrb	r3, [r4, #12]
 8008b9a:	2b00      	cmp	r3, #0
 8008b9c:	d03b      	beq.n	8008c16 <McpsIndication+0xa2>
 8008b9e:	7c60      	ldrb	r0, [r4, #17]
 8008ba0:	4973      	ldr	r1, [pc, #460]	; (8008d70 <McpsIndication+0x1fc>)
 8008ba2:	f9b7 2000 	ldrsh.w	r2, [r7]
 8008ba6:	f851 1020 	ldr.w	r1, [r1, r0, lsl #2]
 8008baa:	f996 3000 	ldrsb.w	r3, [r6]
 8008bae:	4871      	ldr	r0, [pc, #452]	; (8008d74 <McpsIndication+0x200>)
 8008bb0:	f8df 91c4 	ldr.w	r9, [pc, #452]	; 8008d78 <McpsIndication+0x204>
 8008bb4:	f8df a1c4 	ldr.w	sl, [pc, #452]	; 8008d7c <McpsIndication+0x208>
 8008bb8:	f007 ffda 	bl	8010b70 <udrv_serial_log_printf>
 8008bbc:	78a3      	ldrb	r3, [r4, #2]
 8008bbe:	2b01      	cmp	r3, #1
 8008bc0:	bf0c      	ite	eq
 8008bc2:	486f      	ldreq	r0, [pc, #444]	; (8008d80 <McpsIndication+0x20c>)
 8008bc4:	486f      	ldrne	r0, [pc, #444]	; (8008d84 <McpsIndication+0x210>)
 8008bc6:	f007 ffd3 	bl	8010b70 <udrv_serial_log_printf>
 8008bca:	78e1      	ldrb	r1, [r4, #3]
 8008bcc:	486e      	ldr	r0, [pc, #440]	; (8008d88 <McpsIndication+0x214>)
 8008bce:	f007 ffcf 	bl	8010b70 <udrv_serial_log_printf>
 8008bd2:	f04f 0800 	mov.w	r8, #0
 8008bd6:	fa5f fb88 	uxtb.w	fp, r8
 8008bda:	4658      	mov	r0, fp
 8008bdc:	f019 fe78 	bl	80228d0 <service_nvm_get_mode_type_from_nvm>
 8008be0:	4605      	mov	r5, r0
 8008be2:	b940      	cbnz	r0, 8008bf6 <McpsIndication+0x82>
 8008be4:	7b22      	ldrb	r2, [r4, #12]
 8008be6:	b2eb      	uxtb	r3, r5
 8008be8:	429a      	cmp	r2, r3
 8008bea:	f200 80a3 	bhi.w	8008d34 <McpsIndication+0x1c0>
 8008bee:	4651      	mov	r1, sl
 8008bf0:	4658      	mov	r0, fp
 8008bf2:	f007 ff85 	bl	8010b00 <udrv_serial_printf>
 8008bf6:	f108 0801 	add.w	r8, r8, #1
 8008bfa:	f1b8 0f03 	cmp.w	r8, #3
 8008bfe:	d1ea      	bne.n	8008bd6 <McpsIndication+0x62>
 8008c00:	7b22      	ldrb	r2, [r4, #12]
 8008c02:	68a1      	ldr	r1, [r4, #8]
 8008c04:	4861      	ldr	r0, [pc, #388]	; (8008d8c <McpsIndication+0x218>)
 8008c06:	f00b fa69 	bl	80140dc <memcpy>
 8008c0a:	4b61      	ldr	r3, [pc, #388]	; (8008d90 <McpsIndication+0x21c>)
 8008c0c:	7b22      	ldrb	r2, [r4, #12]
 8008c0e:	701a      	strb	r2, [r3, #0]
 8008c10:	4b60      	ldr	r3, [pc, #384]	; (8008d94 <McpsIndication+0x220>)
 8008c12:	78e2      	ldrb	r2, [r4, #3]
 8008c14:	701a      	strb	r2, [r3, #0]
 8008c16:	7963      	ldrb	r3, [r4, #5]
 8008c18:	2b01      	cmp	r3, #1
 8008c1a:	f000 8093 	beq.w	8008d44 <McpsIndication+0x1d0>
 8008c1e:	7823      	ldrb	r3, [r4, #0]
 8008c20:	2b01      	cmp	r3, #1
 8008c22:	d102      	bne.n	8008c2a <McpsIndication+0xb6>
 8008c24:	4b5c      	ldr	r3, [pc, #368]	; (8008d98 <McpsIndication+0x224>)
 8008c26:	2201      	movs	r2, #1
 8008c28:	701a      	strb	r2, [r3, #0]
 8008c2a:	4b5c      	ldr	r3, [pc, #368]	; (8008d9c <McpsIndication+0x228>)
 8008c2c:	781a      	ldrb	r2, [r3, #0]
 8008c2e:	b32a      	cbz	r2, 8008c7c <McpsIndication+0x108>
 8008c30:	f8df 916c 	ldr.w	r9, [pc, #364]	; 8008da0 <McpsIndication+0x22c>
 8008c34:	2200      	movs	r2, #0
 8008c36:	701a      	strb	r2, [r3, #0]
 8008c38:	f899 3000 	ldrb.w	r3, [r9]
 8008c3c:	b9f3      	cbnz	r3, 8008c7c <McpsIndication+0x108>
 8008c3e:	f996 3000 	ldrsb.w	r3, [r6]
 8008c42:	4d58      	ldr	r5, [pc, #352]	; (8008da4 <McpsIndication+0x230>)
 8008c44:	f8df 8160 	ldr.w	r8, [pc, #352]	; 8008da8 <McpsIndication+0x234>
 8008c48:	9300      	str	r3, [sp, #0]
 8008c4a:	782a      	ldrb	r2, [r5, #0]
 8008c4c:	f9b7 3000 	ldrsh.w	r3, [r7]
 8008c50:	f898 1000 	ldrb.w	r1, [r8]
 8008c54:	4855      	ldr	r0, [pc, #340]	; (8008dac <McpsIndication+0x238>)
 8008c56:	f007 ff8b 	bl	8010b70 <udrv_serial_log_printf>
 8008c5a:	4b55      	ldr	r3, [pc, #340]	; (8008db0 <McpsIndication+0x23c>)
 8008c5c:	681b      	ldr	r3, [r3, #0]
 8008c5e:	b16b      	cbz	r3, 8008c7c <McpsIndication+0x108>
 8008c60:	4854      	ldr	r0, [pc, #336]	; (8008db4 <McpsIndication+0x240>)
 8008c62:	f899 2000 	ldrb.w	r2, [r9]
 8008c66:	7002      	strb	r2, [r0, #0]
 8008c68:	f898 2000 	ldrb.w	r2, [r8]
 8008c6c:	7042      	strb	r2, [r0, #1]
 8008c6e:	782a      	ldrb	r2, [r5, #0]
 8008c70:	7082      	strb	r2, [r0, #2]
 8008c72:	883a      	ldrh	r2, [r7, #0]
 8008c74:	8082      	strh	r2, [r0, #4]
 8008c76:	7832      	ldrb	r2, [r6, #0]
 8008c78:	7182      	strb	r2, [r0, #6]
 8008c7a:	4798      	blx	r3
 8008c7c:	78e2      	ldrb	r2, [r4, #3]
 8008c7e:	2ae0      	cmp	r2, #224	; 0xe0
 8008c80:	d011      	beq.n	8008ca6 <McpsIndication+0x132>
 8008c82:	4b4d      	ldr	r3, [pc, #308]	; (8008db8 <McpsIndication+0x244>)
 8008c84:	681b      	ldr	r3, [r3, #0]
 8008c86:	b173      	cbz	r3, 8008ca6 <McpsIndication+0x132>
 8008c88:	484c      	ldr	r0, [pc, #304]	; (8008dbc <McpsIndication+0x248>)
 8008c8a:	7002      	strb	r2, [r0, #0]
 8008c8c:	7922      	ldrb	r2, [r4, #4]
 8008c8e:	7042      	strb	r2, [r0, #1]
 8008c90:	68a2      	ldr	r2, [r4, #8]
 8008c92:	6042      	str	r2, [r0, #4]
 8008c94:	7b22      	ldrb	r2, [r4, #12]
 8008c96:	7202      	strb	r2, [r0, #8]
 8008c98:	89e2      	ldrh	r2, [r4, #14]
 8008c9a:	8142      	strh	r2, [r0, #10]
 8008c9c:	7c22      	ldrb	r2, [r4, #16]
 8008c9e:	7302      	strb	r2, [r0, #12]
 8008ca0:	6962      	ldr	r2, [r4, #20]
 8008ca2:	6102      	str	r2, [r0, #16]
 8008ca4:	4798      	blx	r3
 8008ca6:	4621      	mov	r1, r4
 8008ca8:	2001      	movs	r0, #1
 8008caa:	f018 fa55 	bl	8021158 <LmHandlerPackagesNotify>
 8008cae:	4844      	ldr	r0, [pc, #272]	; (8008dc0 <McpsIndication+0x24c>)
 8008cb0:	f890 3102 	ldrb.w	r3, [r0, #258]	; 0x102
 8008cb4:	b16b      	cbz	r3, 8008cd2 <McpsIndication+0x15e>
 8008cb6:	2300      	movs	r3, #0
 8008cb8:	f880 3102 	strb.w	r3, [r0, #258]	; 0x102
 8008cbc:	f88d 300b 	strb.w	r3, [sp, #11]
 8008cc0:	9300      	str	r3, [sp, #0]
 8008cc2:	f88d 3009 	strb.w	r3, [sp, #9]
 8008cc6:	e9dd 2302 	ldrd	r2, r3, [sp, #8]
 8008cca:	f8b0 1100 	ldrh.w	r1, [r0, #256]	; 0x100
 8008cce:	f7ff fdff 	bl	80088d0 <service_lora_send>
 8008cd2:	f7ff fa5c 	bl	800818e <service_get_debug_level>
 8008cd6:	b350      	cbz	r0, 8008d2e <McpsIndication+0x1ba>
 8008cd8:	2334      	movs	r3, #52	; 0x34
 8008cda:	a802      	add	r0, sp, #8
 8008cdc:	f88d 3008 	strb.w	r3, [sp, #8]
 8008ce0:	f027 f8ce 	bl	802fe80 <LoRaMacMibGetRequestConfirm>
 8008ce4:	a802      	add	r0, sp, #8
 8008ce6:	f027 f8cb 	bl	802fe80 <LoRaMacMibGetRequestConfirm>
 8008cea:	2800      	cmp	r0, #0
 8008cec:	d138      	bne.n	8008d60 <McpsIndication+0x1ec>
 8008cee:	7c63      	ldrb	r3, [r4, #17]
 8008cf0:	bb73      	cbnz	r3, 8008d50 <McpsIndication+0x1dc>
 8008cf2:	4834      	ldr	r0, [pc, #208]	; (8008dc4 <McpsIndication+0x250>)
 8008cf4:	f007 ff3c 	bl	8010b70 <udrv_serial_log_printf>
 8008cf8:	69a1      	ldr	r1, [r4, #24]
 8008cfa:	4833      	ldr	r0, [pc, #204]	; (8008dc8 <McpsIndication+0x254>)
 8008cfc:	f007 ff38 	bl	8010b70 <udrv_serial_log_printf>
 8008d00:	78e1      	ldrb	r1, [r4, #3]
 8008d02:	4832      	ldr	r0, [pc, #200]	; (8008dcc <McpsIndication+0x258>)
 8008d04:	f007 ff34 	bl	8010b70 <udrv_serial_log_printf>
 8008d08:	f9b4 100e 	ldrsh.w	r1, [r4, #14]
 8008d0c:	4830      	ldr	r0, [pc, #192]	; (8008dd0 <McpsIndication+0x25c>)
 8008d0e:	f007 ff2f 	bl	8010b70 <udrv_serial_log_printf>
 8008d12:	f994 1010 	ldrsb.w	r1, [r4, #16]
 8008d16:	482f      	ldr	r0, [pc, #188]	; (8008dd4 <McpsIndication+0x260>)
 8008d18:	f007 ff2a 	bl	8010b70 <udrv_serial_log_printf>
 8008d1c:	7921      	ldrb	r1, [r4, #4]
 8008d1e:	482e      	ldr	r0, [pc, #184]	; (8008dd8 <McpsIndication+0x264>)
 8008d20:	f007 ff26 	bl	8010b70 <udrv_serial_log_printf>
 8008d24:	9b03      	ldr	r3, [sp, #12]
 8008d26:	482d      	ldr	r0, [pc, #180]	; (8008ddc <McpsIndication+0x268>)
 8008d28:	6999      	ldr	r1, [r3, #24]
 8008d2a:	f007 ff21 	bl	8010b70 <udrv_serial_log_printf>
 8008d2e:	b00d      	add	sp, #52	; 0x34
 8008d30:	e8bd 8ff0 	ldmia.w	sp!, {r4, r5, r6, r7, r8, r9, sl, fp, pc}
 8008d34:	68a2      	ldr	r2, [r4, #8]
 8008d36:	4649      	mov	r1, r9
 8008d38:	5cd2      	ldrb	r2, [r2, r3]
 8008d3a:	4658      	mov	r0, fp
 8008d3c:	f007 fee0 	bl	8010b00 <udrv_serial_printf>
 8008d40:	3501      	adds	r5, #1
 8008d42:	e74f      	b.n	8008be4 <McpsIndication+0x70>
 8008d44:	f017 fa3a 	bl	80201bc <service_lora_get_class>
 8008d48:	2800      	cmp	r0, #0
 8008d4a:	f47f af68 	bne.w	8008c1e <McpsIndication+0xaa>
 8008d4e:	e769      	b.n	8008c24 <McpsIndication+0xb0>
 8008d50:	2b01      	cmp	r3, #1
 8008d52:	d101      	bne.n	8008d58 <McpsIndication+0x1e4>
 8008d54:	4822      	ldr	r0, [pc, #136]	; (8008de0 <McpsIndication+0x26c>)
 8008d56:	e7cd      	b.n	8008cf4 <McpsIndication+0x180>
 8008d58:	2b02      	cmp	r3, #2
 8008d5a:	d1cd      	bne.n	8008cf8 <McpsIndication+0x184>
 8008d5c:	4821      	ldr	r0, [pc, #132]	; (8008de4 <McpsIndication+0x270>)
 8008d5e:	e7c9      	b.n	8008cf4 <McpsIndication+0x180>
 8008d60:	4821      	ldr	r0, [pc, #132]	; (8008de8 <McpsIndication+0x274>)
 8008d62:	f007 ff05 	bl	8010b70 <udrv_serial_log_printf>
 8008d66:	e7e2      	b.n	8008d2e <McpsIndication+0x1ba>
 8008d68:	200079e8 	.word	0x200079e8
 8008d6c:	20007a00 	.word	0x20007a00
 8008d70:	080177d4 	.word	0x080177d4
 8008d74:	08017399 	.word	0x08017399
 8008d78:	080173be 	.word	0x080173be
 8008d7c:	0801782a 	.word	0x0801782a
 8008d80:	080173aa 	.word	0x080173aa
 8008d84:	080173b5 	.word	0x080173b5
 8008d88:	08017ae9 	.word	0x08017ae9
 8008d8c:	200078c8 	.word	0x200078c8
 8008d90:	200079c8 	.word	0x200079c8
 8008d94:	200079c9 	.word	0x200079c9
 8008d98:	20007748 	.word	0x20007748
 8008d9c:	200079d2 	.word	0x200079d2
 8008da0:	200079d3 	.word	0x200079d3
 8008da4:	2000779c 	.word	0x2000779c
 8008da8:	20007741 	.word	0x20007741
 8008dac:	080173c3 	.word	0x080173c3
 8008db0:	200079f0 	.word	0x200079f0
 8008db4:	200079ca 	.word	0x200079ca
 8008db8:	200079f4 	.word	0x200079f4
 8008dbc:	200079d4 	.word	0x200079d4
 8008dc0:	200077c2 	.word	0x200077c2
 8008dc4:	080173e2 	.word	0x080173e2
 8008dc8:	0801743f 	.word	0x0801743f
 8008dcc:	08017451 	.word	0x08017451
 8008dd0:	0801745b 	.word	0x0801745b
 8008dd4:	08017465 	.word	0x08017465
 8008dd8:	0801746e 	.word	0x0801746e
 8008ddc:	0801747e 	.word	0x0801747e
 8008de0:	080173ff 	.word	0x080173ff
 8008de4:	0801741c 	.word	0x0801741c
 8008de8:	0801748c 	.word	0x0801748c

08008dec <service_lora_set_chs>:
 8008dec:	b5f0      	push	{r4, r5, r6, r7, lr}
 8008dee:	b091      	sub	sp, #68	; 0x44
 8008df0:	2600      	movs	r6, #0
 8008df2:	ac03      	add	r4, sp, #12
 8008df4:	e9c4 6601 	strd	r6, r6, [r4, #4]
 8008df8:	4605      	mov	r5, r0
 8008dfa:	9603      	str	r6, [sp, #12]
 8008dfc:	f017 fab1 	bl	8020362 <service_lora_get_band>
 8008e00:	1e43      	subs	r3, r0, #1
 8008e02:	b2db      	uxtb	r3, r3
 8008e04:	2b01      	cmp	r3, #1
 8008e06:	d90a      	bls.n	8008e1e <service_lora_set_chs+0x32>
 8008e08:	2808      	cmp	r0, #8
 8008e0a:	d008      	beq.n	8008e1e <service_lora_set_chs+0x32>
 8008e0c:	2805      	cmp	r0, #5
 8008e0e:	d06a      	beq.n	8008ee6 <service_lora_set_chs+0xfa>
 8008e10:	280a      	cmp	r0, #10
 8008e12:	d004      	beq.n	8008e1e <service_lora_set_chs+0x32>
 8008e14:	f06f 0406 	mvn.w	r4, #6
 8008e18:	4620      	mov	r0, r4
 8008e1a:	b011      	add	sp, #68	; 0x44
 8008e1c:	bdf0      	pop	{r4, r5, r6, r7, pc}
 8008e1e:	bb15      	cbnz	r5, 8008e66 <service_lora_set_chs+0x7a>
 8008e20:	4620      	mov	r0, r4
 8008e22:	f8ad 5018 	strh.w	r5, [sp, #24]
 8008e26:	f019 ff7b 	bl	8022d20 <service_nvm_get_mask_from_nvm>
 8008e2a:	2800      	cmp	r0, #0
 8008e2c:	d1f2      	bne.n	8008e14 <service_lora_set_chs+0x28>
 8008e2e:	f8bd 3018 	ldrh.w	r3, [sp, #24]
 8008e32:	462a      	mov	r2, r5
 8008e34:	2101      	movs	r1, #1
 8008e36:	f814 0b01 	ldrb.w	r0, [r4], #1
 8008e3a:	b120      	cbz	r0, 8008e46 <service_lora_set_chs+0x5a>
 8008e3c:	fa01 f205 	lsl.w	r2, r1, r5
 8008e40:	4313      	orrs	r3, r2
 8008e42:	b29b      	uxth	r3, r3
 8008e44:	2201      	movs	r2, #1
 8008e46:	3501      	adds	r5, #1
 8008e48:	2d0c      	cmp	r5, #12
 8008e4a:	d1f4      	bne.n	8008e36 <service_lora_set_chs+0x4a>
 8008e4c:	b10a      	cbz	r2, 8008e52 <service_lora_set_chs+0x66>
 8008e4e:	f8ad 3018 	strh.w	r3, [sp, #24]
 8008e52:	2100      	movs	r1, #0
 8008e54:	a806      	add	r0, sp, #24
 8008e56:	f7ff fb5a 	bl	800850e <service_lora_set_mask>
 8008e5a:	4604      	mov	r4, r0
 8008e5c:	2800      	cmp	r0, #0
 8008e5e:	d1d9      	bne.n	8008e14 <service_lora_set_chs+0x28>
 8008e60:	f01a fb20 	bl	80234a4 <service_nvm_set_chs_to_nvm>
 8008e64:	e7d8      	b.n	8008e18 <service_lora_set_chs+0x2c>
 8008e66:	231a      	movs	r3, #26
 8008e68:	a901      	add	r1, sp, #4
 8008e6a:	f88d 3004 	strb.w	r3, [sp, #4]
 8008e6e:	f02c fc7c 	bl	803576a <RegionGetPhyParam>
 8008e72:	231e      	movs	r3, #30
 8008e74:	9000      	str	r0, [sp, #0]
 8008e76:	b2c6      	uxtb	r6, r0
 8008e78:	a806      	add	r0, sp, #24
 8008e7a:	f88d 3018 	strb.w	r3, [sp, #24]
 8008e7e:	f026 ffff 	bl	802fe80 <LoRaMacMibGetRequestConfirm>
 8008e82:	9b07      	ldr	r3, [sp, #28]
 8008e84:	2200      	movs	r2, #0
 8008e86:	f1a3 010c 	sub.w	r1, r3, #12
 8008e8a:	200c      	movs	r0, #12
 8008e8c:	b2d3      	uxtb	r3, r2
 8008e8e:	429e      	cmp	r6, r3
 8008e90:	d803      	bhi.n	8008e9a <service_lora_set_chs+0xae>
 8008e92:	d159      	bne.n	8008f48 <service_lora_set_chs+0x15c>
 8008e94:	f06f 0402 	mvn.w	r4, #2
 8008e98:	e7be      	b.n	8008e18 <service_lora_set_chs+0x2c>
 8008e9a:	3201      	adds	r2, #1
 8008e9c:	fb00 f702 	mul.w	r7, r0, r2
 8008ea0:	59cf      	ldr	r7, [r1, r7]
 8008ea2:	42af      	cmp	r7, r5
 8008ea4:	d1f2      	bne.n	8008e8c <service_lora_set_chs+0xa0>
 8008ea6:	091a      	lsrs	r2, r3, #4
 8008ea8:	a910      	add	r1, sp, #64	; 0x40
 8008eaa:	eb01 0242 	add.w	r2, r1, r2, lsl #1
 8008eae:	f003 030f 	and.w	r3, r3, #15
 8008eb2:	2101      	movs	r1, #1
 8008eb4:	fa01 f303 	lsl.w	r3, r1, r3
 8008eb8:	f822 3c34 	strh.w	r3, [r2, #-52]
 8008ebc:	a806      	add	r0, sp, #24
 8008ebe:	2323      	movs	r3, #35	; 0x23
 8008ec0:	f88d 3018 	strb.w	r3, [sp, #24]
 8008ec4:	9407      	str	r4, [sp, #28]
 8008ec6:	f027 f929 	bl	803011c <LoRaMacMibSetRequestConfirm>
 8008eca:	2800      	cmp	r0, #0
 8008ecc:	d1a2      	bne.n	8008e14 <service_lora_set_chs+0x28>
 8008ece:	2324      	movs	r3, #36	; 0x24
 8008ed0:	a806      	add	r0, sp, #24
 8008ed2:	9407      	str	r4, [sp, #28]
 8008ed4:	f88d 3018 	strb.w	r3, [sp, #24]
 8008ed8:	f027 f920 	bl	803011c <LoRaMacMibSetRequestConfirm>
 8008edc:	4604      	mov	r4, r0
 8008ede:	2800      	cmp	r0, #0
 8008ee0:	d198      	bne.n	8008e14 <service_lora_set_chs+0x28>
 8008ee2:	4628      	mov	r0, r5
 8008ee4:	e7bc      	b.n	8008e60 <service_lora_set_chs+0x74>
 8008ee6:	b9cd      	cbnz	r5, 8008f1c <service_lora_set_chs+0x130>
 8008ee8:	2307      	movs	r3, #7
 8008eea:	f8ad 300c 	strh.w	r3, [sp, #12]
 8008eee:	a806      	add	r0, sp, #24
 8008ef0:	2323      	movs	r3, #35	; 0x23
 8008ef2:	f88d 3018 	strb.w	r3, [sp, #24]
 8008ef6:	9407      	str	r4, [sp, #28]
 8008ef8:	f027 f910 	bl	803011c <LoRaMacMibSetRequestConfirm>
 8008efc:	2800      	cmp	r0, #0
 8008efe:	d189      	bne.n	8008e14 <service_lora_set_chs+0x28>
 8008f00:	2324      	movs	r3, #36	; 0x24
 8008f02:	a806      	add	r0, sp, #24
 8008f04:	f88d 3018 	strb.w	r3, [sp, #24]
 8008f08:	9407      	str	r4, [sp, #28]
 8008f0a:	f027 f907 	bl	803011c <LoRaMacMibSetRequestConfirm>
 8008f0e:	2800      	cmp	r0, #0
 8008f10:	d180      	bne.n	8008e14 <service_lora_set_chs+0x28>
 8008f12:	4628      	mov	r0, r5
 8008f14:	f01a fac6 	bl	80234a4 <service_nvm_set_chs_to_nvm>
 8008f18:	4604      	mov	r4, r0
 8008f1a:	e77d      	b.n	8008e18 <service_lora_set_chs+0x2c>
 8008f1c:	231e      	movs	r3, #30
 8008f1e:	a806      	add	r0, sp, #24
 8008f20:	f88d 3018 	strb.w	r3, [sp, #24]
 8008f24:	f026 ffac 	bl	802fe80 <LoRaMacMibGetRequestConfirm>
 8008f28:	9907      	ldr	r1, [sp, #28]
 8008f2a:	4633      	mov	r3, r6
 8008f2c:	200c      	movs	r0, #12
 8008f2e:	fb00 f203 	mul.w	r2, r0, r3
 8008f32:	588a      	ldr	r2, [r1, r2]
 8008f34:	42aa      	cmp	r2, r5
 8008f36:	d103      	bne.n	8008f40 <service_lora_set_chs+0x154>
 8008f38:	2201      	movs	r2, #1
 8008f3a:	fa02 f303 	lsl.w	r3, r2, r3
 8008f3e:	e7d4      	b.n	8008eea <service_lora_set_chs+0xfe>
 8008f40:	3301      	adds	r3, #1
 8008f42:	2b04      	cmp	r3, #4
 8008f44:	d1f3      	bne.n	8008f2e <service_lora_set_chs+0x142>
 8008f46:	e7a5      	b.n	8008e94 <service_lora_set_chs+0xa8>
 8008f48:	2400      	movs	r4, #0
 8008f4a:	e765      	b.n	8008e18 <service_lora_set_chs+0x2c>

08008f4c <service_lora_get_beacon_time>:
 8008f4c:	4b01      	ldr	r3, [pc, #4]	; (8008f54 <service_lora_get_beacon_time+0x8>)
 8008f4e:	6818      	ldr	r0, [r3, #0]
 8008f50:	4770      	bx	lr
 8008f52:	bf00      	nop
 8008f54:	200077b8 	.word	0x200077b8

08008f58 <service_lora_get_rssi>:
 8008f58:	4b01      	ldr	r3, [pc, #4]	; (8008f60 <service_lora_get_rssi+0x8>)
 8008f5a:	f9b3 0000 	ldrsh.w	r0, [r3]
 8008f5e:	4770      	bx	lr
 8008f60:	200079e8 	.word	0x200079e8

08008f64 <service_lora_get_snr>:
 8008f64:	4b01      	ldr	r3, [pc, #4]	; (8008f6c <service_lora_get_snr+0x8>)
 8008f66:	f993 0000 	ldrsb.w	r0, [r3]
 8008f6a:	4770      	bx	lr
 8008f6c:	20007a00 	.word	0x20007a00

08008f70 <service_lora_get_last_recv>:
 8008f70:	b570      	push	{r4, r5, r6, lr}
 8008f72:	4e09      	ldr	r6, [pc, #36]	; (8008f98 <service_lora_get_last_recv+0x28>)
 8008f74:	7834      	ldrb	r4, [r6, #0]
 8008f76:	4294      	cmp	r4, r2
 8008f78:	bf28      	it	cs
 8008f7a:	4614      	movcs	r4, r2
 8008f7c:	4605      	mov	r5, r0
 8008f7e:	4622      	mov	r2, r4
 8008f80:	4608      	mov	r0, r1
 8008f82:	4906      	ldr	r1, [pc, #24]	; (8008f9c <service_lora_get_last_recv+0x2c>)
 8008f84:	f00b f8aa 	bl	80140dc <memcpy>
 8008f88:	4b05      	ldr	r3, [pc, #20]	; (8008fa0 <service_lora_get_last_recv+0x30>)
 8008f8a:	781a      	ldrb	r2, [r3, #0]
 8008f8c:	702a      	strb	r2, [r5, #0]
 8008f8e:	2200      	movs	r2, #0
 8008f90:	701a      	strb	r2, [r3, #0]
 8008f92:	7032      	strb	r2, [r6, #0]
 8008f94:	4620      	mov	r0, r4
 8008f96:	bd70      	pop	{r4, r5, r6, pc}
 8008f98:	200079c8 	.word	0x200079c8
 8008f9c:	200078c8 	.word	0x200078c8
 8008fa0:	200079c9 	.word	0x200079c9

08008fa4 <service_lora_get_cfs>:
 8008fa4:	4b01      	ldr	r3, [pc, #4]	; (8008fac <service_lora_get_cfs+0x8>)
 8008fa6:	7818      	ldrb	r0, [r3, #0]
 8008fa8:	4770      	bx	lr
 8008faa:	bf00      	nop
 8008fac:	200078c7 	.word	0x200078c7

08008fb0 <service_lora_set_dr>:
 8008fb0:	b530      	push	{r4, r5, lr}
 8008fb2:	b08b      	sub	sp, #44	; 0x2c
 8008fb4:	460c      	mov	r4, r1
 8008fb6:	4605      	mov	r5, r0
 8008fb8:	f017 f9d3 	bl	8020362 <service_lora_get_band>
 8008fbc:	f017 f9e5 	bl	802038a <service_lora_region_isActive>
 8008fc0:	b1b8      	cbz	r0, 8008ff2 <service_lora_set_dr+0x42>
 8008fc2:	232d      	movs	r3, #45	; 0x2d
 8008fc4:	4668      	mov	r0, sp
 8008fc6:	f88d 3000 	strb.w	r3, [sp]
 8008fca:	f88d 5004 	strb.w	r5, [sp, #4]
 8008fce:	f027 f8a5 	bl	803011c <LoRaMacMibSetRequestConfirm>
 8008fd2:	b938      	cbnz	r0, 8008fe4 <service_lora_set_dr+0x34>
 8008fd4:	4b09      	ldr	r3, [pc, #36]	; (8008ffc <service_lora_set_dr+0x4c>)
 8008fd6:	609d      	str	r5, [r3, #8]
 8008fd8:	b174      	cbz	r4, 8008ff8 <service_lora_set_dr+0x48>
 8008fda:	4628      	mov	r0, r5
 8008fdc:	f01a f848 	bl	8023070 <service_nvm_set_dr_to_nvm>
 8008fe0:	b00b      	add	sp, #44	; 0x2c
 8008fe2:	bd30      	pop	{r4, r5, pc}
 8008fe4:	2803      	cmp	r0, #3
 8008fe6:	bf0c      	ite	eq
 8008fe8:	f06f 0002 	mvneq.w	r0, #2
 8008fec:	f06f 0006 	mvnne.w	r0, #6
 8008ff0:	e7f6      	b.n	8008fe0 <service_lora_set_dr+0x30>
 8008ff2:	f06f 0010 	mvn.w	r0, #16
 8008ff6:	e7f3      	b.n	8008fe0 <service_lora_set_dr+0x30>
 8008ff8:	4620      	mov	r0, r4
 8008ffa:	e7f1      	b.n	8008fe0 <service_lora_set_dr+0x30>
 8008ffc:	20006098 	.word	0x20006098

08009000 <MlmeConfirm>:
 8009000:	b5f0      	push	{r4, r5, r6, r7, lr}
 8009002:	4604      	mov	r4, r0
 8009004:	4601      	mov	r1, r0
 8009006:	b08b      	sub	sp, #44	; 0x2c
 8009008:	2002      	movs	r0, #2
 800900a:	f018 f8a5 	bl	8021158 <LmHandlerPackagesNotify>
 800900e:	7823      	ldrb	r3, [r4, #0]
 8009010:	3b01      	subs	r3, #1
 8009012:	2b0b      	cmp	r3, #11
 8009014:	d84a      	bhi.n	80090ac <MlmeConfirm+0xac>
 8009016:	e8df f013 	tbh	[pc, r3, lsl #1]
 800901a:	000c      	.short	0x000c
 800901c:	00490049 	.word	0x00490049
 8009020:	00d10049 	.word	0x00d10049
 8009024:	00490049 	.word	0x00490049
 8009028:	008c0049 	.word	0x008c0049
 800902c:	00f40049 	.word	0x00f40049
 8009030:	00b9      	.short	0x00b9
 8009032:	7865      	ldrb	r5, [r4, #1]
 8009034:	4e7a      	ldr	r6, [pc, #488]	; (8009220 <MlmeConfirm+0x220>)
 8009036:	4f7b      	ldr	r7, [pc, #492]	; (8009224 <MlmeConfirm+0x224>)
 8009038:	2d00      	cmp	r5, #0
 800903a:	d139      	bne.n	80090b0 <MlmeConfirm+0xb0>
 800903c:	487a      	ldr	r0, [pc, #488]	; (8009228 <MlmeConfirm+0x228>)
 800903e:	f007 fd97 	bl	8010b70 <udrv_serial_log_printf>
 8009042:	4628      	mov	r0, r5
 8009044:	f007 ff9e 	bl	8010f84 <udrv_system_timer_stop>
 8009048:	6035      	str	r5, [r6, #0]
 800904a:	f017 f8b7 	bl	80201bc <service_lora_get_class>
 800904e:	2802      	cmp	r0, #2
 8009050:	d10a      	bne.n	8009068 <MlmeConfirm+0x68>
 8009052:	f88d 0004 	strb.w	r0, [sp, #4]
 8009056:	4668      	mov	r0, sp
 8009058:	f88d 5000 	strb.w	r5, [sp]
 800905c:	f027 f85e 	bl	803011c <LoRaMacMibSetRequestConfirm>
 8009060:	b110      	cbz	r0, 8009068 <MlmeConfirm+0x68>
 8009062:	4872      	ldr	r0, [pc, #456]	; (800922c <MlmeConfirm+0x22c>)
 8009064:	f007 fd84 	bl	8010b70 <udrv_serial_log_printf>
 8009068:	683b      	ldr	r3, [r7, #0]
 800906a:	b10b      	cbz	r3, 8009070 <MlmeConfirm+0x70>
 800906c:	2000      	movs	r0, #0
 800906e:	4798      	blx	r3
 8009070:	f019 fff8 	bl	8023064 <service_nvm_get_dr_from_nvm>
 8009074:	2100      	movs	r1, #0
 8009076:	f7ff ff9b 	bl	8008fb0 <service_lora_set_dr>
 800907a:	f017 f89f 	bl	80201bc <service_lora_get_class>
 800907e:	f7ff f886 	bl	800818e <service_get_debug_level>
 8009082:	b198      	cbz	r0, 80090ac <MlmeConfirm+0xac>
 8009084:	2334      	movs	r3, #52	; 0x34
 8009086:	4668      	mov	r0, sp
 8009088:	f88d 3000 	strb.w	r3, [sp]
 800908c:	f026 fef8 	bl	802fe80 <LoRaMacMibGetRequestConfirm>
 8009090:	4668      	mov	r0, sp
 8009092:	f026 fef5 	bl	802fe80 <LoRaMacMibGetRequestConfirm>
 8009096:	2800      	cmp	r0, #0
 8009098:	d147      	bne.n	800912a <MlmeConfirm+0x12a>
 800909a:	4865      	ldr	r0, [pc, #404]	; (8009230 <MlmeConfirm+0x230>)
 800909c:	f007 fd68 	bl	8010b70 <udrv_serial_log_printf>
 80090a0:	9b01      	ldr	r3, [sp, #4]
 80090a2:	4864      	ldr	r0, [pc, #400]	; (8009234 <MlmeConfirm+0x234>)
 80090a4:	f8d3 10e4 	ldr.w	r1, [r3, #228]	; 0xe4
 80090a8:	f007 fd62 	bl	8010b70 <udrv_serial_log_printf>
 80090ac:	b00b      	add	sp, #44	; 0x2c
 80090ae:	bdf0      	pop	{r4, r5, r6, r7, pc}
 80090b0:	2d02      	cmp	r5, #2
 80090b2:	d01c      	beq.n	80090ee <MlmeConfirm+0xee>
 80090b4:	1eeb      	subs	r3, r5, #3
 80090b6:	2b01      	cmp	r3, #1
 80090b8:	d81b      	bhi.n	80090f2 <MlmeConfirm+0xf2>
 80090ba:	485f      	ldr	r0, [pc, #380]	; (8009238 <MlmeConfirm+0x238>)
 80090bc:	f007 fd58 	bl	8010b70 <udrv_serial_log_printf>
 80090c0:	2000      	movs	r0, #0
 80090c2:	f007 ff5f 	bl	8010f84 <udrv_system_timer_stop>
 80090c6:	6835      	ldr	r5, [r6, #0]
 80090c8:	3501      	adds	r5, #1
 80090ca:	6035      	str	r5, [r6, #0]
 80090cc:	f017 f92f 	bl	802032e <service_lora_get_auto_join_max_cnt>
 80090d0:	4285      	cmp	r5, r0
 80090d2:	d913      	bls.n	80090fc <MlmeConfirm+0xfc>
 80090d4:	2300      	movs	r3, #0
 80090d6:	6033      	str	r3, [r6, #0]
 80090d8:	683b      	ldr	r3, [r7, #0]
 80090da:	b123      	cbz	r3, 80090e6 <MlmeConfirm+0xe6>
 80090dc:	4857      	ldr	r0, [pc, #348]	; (800923c <MlmeConfirm+0x23c>)
 80090de:	7863      	ldrb	r3, [r4, #1]
 80090e0:	6043      	str	r3, [r0, #4]
 80090e2:	f007 ff35 	bl	8010f50 <udrv_system_event_produce>
 80090e6:	4b56      	ldr	r3, [pc, #344]	; (8009240 <MlmeConfirm+0x240>)
 80090e8:	6adb      	ldr	r3, [r3, #44]	; 0x2c
 80090ea:	4798      	blx	r3
 80090ec:	e7c5      	b.n	800907a <MlmeConfirm+0x7a>
 80090ee:	4855      	ldr	r0, [pc, #340]	; (8009244 <MlmeConfirm+0x244>)
 80090f0:	e7e4      	b.n	80090bc <MlmeConfirm+0xbc>
 80090f2:	4629      	mov	r1, r5
 80090f4:	4854      	ldr	r0, [pc, #336]	; (8009248 <MlmeConfirm+0x248>)
 80090f6:	f007 fd3b 	bl	8010b70 <udrv_serial_log_printf>
 80090fa:	e7e1      	b.n	80090c0 <MlmeConfirm+0xc0>
 80090fc:	2200      	movs	r2, #0
 80090fe:	4953      	ldr	r1, [pc, #332]	; (800924c <MlmeConfirm+0x24c>)
 8009100:	4610      	mov	r0, r2
 8009102:	f007 ff3b 	bl	8010f7c <udrv_system_timer_create>
 8009106:	4605      	mov	r5, r0
 8009108:	b948      	cbnz	r0, 800911e <MlmeConfirm+0x11e>
 800910a:	f017 f90c 	bl	8020326 <service_lora_get_auto_join_period>
 800910e:	f44f 717a 	mov.w	r1, #1000	; 0x3e8
 8009112:	4341      	muls	r1, r0
 8009114:	462a      	mov	r2, r5
 8009116:	4628      	mov	r0, r5
 8009118:	f007 ff32 	bl	8010f80 <udrv_system_timer_start>
 800911c:	e7dc      	b.n	80090d8 <MlmeConfirm+0xd8>
 800911e:	f240 2122 	movw	r1, #546	; 0x222
 8009122:	4849      	ldr	r0, [pc, #292]	; (8009248 <MlmeConfirm+0x248>)
 8009124:	f007 fd24 	bl	8010b70 <udrv_serial_log_printf>
 8009128:	e7d6      	b.n	80090d8 <MlmeConfirm+0xd8>
 800912a:	4849      	ldr	r0, [pc, #292]	; (8009250 <MlmeConfirm+0x250>)
 800912c:	f007 fd20 	bl	8010b70 <udrv_serial_log_printf>
 8009130:	e7bc      	b.n	80090ac <MlmeConfirm+0xac>
 8009132:	4d48      	ldr	r5, [pc, #288]	; (8009254 <MlmeConfirm+0x254>)
 8009134:	7864      	ldrb	r4, [r4, #1]
 8009136:	782e      	ldrb	r6, [r5, #0]
 8009138:	b9dc      	cbnz	r4, 8009172 <MlmeConfirm+0x172>
 800913a:	2e01      	cmp	r6, #1
 800913c:	d109      	bne.n	8009152 <MlmeConfirm+0x152>
 800913e:	4846      	ldr	r0, [pc, #280]	; (8009258 <MlmeConfirm+0x258>)
 8009140:	f007 fd16 	bl	8010b70 <udrv_serial_log_printf>
 8009144:	4b45      	ldr	r3, [pc, #276]	; (800925c <MlmeConfirm+0x25c>)
 8009146:	681b      	ldr	r3, [r3, #0]
 8009148:	b10b      	cbz	r3, 800914e <MlmeConfirm+0x14e>
 800914a:	4620      	mov	r0, r4
 800914c:	4798      	blx	r3
 800914e:	2300      	movs	r3, #0
 8009150:	702b      	strb	r3, [r5, #0]
 8009152:	f017 f833 	bl	80201bc <service_lora_get_class>
 8009156:	2801      	cmp	r0, #1
 8009158:	d1a8      	bne.n	80090ac <MlmeConfirm+0xac>
 800915a:	4b41      	ldr	r3, [pc, #260]	; (8009260 <MlmeConfirm+0x260>)
 800915c:	781a      	ldrb	r2, [r3, #0]
 800915e:	2a04      	cmp	r2, #4
 8009160:	d0a4      	beq.n	80090ac <MlmeConfirm+0xac>
 8009162:	7018      	strb	r0, [r3, #0]
 8009164:	230b      	movs	r3, #11
 8009166:	4668      	mov	r0, sp
 8009168:	f88d 3000 	strb.w	r3, [sp]
 800916c:	f027 fcd0 	bl	8030b10 <LoRaMacMlmeRequest>
 8009170:	e79c      	b.n	80090ac <MlmeConfirm+0xac>
 8009172:	2e01      	cmp	r6, #1
 8009174:	d19a      	bne.n	80090ac <MlmeConfirm+0xac>
 8009176:	483b      	ldr	r0, [pc, #236]	; (8009264 <MlmeConfirm+0x264>)
 8009178:	f007 fcfa 	bl	8010b70 <udrv_serial_log_printf>
 800917c:	4b37      	ldr	r3, [pc, #220]	; (800925c <MlmeConfirm+0x25c>)
 800917e:	681b      	ldr	r3, [r3, #0]
 8009180:	b10b      	cbz	r3, 8009186 <MlmeConfirm+0x186>
 8009182:	4630      	mov	r0, r6
 8009184:	4798      	blx	r3
 8009186:	2300      	movs	r3, #0
 8009188:	702b      	strb	r3, [r5, #0]
 800918a:	e78f      	b.n	80090ac <MlmeConfirm+0xac>
 800918c:	7863      	ldrb	r3, [r4, #1]
 800918e:	2b00      	cmp	r3, #0
 8009190:	d18c      	bne.n	80090ac <MlmeConfirm+0xac>
 8009192:	4a33      	ldr	r2, [pc, #204]	; (8009260 <MlmeConfirm+0x260>)
 8009194:	f88d 3000 	strb.w	r3, [sp]
 8009198:	2104      	movs	r1, #4
 800919a:	2301      	movs	r3, #1
 800919c:	4668      	mov	r0, sp
 800919e:	7011      	strb	r1, [r2, #0]
 80091a0:	f88d 3004 	strb.w	r3, [sp, #4]
 80091a4:	f026 ffba 	bl	803011c <LoRaMacMibSetRequestConfirm>
 80091a8:	2800      	cmp	r0, #0
 80091aa:	f47f af7f 	bne.w	80090ac <MlmeConfirm+0xac>
 80091ae:	482e      	ldr	r0, [pc, #184]	; (8009268 <MlmeConfirm+0x268>)
 80091b0:	f007 fcde 	bl	8010b70 <udrv_serial_log_printf>
 80091b4:	2002      	movs	r0, #2
 80091b6:	f7ff fcc5 	bl	8008b44 <service_lora_send_null>
 80091ba:	e777      	b.n	80090ac <MlmeConfirm+0xac>
 80091bc:	4b2b      	ldr	r3, [pc, #172]	; (800926c <MlmeConfirm+0x26c>)
 80091be:	2201      	movs	r2, #1
 80091c0:	701a      	strb	r2, [r3, #0]
 80091c2:	4b2b      	ldr	r3, [pc, #172]	; (8009270 <MlmeConfirm+0x270>)
 80091c4:	7a22      	ldrb	r2, [r4, #8]
 80091c6:	701a      	strb	r2, [r3, #0]
 80091c8:	4b2a      	ldr	r3, [pc, #168]	; (8009274 <MlmeConfirm+0x274>)
 80091ca:	7a62      	ldrb	r2, [r4, #9]
 80091cc:	701a      	strb	r2, [r3, #0]
 80091ce:	7863      	ldrb	r3, [r4, #1]
 80091d0:	4c29      	ldr	r4, [pc, #164]	; (8009278 <MlmeConfirm+0x278>)
 80091d2:	7023      	strb	r3, [r4, #0]
 80091d4:	2b00      	cmp	r3, #0
 80091d6:	f43f af69 	beq.w	80090ac <MlmeConfirm+0xac>
 80091da:	4828      	ldr	r0, [pc, #160]	; (800927c <MlmeConfirm+0x27c>)
 80091dc:	f007 fcc8 	bl	8010b70 <udrv_serial_log_printf>
 80091e0:	4b27      	ldr	r3, [pc, #156]	; (8009280 <MlmeConfirm+0x280>)
 80091e2:	681a      	ldr	r2, [r3, #0]
 80091e4:	2a00      	cmp	r2, #0
 80091e6:	f43f af61 	beq.w	80090ac <MlmeConfirm+0xac>
 80091ea:	4826      	ldr	r0, [pc, #152]	; (8009284 <MlmeConfirm+0x284>)
 80091ec:	7823      	ldrb	r3, [r4, #0]
 80091ee:	7003      	strb	r3, [r0, #0]
 80091f0:	2300      	movs	r3, #0
 80091f2:	7043      	strb	r3, [r0, #1]
 80091f4:	7083      	strb	r3, [r0, #2]
 80091f6:	8083      	strh	r3, [r0, #4]
 80091f8:	7183      	strb	r3, [r0, #6]
 80091fa:	b00b      	add	sp, #44	; 0x2c
 80091fc:	e8bd 40f0 	ldmia.w	sp!, {r4, r5, r6, r7, lr}
 8009200:	4710      	bx	r2
 8009202:	7863      	ldrb	r3, [r4, #1]
 8009204:	2b00      	cmp	r3, #0
 8009206:	f43f af51 	beq.w	80090ac <MlmeConfirm+0xac>
 800920a:	481f      	ldr	r0, [pc, #124]	; (8009288 <MlmeConfirm+0x288>)
 800920c:	f007 fcb0 	bl	8010b70 <udrv_serial_log_printf>
 8009210:	4b13      	ldr	r3, [pc, #76]	; (8009260 <MlmeConfirm+0x260>)
 8009212:	781a      	ldrb	r2, [r3, #0]
 8009214:	2a04      	cmp	r2, #4
 8009216:	bf1c      	itt	ne
 8009218:	2203      	movne	r2, #3
 800921a:	701a      	strbne	r2, [r3, #0]
 800921c:	2309      	movs	r3, #9
 800921e:	e7a2      	b.n	8009166 <MlmeConfirm+0x166>
 8009220:	200077a0 	.word	0x200077a0
 8009224:	200079ec 	.word	0x200079ec
 8009228:	080174b0 	.word	0x080174b0
 800922c:	080174be 	.word	0x080174be
 8009230:	0801750f 	.word	0x0801750f
 8009234:	08017525 	.word	0x08017525
 8009238:	080174d3 	.word	0x080174d3
 800923c:	20006084 	.word	0x20006084
 8009240:	0803c988 	.word	0x0803c988
 8009244:	080174f1 	.word	0x080174f1
 8009248:	080172be 	.word	0x080172be
 800924c:	080088c1 	.word	0x080088c1
 8009250:	0801748c 	.word	0x0801748c
 8009254:	20007a01 	.word	0x20007a01
 8009258:	08017534 	.word	0x08017534
 800925c:	200079fc 	.word	0x200079fc
 8009260:	200077c0 	.word	0x200077c0
 8009264:	08017546 	.word	0x08017546
 8009268:	0801755c 	.word	0x0801755c
 800926c:	200079d2 	.word	0x200079d2
 8009270:	20007741 	.word	0x20007741
 8009274:	2000779c 	.word	0x2000779c
 8009278:	200079d3 	.word	0x200079d3
 800927c:	08017567 	.word	0x08017567
 8009280:	200079f0 	.word	0x200079f0
 8009284:	200079ca 	.word	0x200079ca
 8009288:	080172b1 	.word	0x080172b1

0800928c <service_lora_set_txpower>:
 800928c:	b570      	push	{r4, r5, r6, lr}
 800928e:	b08a      	sub	sp, #40	; 0x28
 8009290:	460c      	mov	r4, r1
 8009292:	4605      	mov	r5, r0
 8009294:	f017 f865 	bl	8020362 <service_lora_get_band>
 8009298:	f017 f877 	bl	802038a <service_lora_region_isActive>
 800929c:	b1c8      	cbz	r0, 80092d2 <service_lora_set_txpower+0x46>
 800929e:	232e      	movs	r3, #46	; 0x2e
 80092a0:	b26e      	sxtb	r6, r5
 80092a2:	4668      	mov	r0, sp
 80092a4:	f88d 3000 	strb.w	r3, [sp]
 80092a8:	f88d 6004 	strb.w	r6, [sp, #4]
 80092ac:	f026 ff36 	bl	803011c <LoRaMacMibSetRequestConfirm>
 80092b0:	b940      	cbnz	r0, 80092c4 <service_lora_set_txpower+0x38>
 80092b2:	4b0a      	ldr	r3, [pc, #40]	; (80092dc <service_lora_set_txpower+0x50>)
 80092b4:	f883 6024 	strb.w	r6, [r3, #36]	; 0x24
 80092b8:	b174      	cbz	r4, 80092d8 <service_lora_set_txpower+0x4c>
 80092ba:	4628      	mov	r0, r5
 80092bc:	f019 ff68 	bl	8023190 <service_nvm_set_txpower_to_nvm>
 80092c0:	b00a      	add	sp, #40	; 0x28
 80092c2:	bd70      	pop	{r4, r5, r6, pc}
 80092c4:	2803      	cmp	r0, #3
 80092c6:	bf0c      	ite	eq
 80092c8:	f06f 0002 	mvneq.w	r0, #2
 80092cc:	f06f 0006 	mvnne.w	r0, #6
 80092d0:	e7f6      	b.n	80092c0 <service_lora_set_txpower+0x34>
 80092d2:	f06f 0010 	mvn.w	r0, #16
 80092d6:	e7f3      	b.n	80092c0 <service_lora_set_txpower+0x34>
 80092d8:	4620      	mov	r0, r4
 80092da:	e7f1      	b.n	80092c0 <service_lora_set_txpower+0x34>
 80092dc:	20006098 	.word	0x20006098

080092e0 <service_lora_set_class>:
 80092e0:	b530      	push	{r4, r5, lr}
 80092e2:	b08b      	sub	sp, #44	; 0x2c
 80092e4:	460d      	mov	r5, r1
 80092e6:	4604      	mov	r4, r0
 80092e8:	f017 f83b 	bl	8020362 <service_lora_get_band>
 80092ec:	f017 f84d 	bl	802038a <service_lora_region_isActive>
 80092f0:	2800      	cmp	r0, #0
 80092f2:	d043      	beq.n	800937c <service_lora_set_class+0x9c>
 80092f4:	f016 fe89 	bl	802000a <service_lora_get_njs>
 80092f8:	b1b8      	cbz	r0, 800932a <service_lora_set_class+0x4a>
 80092fa:	2300      	movs	r3, #0
 80092fc:	4668      	mov	r0, sp
 80092fe:	f88d 3000 	strb.w	r3, [sp]
 8009302:	f026 fdbd 	bl	802fe80 <LoRaMacMibGetRequestConfirm>
 8009306:	b110      	cbz	r0, 800930e <service_lora_set_class+0x2e>
 8009308:	f06f 0006 	mvn.w	r0, #6
 800930c:	e011      	b.n	8009332 <service_lora_set_class+0x52>
 800930e:	f89d 3004 	ldrb.w	r3, [sp, #4]
 8009312:	2b01      	cmp	r3, #1
 8009314:	d01e      	beq.n	8009354 <service_lora_set_class+0x74>
 8009316:	2b02      	cmp	r3, #2
 8009318:	d02b      	beq.n	8009372 <service_lora_set_class+0x92>
 800931a:	2b00      	cmp	r3, #0
 800931c:	d1f4      	bne.n	8009308 <service_lora_set_class+0x28>
 800931e:	2c01      	cmp	r4, #1
 8009320:	d009      	beq.n	8009336 <service_lora_set_class+0x56>
 8009322:	2c02      	cmp	r4, #2
 8009324:	d00b      	beq.n	800933e <service_lora_set_class+0x5e>
 8009326:	2c00      	cmp	r4, #0
 8009328:	d1ee      	bne.n	8009308 <service_lora_set_class+0x28>
 800932a:	b355      	cbz	r5, 8009382 <service_lora_set_class+0xa2>
 800932c:	4620      	mov	r0, r4
 800932e:	f019 fe8d 	bl	802304c <service_nvm_set_class_to_nvm>
 8009332:	b00b      	add	sp, #44	; 0x2c
 8009334:	bd30      	pop	{r4, r5, pc}
 8009336:	4b14      	ldr	r3, [pc, #80]	; (8009388 <service_lora_set_class+0xa8>)
 8009338:	2200      	movs	r2, #0
 800933a:	701a      	strb	r2, [r3, #0]
 800933c:	e7f5      	b.n	800932a <service_lora_set_class+0x4a>
 800933e:	4b13      	ldr	r3, [pc, #76]	; (800938c <service_lora_set_class+0xac>)
 8009340:	f88d 4004 	strb.w	r4, [sp, #4]
 8009344:	2201      	movs	r2, #1
 8009346:	701a      	strb	r2, [r3, #0]
 8009348:	4668      	mov	r0, sp
 800934a:	f026 fee7 	bl	803011c <LoRaMacMibSetRequestConfirm>
 800934e:	2800      	cmp	r0, #0
 8009350:	d0eb      	beq.n	800932a <service_lora_set_class+0x4a>
 8009352:	e7d9      	b.n	8009308 <service_lora_set_class+0x28>
 8009354:	2c01      	cmp	r4, #1
 8009356:	d0f7      	beq.n	8009348 <service_lora_set_class+0x68>
 8009358:	2c02      	cmp	r4, #2
 800935a:	d005      	beq.n	8009368 <service_lora_set_class+0x88>
 800935c:	2c00      	cmp	r4, #0
 800935e:	d1d3      	bne.n	8009308 <service_lora_set_class+0x28>
 8009360:	2300      	movs	r3, #0
 8009362:	f88d 3004 	strb.w	r3, [sp, #4]
 8009366:	e7ef      	b.n	8009348 <service_lora_set_class+0x68>
 8009368:	4a08      	ldr	r2, [pc, #32]	; (800938c <service_lora_set_class+0xac>)
 800936a:	f88d 4004 	strb.w	r4, [sp, #4]
 800936e:	7013      	strb	r3, [r2, #0]
 8009370:	e7ea      	b.n	8009348 <service_lora_set_class+0x68>
 8009372:	2c01      	cmp	r4, #1
 8009374:	d0df      	beq.n	8009336 <service_lora_set_class+0x56>
 8009376:	2c02      	cmp	r4, #2
 8009378:	d1f0      	bne.n	800935c <service_lora_set_class+0x7c>
 800937a:	e7d6      	b.n	800932a <service_lora_set_class+0x4a>
 800937c:	f06f 0010 	mvn.w	r0, #16
 8009380:	e7d7      	b.n	8009332 <service_lora_set_class+0x52>
 8009382:	4628      	mov	r0, r5
 8009384:	e7d5      	b.n	8009332 <service_lora_set_class+0x52>
 8009386:	bf00      	nop
 8009388:	200077c0 	.word	0x200077c0
 800938c:	20008578 	.word	0x20008578

08009390 <service_lora_set_njm>:
 8009390:	b530      	push	{r4, r5, lr}
 8009392:	b08f      	sub	sp, #60	; 0x3c
 8009394:	460d      	mov	r5, r1
 8009396:	4604      	mov	r4, r0
 8009398:	f016 ffe3 	bl	8020362 <service_lora_get_band>
 800939c:	f016 fff5 	bl	802038a <service_lora_region_isActive>
 80093a0:	2800      	cmp	r0, #0
 80093a2:	f000 809b 	beq.w	80094dc <service_lora_set_njm+0x14c>
 80093a6:	2301      	movs	r3, #1
 80093a8:	f88d 3010 	strb.w	r3, [sp, #16]
 80093ac:	2c00      	cmp	r4, #0
 80093ae:	d14d      	bne.n	800944c <service_lora_set_njm+0xbc>
 80093b0:	f88d 3014 	strb.w	r3, [sp, #20]
 80093b4:	a804      	add	r0, sp, #16
 80093b6:	f026 feb1 	bl	803011c <LoRaMacMibSetRequestConfirm>
 80093ba:	2800      	cmp	r0, #0
 80093bc:	d14a      	bne.n	8009454 <service_lora_set_njm+0xc4>
 80093be:	2c00      	cmp	r4, #0
 80093c0:	d153      	bne.n	800946a <service_lora_set_njm+0xda>
 80093c2:	2110      	movs	r1, #16
 80093c4:	4668      	mov	r0, sp
 80093c6:	f019 fd19 	bl	8022dfc <service_nvm_get_app_skey_from_nvm>
 80093ca:	230f      	movs	r3, #15
 80093cc:	a804      	add	r0, sp, #16
 80093ce:	f88d 3010 	strb.w	r3, [sp, #16]
 80093d2:	f8cd d014 	str.w	sp, [sp, #20]
 80093d6:	f026 fea1 	bl	803011c <LoRaMacMibSetRequestConfirm>
 80093da:	2800      	cmp	r0, #0
 80093dc:	d13a      	bne.n	8009454 <service_lora_set_njm+0xc4>
 80093de:	2104      	movs	r1, #4
 80093e0:	4668      	mov	r0, sp
 80093e2:	f019 fd33 	bl	8022e4c <service_nvm_get_dev_addr_from_nvm>
 80093e6:	2307      	movs	r3, #7
 80093e8:	f88d 3010 	strb.w	r3, [sp, #16]
 80093ec:	9b00      	ldr	r3, [sp, #0]
 80093ee:	a804      	add	r0, sp, #16
 80093f0:	ba1b      	rev	r3, r3
 80093f2:	9305      	str	r3, [sp, #20]
 80093f4:	f026 fe92 	bl	803011c <LoRaMacMibSetRequestConfirm>
 80093f8:	bb60      	cbnz	r0, 8009454 <service_lora_set_njm+0xc4>
 80093fa:	2110      	movs	r1, #16
 80093fc:	4668      	mov	r0, sp
 80093fe:	f019 fd9d 	bl	8022f3c <service_nvm_get_nwk_skey_from_nvm>
 8009402:	230c      	movs	r3, #12
 8009404:	a804      	add	r0, sp, #16
 8009406:	f88d 3010 	strb.w	r3, [sp, #16]
 800940a:	f8cd d014 	str.w	sp, [sp, #20]
 800940e:	f026 fe85 	bl	803011c <LoRaMacMibSetRequestConfirm>
 8009412:	b9f8      	cbnz	r0, 8009454 <service_lora_set_njm+0xc4>
 8009414:	230d      	movs	r3, #13
 8009416:	a804      	add	r0, sp, #16
 8009418:	f88d 3010 	strb.w	r3, [sp, #16]
 800941c:	f8cd d014 	str.w	sp, [sp, #20]
 8009420:	f026 fe7c 	bl	803011c <LoRaMacMibSetRequestConfirm>
 8009424:	b9b0      	cbnz	r0, 8009454 <service_lora_set_njm+0xc4>
 8009426:	230e      	movs	r3, #14
 8009428:	a804      	add	r0, sp, #16
 800942a:	f88d 3010 	strb.w	r3, [sp, #16]
 800942e:	f8cd d014 	str.w	sp, [sp, #20]
 8009432:	f026 fe73 	bl	803011c <LoRaMacMibSetRequestConfirm>
 8009436:	b968      	cbnz	r0, 8009454 <service_lora_set_njm+0xc4>
 8009438:	f019 fe02 	bl	8023040 <service_nvm_get_class_from_nvm>
 800943c:	4621      	mov	r1, r4
 800943e:	f7ff ff4f 	bl	80092e0 <service_lora_set_class>
 8009442:	b948      	cbnz	r0, 8009458 <service_lora_set_njm+0xc8>
 8009444:	2d00      	cmp	r5, #0
 8009446:	d145      	bne.n	80094d4 <service_lora_set_njm+0x144>
 8009448:	4628      	mov	r0, r5
 800944a:	e005      	b.n	8009458 <service_lora_set_njm+0xc8>
 800944c:	a804      	add	r0, sp, #16
 800944e:	f026 fd17 	bl	802fe80 <LoRaMacMibGetRequestConfirm>
 8009452:	b118      	cbz	r0, 800945c <service_lora_set_njm+0xcc>
 8009454:	f06f 0006 	mvn.w	r0, #6
 8009458:	b00f      	add	sp, #60	; 0x3c
 800945a:	bd30      	pop	{r4, r5, pc}
 800945c:	f89d 3014 	ldrb.w	r3, [sp, #20]
 8009460:	2b01      	cmp	r3, #1
 8009462:	bf08      	it	eq
 8009464:	f88d 0014 	strbeq.w	r0, [sp, #20]
 8009468:	e7a4      	b.n	80093b4 <service_lora_set_njm+0x24>
 800946a:	2108      	movs	r1, #8
 800946c:	4668      	mov	r0, sp
 800946e:	f019 fd15 	bl	8022e9c <service_nvm_get_dev_eui_from_nvm>
 8009472:	2302      	movs	r3, #2
 8009474:	a804      	add	r0, sp, #16
 8009476:	f88d 3010 	strb.w	r3, [sp, #16]
 800947a:	f8cd d014 	str.w	sp, [sp, #20]
 800947e:	f026 fe4d 	bl	803011c <LoRaMacMibSetRequestConfirm>
 8009482:	2800      	cmp	r0, #0
 8009484:	d1e6      	bne.n	8009454 <service_lora_set_njm+0xc4>
 8009486:	2108      	movs	r1, #8
 8009488:	4668      	mov	r0, sp
 800948a:	f019 fc67 	bl	8022d5c <service_nvm_get_app_eui_from_nvm>
 800948e:	2303      	movs	r3, #3
 8009490:	a804      	add	r0, sp, #16
 8009492:	f88d 3010 	strb.w	r3, [sp, #16]
 8009496:	f8cd d014 	str.w	sp, [sp, #20]
 800949a:	f026 fe3f 	bl	803011c <LoRaMacMibSetRequestConfirm>
 800949e:	2800      	cmp	r0, #0
 80094a0:	d1d8      	bne.n	8009454 <service_lora_set_njm+0xc4>
 80094a2:	2110      	movs	r1, #16
 80094a4:	4668      	mov	r0, sp
 80094a6:	f019 fc81 	bl	8022dac <service_nvm_get_app_key_from_nvm>
 80094aa:	2308      	movs	r3, #8
 80094ac:	a804      	add	r0, sp, #16
 80094ae:	f88d 3010 	strb.w	r3, [sp, #16]
 80094b2:	f8cd d014 	str.w	sp, [sp, #20]
 80094b6:	f026 fe31 	bl	803011c <LoRaMacMibSetRequestConfirm>
 80094ba:	2800      	cmp	r0, #0
 80094bc:	d1ca      	bne.n	8009454 <service_lora_set_njm+0xc4>
 80094be:	2309      	movs	r3, #9
 80094c0:	a804      	add	r0, sp, #16
 80094c2:	f88d 3010 	strb.w	r3, [sp, #16]
 80094c6:	f8cd d014 	str.w	sp, [sp, #20]
 80094ca:	f026 fe27 	bl	803011c <LoRaMacMibSetRequestConfirm>
 80094ce:	2800      	cmp	r0, #0
 80094d0:	d0b8      	beq.n	8009444 <service_lora_set_njm+0xb4>
 80094d2:	e7bf      	b.n	8009454 <service_lora_set_njm+0xc4>
 80094d4:	4620      	mov	r0, r4
 80094d6:	f019 fd95 	bl	8023004 <service_nvm_set_njm_to_nvm>
 80094da:	e7bd      	b.n	8009458 <service_lora_set_njm+0xc8>
 80094dc:	f06f 0010 	mvn.w	r0, #16
 80094e0:	e7ba      	b.n	8009458 <service_lora_set_njm+0xc8>

080094e2 <LmHandlerJoinRequest>:
 80094e2:	b510      	push	{r4, lr}
 80094e4:	2101      	movs	r1, #1
 80094e6:	b100      	cbz	r0, 80094ea <LmHandlerJoinRequest+0x8>
 80094e8:	4608      	mov	r0, r1
 80094ea:	f7ff ff51 	bl	8009390 <service_lora_set_njm>
 80094ee:	f04f 33ff 	mov.w	r3, #4294967295	; 0xffffffff
 80094f2:	e8bd 4010 	ldmia.w	sp!, {r4, lr}
 80094f6:	461a      	mov	r2, r3
 80094f8:	4619      	mov	r1, r3
 80094fa:	2001      	movs	r0, #1
 80094fc:	f7ff b8a4 	b.w	8008648 <service_lora_join>

08009500 <service_lora_get_beacon_gwspecific>:
 8009500:	b570      	push	{r4, r5, r6, lr}
 8009502:	4d04      	ldr	r5, [pc, #16]	; (8009514 <service_lora_get_beacon_gwspecific+0x14>)
 8009504:	4606      	mov	r6, r0
 8009506:	4604      	mov	r4, r0
 8009508:	cd0f      	ldmia	r5!, {r0, r1, r2, r3}
 800950a:	c40f      	stmia	r4!, {r0, r1, r2, r3}
 800950c:	682b      	ldr	r3, [r5, #0]
 800950e:	6023      	str	r3, [r4, #0]
 8009510:	4630      	mov	r0, r6
 8009512:	bd70      	pop	{r4, r5, r6, pc}
 8009514:	200077a4 	.word	0x200077a4

08009518 <service_lora_get_class_b_state>:
 8009518:	4b01      	ldr	r3, [pc, #4]	; (8009520 <service_lora_get_class_b_state+0x8>)
 800951a:	7818      	ldrb	r0, [r3, #0]
 800951c:	4770      	bx	lr
 800951e:	bf00      	nop
 8009520:	200077c0 	.word	0x200077c0

08009524 <service_lora_get_timereq>:
 8009524:	4b01      	ldr	r3, [pc, #4]	; (800952c <service_lora_get_timereq+0x8>)
 8009526:	7818      	ldrb	r0, [r3, #0]
 8009528:	4770      	bx	lr
 800952a:	bf00      	nop
 800952c:	20007a01 	.word	0x20007a01

08009530 <service_lora_set_timereq>:
 8009530:	b510      	push	{r4, lr}
 8009532:	4604      	mov	r4, r0
 8009534:	f016 fd69 	bl	802000a <service_lora_get_njs>
 8009538:	b128      	cbz	r0, 8009546 <service_lora_set_timereq+0x16>
 800953a:	2c01      	cmp	r4, #1
 800953c:	d806      	bhi.n	800954c <service_lora_set_timereq+0x1c>
 800953e:	4b05      	ldr	r3, [pc, #20]	; (8009554 <service_lora_set_timereq+0x24>)
 8009540:	2000      	movs	r0, #0
 8009542:	701c      	strb	r4, [r3, #0]
 8009544:	bd10      	pop	{r4, pc}
 8009546:	f06f 000b 	mvn.w	r0, #11
 800954a:	e7fb      	b.n	8009544 <service_lora_set_timereq+0x14>
 800954c:	f06f 0002 	mvn.w	r0, #2
 8009550:	e7f8      	b.n	8009544 <service_lora_set_timereq+0x14>
 8009552:	bf00      	nop
 8009554:	20007a01 	.word	0x20007a01

08009558 <LmHandlerPackageRegister>:
 8009558:	b538      	push	{r3, r4, r5, lr}
 800955a:	4604      	mov	r4, r0
 800955c:	460d      	mov	r5, r1
 800955e:	2803      	cmp	r0, #3
 8009560:	d829      	bhi.n	80095b6 <LmHandlerPackageRegister+0x5e>
 8009562:	e8df f000 	tbb	[pc, r0]
 8009566:	1f02      	.short	0x1f02
 8009568:	2522      	.short	0x2522
 800956a:	f002 fccb 	bl	800bf04 <LmphCompliancePackageFactory>
 800956e:	b310      	cbz	r0, 80095b6 <LmHandlerPackageRegister+0x5e>
 8009570:	4b12      	ldr	r3, [pc, #72]	; (80095bc <LmHandlerPackageRegister+0x64>)
 8009572:	4a13      	ldr	r2, [pc, #76]	; (80095c0 <LmHandlerPackageRegister+0x68>)
 8009574:	f843 0024 	str.w	r0, [r3, r4, lsl #2]
 8009578:	6242      	str	r2, [r0, #36]	; 0x24
 800957a:	f853 2024 	ldr.w	r2, [r3, r4, lsl #2]
 800957e:	4911      	ldr	r1, [pc, #68]	; (80095c4 <LmHandlerPackageRegister+0x6c>)
 8009580:	6291      	str	r1, [r2, #40]	; 0x28
 8009582:	f853 2024 	ldr.w	r2, [r3, r4, lsl #2]
 8009586:	4910      	ldr	r1, [pc, #64]	; (80095c8 <LmHandlerPackageRegister+0x70>)
 8009588:	62d1      	str	r1, [r2, #44]	; 0x2c
 800958a:	f853 2024 	ldr.w	r2, [r3, r4, lsl #2]
 800958e:	490f      	ldr	r1, [pc, #60]	; (80095cc <LmHandlerPackageRegister+0x74>)
 8009590:	6311      	str	r1, [r2, #48]	; 0x30
 8009592:	f853 3024 	ldr.w	r3, [r3, r4, lsl #2]
 8009596:	490e      	ldr	r1, [pc, #56]	; (80095d0 <LmHandlerPackageRegister+0x78>)
 8009598:	685b      	ldr	r3, [r3, #4]
 800959a:	4628      	mov	r0, r5
 800959c:	22f2      	movs	r2, #242	; 0xf2
 800959e:	4798      	blx	r3
 80095a0:	2000      	movs	r0, #0
 80095a2:	bd38      	pop	{r3, r4, r5, pc}
 80095a4:	f017 ff44 	bl	8021430 <LmphClockSyncPackageFactory>
 80095a8:	e7e1      	b.n	800956e <LmHandlerPackageRegister+0x16>
 80095aa:	f018 f9e9 	bl	8021980 <LmhpRemoteMcastSetupPackageFactory>
 80095ae:	e7de      	b.n	800956e <LmHandlerPackageRegister+0x16>
 80095b0:	f018 fc0a 	bl	8021dc8 <LmhpFragmentationPackageFactory>
 80095b4:	e7db      	b.n	800956e <LmHandlerPackageRegister+0x16>
 80095b6:	f04f 30ff 	mov.w	r0, #4294967295	; 0xffffffff
 80095ba:	e7f2      	b.n	80095a2 <LmHandlerPackageRegister+0x4a>
 80095bc:	200003d0 	.word	0x200003d0
 80095c0:	080081a5 	.word	0x080081a5
 80095c4:	080084ad 	.word	0x080084ad
 80095c8:	080094e3 	.word	0x080094e3
 80095cc:	08020ffd 	.word	0x08020ffd
 80095d0:	2000764f 	.word	0x2000764f

080095d4 <service_lora_systemMaxRxError>:
 80095d4:	b500      	push	{lr}
 80095d6:	b08b      	sub	sp, #44	; 0x2c
 80095d8:	2330      	movs	r3, #48	; 0x30
 80095da:	f88d 3000 	strb.w	r3, [sp]
 80095de:	4668      	mov	r0, sp
 80095e0:	2319      	movs	r3, #25
 80095e2:	9301      	str	r3, [sp, #4]
 80095e4:	f026 fd9a 	bl	803011c <LoRaMacMibSetRequestConfirm>
 80095e8:	b00b      	add	sp, #44	; 0x2c
 80095ea:	f85d fb04 	ldr.w	pc, [sp], #4
	...

080095f0 <service_lora_init>:
 80095f0:	b5f0      	push	{r4, r5, r6, r7, lr}
 80095f2:	b08f      	sub	sp, #60	; 0x3c
 80095f4:	4605      	mov	r5, r0
 80095f6:	f016 fc90 	bl	801ff1a <BoardInitMcu>
 80095fa:	f016 fcf5 	bl	801ffe8 <service_lora_get_nwm>
 80095fe:	2801      	cmp	r0, #1
 8009600:	d028      	beq.n	8009654 <service_lora_init+0x64>
 8009602:	f001 ffc7 	bl	800b594 <service_lora_p2p_init>
 8009606:	2400      	movs	r4, #0
 8009608:	f016 fdd8 	bl	80201bc <service_lora_get_class>
 800960c:	2802      	cmp	r0, #2
 800960e:	d005      	beq.n	800961c <service_lora_init+0x2c>
 8009610:	f016 fcf9 	bl	8020006 <service_lora_get_njm>
 8009614:	b110      	cbz	r0, 800961c <service_lora_init+0x2c>
 8009616:	4bab      	ldr	r3, [pc, #684]	; (80098c4 <service_lora_init+0x2d4>)
 8009618:	6adb      	ldr	r3, [r3, #44]	; 0x2c
 800961a:	4798      	blx	r3
 800961c:	f016 fce4 	bl	801ffe8 <service_lora_get_nwm>
 8009620:	2801      	cmp	r0, #1
 8009622:	d114      	bne.n	800964e <service_lora_init+0x5e>
 8009624:	b99c      	cbnz	r4, 800964e <service_lora_init+0x5e>
 8009626:	f016 fe7a 	bl	802031e <service_lora_get_auto_join>
 800962a:	b180      	cbz	r0, 800964e <service_lora_init+0x5e>
 800962c:	f016 fe73 	bl	8020316 <service_lora_get_join_start>
 8009630:	4605      	mov	r5, r0
 8009632:	f016 fe74 	bl	802031e <service_lora_get_auto_join>
 8009636:	4606      	mov	r6, r0
 8009638:	f016 fe75 	bl	8020326 <service_lora_get_auto_join_period>
 800963c:	4607      	mov	r7, r0
 800963e:	f016 fe76 	bl	802032e <service_lora_get_auto_join_max_cnt>
 8009642:	463a      	mov	r2, r7
 8009644:	4603      	mov	r3, r0
 8009646:	4631      	mov	r1, r6
 8009648:	4628      	mov	r0, r5
 800964a:	f7fe fffd 	bl	8008648 <service_lora_join>
 800964e:	4620      	mov	r0, r4
 8009650:	b00f      	add	sp, #60	; 0x3c
 8009652:	bdf0      	pop	{r4, r5, r6, r7, pc}
 8009654:	b9cd      	cbnz	r5, 800968a <service_lora_init+0x9a>
 8009656:	f02a fd81 	bl	803415c <RegionAS923SubBandSet>
 800965a:	489b      	ldr	r0, [pc, #620]	; (80098c8 <service_lora_init+0x2d8>)
 800965c:	4b9b      	ldr	r3, [pc, #620]	; (80098cc <service_lora_init+0x2dc>)
 800965e:	6003      	str	r3, [r0, #0]
 8009660:	4b9b      	ldr	r3, [pc, #620]	; (80098d0 <service_lora_init+0x2e0>)
 8009662:	6043      	str	r3, [r0, #4]
 8009664:	4b9b      	ldr	r3, [pc, #620]	; (80098d4 <service_lora_init+0x2e4>)
 8009666:	499c      	ldr	r1, [pc, #624]	; (80098d8 <service_lora_init+0x2e8>)
 8009668:	6083      	str	r3, [r0, #8]
 800966a:	4b9c      	ldr	r3, [pc, #624]	; (80098dc <service_lora_init+0x2ec>)
 800966c:	60c3      	str	r3, [r0, #12]
 800966e:	2300      	movs	r3, #0
 8009670:	e9c1 3300 	strd	r3, r3, [r1]
 8009674:	4b9a      	ldr	r3, [pc, #616]	; (80098e0 <service_lora_init+0x2f0>)
 8009676:	608b      	str	r3, [r1, #8]
 8009678:	462a      	mov	r2, r5
 800967a:	4b9a      	ldr	r3, [pc, #616]	; (80098e4 <service_lora_init+0x2f4>)
 800967c:	60cb      	str	r3, [r1, #12]
 800967e:	f026 f99b 	bl	802f9b8 <LoRaMacInitialization>
 8009682:	b188      	cbz	r0, 80096a8 <service_lora_init+0xb8>
 8009684:	f06f 0406 	mvn.w	r4, #6
 8009688:	e7be      	b.n	8009608 <service_lora_init+0x18>
 800968a:	2d14      	cmp	r5, #20
 800968c:	d104      	bne.n	8009698 <service_lora_init+0xa8>
 800968e:	2002      	movs	r0, #2
 8009690:	f02a fd64 	bl	803415c <RegionAS923SubBandSet>
 8009694:	2500      	movs	r5, #0
 8009696:	e7e0      	b.n	800965a <service_lora_init+0x6a>
 8009698:	2d15      	cmp	r5, #21
 800969a:	d101      	bne.n	80096a0 <service_lora_init+0xb0>
 800969c:	2003      	movs	r0, #3
 800969e:	e7f7      	b.n	8009690 <service_lora_init+0xa0>
 80096a0:	2d16      	cmp	r5, #22
 80096a2:	d1da      	bne.n	800965a <service_lora_init+0x6a>
 80096a4:	2004      	movs	r0, #4
 80096a6:	e7f3      	b.n	8009690 <service_lora_init+0xa0>
 80096a8:	4b8f      	ldr	r3, [pc, #572]	; (80098e8 <service_lora_init+0x2f8>)
 80096aa:	2201      	movs	r2, #1
 80096ac:	701a      	strb	r2, [r3, #0]
 80096ae:	2335      	movs	r3, #53	; 0x35
 80096b0:	f88d 3010 	strb.w	r3, [sp, #16]
 80096b4:	a804      	add	r0, sp, #16
 80096b6:	4b8d      	ldr	r3, [pc, #564]	; (80098ec <service_lora_init+0x2fc>)
 80096b8:	9305      	str	r3, [sp, #20]
 80096ba:	f026 fd2f 	bl	803011c <LoRaMacMibSetRequestConfirm>
 80096be:	2800      	cmp	r0, #0
 80096c0:	d1e0      	bne.n	8009684 <service_lora_init+0x94>
 80096c2:	1e6b      	subs	r3, r5, #1
 80096c4:	2b01      	cmp	r3, #1
 80096c6:	d903      	bls.n	80096d0 <service_lora_init+0xe0>
 80096c8:	f005 03fd 	and.w	r3, r5, #253	; 0xfd
 80096cc:	2b08      	cmp	r3, #8
 80096ce:	d129      	bne.n	8009724 <service_lora_init+0x134>
 80096d0:	2300      	movs	r3, #0
 80096d2:	a801      	add	r0, sp, #4
 80096d4:	f8ad 3002 	strh.w	r3, [sp, #2]
 80096d8:	f019 fb22 	bl	8022d20 <service_nvm_get_mask_from_nvm>
 80096dc:	4604      	mov	r4, r0
 80096de:	2800      	cmp	r0, #0
 80096e0:	d192      	bne.n	8009608 <service_lora_init+0x18>
 80096e2:	f8bd 3002 	ldrh.w	r3, [sp, #2]
 80096e6:	aa01      	add	r2, sp, #4
 80096e8:	4601      	mov	r1, r0
 80096ea:	2401      	movs	r4, #1
 80096ec:	f812 6b01 	ldrb.w	r6, [r2], #1
 80096f0:	b126      	cbz	r6, 80096fc <service_lora_init+0x10c>
 80096f2:	fa04 f100 	lsl.w	r1, r4, r0
 80096f6:	430b      	orrs	r3, r1
 80096f8:	b29b      	uxth	r3, r3
 80096fa:	2101      	movs	r1, #1
 80096fc:	3001      	adds	r0, #1
 80096fe:	280c      	cmp	r0, #12
 8009700:	d1f4      	bne.n	80096ec <service_lora_init+0xfc>
 8009702:	b109      	cbz	r1, 8009708 <service_lora_init+0x118>
 8009704:	f8ad 3002 	strh.w	r3, [sp, #2]
 8009708:	f016 fe2d 	bl	8020366 <service_lora_get_chs>
 800970c:	4601      	mov	r1, r0
 800970e:	2800      	cmp	r0, #0
 8009710:	f000 80b7 	beq.w	8009882 <service_lora_init+0x292>
 8009714:	f016 fe27 	bl	8020366 <service_lora_get_chs>
 8009718:	f7ff fb68 	bl	8008dec <service_lora_set_chs>
 800971c:	4604      	mov	r4, r0
 800971e:	2800      	cmp	r0, #0
 8009720:	f47f af72 	bne.w	8009608 <service_lora_init+0x18>
 8009724:	2d05      	cmp	r5, #5
 8009726:	f000 80b1 	beq.w	800988c <service_lora_init+0x29c>
 800972a:	f019 fc65 	bl	8022ff8 <service_nvm_get_njm_from_nvm>
 800972e:	2100      	movs	r1, #0
 8009730:	f7ff fe2e 	bl	8009390 <service_lora_set_njm>
 8009734:	4604      	mov	r4, r0
 8009736:	2800      	cmp	r0, #0
 8009738:	f47f af66 	bne.w	8009608 <service_lora_init+0x18>
 800973c:	f017 fb97 	bl	8020e6e <service_lora_setup_multicast>
 8009740:	4604      	mov	r4, r0
 8009742:	2800      	cmp	r0, #0
 8009744:	f47f af60 	bne.w	8009608 <service_lora_init+0x18>
 8009748:	f019 fc7a 	bl	8023040 <service_nvm_get_class_from_nvm>
 800974c:	4621      	mov	r1, r4
 800974e:	f7ff fdc7 	bl	80092e0 <service_lora_set_class>
 8009752:	4604      	mov	r4, r0
 8009754:	2800      	cmp	r0, #0
 8009756:	f47f af57 	bne.w	8009608 <service_lora_init+0x18>
 800975a:	f019 fc5f 	bl	802301c <service_nvm_get_adr_from_nvm>
 800975e:	4621      	mov	r1, r4
 8009760:	f016 ff0c 	bl	802057c <service_lora_set_adr>
 8009764:	4604      	mov	r4, r0
 8009766:	2800      	cmp	r0, #0
 8009768:	f47f af4e 	bne.w	8009608 <service_lora_init+0x18>
 800976c:	f019 fc7a 	bl	8023064 <service_nvm_get_dr_from_nvm>
 8009770:	4621      	mov	r1, r4
 8009772:	f7ff fc1d 	bl	8008fb0 <service_lora_set_dr>
 8009776:	4604      	mov	r4, r0
 8009778:	2800      	cmp	r0, #0
 800977a:	f47f af45 	bne.w	8009608 <service_lora_init+0x18>
 800977e:	f019 fc83 	bl	8023088 <service_nvm_get_rx2dr_from_nvm>
 8009782:	4621      	mov	r1, r4
 8009784:	f017 f802 	bl	802078c <service_lora_set_rx2dr>
 8009788:	4604      	mov	r4, r0
 800978a:	2800      	cmp	r0, #0
 800978c:	f47f af3c 	bne.w	8009608 <service_lora_init+0x18>
 8009790:	f019 fcbc 	bl	802310c <service_nvm_get_rx2fq_from_nvm>
 8009794:	4621      	mov	r1, r4
 8009796:	f016 ffd3 	bl	8020740 <service_lora_set_rx2freq>
 800979a:	f019 fc87 	bl	80230ac <service_nvm_get_jn1dl_from_nvm>
 800979e:	4621      	mov	r1, r4
 80097a0:	f016 ff12 	bl	80205c8 <service_lora_set_jn1dl>
 80097a4:	4604      	mov	r4, r0
 80097a6:	2800      	cmp	r0, #0
 80097a8:	f47f af2e 	bne.w	8009608 <service_lora_init+0x18>
 80097ac:	f019 fcb4 	bl	8023118 <service_nvm_get_pub_nwk_mode_from_nvm>
 80097b0:	4621      	mov	r1, r4
 80097b2:	f016 ff47 	bl	8020644 <service_lora_set_pub_nwk_mode>
 80097b6:	4604      	mov	r4, r0
 80097b8:	2800      	cmp	r0, #0
 80097ba:	f47f af25 	bne.w	8009608 <service_lora_init+0x18>
 80097be:	f019 fcbd 	bl	802313c <service_nvm_get_rx1dl_from_nvm>
 80097c2:	4621      	mov	r1, r4
 80097c4:	f016 ff5e 	bl	8020684 <service_lora_set_rx1dl>
 80097c8:	4604      	mov	r4, r0
 80097ca:	2800      	cmp	r0, #0
 80097cc:	f47f af1c 	bne.w	8009608 <service_lora_init+0x18>
 80097d0:	f019 fcd8 	bl	8023184 <service_nvm_get_txpower_from_nvm>
 80097d4:	4621      	mov	r1, r4
 80097d6:	f7ff fd59 	bl	800928c <service_lora_set_txpower>
 80097da:	4604      	mov	r4, r0
 80097dc:	2800      	cmp	r0, #0
 80097de:	f47f af13 	bne.w	8009608 <service_lora_init+0x18>
 80097e2:	f019 ff73 	bl	80236cc <service_nvm_get_dcs_from_nvm>
 80097e6:	2100      	movs	r1, #0
 80097e8:	f016 fcf1 	bl	80201ce <service_lora_set_dcs>
 80097ec:	4604      	mov	r4, r0
 80097ee:	2800      	cmp	r0, #0
 80097f0:	f47f af0a 	bne.w	8009608 <service_lora_init+0x18>
 80097f4:	2334      	movs	r3, #52	; 0x34
 80097f6:	a804      	add	r0, sp, #16
 80097f8:	f88d 3010 	strb.w	r3, [sp, #16]
 80097fc:	f026 fb40 	bl	802fe80 <LoRaMacMibGetRequestConfirm>
 8009800:	9d05      	ldr	r5, [sp, #20]
 8009802:	f016 fda4 	bl	802034e <service_lora_get_DevNonce>
 8009806:	80a8      	strh	r0, [r5, #4]
 8009808:	f016 fda9 	bl	802035e <service_lora_get_IsCertPortOn>
 800980c:	3800      	subs	r0, #0
 800980e:	bf18      	it	ne
 8009810:	2001      	movne	r0, #1
 8009812:	f885 01af 	strb.w	r0, [r5, #431]	; 0x1af
 8009816:	f016 fbf6 	bl	8020006 <service_lora_get_njm>
 800981a:	2800      	cmp	r0, #0
 800981c:	d043      	beq.n	80098a6 <service_lora_init+0x2b6>
 800981e:	4834      	ldr	r0, [pc, #208]	; (80098f0 <service_lora_init+0x300>)
 8009820:	f02b ff40 	bl	80356a4 <AU915_SingleChannelRegisterCallback>
 8009824:	4833      	ldr	r0, [pc, #204]	; (80098f4 <service_lora_init+0x304>)
 8009826:	f032 fe35 	bl	803c494 <US915_SingleChannelRegisterCallback>
 800982a:	f7ff fed3 	bl	80095d4 <service_lora_systemMaxRxError>
 800982e:	f026 fa9f 	bl	802fd70 <LoRaMacStart>
 8009832:	4605      	mov	r5, r0
 8009834:	2800      	cmp	r0, #0
 8009836:	f47f af25 	bne.w	8009684 <service_lora_init+0x94>
 800983a:	492f      	ldr	r1, [pc, #188]	; (80098f8 <service_lora_init+0x308>)
 800983c:	482f      	ldr	r0, [pc, #188]	; (80098fc <service_lora_init+0x30c>)
 800983e:	f017 fb8d 	bl	8020f5c <LmHandlerInit>
 8009842:	492f      	ldr	r1, [pc, #188]	; (8009900 <service_lora_init+0x310>)
 8009844:	4628      	mov	r0, r5
 8009846:	f7ff fe87 	bl	8009558 <LmHandlerPackageRegister>
 800984a:	4601      	mov	r1, r0
 800984c:	2800      	cmp	r0, #0
 800984e:	f47f af19 	bne.w	8009684 <service_lora_init+0x94>
 8009852:	2001      	movs	r0, #1
 8009854:	f7ff fe80 	bl	8009558 <LmHandlerPackageRegister>
 8009858:	4601      	mov	r1, r0
 800985a:	2800      	cmp	r0, #0
 800985c:	f47f af12 	bne.w	8009684 <service_lora_init+0x94>
 8009860:	2002      	movs	r0, #2
 8009862:	f7ff fe79 	bl	8009558 <LmHandlerPackageRegister>
 8009866:	2800      	cmp	r0, #0
 8009868:	f47f af0c 	bne.w	8009684 <service_lora_init+0x94>
 800986c:	4925      	ldr	r1, [pc, #148]	; (8009904 <service_lora_init+0x314>)
 800986e:	2003      	movs	r0, #3
 8009870:	f7ff fe72 	bl	8009558 <LmHandlerPackageRegister>
 8009874:	2800      	cmp	r0, #0
 8009876:	f47f af05 	bne.w	8009684 <service_lora_init+0x94>
 800987a:	4823      	ldr	r0, [pc, #140]	; (8009908 <service_lora_init+0x318>)
 800987c:	f018 f89e 	bl	80219bc <LmhpRemoteMcastSetupRegisterPowersaveHandler>
 8009880:	e6c2      	b.n	8009608 <service_lora_init+0x18>
 8009882:	f10d 0002 	add.w	r0, sp, #2
 8009886:	f7fe fe42 	bl	800850e <service_lora_set_mask>
 800988a:	e747      	b.n	800971c <service_lora_init+0x12c>
 800988c:	f016 fd6b 	bl	8020366 <service_lora_get_chs>
 8009890:	2800      	cmp	r0, #0
 8009892:	f43f af4a 	beq.w	800972a <service_lora_init+0x13a>
 8009896:	2000      	movs	r0, #0
 8009898:	f7ff faa8 	bl	8008dec <service_lora_set_chs>
 800989c:	4604      	mov	r4, r0
 800989e:	2800      	cmp	r0, #0
 80098a0:	f43f af43 	beq.w	800972a <service_lora_init+0x13a>
 80098a4:	e6b0      	b.n	8009608 <service_lora_init+0x18>
 80098a6:	f016 ffa4 	bl	80207f2 <restore_abp_config>
 80098aa:	f016 fc85 	bl	80201b8 <service_lora_get_adr>
 80098ae:	2800      	cmp	r0, #0
 80098b0:	d0b5      	beq.n	800981e <service_lora_init+0x22e>
 80098b2:	f019 fbd7 	bl	8023064 <service_nvm_get_dr_from_nvm>
 80098b6:	4621      	mov	r1, r4
 80098b8:	f7ff fb7a 	bl	8008fb0 <service_lora_set_dr>
 80098bc:	2800      	cmp	r0, #0
 80098be:	d0ae      	beq.n	800981e <service_lora_init+0x22e>
 80098c0:	e6a2      	b.n	8009608 <service_lora_init+0x18>
 80098c2:	bf00      	nop
 80098c4:	0803c988 	.word	0x0803c988
 80098c8:	2000778c 	.word	0x2000778c
 80098cc:	080082a9 	.word	0x080082a9
 80098d0:	08008b75 	.word	0x08008b75
 80098d4:	08009001 	.word	0x08009001
 80098d8:	2000777c 	.word	0x2000777c
 80098dc:	08008379 	.word	0x08008379
 80098e0:	08008229 	.word	0x08008229
 80098e4:	08008211 	.word	0x08008211
 80098e8:	200078c6 	.word	0x200078c6
 80098ec:	01000300 	.word	0x01000300
 80098f0:	2000606c 	.word	0x2000606c
 80098f4:	20006074 	.word	0x20006074
 80098f8:	2000774c 	.word	0x2000774c
 80098fc:	20006034 	.word	0x20006034
 8009900:	2000775c 	.word	0x2000775c
 8009904:	2000776c 	.word	0x2000776c
 8009908:	08008199 	.word	0x08008199

0800990c <service_lora_set_band>:
 800990c:	b5f0      	push	{r4, r5, r6, r7, lr}
 800990e:	b08b      	sub	sp, #44	; 0x2c
 8009910:	4606      	mov	r6, r0
 8009912:	f016 fb15 	bl	801ff40 <BoardGetHardwareFreq>
 8009916:	b2c0      	uxtb	r0, r0
 8009918:	2800      	cmp	r0, #0
 800991a:	f000 8081 	beq.w	8009a20 <service_lora_set_band+0x114>
 800991e:	2e02      	cmp	r6, #2
 8009920:	d104      	bne.n	800992c <service_lora_set_band+0x20>
 8009922:	f06f 0410 	mvn.w	r4, #16
 8009926:	4620      	mov	r0, r4
 8009928:	b00b      	add	sp, #44	; 0x2c
 800992a:	bdf0      	pop	{r4, r5, r6, r7, pc}
 800992c:	2e04      	cmp	r6, #4
 800992e:	d0f8      	beq.n	8009922 <service_lora_set_band+0x16>
 8009930:	f016 fd17 	bl	8020362 <service_lora_get_band>
 8009934:	42b0      	cmp	r0, r6
 8009936:	f000 809f 	beq.w	8009a78 <service_lora_set_band+0x16c>
 800993a:	4630      	mov	r0, r6
 800993c:	f016 fd25 	bl	802038a <service_lora_region_isActive>
 8009940:	2800      	cmp	r0, #0
 8009942:	d0ee      	beq.n	8009922 <service_lora_set_band+0x16>
 8009944:	f7fe fc9f 	bl	8008286 <service_lora_stop>
 8009948:	4604      	mov	r4, r0
 800994a:	b118      	cbz	r0, 8009954 <service_lora_set_band+0x48>
 800994c:	4b4b      	ldr	r3, [pc, #300]	; (8009a7c <service_lora_set_band+0x170>)
 800994e:	781b      	ldrb	r3, [r3, #0]
 8009950:	2b00      	cmp	r3, #0
 8009952:	d1e8      	bne.n	8009926 <service_lora_set_band+0x1a>
 8009954:	f017 fabe 	bl	8020ed4 <service_lora_clear_multicast>
 8009958:	2800      	cmp	r0, #0
 800995a:	d1e4      	bne.n	8009926 <service_lora_set_band+0x1a>
 800995c:	f019 fda2 	bl	80234a4 <service_nvm_set_chs_to_nvm>
 8009960:	4607      	mov	r7, r0
 8009962:	2800      	cmp	r0, #0
 8009964:	d1df      	bne.n	8009926 <service_lora_set_band+0x1a>
 8009966:	2e00      	cmp	r6, #0
 8009968:	d15f      	bne.n	8009a2a <service_lora_set_band+0x11e>
 800996a:	2001      	movs	r0, #1
 800996c:	f02a fbf6 	bl	803415c <RegionAS923SubBandSet>
 8009970:	4635      	mov	r5, r6
 8009972:	4943      	ldr	r1, [pc, #268]	; (8009a80 <service_lora_set_band+0x174>)
 8009974:	4843      	ldr	r0, [pc, #268]	; (8009a84 <service_lora_set_band+0x178>)
 8009976:	462a      	mov	r2, r5
 8009978:	f026 f81e 	bl	802f9b8 <LoRaMacInitialization>
 800997c:	2800      	cmp	r0, #0
 800997e:	d178      	bne.n	8009a72 <service_lora_set_band+0x166>
 8009980:	232c      	movs	r3, #44	; 0x2c
 8009982:	4668      	mov	r0, sp
 8009984:	f88d 3000 	strb.w	r3, [sp]
 8009988:	f026 fa7a 	bl	802fe80 <LoRaMacMibGetRequestConfirm>
 800998c:	2800      	cmp	r0, #0
 800998e:	d170      	bne.n	8009a72 <service_lora_set_band+0x166>
 8009990:	f89d 0004 	ldrb.w	r0, [sp, #4]
 8009994:	f019 fb6c 	bl	8023070 <service_nvm_set_dr_to_nvm>
 8009998:	4604      	mov	r4, r0
 800999a:	2800      	cmp	r0, #0
 800999c:	d1c3      	bne.n	8009926 <service_lora_set_band+0x1a>
 800999e:	2720      	movs	r7, #32
 80099a0:	4668      	mov	r0, sp
 80099a2:	f88d 7000 	strb.w	r7, [sp]
 80099a6:	f026 fa6b 	bl	802fe80 <LoRaMacMibGetRequestConfirm>
 80099aa:	2800      	cmp	r0, #0
 80099ac:	d161      	bne.n	8009a72 <service_lora_set_band+0x166>
 80099ae:	f89d 0008 	ldrb.w	r0, [sp, #8]
 80099b2:	f019 fb6f 	bl	8023094 <service_nvm_set_rx2dr_to_nvm>
 80099b6:	4604      	mov	r4, r0
 80099b8:	2800      	cmp	r0, #0
 80099ba:	d1b4      	bne.n	8009926 <service_lora_set_band+0x1a>
 80099bc:	4668      	mov	r0, sp
 80099be:	f88d 7000 	strb.w	r7, [sp]
 80099c2:	f026 fa5d 	bl	802fe80 <LoRaMacMibGetRequestConfirm>
 80099c6:	2800      	cmp	r0, #0
 80099c8:	d153      	bne.n	8009a72 <service_lora_set_band+0x166>
 80099ca:	9801      	ldr	r0, [sp, #4]
 80099cc:	f019 fb92 	bl	80230f4 <service_nvm_set_rx2fq_to_nvm>
 80099d0:	4604      	mov	r4, r0
 80099d2:	2800      	cmp	r0, #0
 80099d4:	d1a7      	bne.n	8009926 <service_lora_set_band+0x1a>
 80099d6:	232f      	movs	r3, #47	; 0x2f
 80099d8:	4668      	mov	r0, sp
 80099da:	f88d 3000 	strb.w	r3, [sp]
 80099de:	f026 fa4f 	bl	802fe80 <LoRaMacMibGetRequestConfirm>
 80099e2:	2800      	cmp	r0, #0
 80099e4:	d145      	bne.n	8009a72 <service_lora_set_band+0x166>
 80099e6:	f89d 0004 	ldrb.w	r0, [sp, #4]
 80099ea:	f019 fbd1 	bl	8023190 <service_nvm_set_txpower_to_nvm>
 80099ee:	4604      	mov	r4, r0
 80099f0:	2800      	cmp	r0, #0
 80099f2:	d198      	bne.n	8009926 <service_lora_set_band+0x1a>
 80099f4:	1e6b      	subs	r3, r5, #1
 80099f6:	b2db      	uxtb	r3, r3
 80099f8:	2b01      	cmp	r3, #1
 80099fa:	d928      	bls.n	8009a4e <service_lora_set_band+0x142>
 80099fc:	f005 03fd 	and.w	r3, r5, #253	; 0xfd
 8009a00:	2b08      	cmp	r3, #8
 8009a02:	d024      	beq.n	8009a4e <service_lora_set_band+0x142>
 8009a04:	2e00      	cmp	r6, #0
 8009a06:	bf18      	it	ne
 8009a08:	4635      	movne	r5, r6
 8009a0a:	4628      	mov	r0, r5
 8009a0c:	f019 f97c 	bl	8022d08 <service_nvm_set_band_to_nvm>
 8009a10:	4604      	mov	r4, r0
 8009a12:	2800      	cmp	r0, #0
 8009a14:	d187      	bne.n	8009926 <service_lora_set_band+0x1a>
 8009a16:	4628      	mov	r0, r5
 8009a18:	f7ff fdea 	bl	80095f0 <service_lora_init>
 8009a1c:	4604      	mov	r4, r0
 8009a1e:	e782      	b.n	8009926 <service_lora_set_band+0x1a>
 8009a20:	2e02      	cmp	r6, #2
 8009a22:	d085      	beq.n	8009930 <service_lora_set_band+0x24>
 8009a24:	2e04      	cmp	r6, #4
 8009a26:	d083      	beq.n	8009930 <service_lora_set_band+0x24>
 8009a28:	e77b      	b.n	8009922 <service_lora_set_band+0x16>
 8009a2a:	2e14      	cmp	r6, #20
 8009a2c:	d104      	bne.n	8009a38 <service_lora_set_band+0x12c>
 8009a2e:	2002      	movs	r0, #2
 8009a30:	f02a fb94 	bl	803415c <RegionAS923SubBandSet>
 8009a34:	463d      	mov	r5, r7
 8009a36:	e79c      	b.n	8009972 <service_lora_set_band+0x66>
 8009a38:	2e15      	cmp	r6, #21
 8009a3a:	d101      	bne.n	8009a40 <service_lora_set_band+0x134>
 8009a3c:	2003      	movs	r0, #3
 8009a3e:	e7f7      	b.n	8009a30 <service_lora_set_band+0x124>
 8009a40:	2e16      	cmp	r6, #22
 8009a42:	d101      	bne.n	8009a48 <service_lora_set_band+0x13c>
 8009a44:	2004      	movs	r0, #4
 8009a46:	e7f3      	b.n	8009a30 <service_lora_set_band+0x124>
 8009a48:	4635      	mov	r5, r6
 8009a4a:	4606      	mov	r6, r0
 8009a4c:	e791      	b.n	8009972 <service_lora_set_band+0x66>
 8009a4e:	2324      	movs	r3, #36	; 0x24
 8009a50:	4668      	mov	r0, sp
 8009a52:	f88d 3000 	strb.w	r3, [sp]
 8009a56:	f026 fa13 	bl	802fe80 <LoRaMacMibGetRequestConfirm>
 8009a5a:	b950      	cbnz	r0, 8009a72 <service_lora_set_band+0x166>
 8009a5c:	9801      	ldr	r0, [sp, #4]
 8009a5e:	f019 f969 	bl	8022d34 <service_nvm_set_mask_to_nvm>
 8009a62:	4604      	mov	r4, r0
 8009a64:	2800      	cmp	r0, #0
 8009a66:	f47f af5e 	bne.w	8009926 <service_lora_set_band+0x1a>
 8009a6a:	f019 fd1b 	bl	80234a4 <service_nvm_set_chs_to_nvm>
 8009a6e:	2800      	cmp	r0, #0
 8009a70:	d0c8      	beq.n	8009a04 <service_lora_set_band+0xf8>
 8009a72:	f06f 0406 	mvn.w	r4, #6
 8009a76:	e756      	b.n	8009926 <service_lora_set_band+0x1a>
 8009a78:	2400      	movs	r4, #0
 8009a7a:	e754      	b.n	8009926 <service_lora_set_band+0x1a>
 8009a7c:	200078c6 	.word	0x200078c6
 8009a80:	2000777c 	.word	0x2000777c
 8009a84:	2000778c 	.word	0x2000778c

08009a88 <service_lora_set_lora_default>:
 8009a88:	b538      	push	{r3, r4, r5, lr}
