Archive member included to satisfy reference by file (symbol)

out/external/libexternal_fuota_stack.a(subghz.o)
                              (--whole-archive)
out/external/libexternal_fuota_stack.a(radio_board_if.o)
                              (--whole-archive)
out/external/libexternal_fuota_stack.a(timer_if.o)
                              (--whole-archive)
out/external/libexternal_fuota_stack.a(board.o)
                              (--whole-archive)
out/external/libexternal_fuota_stack.a(service_lora_config.o)
                              (--whole-archive)
out/external/libexternal_fuota_stack.a(service_lora_multicast.o)
                              (--whole-archive)
out/external/libexternal_fuota_stack.a(LmHandler.o)
                              (--whole-archive)
out/external/libexternal_fuota_stack.a(LmhpClockSync.o)
                              (--whole-archive)
out/external/libexternal_fuota_stack.a(LmhpRemoteMcastSetup.o)
                              (--whole-archive)
out/external/libexternal_fuota_stack.a(LmhpFragmentation.o)
                              (--whole-archive)
out/external/libexternal_fuota_stack.a(FragDecoder.o)
                              (--whole-archive)
out/external/libexternal_fuota_stack.a(udrv_flash.o)
                              (--whole-archive)
out/external/libexternal_fuota_stack.a(system_stm32wlxx.o)
                              (--whole-archive)
out/external/libexternal_fuota_stack.a(stm32wlxx_hal_msp.o)
                              (--whole-archive)
out/external/libexternal_fuota_stack.a(service_nvm_common.o)
                              (--whole-archive)
out/external/libexternal_fuota_stack.a(uhal_flash.o)
                              (--whole-archive)
out/external/libexternal_fuota_stack.a(uhal_system.o)
                              (--whole-archive)
out/external/libexternal_fuota_stack.a(uhal_rtc.o)
                              (--whole-archive)
out/external/libexternal_fuota_stack.a(uhal_crypto.o)
                              (--whole-archive)
out/external/libexternal_fuota_stack.a(stm32wlxx_hal_cortex.o)
                              (--whole-archive)
out/external/libexternal_fuota_stack.a(radio.o)
                              (--whole-archive)
out/external/libexternal_fuota_stack.a(radio_fw.o)
                              (--whole-archive)
out/external/libexternal_fuota_stack.a(radio_driver.o)
                              (--whole-archive)
out/external/libexternal_fuota_stack.a(stm32_mem.o)
                              (--whole-archive)
out/external/libexternal_fuota_stack.a(stm32_timer.o)
                              (--whole-archive)
out/external/libexternal_fuota_stack.a(stm32_tiny_vsnprintf.o)
                              (--whole-archive)
out/external/libexternal_fuota_stack.a(stm32_systime.o)
                              (--whole-archive)
out/external/libexternal_fuota_stack.a(stm32wlxx_hal.o)
                              (--whole-archive)
out/external/libexternal_fuota_stack.a(stm32wlxx_hal_rcc.o)
                              (--whole-archive)
out/external/libexternal_fuota_stack.a(stm32wlxx_hal_rcc_ex.o)
                              (--whole-archive)
out/external/libexternal_fuota_stack.a(stm32wlxx_hal_rtc.o)
                              (--whole-archive)
out/external/libexternal_fuota_stack.a(stm32wlxx_hal_rtc_ex.o)
                              (--whole-archive)
out/external/libexternal_fuota_stack.a(stm32wlxx_hal_pwr.o)
                              (--whole-archive)
out/external/libexternal_fuota_stack.a(stm32wlxx_hal_pwr_ex.o)
                              (--whole-archive)
out/external/libexternal_fuota_stack.a(stm32wlxx_hal_flash.o)
                              (--whole-archive)
out/external/libexternal_fuota_stack.a(stm32wlxx_hal_flash_ex.o)
                              (--whole-archive)
out/external/libexternal_fuota_stack.a(stm32wlxx_hal_subghz.o)
                              (--whole-archive)
out/external/libexternal_fuota_stack.a(stm32wlxx_hal_gpio.o)
                              (--whole-archive)
out/external/libexternal_fuota_stack.a(stm32wlxx_hal_cryp.o)
                              (--whole-archive)
out/external/libexternal_fuota_stack.a(stm32wlxx_hal_dma.o)
                              (--whole-archive)
out/external/libexternal_fuota_stack.a(utilities.o)
                              (--whole-archive)
out/external/libexternal_fuota_stack.a(cmac.o)
                              (--whole-archive)
out/external/libexternal_fuota_stack.a(soft-se-hal.o)
                              (--whole-archive)
out/external/libexternal_fuota_stack.a(soft-se.o)
                              (--whole-archive)
out/external/libexternal_fuota_stack.a(LoRaMacAdr.o)
                              (--whole-archive)
out/external/libexternal_fuota_stack.a(LoRaMac.o)
                              (--whole-archive)
out/external/libexternal_fuota_stack.a(LoRaMacClassB.o)
                              (--whole-archive)
out/external/libexternal_fuota_stack.a(LoRaMacCommands.o)
                              (--whole-archive)
out/external/libexternal_fuota_stack.a(LoRaMacConfirmQueue.o)
                              (--whole-archive)
out/external/libexternal_fuota_stack.a(LoRaMacCrypto.o)
                              (--whole-archive)
out/external/libexternal_fuota_stack.a(LoRaMacParser.o)
                              (--whole-archive)
out/external/libexternal_fuota_stack.a(LoRaMacSerializer.o)
                              (--whole-archive)
out/external/libexternal_fuota_stack.a(RegionAS923.o)
                              (--whole-archive)
out/external/libexternal_fuota_stack.a(RegionAU915.o)
                              (--whole-archive)
out/external/libexternal_fuota_stack.a(RegionBaseUS.o)
                              (--whole-archive)
out/external/libexternal_fuota_stack.a(Region.o)
                              (--whole-archive)
out/external/libexternal_fuota_stack.a(RegionCN470A20.o)
                              (--whole-archive)
out/external/libexternal_fuota_stack.a(RegionCN470A26.o)
                              (--whole-archive)
out/external/libexternal_fuota_stack.a(RegionCN470B20.o)
                              (--whole-archive)
out/external/libexternal_fuota_stack.a(RegionCN470B26.o)
                              (--whole-archive)
out/external/libexternal_fuota_stack.a(RegionCN470.o)
                              (--whole-archive)
out/external/libexternal_fuota_stack.a(RegionCN779.o)
                              (--whole-archive)
out/external/libexternal_fuota_stack.a(RegionCommon.o)
                              (--whole-archive)
out/external/libexternal_fuota_stack.a(RegionEU433.o)
                              (--whole-archive)
out/external/libexternal_fuota_stack.a(RegionEU868.o)
                              (--whole-archive)
out/external/libexternal_fuota_stack.a(RegionIN865.o)
                              (--whole-archive)
out/external/libexternal_fuota_stack.a(RegionKR920.o)
                              (--whole-archive)
out/external/libexternal_fuota_stack.a(RegionLA915.o)
                              (--whole-archive)
out/external/libexternal_fuota_stack.a(RegionRU864.o)
                              (--whole-archive)
out/external/libexternal_fuota_stack.a(RegionUS915.o)
                              (--whole-archive)
/opt/gcc-arm-none-eabi-10-2020-q4-major/bin/../lib/gcc/arm-none-eabi/10.2.1/../../../../arm-none-eabi/lib/thumb/v7e-m/nofp/libc_nano.a(lib_a-memcmp.o)
                              out/external/libexternal_fuota_stack.a(service_lora_multicast.o) (memcmp)
/opt/gcc-arm-none-eabi-10-2020-q4-major/bin/../lib/gcc/arm-none-eabi/10.2.1/../../../../arm-none-eabi/lib/thumb/v7e-m/nofp/libc_nano.a(lib_a-memcpy-stub.o)
                              out/external/libexternal_fuota_stack.a(service_lora_config.o) (memcpy)
/opt/gcc-arm-none-eabi-10-2020-q4-major/bin/../lib/gcc/arm-none-eabi/10.2.1/../../../../arm-none-eabi/lib/thumb/v7e-m/nofp/libc_nano.a(lib_a-memset.o)
                              out/external/libexternal_fuota_stack.a(radio_board_if.o) (memset)
/opt/gcc-arm-none-eabi-10-2020-q4-major/bin/../lib/gcc/arm-none-eabi/10.2.1/../../../../arm-none-eabi/lib/thumb/v7e-m/nofp/libc_nano.a(lib_a-strlen.o)
                              out/external/libexternal_fuota_stack.a(service_nvm_common.o) (strlen)
/opt/gcc-arm-none-eabi-10-2020-q4-major/bin/../lib/gcc/arm-none-eabi/10.2.1/../../../../arm-none-eabi/lib/thumb/v7e-m/nofp/libm.a(lib_a-s_floor.o)
                              out/external/libexternal_fuota_stack.a(RegionCommon.o) (floor)
/opt/gcc-arm-none-eabi-10-2020-q4-major/bin/../lib/gcc/arm-none-eabi/10.2.1/thumb/v7e-m/nofp/libgcc.a(_arm_addsubdf3.o)
                              /opt/gcc-arm-none-eabi-10-2020-q4-major/bin/../lib/gcc/arm-none-eabi/10.2.1/../../../../arm-none-eabi/lib/thumb/v7e-m/nofp/libm.a(lib_a-s_floor.o) (__aeabi_dadd)
/opt/gcc-arm-none-eabi-10-2020-q4-major/bin/../lib/gcc/arm-none-eabi/10.2.1/thumb/v7e-m/nofp/libgcc.a(_arm_cmpdf2.o)
                              /opt/gcc-arm-none-eabi-10-2020-q4-major/bin/../lib/gcc/arm-none-eabi/10.2.1/../../../../arm-none-eabi/lib/thumb/v7e-m/nofp/libm.a(lib_a-s_floor.o) (__aeabi_dcmpgt)
/opt/gcc-arm-none-eabi-10-2020-q4-major/bin/../lib/gcc/arm-none-eabi/10.2.1/thumb/v7e-m/nofp/libgcc.a(_arm_fixdfsi.o)
                              out/external/libexternal_fuota_stack.a(RegionCommon.o) (__aeabi_d2iz)
/opt/gcc-arm-none-eabi-10-2020-q4-major/bin/../lib/gcc/arm-none-eabi/10.2.1/thumb/v7e-m/nofp/libgcc.a(_arm_addsubsf3.o)
                              out/external/libexternal_fuota_stack.a(RegionCommon.o) (__aeabi_fsub)
/opt/gcc-arm-none-eabi-10-2020-q4-major/bin/../lib/gcc/arm-none-eabi/10.2.1/thumb/v7e-m/nofp/libgcc.a(_arm_cmpsf2.o)
                              out/external/libexternal_fuota_stack.a(RegionKR920.o) (__aeabi_fcmplt)
/opt/gcc-arm-none-eabi-10-2020-q4-major/bin/../lib/gcc/arm-none-eabi/10.2.1/thumb/v7e-m/nofp/libgcc.a(_aeabi_ldivmod.o)
                              out/external/libexternal_fuota_stack.a(timer_if.o) (__aeabi_ldivmod)
/opt/gcc-arm-none-eabi-10-2020-q4-major/bin/../lib/gcc/arm-none-eabi/10.2.1/thumb/v7e-m/nofp/libgcc.a(_aeabi_uldivmod.o)
                              out/external/libexternal_fuota_stack.a(timer_if.o) (__aeabi_uldivmod)
/opt/gcc-arm-none-eabi-10-2020-q4-major/bin/../lib/gcc/arm-none-eabi/10.2.1/thumb/v7e-m/nofp/libgcc.a(_udivmoddi4.o)
                              /opt/gcc-arm-none-eabi-10-2020-q4-major/bin/../lib/gcc/arm-none-eabi/10.2.1/thumb/v7e-m/nofp/libgcc.a(_aeabi_ldivmod.o) (__udivmoddi4)
/opt/gcc-arm-none-eabi-10-2020-q4-major/bin/../lib/gcc/arm-none-eabi/10.2.1/thumb/v7e-m/nofp/libgcc.a(_dvmd_tls.o)
                              /opt/gcc-arm-none-eabi-10-2020-q4-major/bin/../lib/gcc/arm-none-eabi/10.2.1/thumb/v7e-m/nofp/libgcc.a(_aeabi_ldivmod.o) (__aeabi_ldiv0)

Memory Configuration

Name             Origin             Length             Attributes
BL               0x0000000008000000 0x0000000000006000 xr
ROM              0x000000000801e000 0x000000000001e800 xr
RAM1_DATA        0x0000000020000000 0x0000000000006000 xrw
RAM1             0x0000000020006000 0x0000000000009c00 xrw
RAM2             0x000000002000fc00 0x0000000000000400 xrw
*default*        0x0000000000000000 0xffffffffffffffff

Linker script and memory map

START GROUP
LOAD out/external/libexternal_fuota_stack.a
END GROUP
LOAD out/external/libexternal_fuota_stack.a
LOAD /opt/gcc-arm-none-eabi-10-2020-q4-major/bin/../lib/gcc/arm-none-eabi/10.2.1/../../../../arm-none-eabi/lib/thumb/v7e-m/nofp/libc_nano.a
LOAD /opt/gcc-arm-none-eabi-10-2020-q4-major/bin/../lib/gcc/arm-none-eabi/10.2.1/../../../../arm-none-eabi/lib/thumb/v7e-m/nofp/libm.a
LOAD /opt/gcc-arm-none-eabi-10-2020-q4-major/bin/../lib/gcc/arm-none-eabi/10.2.1/../../../../arm-none-eabi/lib/thumb/v7e-m/nofp/libnosys.a
LOAD /opt/gcc-arm-none-eabi-10-2020-q4-major/bin/../lib/gcc/arm-none-eabi/10.2.1/../../../../arm-none-eabi/lib/thumb/v7e-m/nofp/libstdc++_nano.a
LOAD /home/jenkins/workspace/RUI_Release/rui-v3/version.o
START GROUP
LOAD /opt/gcc-arm-none-eabi-10-2020-q4-major/bin/../lib/gcc/arm-none-eabi/10.2.1/thumb/v7e-m/nofp/libgcc.a
LOAD /opt/gcc-arm-none-eabi-10-2020-q4-major/bin/../lib/gcc/arm-none-eabi/10.2.1/../../../../arm-none-eabi/lib/thumb/v7e-m/nofp/libc_nano.a
END GROUP
START GROUP
LOAD /opt/gcc-arm-none-eabi-10-2020-q4-major/bin/../lib/gcc/arm-none-eabi/10.2.1/thumb/v7e-m/nofp/libgcc.a
LOAD /opt/gcc-arm-none-eabi-10-2020-q4-major/bin/../lib/gcc/arm-none-eabi/10.2.1/../../../../arm-none-eabi/lib/thumb/v7e-m/nofp/libc_nano.a
END GROUP
                0x000000002000fc00                _estack = (ORIGIN (RAM1) + LENGTH (RAM1))
                0x0000000000001e00                _Min_Heap_Size = 0x1e00
                0x0000000000002000                _Min_Stack_Size = 0x2000

.isr_vector     0x000000000801e000        0x0
                0x000000000801e000                . = ALIGN (0x8)
 *(.isr_vector)
                0x000000000801e000                . = ALIGN (0x8)

.text           0x000000000801e000    0x1d620
                0x000000000801e000                . = ALIGN (0x8)
 *(.text)
 .text          0x000000000801e000        0x0 out/external/libexternal_fuota_stack.a(subghz.o)
 .text          0x000000000801e000        0x0 out/external/libexternal_fuota_stack.a(radio_board_if.o)
 .text          0x000000000801e000        0x0 out/external/libexternal_fuota_stack.a(timer_if.o)
 .text          0x000000000801e000        0x0 out/external/libexternal_fuota_stack.a(board.o)
 .text          0x000000000801e000        0x0 out/external/libexternal_fuota_stack.a(service_lora_config.o)
 .text          0x000000000801e000        0x0 out/external/libexternal_fuota_stack.a(service_lora_multicast.o)
 .text          0x000000000801e000        0x0 out/external/libexternal_fuota_stack.a(LmHandler.o)
 .text          0x000000000801e000        0x0 out/external/libexternal_fuota_stack.a(LmhpClockSync.o)
 .text          0x000000000801e000        0x0 out/external/libexternal_fuota_stack.a(LmhpRemoteMcastSetup.o)
 .text          0x000000000801e000        0x0 out/external/libexternal_fuota_stack.a(LmhpFragmentation.o)
 .text          0x000000000801e000        0x0 out/external/libexternal_fuota_stack.a(FragDecoder.o)
 .text          0x000000000801e000        0x0 out/external/libexternal_fuota_stack.a(udrv_flash.o)
 .text          0x000000000801e000        0x0 out/external/libexternal_fuota_stack.a(system_stm32wlxx.o)
 .text          0x000000000801e000        0x0 out/external/libexternal_fuota_stack.a(stm32wlxx_hal_msp.o)
 .text          0x000000000801e000        0x0 out/external/libexternal_fuota_stack.a(service_nvm_common.o)
 .text          0x000000000801e000        0x0 out/external/libexternal_fuota_stack.a(uhal_flash.o)
 .text          0x000000000801e000        0x0 out/external/libexternal_fuota_stack.a(uhal_system.o)
 .text          0x000000000801e000        0x0 out/external/libexternal_fuota_stack.a(uhal_rtc.o)
 .text          0x000000000801e000        0x0 out/external/libexternal_fuota_stack.a(uhal_crypto.o)
 .text          0x000000000801e000        0x0 out/external/libexternal_fuota_stack.a(stm32wlxx_hal_cortex.o)
 .text          0x000000000801e000        0x0 out/external/libexternal_fuota_stack.a(radio.o)
 .text          0x000000000801e000        0x0 out/external/libexternal_fuota_stack.a(radio_fw.o)
 .text          0x000000000801e000        0x0 out/external/libexternal_fuota_stack.a(radio_driver.o)
 .text          0x000000000801e000        0x0 out/external/libexternal_fuota_stack.a(stm32_mem.o)
 .text          0x000000000801e000        0x0 out/external/libexternal_fuota_stack.a(stm32_timer.o)
 .text          0x000000000801e000        0x0 out/external/libexternal_fuota_stack.a(stm32_tiny_vsnprintf.o)
 .text          0x000000000801e000        0x0 out/external/libexternal_fuota_stack.a(stm32_systime.o)
 .text          0x000000000801e000        0x0 out/external/libexternal_fuota_stack.a(stm32wlxx_hal.o)
 .text          0x000000000801e000        0x0 out/external/libexternal_fuota_stack.a(stm32wlxx_hal_rcc.o)
 .text          0x000000000801e000        0x0 out/external/libexternal_fuota_stack.a(stm32wlxx_hal_rcc_ex.o)
 .text          0x000000000801e000        0x0 out/external/libexternal_fuota_stack.a(stm32wlxx_hal_rtc.o)
 .text          0x000000000801e000        0x0 out/external/libexternal_fuota_stack.a(stm32wlxx_hal_rtc_ex.o)
 .text          0x000000000801e000        0x0 out/external/libexternal_fuota_stack.a(stm32wlxx_hal_pwr.o)
 .text          0x000000000801e000        0x0 out/external/libexternal_fuota_stack.a(stm32wlxx_hal_pwr_ex.o)
 .text          0x000000000801e000        0x0 out/external/libexternal_fuota_stack.a(stm32wlxx_hal_flash.o)
 .text          0x000000000801e000        0x0 out/external/libexternal_fuota_stack.a(stm32wlxx_hal_flash_ex.o)
 .text          0x000000000801e000        0x0 out/external/libexternal_fuota_stack.a(stm32wlxx_hal_subghz.o)
 .text          0x000000000801e000        0x0 out/external/libexternal_fuota_stack.a(stm32wlxx_hal_gpio.o)
 .text          0x000000000801e000        0x0 out/external/libexternal_fuota_stack.a(stm32wlxx_hal_cryp.o)
 .text          0x000000000801e000        0x0 out/external/libexternal_fuota_stack.a(stm32wlxx_hal_dma.o)
 .text          0x000000000801e000        0x0 out/external/libexternal_fuota_stack.a(utilities.o)
 .text          0x000000000801e000        0x0 out/external/libexternal_fuota_stack.a(cmac.o)
 .text          0x000000000801e000        0x0 out/external/libexternal_fuota_stack.a(soft-se-hal.o)
 .text          0x000000000801e000        0x0 out/external/libexternal_fuota_stack.a(soft-se.o)
 .text          0x000000000801e000        0x0 out/external/libexternal_fuota_stack.a(LoRaMacAdr.o)
 .text          0x000000000801e000        0x0 out/external/libexternal_fuota_stack.a(LoRaMac.o)
 .text          0x000000000801e000        0x0 out/external/libexternal_fuota_stack.a(LoRaMacClassB.o)
 .text          0x000000000801e000        0x0 out/external/libexternal_fuota_stack.a(LoRaMacCommands.o)
 .text          0x000000000801e000        0x0 out/external/libexternal_fuota_stack.a(LoRaMacConfirmQueue.o)
 .text          0x000000000801e000        0x0 out/external/libexternal_fuota_stack.a(LoRaMacCrypto.o)
 .text          0x000000000801e000        0x0 out/external/libexternal_fuota_stack.a(LoRaMacParser.o)
 .text          0x000000000801e000        0x0 out/external/libexternal_fuota_stack.a(LoRaMacSerializer.o)
 .text          0x000000000801e000        0x0 out/external/libexternal_fuota_stack.a(RegionAS923.o)
 .text          0x000000000801e000        0x0 out/external/libexternal_fuota_stack.a(RegionAU915.o)
 .text          0x000000000801e000        0x0 out/external/libexternal_fuota_stack.a(RegionBaseUS.o)
 .text          0x000000000801e000        0x0 out/external/libexternal_fuota_stack.a(Region.o)
 .text          0x000000000801e000        0x0 out/external/libexternal_fuota_stack.a(RegionCN470A20.o)
 .text          0x000000000801e000        0x0 out/external/libexternal_fuota_stack.a(RegionCN470A26.o)
 .text          0x000000000801e000        0x0 out/external/libexternal_fuota_stack.a(RegionCN470B20.o)
 .text          0x000000000801e000        0x0 out/external/libexternal_fuota_stack.a(RegionCN470B26.o)
 .text          0x000000000801e000        0x0 out/external/libexternal_fuota_stack.a(RegionCN470.o)
 .text          0x000000000801e000        0x0 out/external/libexternal_fuota_stack.a(RegionCN779.o)
 .text          0x000000000801e000        0x0 out/external/libexternal_fuota_stack.a(RegionCommon.o)
 .text          0x000000000801e000        0x0 out/external/libexternal_fuota_stack.a(RegionEU433.o)
 .text          0x000000000801e000        0x0 out/external/libexternal_fuota_stack.a(RegionEU868.o)
 .text          0x000000000801e000        0x0 out/external/libexternal_fuota_stack.a(RegionIN865.o)
 .text          0x000000000801e000        0x0 out/external/libexternal_fuota_stack.a(RegionKR920.o)
 .text          0x000000000801e000        0x0 out/external/libexternal_fuota_stack.a(RegionLA915.o)
 .text          0x000000000801e000        0x0 out/external/libexternal_fuota_stack.a(RegionRU864.o)
 .text          0x000000000801e000        0x0 out/external/libexternal_fuota_stack.a(RegionUS915.o)
 .text          0x000000000801e000        0x0 /opt/gcc-arm-none-eabi-10-2020-q4-major/bin/../lib/gcc/arm-none-eabi/10.2.1/../../../../arm-none-eabi/lib/thumb/v7e-m/nofp/libc_nano.a(lib_a-memcmp.o)
 .text          0x000000000801e000        0x0 /opt/gcc-arm-none-eabi-10-2020-q4-major/bin/../lib/gcc/arm-none-eabi/10.2.1/../../../../arm-none-eabi/lib/thumb/v7e-m/nofp/libc_nano.a(lib_a-memcpy-stub.o)
 .text          0x000000000801e000        0x0 /opt/gcc-arm-none-eabi-10-2020-q4-major/bin/../lib/gcc/arm-none-eabi/10.2.1/../../../../arm-none-eabi/lib/thumb/v7e-m/nofp/libc_nano.a(lib_a-memset.o)
 .text          0x000000000801e000       0x10 /opt/gcc-arm-none-eabi-10-2020-q4-major/bin/../lib/gcc/arm-none-eabi/10.2.1/../../../../arm-none-eabi/lib/thumb/v7e-m/nofp/libc_nano.a(lib_a-strlen.o)
                0x000000000801e000                strlen
 .text          0x000000000801e010        0x0 /opt/gcc-arm-none-eabi-10-2020-q4-major/bin/../lib/gcc/arm-none-eabi/10.2.1/../../../../arm-none-eabi/lib/thumb/v7e-m/nofp/libm.a(lib_a-s_floor.o)
 .text          0x000000000801e010        0x0 /home/jenkins/workspace/RUI_Release/rui-v3/version.o
 .text          0x000000000801e010      0x378 /opt/gcc-arm-none-eabi-10-2020-q4-major/bin/../lib/gcc/arm-none-eabi/10.2.1/thumb/v7e-m/nofp/libgcc.a(_arm_addsubdf3.o)
                0x000000000801e010                __aeabi_drsub
                0x000000000801e018                __aeabi_dsub
                0x000000000801e018                __subdf3
                0x000000000801e01c                __adddf3
                0x000000000801e01c                __aeabi_dadd
                0x000000000801e294                __aeabi_ui2d
                0x000000000801e294                __floatunsidf
                0x000000000801e2b4                __floatsidf
                0x000000000801e2b4                __aeabi_i2d
                0x000000000801e2d8                __extendsfdf2
                0x000000000801e2d8                __aeabi_f2d
                0x000000000801e31c                __aeabi_ul2d
                0x000000000801e31c                __floatundidf
                0x000000000801e32c                __floatdidf
                0x000000000801e32c                __aeabi_l2d
 .text          0x000000000801e388      0x110 /opt/gcc-arm-none-eabi-10-2020-q4-major/bin/../lib/gcc/arm-none-eabi/10.2.1/thumb/v7e-m/nofp/libgcc.a(_arm_cmpdf2.o)
                0x000000000801e388                __gtdf2
                0x000000000801e388                __gedf2
                0x000000000801e390                __ltdf2
                0x000000000801e390                __ledf2
                0x000000000801e398                __cmpdf2
                0x000000000801e398                __eqdf2
                0x000000000801e398                __nedf2
                0x000000000801e414                __aeabi_cdrcmple
                0x000000000801e424                __aeabi_cdcmple
                0x000000000801e424                __aeabi_cdcmpeq
                0x000000000801e434                __aeabi_dcmpeq
                0x000000000801e448                __aeabi_dcmplt
                0x000000000801e45c                __aeabi_dcmple
                0x000000000801e470                __aeabi_dcmpge
                0x000000000801e484                __aeabi_dcmpgt
 .text          0x000000000801e498       0x50 /opt/gcc-arm-none-eabi-10-2020-q4-major/bin/../lib/gcc/arm-none-eabi/10.2.1/thumb/v7e-m/nofp/libgcc.a(_arm_fixdfsi.o)
                0x000000000801e498                __fixdfsi
                0x000000000801e498                __aeabi_d2iz
 .text          0x000000000801e4e8      0x21c /opt/gcc-arm-none-eabi-10-2020-q4-major/bin/../lib/gcc/arm-none-eabi/10.2.1/thumb/v7e-m/nofp/libgcc.a(_arm_addsubsf3.o)
                0x000000000801e4e8                __aeabi_frsub
                0x000000000801e4f0                __subsf3
                0x000000000801e4f0                __aeabi_fsub
                0x000000000801e4f4                __aeabi_fadd
                0x000000000801e4f4                __addsf3
                0x000000000801e654                __aeabi_ui2f
                0x000000000801e654                __floatunsisf
                0x000000000801e65c                __aeabi_i2f
                0x000000000801e65c                __floatsisf
                0x000000000801e678                __floatundisf
                0x000000000801e678                __aeabi_ul2f
                0x000000000801e688                __floatdisf
                0x000000000801e688                __aeabi_l2f
 .text          0x000000000801e704       0xec /opt/gcc-arm-none-eabi-10-2020-q4-major/bin/../lib/gcc/arm-none-eabi/10.2.1/thumb/v7e-m/nofp/libgcc.a(_arm_cmpsf2.o)
                0x000000000801e704                __gtsf2
                0x000000000801e704                __gesf2
                0x000000000801e70c                __lesf2
                0x000000000801e70c                __ltsf2
                0x000000000801e714                __nesf2
                0x000000000801e714                __eqsf2
                0x000000000801e714                __cmpsf2
                0x000000000801e774                __aeabi_cfrcmple
                0x000000000801e77c                __aeabi_cfcmple
                0x000000000801e77c                __aeabi_cfcmpeq
                0x000000000801e78c                __aeabi_fcmpeq
                0x000000000801e7a0                __aeabi_fcmplt
                0x000000000801e7b4                __aeabi_fcmple
                0x000000000801e7c8                __aeabi_fcmpge
                0x000000000801e7dc                __aeabi_fcmpgt
 .text          0x000000000801e7f0       0xa0 /opt/gcc-arm-none-eabi-10-2020-q4-major/bin/../lib/gcc/arm-none-eabi/10.2.1/thumb/v7e-m/nofp/libgcc.a(_aeabi_ldivmod.o)
                0x000000000801e7f0                __aeabi_ldivmod
 .text          0x000000000801e890       0x30 /opt/gcc-arm-none-eabi-10-2020-q4-major/bin/../lib/gcc/arm-none-eabi/10.2.1/thumb/v7e-m/nofp/libgcc.a(_aeabi_uldivmod.o)
                0x000000000801e890                __aeabi_uldivmod
 .text          0x000000000801e8c0      0x2d0 /opt/gcc-arm-none-eabi-10-2020-q4-major/bin/../lib/gcc/arm-none-eabi/10.2.1/thumb/v7e-m/nofp/libgcc.a(_udivmoddi4.o)
                0x000000000801e8c0                __udivmoddi4
 .text          0x000000000801eb90        0x4 /opt/gcc-arm-none-eabi-10-2020-q4-major/bin/../lib/gcc/arm-none-eabi/10.2.1/thumb/v7e-m/nofp/libgcc.a(_dvmd_tls.o)
                0x000000000801eb90                __aeabi_ldiv0
                0x000000000801eb90                __aeabi_idiv0
 *(.text*)
 .text.MX_SUBGHZ_Init
                0x000000000801eb94       0x1c out/external/libexternal_fuota_stack.a(subghz.o)
                0x000000000801eb94                MX_SUBGHZ_Init
 .text.HAL_SUBGHZ_MspInit
                0x000000000801ebb0       0x2e out/external/libexternal_fuota_stack.a(subghz.o)
                0x000000000801ebb0                HAL_SUBGHZ_MspInit
 .text.HAL_SUBGHZ_MspDeInit
                0x000000000801ebde       0x12 out/external/libexternal_fuota_stack.a(subghz.o)
                0x000000000801ebde                HAL_SUBGHZ_MspDeInit
 .text.LL_AHB2_GRP1_EnableClock
                0x000000000801ebf0       0x18 out/external/libexternal_fuota_stack.a(radio_board_if.o)
 .text.RBI_Init
                0x000000000801ec08       0x70 out/external/libexternal_fuota_stack.a(radio_board_if.o)
                0x000000000801ec08                RBI_Init
 .text.RBI_DeInit
                0x000000000801ec78       0x4c out/external/libexternal_fuota_stack.a(radio_board_if.o)
                0x000000000801ec78                RBI_DeInit
 .text.RBI_ConfigRFSwitch
                0x000000000801ecc4       0x44 out/external/libexternal_fuota_stack.a(radio_board_if.o)
                0x000000000801ecc4                RBI_ConfigRFSwitch
 .text.RBI_GetTxConfig
                0x000000000801ed08        0x4 out/external/libexternal_fuota_stack.a(radio_board_if.o)
                0x000000000801ed08                RBI_GetTxConfig
 .text.RBI_IsTCXO
                0x000000000801ed0c        0x4 out/external/libexternal_fuota_stack.a(radio_board_if.o)
                0x000000000801ed0c                RBI_IsTCXO
 .text.RBI_IsDCDC
                0x000000000801ed10        0x4 out/external/libexternal_fuota_stack.a(radio_board_if.o)
                0x000000000801ed10                RBI_IsDCDC
 .text.TIMER_IF_SetTimerContext
                0x000000000801ed14       0x14 out/external/libexternal_fuota_stack.a(timer_if.o)
                0x000000000801ed14                TIMER_IF_SetTimerContext
 .text.TIMER_IF_GetTimerContext
                0x000000000801ed28        0xc out/external/libexternal_fuota_stack.a(timer_if.o)
                0x000000000801ed28                TIMER_IF_GetTimerContext
 .text.TIMER_IF_GetTimerElapsedTime
                0x000000000801ed34       0x18 out/external/libexternal_fuota_stack.a(timer_if.o)
                0x000000000801ed34                TIMER_IF_GetTimerElapsedTime
 .text.TIMER_IF_GetTimerValue
                0x000000000801ed4c       0x18 out/external/libexternal_fuota_stack.a(timer_if.o)
                0x000000000801ed4c                TIMER_IF_GetTimerValue
 .text.TIMER_IF_GetMinimumTimeout
                0x000000000801ed64        0x4 out/external/libexternal_fuota_stack.a(timer_if.o)
                0x000000000801ed64                TIMER_IF_GetMinimumTimeout
 .text.TIMER_IF_Convert_ms2Tick
                0x000000000801ed68       0x14 out/external/libexternal_fuota_stack.a(timer_if.o)
                0x000000000801ed68                TIMER_IF_Convert_ms2Tick
 .text.TIMER_IF_Convert_Tick2ms
                0x000000000801ed7c       0x10 out/external/libexternal_fuota_stack.a(timer_if.o)
                0x000000000801ed7c                TIMER_IF_Convert_Tick2ms
 .text.TIMER_IF_StopTimer
                0x000000000801ed8c       0x28 out/external/libexternal_fuota_stack.a(timer_if.o)
                0x000000000801ed8c                TIMER_IF_StopTimer
 .text.TIMER_IF_BkUp_Write_Seconds
                0x000000000801edb4       0x10 out/external/libexternal_fuota_stack.a(timer_if.o)
                0x000000000801edb4                TIMER_IF_BkUp_Write_Seconds
 .text.TIMER_IF_BkUp_Write_SubSeconds
                0x000000000801edc4       0x10 out/external/libexternal_fuota_stack.a(timer_if.o)
                0x000000000801edc4                TIMER_IF_BkUp_Write_SubSeconds
 .text.TIMER_IF_StartTimer
                0x000000000801edd4       0x50 out/external/libexternal_fuota_stack.a(timer_if.o)
                0x000000000801edd4                TIMER_IF_StartTimer
 .text.TIMER_IF_GetTime
                0x000000000801ee24       0x34 out/external/libexternal_fuota_stack.a(timer_if.o)
                0x000000000801ee24                TIMER_IF_GetTime
 .text.TIMER_IF_BkUp_Read_Seconds
                0x000000000801ee58        0xc out/external/libexternal_fuota_stack.a(timer_if.o)
                0x000000000801ee58                TIMER_IF_BkUp_Read_Seconds
 .text.TIMER_IF_BkUp_Read_SubSeconds
                0x000000000801ee64        0xc out/external/libexternal_fuota_stack.a(timer_if.o)
                0x000000000801ee64                TIMER_IF_BkUp_Read_SubSeconds
 .text.TIMER_IF_Init
                0x000000000801ee70       0x50 out/external/libexternal_fuota_stack.a(timer_if.o)
                0x000000000801ee70                TIMER_IF_Init
 .text.TIMER_IF_DelayMs
                0x000000000801eec0       0x2c out/external/libexternal_fuota_stack.a(timer_if.o)
                0x000000000801eec0                TIMER_IF_DelayMs
 .text.HAL_RTC_AlarmAEventCallback
                0x000000000801eeec        0x4 out/external/libexternal_fuota_stack.a(timer_if.o)
                0x000000000801eeec                HAL_RTC_AlarmAEventCallback
 .text.HAL_RTCEx_SSRUEventCallback
                0x000000000801eef0       0x20 out/external/libexternal_fuota_stack.a(timer_if.o)
                0x000000000801eef0                HAL_RTCEx_SSRUEventCallback
 .text.BoardGetUniqueId
                0x000000000801ef10        0x2 out/external/libexternal_fuota_stack.a(board.o)
                0x000000000801ef10                BoardGetUniqueId
 .text.BoardCriticalSectionBegin
                0x000000000801ef12        0x4 out/external/libexternal_fuota_stack.a(board.o)
                0x000000000801ef12                BoardCriticalSectionBegin
 .text.BoardCriticalSectionEnd
                0x000000000801ef16        0x4 out/external/libexternal_fuota_stack.a(board.o)
                0x000000000801ef16                BoardCriticalSectionEnd
 .text.BoardInitMcu
                0x000000000801ef1a        0x2 out/external/libexternal_fuota_stack.a(board.o)
                0x000000000801ef1a                BoardInitMcu
 .text.BoardResetMcu
                0x000000000801ef1c       0x24 out/external/libexternal_fuota_stack.a(board.o)
                0x000000000801ef1c                BoardResetMcu
 .text.BoardGetHardwareFreq
                0x000000000801ef40       0x50 out/external/libexternal_fuota_stack.a(board.o)
                0x000000000801ef40                BoardGetHardwareFreq
 .text.crc_cal  0x000000000801ef90       0x2a out/external/libexternal_fuota_stack.a(service_lora_config.o)
 *fill*         0x000000000801efba        0x2 
 .text.rak3172_sprintf.constprop.0
                0x000000000801efbc       0x20 out/external/libexternal_fuota_stack.a(service_lora_config.o)
 .text.service_lora_get_app_eui
                0x000000000801efdc        0x4 out/external/libexternal_fuota_stack.a(service_lora_config.o)
                0x000000000801efdc                service_lora_get_app_eui
 .text.service_lora_get_app_key
                0x000000000801efe0        0x4 out/external/libexternal_fuota_stack.a(service_lora_config.o)
                0x000000000801efe0                service_lora_get_app_key
 .text.service_lora_get_dev_eui
                0x000000000801efe4        0x4 out/external/libexternal_fuota_stack.a(service_lora_config.o)
                0x000000000801efe4                service_lora_get_dev_eui
 .text.service_lora_get_nwm
                0x000000000801efe8        0xa out/external/libexternal_fuota_stack.a(service_lora_config.o)
                0x000000000801efe8                service_lora_get_nwm
 .text.service_lora_set_nwm
                0x000000000801eff2       0x14 out/external/libexternal_fuota_stack.a(service_lora_config.o)
                0x000000000801eff2                service_lora_set_nwm
 .text.service_lora_get_njm
                0x000000000801f006        0x4 out/external/libexternal_fuota_stack.a(service_lora_config.o)
                0x000000000801f006                service_lora_get_njm
 .text.service_lora_get_njs
                0x000000000801f00a       0x26 out/external/libexternal_fuota_stack.a(service_lora_config.o)
                0x000000000801f00a                service_lora_get_njs
 .text.service_lora_get_app_skey
                0x000000000801f030       0x5c out/external/libexternal_fuota_stack.a(service_lora_config.o)
                0x000000000801f030                service_lora_get_app_skey
 .text.service_lora_get_dev_addr
                0x000000000801f08c       0x56 out/external/libexternal_fuota_stack.a(service_lora_config.o)
                0x000000000801f08c                service_lora_get_dev_addr
 .text.service_lora_get_retry
                0x000000000801f0e2        0x4 out/external/libexternal_fuota_stack.a(service_lora_config.o)
                0x000000000801f0e2                service_lora_get_retry
 .text.service_lora_set_retry
                0x000000000801f0e6        0xe out/external/libexternal_fuota_stack.a(service_lora_config.o)
                0x000000000801f0e6                service_lora_set_retry
 .text.service_lora_get_cfm
                0x000000000801f0f4        0x4 out/external/libexternal_fuota_stack.a(service_lora_config.o)
                0x000000000801f0f4                service_lora_get_cfm
 .text.service_lora_set_cfm
                0x000000000801f0f8        0x4 out/external/libexternal_fuota_stack.a(service_lora_config.o)
                0x000000000801f0f8                service_lora_set_cfm
 .text.service_lora_get_nwk_skey
                0x000000000801f0fc       0x5c out/external/libexternal_fuota_stack.a(service_lora_config.o)
                0x000000000801f0fc                service_lora_get_nwk_skey
 .text.service_lora_get_net_id
                0x000000000801f158       0x5e out/external/libexternal_fuota_stack.a(service_lora_config.o)
                0x000000000801f158                service_lora_get_net_id
 .text.service_lora_get_McRoot_key
                0x000000000801f1b6        0x2 out/external/libexternal_fuota_stack.a(service_lora_config.o)
                0x000000000801f1b6                service_lora_get_McRoot_key
 .text.service_lora_get_adr
                0x000000000801f1b8        0x4 out/external/libexternal_fuota_stack.a(service_lora_config.o)
                0x000000000801f1b8                service_lora_get_adr
 .text.service_lora_get_class
                0x000000000801f1bc        0x4 out/external/libexternal_fuota_stack.a(service_lora_config.o)
                0x000000000801f1bc                service_lora_get_class
 .text.service_lora_get_dcs
                0x000000000801f1c0        0xe out/external/libexternal_fuota_stack.a(service_lora_config.o)
                0x000000000801f1c0                service_lora_get_dcs
 .text.service_lora_set_dcs
                0x000000000801f1ce       0x1a out/external/libexternal_fuota_stack.a(service_lora_config.o)
                0x000000000801f1ce                service_lora_set_dcs
 .text.service_lora_get_dr
                0x000000000801f1e8       0x1a out/external/libexternal_fuota_stack.a(service_lora_config.o)
                0x000000000801f1e8                service_lora_get_dr
 .text.service_lora_get_jn1dl
                0x000000000801f202        0x4 out/external/libexternal_fuota_stack.a(service_lora_config.o)
                0x000000000801f202                service_lora_get_jn1dl
 .text.service_lora_get_jn2dl
                0x000000000801f206        0x4 out/external/libexternal_fuota_stack.a(service_lora_config.o)
                0x000000000801f206                service_lora_get_jn2dl
 .text.service_lora_get_pub_nwk_mode
                0x000000000801f20a        0x4 out/external/libexternal_fuota_stack.a(service_lora_config.o)
                0x000000000801f20a                service_lora_get_pub_nwk_mode
 .text.service_lora_get_rx1dl
                0x000000000801f20e       0x32 out/external/libexternal_fuota_stack.a(service_lora_config.o)
                0x000000000801f20e                service_lora_get_rx1dl
 .text.service_lora_get_rx2dl
                0x000000000801f240        0x4 out/external/libexternal_fuota_stack.a(service_lora_config.o)
                0x000000000801f240                service_lora_get_rx2dl
 .text.service_lora_get_txpower
                0x000000000801f244        0x4 out/external/libexternal_fuota_stack.a(service_lora_config.o)
                0x000000000801f244                service_lora_get_txpower
 .text.service_lora_get_ping_slot_periodicity
                0x000000000801f248        0x4 out/external/libexternal_fuota_stack.a(service_lora_config.o)
                0x000000000801f248                service_lora_get_ping_slot_periodicity
 .text.service_lora_set_ping_slot_periodicity
                0x000000000801f24c        0x4 out/external/libexternal_fuota_stack.a(service_lora_config.o)
                0x000000000801f24c                service_lora_set_ping_slot_periodicity
 .text.service_lora_get_beacon_freq
                0x000000000801f250       0x18 out/external/libexternal_fuota_stack.a(service_lora_config.o)
                0x000000000801f250                service_lora_get_beacon_freq
 .text.service_lora_get_beacon_dr
                0x000000000801f268       0x18 out/external/libexternal_fuota_stack.a(service_lora_config.o)
                0x000000000801f268                service_lora_get_beacon_dr
 .text.service_lora_get_local_time
                0x000000000801f280       0x44 out/external/libexternal_fuota_stack.a(service_lora_config.o)
                0x000000000801f280                service_lora_get_local_time
 .text.service_lora_get_rx2freq
                0x000000000801f2c4       0x20 out/external/libexternal_fuota_stack.a(service_lora_config.o)
                0x000000000801f2c4                service_lora_get_rx2freq
 .text.service_lora_get_rx2dr
                0x000000000801f2e4       0x20 out/external/libexternal_fuota_stack.a(service_lora_config.o)
                0x000000000801f2e4                service_lora_get_rx2dr
 .text.service_lora_get_linkcheck
                0x000000000801f304        0x4 out/external/libexternal_fuota_stack.a(service_lora_config.o)
                0x000000000801f304                service_lora_get_linkcheck
 .text.service_lora_set_linkcheck
                0x000000000801f308        0xe out/external/libexternal_fuota_stack.a(service_lora_config.o)
                0x000000000801f308                service_lora_set_linkcheck
 .text.service_lora_get_join_start
                0x000000000801f316        0x4 out/external/libexternal_fuota_stack.a(service_lora_config.o)
                0x000000000801f316                service_lora_get_join_start
 .text.service_lora_set_join_start
                0x000000000801f31a        0x4 out/external/libexternal_fuota_stack.a(service_lora_config.o)
                0x000000000801f31a                service_lora_set_join_start
 .text.service_lora_get_auto_join
                0x000000000801f31e        0x4 out/external/libexternal_fuota_stack.a(service_lora_config.o)
                0x000000000801f31e                service_lora_get_auto_join
 .text.service_lora_set_auto_join
                0x000000000801f322        0x4 out/external/libexternal_fuota_stack.a(service_lora_config.o)
                0x000000000801f322                service_lora_set_auto_join
 .text.service_lora_get_auto_join_period
                0x000000000801f326        0x4 out/external/libexternal_fuota_stack.a(service_lora_config.o)
                0x000000000801f326                service_lora_get_auto_join_period
 .text.service_lora_set_auto_join_period
                0x000000000801f32a        0x4 out/external/libexternal_fuota_stack.a(service_lora_config.o)
                0x000000000801f32a                service_lora_set_auto_join_period
 .text.service_lora_get_auto_join_max_cnt
                0x000000000801f32e        0x4 out/external/libexternal_fuota_stack.a(service_lora_config.o)
                0x000000000801f32e                service_lora_get_auto_join_max_cnt
 .text.service_lora_set_auto_join_max_cnt
                0x000000000801f332        0x4 out/external/libexternal_fuota_stack.a(service_lora_config.o)
                0x000000000801f332                service_lora_set_auto_join_max_cnt
 .text.service_lora_get_lbt
                0x000000000801f336        0x4 out/external/libexternal_fuota_stack.a(service_lora_config.o)
                0x000000000801f336                service_lora_get_lbt
 .text.service_lora_set_lbt
                0x000000000801f33a        0x4 out/external/libexternal_fuota_stack.a(service_lora_config.o)
                0x000000000801f33a                service_lora_set_lbt
 .text.service_lora_get_lbt_rssi
                0x000000000801f33e        0x4 out/external/libexternal_fuota_stack.a(service_lora_config.o)
                0x000000000801f33e                service_lora_get_lbt_rssi
 .text.service_lora_set_lbt_rssi
                0x000000000801f342        0x4 out/external/libexternal_fuota_stack.a(service_lora_config.o)
                0x000000000801f342                service_lora_set_lbt_rssi
 .text.service_lora_get_lbt_scantime
                0x000000000801f346        0x4 out/external/libexternal_fuota_stack.a(service_lora_config.o)
                0x000000000801f346                service_lora_get_lbt_scantime
 .text.service_lora_set_lbt_scantime
                0x000000000801f34a        0x4 out/external/libexternal_fuota_stack.a(service_lora_config.o)
                0x000000000801f34a                service_lora_set_lbt_scantime
 .text.service_lora_get_DevNonce
                0x000000000801f34e        0x4 out/external/libexternal_fuota_stack.a(service_lora_config.o)
                0x000000000801f34e                service_lora_get_DevNonce
 .text.service_lora_set_DevNonce
                0x000000000801f352        0x4 out/external/libexternal_fuota_stack.a(service_lora_config.o)
                0x000000000801f352                service_lora_set_DevNonce
 .text.service_lora_set_IsCertPortOn
                0x000000000801f356        0x8 out/external/libexternal_fuota_stack.a(service_lora_config.o)
                0x000000000801f356                service_lora_set_IsCertPortOn
 .text.service_lora_get_IsCertPortOn
                0x000000000801f35e        0x4 out/external/libexternal_fuota_stack.a(service_lora_config.o)
                0x000000000801f35e                service_lora_get_IsCertPortOn
 .text.service_lora_get_band
                0x000000000801f362        0x4 out/external/libexternal_fuota_stack.a(service_lora_config.o)
                0x000000000801f362                service_lora_get_band
 .text.service_lora_get_chs
                0x000000000801f366       0x24 out/external/libexternal_fuota_stack.a(service_lora_config.o)
                0x000000000801f366                service_lora_get_chs
 .text.service_lora_region_isActive
                0x000000000801f38a       0x1e out/external/libexternal_fuota_stack.a(service_lora_config.o)
                0x000000000801f38a                service_lora_region_isActive
 .text.service_lora_set_app_eui
                0x000000000801f3a8       0x42 out/external/libexternal_fuota_stack.a(service_lora_config.o)
                0x000000000801f3a8                service_lora_set_app_eui
 .text.service_lora_set_app_key
                0x000000000801f3ea       0x54 out/external/libexternal_fuota_stack.a(service_lora_config.o)
                0x000000000801f3ea                service_lora_set_app_key
 .text.service_lora_set_dev_eui
                0x000000000801f43e       0x50 out/external/libexternal_fuota_stack.a(service_lora_config.o)
                0x000000000801f43e                service_lora_set_dev_eui
 .text.service_lora_set_adr
                0x000000000801f48e       0x4c out/external/libexternal_fuota_stack.a(service_lora_config.o)
                0x000000000801f48e                service_lora_set_adr
 .text.service_lora_set_jn1dl
                0x000000000801f4da       0x3e out/external/libexternal_fuota_stack.a(service_lora_config.o)
                0x000000000801f4da                service_lora_set_jn1dl
 .text.service_lora_set_jn2dl
                0x000000000801f518       0x3e out/external/libexternal_fuota_stack.a(service_lora_config.o)
                0x000000000801f518                service_lora_set_jn2dl
 .text.service_lora_set_pub_nwk_mode
                0x000000000801f556       0x40 out/external/libexternal_fuota_stack.a(service_lora_config.o)
                0x000000000801f556                service_lora_set_pub_nwk_mode
 .text.service_lora_set_rx1dl
                0x000000000801f596       0x5e out/external/libexternal_fuota_stack.a(service_lora_config.o)
                0x000000000801f596                service_lora_set_rx1dl
 .text.service_lora_set_rx2dl
                0x000000000801f5f4       0x5e out/external/libexternal_fuota_stack.a(service_lora_config.o)
                0x000000000801f5f4                service_lora_set_rx2dl
 .text.service_lora_set_rx2freq
                0x000000000801f652       0x4c out/external/libexternal_fuota_stack.a(service_lora_config.o)
                0x000000000801f652                service_lora_set_rx2freq
 .text.service_lora_set_rx2dr
                0x000000000801f69e       0x66 out/external/libexternal_fuota_stack.a(service_lora_config.o)
                0x000000000801f69e                service_lora_set_rx2dr
 .text.restore_abp_config
                0x000000000801f704       0xcc out/external/libexternal_fuota_stack.a(service_lora_config.o)
                0x000000000801f704                restore_abp_config
 .text.service_lora_set_app_skey
                0x000000000801f7d0       0x4e out/external/libexternal_fuota_stack.a(service_lora_config.o)
                0x000000000801f7d0                service_lora_set_app_skey
 .text.service_lora_set_dev_addr
                0x000000000801f81e       0x52 out/external/libexternal_fuota_stack.a(service_lora_config.o)
                0x000000000801f81e                service_lora_set_dev_addr
 .text.service_lora_set_nwk_skey
                0x000000000801f870       0x72 out/external/libexternal_fuota_stack.a(service_lora_config.o)
                0x000000000801f870                service_lora_set_nwk_skey
 *fill*         0x000000000801f8e2        0x2 
 .text.LmHandlerFuotaPackagesProcess
                0x000000000801f8e4       0x34 out/external/libexternal_fuota_stack.a(service_lora_config.o)
                0x000000000801f8e4                LmHandlerFuotaPackagesProcess
 .text.service_fuota_nvm_init
                0x000000000801f918       0x14 out/external/libexternal_fuota_stack.a(service_lora_config.o)
                0x000000000801f918                service_fuota_nvm_init
 .text.service_lora_fuota_join
                0x000000000801f92c       0x3e out/external/libexternal_fuota_stack.a(service_lora_config.o)
                0x000000000801f92c                service_lora_fuota_join
 .text.service_lora_fuota_get_band
                0x000000000801f96a       0x16 out/external/libexternal_fuota_stack.a(service_lora_config.o)
                0x000000000801f96a                service_lora_fuota_get_band
 .text.service_fuota_lora_config
                0x000000000801f980      0x200 out/external/libexternal_fuota_stack.a(service_lora_config.o)
                0x000000000801f980                service_fuota_lora_config
 .text.LmHandlerSend
                0x000000000801fb80       0x60 out/external/libexternal_fuota_stack.a(service_lora_config.o)
                0x000000000801fb80                LmHandlerSend
 .text.service_lora_addmulc
                0x000000000801fbe0      0x1f0 out/external/libexternal_fuota_stack.a(service_lora_multicast.o)
                0x000000000801fbe0                service_lora_addmulc
 .text.service_lora_rmvmulc
                0x000000000801fdd0       0x48 out/external/libexternal_fuota_stack.a(service_lora_multicast.o)
                0x000000000801fdd0                service_lora_rmvmulc
 .text.service_lora_lstmulc
                0x000000000801fe18       0x78 out/external/libexternal_fuota_stack.a(service_lora_multicast.o)
                0x000000000801fe18                service_lora_lstmulc
 .text.MulticastMcpsIndication
                0x000000000801fe90        0x2 out/external/libexternal_fuota_stack.a(service_lora_multicast.o)
                0x000000000801fe90                MulticastMcpsIndication
 .text.service_lora_setup_multicast
                0x000000000801fe92       0x64 out/external/libexternal_fuota_stack.a(service_lora_multicast.o)
                0x000000000801fe92                service_lora_setup_multicast
 *fill*         0x000000000801fef6        0x2 
 .text.service_lora_clear_multicast
                0x000000000801fef8       0x2c out/external/libexternal_fuota_stack.a(service_lora_multicast.o)
                0x000000000801fef8                service_lora_clear_multicast
 .text.OnClassChangeNotify
                0x000000000801ff24       0x10 out/external/libexternal_fuota_stack.a(LmHandler.o)
 .text.LmHandlerPackageIsTxPending
                0x000000000801ff34       0x4c out/external/libexternal_fuota_stack.a(LmHandler.o)
 .text.LmHandlerInit
                0x000000000801ff80       0x14 out/external/libexternal_fuota_stack.a(LmHandler.o)
                0x000000000801ff80                LmHandlerInit
 .text.LmHandlerIsBusy
                0x000000000801ff94       0x12 out/external/libexternal_fuota_stack.a(LmHandler.o)
                0x000000000801ff94                LmHandlerIsBusy
 *fill*         0x000000000801ffa6        0x2 
 .text.LmHandlerJoin
                0x000000000801ffa8       0x50 out/external/libexternal_fuota_stack.a(LmHandler.o)
                0x000000000801ffa8                LmHandlerJoin
 .text.LmHandlerJoinStatus
                0x000000000801fff8       0x26 out/external/libexternal_fuota_stack.a(LmHandler.o)
                0x000000000801fff8                LmHandlerJoinStatus
 *fill*         0x000000000802001e        0x2 
 .text.LmHandlerDeviceTimeReq
                0x0000000008020020       0x30 out/external/libexternal_fuota_stack.a(LmHandler.o)
                0x0000000008020020                LmHandlerDeviceTimeReq
 .text.LmHandlerPingSlotReq
                0x0000000008020050       0x50 out/external/libexternal_fuota_stack.a(LmHandler.o)
                0x0000000008020050                LmHandlerPingSlotReq
 .text.LmHandlerRequestClass
                0x00000000080200a0       0x68 out/external/libexternal_fuota_stack.a(LmHandler.o)
                0x00000000080200a0                LmHandlerRequestClass
 .text.LmHandlerGetCurrentClass
                0x0000000008020108       0x1a out/external/libexternal_fuota_stack.a(LmHandler.o)
                0x0000000008020108                LmHandlerGetCurrentClass
 .text.LmHandlerGetCurrentDatarate
                0x0000000008020122       0x1a out/external/libexternal_fuota_stack.a(LmHandler.o)
                0x0000000008020122                LmHandlerGetCurrentDatarate
 .text.LmHandlerGetActiveRegion
                0x000000000802013c        0xc out/external/libexternal_fuota_stack.a(LmHandler.o)
                0x000000000802013c                LmHandlerGetActiveRegion
 .text.LmHandlerSetSystemMaxRxError
                0x0000000008020148       0x20 out/external/libexternal_fuota_stack.a(LmHandler.o)
                0x0000000008020148                LmHandlerSetSystemMaxRxError
 .text.LmHandlerPackageIsInitialized
                0x0000000008020168       0x14 out/external/libexternal_fuota_stack.a(LmHandler.o)
                0x0000000008020168                LmHandlerPackageIsInitialized
 .text.LmHandlerPackagesNotify
                0x000000000802017c       0x40 out/external/libexternal_fuota_stack.a(LmHandler.o)
                0x000000000802017c                LmHandlerPackagesNotify
 .text.LmHandlerPackagesProcess
                0x00000000080201bc       0x34 out/external/libexternal_fuota_stack.a(LmHandler.o)
                0x00000000080201bc                LmHandlerPackagesProcess
 .text.LmHandlerProcess
                0x00000000080201f0       0x58 out/external/libexternal_fuota_stack.a(LmHandler.o)
                0x00000000080201f0                LmHandlerProcess
 .text.LmHandlerFuotaStackPackageRegister
                0x0000000008020248       0x38 out/external/libexternal_fuota_stack.a(LmHandler.o)
                0x0000000008020248                LmHandlerFuotaStackPackageRegister
 .text.LmhpClockSyncInit
                0x0000000008020280       0x1c out/external/libexternal_fuota_stack.a(LmhpClockSync.o)
 .text.LmhpClockSyncIsInitialized
                0x000000000802029c        0xc out/external/libexternal_fuota_stack.a(LmhpClockSync.o)
 .text.LmhpClockSyncIsTxPending
                0x00000000080202a8        0xc out/external/libexternal_fuota_stack.a(LmhpClockSync.o)
 .text.LmhpClockSyncOnMcpsIndication
                0x00000000080202b4      0x154 out/external/libexternal_fuota_stack.a(LmhpClockSync.o)
 .text.LmhpClockSyncOnMcpsConfirm
                0x0000000008020408       0x4c out/external/libexternal_fuota_stack.a(LmhpClockSync.o)
 .text.LmphClockSyncPackageFactory
                0x0000000008020454        0x8 out/external/libexternal_fuota_stack.a(LmhpClockSync.o)
                0x0000000008020454                LmphClockSyncPackageFactory
 .text.LmhpClockSyncAppTimeReq
                0x000000000802045c       0xb4 out/external/libexternal_fuota_stack.a(LmhpClockSync.o)
                0x000000000802045c                LmhpClockSyncAppTimeReq
 .text.LmhpClockSyncProcess
                0x0000000008020510       0x1c out/external/libexternal_fuota_stack.a(LmhpClockSync.o)
 .text.LmhpRemoteMcastSetupIsInitialized
                0x000000000802052c        0xc out/external/libexternal_fuota_stack.a(LmhpRemoteMcastSetup.o)
 .text.LmhpRemoteMcastSetupIsTxPending
                0x0000000008020538        0xc out/external/libexternal_fuota_stack.a(LmhpRemoteMcastSetup.o)
 .text.LmhpRemoteMcastSetupInit
                0x0000000008020544       0x5c out/external/libexternal_fuota_stack.a(LmhpRemoteMcastSetup.o)
 .text.OnSessionStopTimer
                0x00000000080205a0       0x20 out/external/libexternal_fuota_stack.a(LmhpRemoteMcastSetup.o)
 .text.OnSessionStartTimer
                0x00000000080205c0       0x30 out/external/libexternal_fuota_stack.a(LmhpRemoteMcastSetup.o)
 .text.LmhpRemoteMcastSetupOnMcpsIndication
                0x00000000080205f0      0x360 out/external/libexternal_fuota_stack.a(LmhpRemoteMcastSetup.o)
 .text.LmhpRemoteMcastSetupProcess
                0x0000000008020950       0x54 out/external/libexternal_fuota_stack.a(LmhpRemoteMcastSetup.o)
 .text.LmhpRemoteMcastSetupPackageFactory
                0x00000000080209a4        0x8 out/external/libexternal_fuota_stack.a(LmhpRemoteMcastSetup.o)
                0x00000000080209a4                LmhpRemoteMcastSetupPackageFactory
 .text.FUOTA_StartTime_IsRunning
                0x00000000080209ac       0x34 out/external/libexternal_fuota_stack.a(LmhpRemoteMcastSetup.o)
                0x00000000080209ac                FUOTA_StartTime_IsRunning
 .text.LmhpRemoteMcastSetupRegisterPowersaveHandler
                0x00000000080209e0        0xc out/external/libexternal_fuota_stack.a(LmhpRemoteMcastSetup.o)
                0x00000000080209e0                LmhpRemoteMcastSetupRegisterPowersaveHandler
 .text.LmhpFragmentationIsInitialized
                0x00000000080209ec        0xc out/external/libexternal_fuota_stack.a(LmhpFragmentation.o)
 .text.LmhpFragmentationIsTxPending
                0x00000000080209f8        0xc out/external/libexternal_fuota_stack.a(LmhpFragmentation.o)
 .text.LmhpFragmentationInit
                0x0000000008020a04       0x50 out/external/libexternal_fuota_stack.a(LmhpFragmentation.o)
 .text.OnFragmentTxDelay
                0x0000000008020a54       0x20 out/external/libexternal_fuota_stack.a(LmhpFragmentation.o)
 .text.LmhpFragmentationOnMcpsIndication
                0x0000000008020a74      0x328 out/external/libexternal_fuota_stack.a(LmhpFragmentation.o)
 .text.LmhpFragmentationProcess
                0x0000000008020d9c       0x50 out/external/libexternal_fuota_stack.a(LmhpFragmentation.o)
 .text.LmhpFragmentationPackageFactory
                0x0000000008020dec        0x8 out/external/libexternal_fuota_stack.a(LmhpFragmentation.o)
                0x0000000008020dec                LmhpFragmentationPackageFactory
 .text.SetRow   0x0000000008020df4       0x24 out/external/libexternal_fuota_stack.a(FragDecoder.o)
 .text.GetRow   0x0000000008020e18       0x24 out/external/libexternal_fuota_stack.a(FragDecoder.o)
 .text.GetParity
                0x0000000008020e3c       0x14 out/external/libexternal_fuota_stack.a(FragDecoder.o)
 .text.SetParity
                0x0000000008020e50       0x20 out/external/libexternal_fuota_stack.a(FragDecoder.o)
 .text.XorDataLine
                0x0000000008020e70       0x1a out/external/libexternal_fuota_stack.a(FragDecoder.o)
 .text.XorParityLine
                0x0000000008020e8a       0x34 out/external/libexternal_fuota_stack.a(FragDecoder.o)
 *fill*         0x0000000008020ebe        0x2 
 .text.FragFindMissingFrags
                0x0000000008020ec0       0x60 out/external/libexternal_fuota_stack.a(FragDecoder.o)
 .text.FragFindMissingIndex
                0x0000000008020f20       0x2c out/external/libexternal_fuota_stack.a(FragDecoder.o)
 .text.FragExtractLineFromBinaryMatrix
                0x0000000008020f4c       0x84 out/external/libexternal_fuota_stack.a(FragDecoder.o)
 .text.FragDecoderUpdateCallback
                0x0000000008020fd0        0xc out/external/libexternal_fuota_stack.a(FragDecoder.o)
                0x0000000008020fd0                FragDecoderUpdateCallback
 .text.FragDecoderInit
                0x0000000008020fdc       0x5c out/external/libexternal_fuota_stack.a(FragDecoder.o)
                0x0000000008020fdc                FragDecoderInit
 .text.FragDecoderGetMaxFileSize
                0x0000000008021038        0x8 out/external/libexternal_fuota_stack.a(FragDecoder.o)
                0x0000000008021038                FragDecoderGetMaxFileSize
 .text.FragDecoderProcess
                0x0000000008021040      0x348 out/external/libexternal_fuota_stack.a(FragDecoder.o)
                0x0000000008021040                FragDecoderProcess
 .text.FragDecoderGetStatus
                0x0000000008021388       0x14 out/external/libexternal_fuota_stack.a(FragDecoder.o)
                0x0000000008021388                FragDecoderGetStatus
 .text.udrv_flash_init
                0x000000000802139c       0x18 out/external/libexternal_fuota_stack.a(udrv_flash.o)
                0x000000000802139c                udrv_flash_init
 .text.udrv_flash_deinit
                0x00000000080213b4       0x18 out/external/libexternal_fuota_stack.a(udrv_flash.o)
                0x00000000080213b4                udrv_flash_deinit
 .text.udrv_flash_read
                0x00000000080213cc       0xd8 out/external/libexternal_fuota_stack.a(udrv_flash.o)
                0x00000000080213cc                udrv_flash_read
 .text.compare_page_buff
                0x00000000080214a4       0x7a out/external/libexternal_fuota_stack.a(udrv_flash.o)
                0x00000000080214a4                compare_page_buff
 *fill*         0x000000000802151e        0x2 
 .text.udrv_flash_write
                0x0000000008021520      0x104 out/external/libexternal_fuota_stack.a(udrv_flash.o)
                0x0000000008021520                udrv_flash_write
 .text.udrv_flash_erase
                0x0000000008021624       0x30 out/external/libexternal_fuota_stack.a(udrv_flash.o)
                0x0000000008021624                udrv_flash_erase
 .text.udrv_flash_get_page_size
                0x0000000008021654        0x4 out/external/libexternal_fuota_stack.a(udrv_flash.o)
                0x0000000008021654                udrv_flash_get_page_size
 .text.udrv_flash_check_addr_valid
                0x0000000008021658        0x4 out/external/libexternal_fuota_stack.a(udrv_flash.o)
                0x0000000008021658                udrv_flash_check_addr_valid
 .text.udrv_flash_suspend
                0x000000000802165c        0x2 out/external/libexternal_fuota_stack.a(udrv_flash.o)
                0x000000000802165c                udrv_flash_suspend
 .text.udrv_flash_resume
                0x000000000802165e        0x2 out/external/libexternal_fuota_stack.a(udrv_flash.o)
                0x000000000802165e                udrv_flash_resume
 .text.Error_Handler
                0x0000000008021660       0x24 out/external/libexternal_fuota_stack.a(system_stm32wlxx.o)
                0x0000000008021660                Error_Handler
 .text.SystemInit
                0x0000000008021684        0x2 out/external/libexternal_fuota_stack.a(system_stm32wlxx.o)
                0x0000000008021684                SystemInit
 *fill*         0x0000000008021686        0x2 
 .text.SystemCoreClockUpdate
                0x0000000008021688       0xb4 out/external/libexternal_fuota_stack.a(system_stm32wlxx.o)
                0x0000000008021688                SystemCoreClockUpdate
 .text.HAL_MspInit
                0x000000000802173c        0x2 out/external/libexternal_fuota_stack.a(stm32wlxx_hal_msp.o)
                0x000000000802173c                HAL_MspInit
 *fill*         0x000000000802173e        0x2 
 .text.HAL_RTC_MspInit
                0x0000000008021740       0x7c out/external/libexternal_fuota_stack.a(stm32wlxx_hal_msp.o)
                0x0000000008021740                HAL_RTC_MspInit
 .text.HAL_RTC_MspDeInit
                0x00000000080217bc       0x38 out/external/libexternal_fuota_stack.a(stm32wlxx_hal_msp.o)
                0x00000000080217bc                HAL_RTC_MspDeInit
 .text.HAL_TIM_PWM_MspInit
                0x00000000080217f4       0x48 out/external/libexternal_fuota_stack.a(stm32wlxx_hal_msp.o)
                0x00000000080217f4                HAL_TIM_PWM_MspInit
 .text.HAL_TIM_PWM_MspDeInit
                0x000000000802183c       0x30 out/external/libexternal_fuota_stack.a(stm32wlxx_hal_msp.o)
                0x000000000802183c                HAL_TIM_PWM_MspDeInit
 .text.HAL_CRYP_MspInit
                0x000000000802186c       0x40 out/external/libexternal_fuota_stack.a(stm32wlxx_hal_msp.o)
                0x000000000802186c                HAL_CRYP_MspInit
 .text.HAL_CRYP_MspDeInit
                0x00000000080218ac       0x20 out/external/libexternal_fuota_stack.a(stm32wlxx_hal_msp.o)
                0x00000000080218ac                HAL_CRYP_MspDeInit
 .text.service_nvm_set_cfg_to_nvm
                0x00000000080218cc       0x14 out/external/libexternal_fuota_stack.a(service_nvm_common.o)
                0x00000000080218cc                service_nvm_set_cfg_to_nvm
 .text.service_nvm_set_lora_nvm_data_to_nvm
                0x00000000080218e0       0x14 out/external/libexternal_fuota_stack.a(service_nvm_common.o)
                0x00000000080218e0                service_nvm_set_lora_nvm_data_to_nvm
 .text.service_lora_mac_nvm_data_reset
                0x00000000080218f4       0x10 out/external/libexternal_fuota_stack.a(service_nvm_common.o)
                0x00000000080218f4                service_lora_mac_nvm_data_reset
 .text.service_nvm_get_mode_type_from_nvm
                0x0000000008021904       0x10 out/external/libexternal_fuota_stack.a(service_nvm_common.o)
                0x0000000008021904                service_nvm_get_mode_type_from_nvm
 .text.service_nvm_set_mode_type_to_nvm
                0x0000000008021914       0x1c out/external/libexternal_fuota_stack.a(service_nvm_common.o)
                0x0000000008021914                service_nvm_set_mode_type_to_nvm
 .text.service_nvm_get_serial_passwd_from_nvm
                0x0000000008021930       0x24 out/external/libexternal_fuota_stack.a(service_nvm_common.o)
                0x0000000008021930                service_nvm_get_serial_passwd_from_nvm
 .text.service_nvm_set_serial_passwd_to_nvm
                0x0000000008021954       0x40 out/external/libexternal_fuota_stack.a(service_nvm_common.o)
                0x0000000008021954                service_nvm_set_serial_passwd_to_nvm
 .text.service_nvm_get_auto_sleep_time_from_nvm
                0x0000000008021994        0xc out/external/libexternal_fuota_stack.a(service_nvm_common.o)
                0x0000000008021994                service_nvm_get_auto_sleep_time_from_nvm
 .text.service_nvm_set_auto_sleep_time_to_nvm
                0x00000000080219a0       0x18 out/external/libexternal_fuota_stack.a(service_nvm_common.o)
                0x00000000080219a0                service_nvm_set_auto_sleep_time_to_nvm
 .text.service_nvm_get_auto_sleep_level_from_nvm
                0x00000000080219b8        0xc out/external/libexternal_fuota_stack.a(service_nvm_common.o)
                0x00000000080219b8                service_nvm_get_auto_sleep_level_from_nvm
 .text.service_nvm_set_auto_sleep_level_to_nvm
                0x00000000080219c4       0x20 out/external/libexternal_fuota_stack.a(service_nvm_common.o)
                0x00000000080219c4                service_nvm_set_auto_sleep_level_to_nvm
 .text.service_nvm_get_firmware_ver_from_nvm
                0x00000000080219e4       0x1c out/external/libexternal_fuota_stack.a(service_nvm_common.o)
                0x00000000080219e4                service_nvm_get_firmware_ver_from_nvm
 .text.service_nvm_set_firmware_ver_to_nvm
                0x0000000008021a00       0x54 out/external/libexternal_fuota_stack.a(service_nvm_common.o)
                0x0000000008021a00                service_nvm_set_firmware_ver_to_nvm
 .text.service_nvm_get_hwmodel_from_nvm
                0x0000000008021a54       0x1c out/external/libexternal_fuota_stack.a(service_nvm_common.o)
                0x0000000008021a54                service_nvm_get_hwmodel_from_nvm
 .text.service_nvm_set_hwmodel_to_nvm
                0x0000000008021a70       0x54 out/external/libexternal_fuota_stack.a(service_nvm_common.o)
                0x0000000008021a70                service_nvm_set_hwmodel_to_nvm
 .text.service_nvm_get_cli_ver_from_nvm
                0x0000000008021ac4       0x1c out/external/libexternal_fuota_stack.a(service_nvm_common.o)
                0x0000000008021ac4                service_nvm_get_cli_ver_from_nvm
 .text.service_nvm_set_cli_ver_to_nvm
                0x0000000008021ae0       0x54 out/external/libexternal_fuota_stack.a(service_nvm_common.o)
                0x0000000008021ae0                service_nvm_set_cli_ver_to_nvm
 .text.service_nvm_write_user_data
                0x0000000008021b34       0x26 out/external/libexternal_fuota_stack.a(service_nvm_common.o)
                0x0000000008021b34                service_nvm_write_user_data
 .text.service_nvm_read_user_data
                0x0000000008021b5a       0x26 out/external/libexternal_fuota_stack.a(service_nvm_common.o)
                0x0000000008021b5a                service_nvm_read_user_data
 .text.service_nvm_get_delta_sec_from_nvm
                0x0000000008021b80        0xc out/external/libexternal_fuota_stack.a(service_nvm_common.o)
                0x0000000008021b80                service_nvm_get_delta_sec_from_nvm
 .text.service_nvm_set_delta_sec_to_nvm
                0x0000000008021b8c       0x18 out/external/libexternal_fuota_stack.a(service_nvm_common.o)
                0x0000000008021b8c                service_nvm_set_delta_sec_to_nvm
 .text.service_nvm_get_delta_subsec_from_nvm
                0x0000000008021ba4        0xc out/external/libexternal_fuota_stack.a(service_nvm_common.o)
                0x0000000008021ba4                service_nvm_get_delta_subsec_from_nvm
 .text.service_nvm_set_delta_subsec_to_nvm
                0x0000000008021bb0       0x18 out/external/libexternal_fuota_stack.a(service_nvm_common.o)
                0x0000000008021bb0                service_nvm_set_delta_subsec_to_nvm
 .text.service_nvm_get_lock_status_from_nvm
                0x0000000008021bc8       0x10 out/external/libexternal_fuota_stack.a(service_nvm_common.o)
                0x0000000008021bc8                service_nvm_get_lock_status_from_nvm
 .text.service_nvm_set_lock_status_to_nvm
                0x0000000008021bd8       0x1c out/external/libexternal_fuota_stack.a(service_nvm_common.o)
                0x0000000008021bd8                service_nvm_set_lock_status_to_nvm
 .text.service_nvm_get_baudrate_from_nvm
                0x0000000008021bf4        0xc out/external/libexternal_fuota_stack.a(service_nvm_common.o)
                0x0000000008021bf4                service_nvm_get_baudrate_from_nvm
 .text.service_nvm_set_baudrate_to_nvm
                0x0000000008021c00       0x18 out/external/libexternal_fuota_stack.a(service_nvm_common.o)
                0x0000000008021c00                service_nvm_set_baudrate_to_nvm
 .text.service_nvm_get_atcmd_alias_from_nvm
                0x0000000008021c18       0x1c out/external/libexternal_fuota_stack.a(service_nvm_common.o)
                0x0000000008021c18                service_nvm_get_atcmd_alias_from_nvm
 .text.service_nvm_set_atcmd_alias_to_nvm
                0x0000000008021c34       0x54 out/external/libexternal_fuota_stack.a(service_nvm_common.o)
                0x0000000008021c34                service_nvm_set_atcmd_alias_to_nvm
 .text.service_nvm_get_sn_from_nvm
                0x0000000008021c88       0x1c out/external/libexternal_fuota_stack.a(service_nvm_common.o)
                0x0000000008021c88                service_nvm_get_sn_from_nvm
 .text.service_nvm_set_sn_to_nvm
                0x0000000008021ca4       0x44 out/external/libexternal_fuota_stack.a(service_nvm_common.o)
                0x0000000008021ca4                service_nvm_set_sn_to_nvm
 .text.service_nvm_get_atcmd_echo_from_nvm
                0x0000000008021ce8        0xc out/external/libexternal_fuota_stack.a(service_nvm_common.o)
                0x0000000008021ce8                service_nvm_get_atcmd_echo_from_nvm
 .text.service_nvm_set_atcmd_echo_to_nvm
                0x0000000008021cf4       0x18 out/external/libexternal_fuota_stack.a(service_nvm_common.o)
                0x0000000008021cf4                service_nvm_set_atcmd_echo_to_nvm
 .text.service_nvm_set_debug_level_to_nvm
                0x0000000008021d0c       0x18 out/external/libexternal_fuota_stack.a(service_nvm_common.o)
                0x0000000008021d0c                service_nvm_set_debug_level_to_nvm
 .text.service_nvm_get_debug_level_from_nvm
                0x0000000008021d24        0xc out/external/libexternal_fuota_stack.a(service_nvm_common.o)
                0x0000000008021d24                service_nvm_get_debug_level_from_nvm
 .text.service_nvm_get_band_from_nvm
                0x0000000008021d30        0xc out/external/libexternal_fuota_stack.a(service_nvm_common.o)
                0x0000000008021d30                service_nvm_get_band_from_nvm
 .text.service_nvm_set_band_to_nvm
                0x0000000008021d3c       0x18 out/external/libexternal_fuota_stack.a(service_nvm_common.o)
                0x0000000008021d3c                service_nvm_set_band_to_nvm
 .text.service_nvm_get_mask_from_nvm
                0x0000000008021d54       0x14 out/external/libexternal_fuota_stack.a(service_nvm_common.o)
                0x0000000008021d54                service_nvm_get_mask_from_nvm
 .text.service_nvm_set_mask_to_nvm
                0x0000000008021d68       0x28 out/external/libexternal_fuota_stack.a(service_nvm_common.o)
                0x0000000008021d68                service_nvm_set_mask_to_nvm
 .text.service_nvm_get_app_eui_from_nvm
                0x0000000008021d90       0x1c out/external/libexternal_fuota_stack.a(service_nvm_common.o)
                0x0000000008021d90                service_nvm_get_app_eui_from_nvm
 .text.service_nvm_set_app_eui_to_nvm
                0x0000000008021dac       0x34 out/external/libexternal_fuota_stack.a(service_nvm_common.o)
                0x0000000008021dac                service_nvm_set_app_eui_to_nvm
 .text.service_nvm_get_app_key_from_nvm
                0x0000000008021de0       0x1c out/external/libexternal_fuota_stack.a(service_nvm_common.o)
                0x0000000008021de0                service_nvm_get_app_key_from_nvm
 .text.service_nvm_set_app_key_to_nvm
                0x0000000008021dfc       0x34 out/external/libexternal_fuota_stack.a(service_nvm_common.o)
                0x0000000008021dfc                service_nvm_set_app_key_to_nvm
 .text.service_nvm_get_app_skey_from_nvm
                0x0000000008021e30       0x1c out/external/libexternal_fuota_stack.a(service_nvm_common.o)
                0x0000000008021e30                service_nvm_get_app_skey_from_nvm
 .text.service_nvm_set_app_skey_to_nvm
                0x0000000008021e4c       0x34 out/external/libexternal_fuota_stack.a(service_nvm_common.o)
                0x0000000008021e4c                service_nvm_set_app_skey_to_nvm
 .text.service_nvm_get_dev_addr_from_nvm
                0x0000000008021e80       0x1c out/external/libexternal_fuota_stack.a(service_nvm_common.o)
                0x0000000008021e80                service_nvm_get_dev_addr_from_nvm
 .text.service_nvm_set_dev_addr_to_nvm
                0x0000000008021e9c       0x34 out/external/libexternal_fuota_stack.a(service_nvm_common.o)
                0x0000000008021e9c                service_nvm_set_dev_addr_to_nvm
 .text.service_nvm_get_dev_eui_from_nvm
                0x0000000008021ed0       0x1c out/external/libexternal_fuota_stack.a(service_nvm_common.o)
                0x0000000008021ed0                service_nvm_get_dev_eui_from_nvm
 .text.service_nvm_set_dev_eui_to_nvm
                0x0000000008021eec       0x34 out/external/libexternal_fuota_stack.a(service_nvm_common.o)
                0x0000000008021eec                service_nvm_set_dev_eui_to_nvm
 .text.service_nvm_get_net_id_from_nvm
                0x0000000008021f20       0x1c out/external/libexternal_fuota_stack.a(service_nvm_common.o)
                0x0000000008021f20                service_nvm_get_net_id_from_nvm
 .text.service_nvm_set_net_id_to_nvm
                0x0000000008021f3c       0x34 out/external/libexternal_fuota_stack.a(service_nvm_common.o)
                0x0000000008021f3c                service_nvm_set_net_id_to_nvm
 .text.service_nvm_get_nwk_skey_from_nvm
                0x0000000008021f70       0x1c out/external/libexternal_fuota_stack.a(service_nvm_common.o)
                0x0000000008021f70                service_nvm_get_nwk_skey_from_nvm
 .text.service_nvm_set_nwk_skey_to_nvm
                0x0000000008021f8c       0x34 out/external/libexternal_fuota_stack.a(service_nvm_common.o)
                0x0000000008021f8c                service_nvm_set_nwk_skey_to_nvm
 .text.service_nvm_get_retry_from_nvm
                0x0000000008021fc0        0xc out/external/libexternal_fuota_stack.a(service_nvm_common.o)
                0x0000000008021fc0                service_nvm_get_retry_from_nvm
 .text.service_nvm_set_retry_to_nvm
                0x0000000008021fcc       0x18 out/external/libexternal_fuota_stack.a(service_nvm_common.o)
                0x0000000008021fcc                service_nvm_set_retry_to_nvm
 .text.service_nvm_get_cfm_from_nvm
                0x0000000008021fe4        0xc out/external/libexternal_fuota_stack.a(service_nvm_common.o)
                0x0000000008021fe4                service_nvm_get_cfm_from_nvm
 .text.service_nvm_set_cfm_to_nvm
                0x0000000008021ff0       0x18 out/external/libexternal_fuota_stack.a(service_nvm_common.o)
                0x0000000008021ff0                service_nvm_set_cfm_to_nvm
 .text.service_nvm_get_nwm_from_nvm
                0x0000000008022008        0xc out/external/libexternal_fuota_stack.a(service_nvm_common.o)
                0x0000000008022008                service_nvm_get_nwm_from_nvm
 .text.service_nvm_set_nwm_to_nvm
                0x0000000008022014       0x18 out/external/libexternal_fuota_stack.a(service_nvm_common.o)
                0x0000000008022014                service_nvm_set_nwm_to_nvm
 .text.service_nvm_get_njm_from_nvm
                0x000000000802202c        0xc out/external/libexternal_fuota_stack.a(service_nvm_common.o)
                0x000000000802202c                service_nvm_get_njm_from_nvm
 .text.service_nvm_set_njm_to_nvm
                0x0000000008022038       0x18 out/external/libexternal_fuota_stack.a(service_nvm_common.o)
                0x0000000008022038                service_nvm_set_njm_to_nvm
 .text.service_nvm_get_adr_from_nvm
                0x0000000008022050        0xc out/external/libexternal_fuota_stack.a(service_nvm_common.o)
                0x0000000008022050                service_nvm_get_adr_from_nvm
 .text.service_nvm_set_adr_to_nvm
                0x000000000802205c       0x18 out/external/libexternal_fuota_stack.a(service_nvm_common.o)
                0x000000000802205c                service_nvm_set_adr_to_nvm
 .text.service_nvm_get_class_from_nvm
                0x0000000008022074        0xc out/external/libexternal_fuota_stack.a(service_nvm_common.o)
                0x0000000008022074                service_nvm_get_class_from_nvm
 .text.service_nvm_set_class_to_nvm
                0x0000000008022080       0x18 out/external/libexternal_fuota_stack.a(service_nvm_common.o)
                0x0000000008022080                service_nvm_set_class_to_nvm
 .text.service_nvm_get_dr_from_nvm
                0x0000000008022098        0xc out/external/libexternal_fuota_stack.a(service_nvm_common.o)
                0x0000000008022098                service_nvm_get_dr_from_nvm
 .text.service_nvm_set_dr_to_nvm
                0x00000000080220a4       0x18 out/external/libexternal_fuota_stack.a(service_nvm_common.o)
                0x00000000080220a4                service_nvm_set_dr_to_nvm
 .text.service_nvm_get_rx2dr_from_nvm
                0x00000000080220bc        0xc out/external/libexternal_fuota_stack.a(service_nvm_common.o)
                0x00000000080220bc                service_nvm_get_rx2dr_from_nvm
 .text.service_nvm_set_rx2dr_to_nvm
                0x00000000080220c8       0x18 out/external/libexternal_fuota_stack.a(service_nvm_common.o)
                0x00000000080220c8                service_nvm_set_rx2dr_to_nvm
 .text.service_nvm_get_jn1dl_from_nvm
                0x00000000080220e0        0xc out/external/libexternal_fuota_stack.a(service_nvm_common.o)
                0x00000000080220e0                service_nvm_get_jn1dl_from_nvm
 .text.service_nvm_set_jn1dl_to_nvm
                0x00000000080220ec       0x18 out/external/libexternal_fuota_stack.a(service_nvm_common.o)
                0x00000000080220ec                service_nvm_set_jn1dl_to_nvm
 .text.service_nvm_get_jn2dl_from_nvm
                0x0000000008022104        0xc out/external/libexternal_fuota_stack.a(service_nvm_common.o)
                0x0000000008022104                service_nvm_get_jn2dl_from_nvm
 .text.service_nvm_set_jn2dl_to_nvm
                0x0000000008022110       0x18 out/external/libexternal_fuota_stack.a(service_nvm_common.o)
                0x0000000008022110                service_nvm_set_jn2dl_to_nvm
 .text.service_nvm_set_rx2fq_to_nvm
                0x0000000008022128       0x18 out/external/libexternal_fuota_stack.a(service_nvm_common.o)
                0x0000000008022128                service_nvm_set_rx2fq_to_nvm
 .text.service_nvm_get_rx2fq_from_nvm
                0x0000000008022140        0xc out/external/libexternal_fuota_stack.a(service_nvm_common.o)
                0x0000000008022140                service_nvm_get_rx2fq_from_nvm
 .text.service_nvm_get_pub_nwk_mode_from_nvm
                0x000000000802214c        0xc out/external/libexternal_fuota_stack.a(service_nvm_common.o)
                0x000000000802214c                service_nvm_get_pub_nwk_mode_from_nvm
 .text.service_nvm_set_pub_nwk_mode_to_nvm
                0x0000000008022158       0x18 out/external/libexternal_fuota_stack.a(service_nvm_common.o)
                0x0000000008022158                service_nvm_set_pub_nwk_mode_to_nvm
 .text.service_nvm_get_rx1dl_from_nvm
                0x0000000008022170        0xc out/external/libexternal_fuota_stack.a(service_nvm_common.o)
                0x0000000008022170                service_nvm_get_rx1dl_from_nvm
 .text.service_nvm_set_rx1dl_to_nvm
                0x000000000802217c       0x18 out/external/libexternal_fuota_stack.a(service_nvm_common.o)
                0x000000000802217c                service_nvm_set_rx1dl_to_nvm
 .text.service_nvm_get_rx2dl_from_nvm
                0x0000000008022194        0xc out/external/libexternal_fuota_stack.a(service_nvm_common.o)
                0x0000000008022194                service_nvm_get_rx2dl_from_nvm
 .text.service_nvm_set_rx2dl_to_nvm
                0x00000000080221a0       0x18 out/external/libexternal_fuota_stack.a(service_nvm_common.o)
                0x00000000080221a0                service_nvm_set_rx2dl_to_nvm
 .text.service_nvm_get_txpower_from_nvm
                0x00000000080221b8        0xc out/external/libexternal_fuota_stack.a(service_nvm_common.o)
                0x00000000080221b8                service_nvm_get_txpower_from_nvm
 .text.service_nvm_set_txpower_to_nvm
                0x00000000080221c4       0x18 out/external/libexternal_fuota_stack.a(service_nvm_common.o)
                0x00000000080221c4                service_nvm_set_txpower_to_nvm
 .text.service_nvm_get_linkcheck_from_nvm
                0x00000000080221dc        0xc out/external/libexternal_fuota_stack.a(service_nvm_common.o)
                0x00000000080221dc                service_nvm_get_linkcheck_from_nvm
 .text.service_nvm_set_linkcheck_to_nvm
                0x00000000080221e8       0x18 out/external/libexternal_fuota_stack.a(service_nvm_common.o)
                0x00000000080221e8                service_nvm_set_linkcheck_to_nvm
 .text.service_nvm_get_ping_slot_periodicity_from_nvm
                0x0000000008022200        0xc out/external/libexternal_fuota_stack.a(service_nvm_common.o)
                0x0000000008022200                service_nvm_get_ping_slot_periodicity_from_nvm
 .text.service_nvm_set_ping_slot_periodicity_to_nvm
                0x000000000802220c       0x18 out/external/libexternal_fuota_stack.a(service_nvm_common.o)
                0x000000000802220c                service_nvm_set_ping_slot_periodicity_to_nvm
 .text.service_nvm_get_join_start_from_nvm
                0x0000000008022224        0xc out/external/libexternal_fuota_stack.a(service_nvm_common.o)
                0x0000000008022224                service_nvm_get_join_start_from_nvm
 .text.service_nvm_set_join_start_to_nvm
                0x0000000008022230       0x18 out/external/libexternal_fuota_stack.a(service_nvm_common.o)
                0x0000000008022230                service_nvm_set_join_start_to_nvm
 .text.service_nvm_get_auto_join_from_nvm
                0x0000000008022248        0xc out/external/libexternal_fuota_stack.a(service_nvm_common.o)
                0x0000000008022248                service_nvm_get_auto_join_from_nvm
 .text.service_nvm_set_auto_join_to_nvm
                0x0000000008022254       0x18 out/external/libexternal_fuota_stack.a(service_nvm_common.o)
                0x0000000008022254                service_nvm_set_auto_join_to_nvm
 .text.service_nvm_get_auto_join_period_from_nvm
                0x000000000802226c        0xc out/external/libexternal_fuota_stack.a(service_nvm_common.o)
                0x000000000802226c                service_nvm_get_auto_join_period_from_nvm
 .text.service_nvm_set_auto_join_period_to_nvm
                0x0000000008022278       0x18 out/external/libexternal_fuota_stack.a(service_nvm_common.o)
                0x0000000008022278                service_nvm_set_auto_join_period_to_nvm
 .text.service_nvm_get_auto_join_max_cnt_from_nvm
                0x0000000008022290        0xc out/external/libexternal_fuota_stack.a(service_nvm_common.o)
                0x0000000008022290                service_nvm_get_auto_join_max_cnt_from_nvm
 .text.service_nvm_set_auto_join_max_cnt_to_nvm
                0x000000000802229c       0x18 out/external/libexternal_fuota_stack.a(service_nvm_common.o)
                0x000000000802229c                service_nvm_set_auto_join_max_cnt_to_nvm
 .text.service_nvm_get_lbt_from_nvm
                0x00000000080222b4        0xc out/external/libexternal_fuota_stack.a(service_nvm_common.o)
                0x00000000080222b4                service_nvm_get_lbt_from_nvm
 .text.service_nvm_set_lbt_to_nvm
                0x00000000080222c0       0x18 out/external/libexternal_fuota_stack.a(service_nvm_common.o)
                0x00000000080222c0                service_nvm_set_lbt_to_nvm
 .text.service_nvm_get_lbt_rssi_from_nvm
                0x00000000080222d8        0xc out/external/libexternal_fuota_stack.a(service_nvm_common.o)
                0x00000000080222d8                service_nvm_get_lbt_rssi_from_nvm
 .text.service_nvm_set_lbt_rssi_to_nvm
                0x00000000080222e4       0x18 out/external/libexternal_fuota_stack.a(service_nvm_common.o)
                0x00000000080222e4                service_nvm_set_lbt_rssi_to_nvm
 .text.service_nvm_get_lbt_scantime_from_nvm
                0x00000000080222fc        0xc out/external/libexternal_fuota_stack.a(service_nvm_common.o)
                0x00000000080222fc                service_nvm_get_lbt_scantime_from_nvm
 .text.service_nvm_set_lbt_scantime_to_nvm
                0x0000000008022308       0x18 out/external/libexternal_fuota_stack.a(service_nvm_common.o)
                0x0000000008022308                service_nvm_set_lbt_scantime_to_nvm
 .text.service_nvm_get_DevNonce_from_nvm
                0x0000000008022320        0xc out/external/libexternal_fuota_stack.a(service_nvm_common.o)
                0x0000000008022320                service_nvm_get_DevNonce_from_nvm
 .text.service_nvm_set_DevNonce_to_nvm
                0x000000000802232c       0x18 out/external/libexternal_fuota_stack.a(service_nvm_common.o)
                0x000000000802232c                service_nvm_set_DevNonce_to_nvm
 .text.service_nvm_set_IsCertPortOn_to_nvm
                0x0000000008022344       0x18 out/external/libexternal_fuota_stack.a(service_nvm_common.o)
                0x0000000008022344                service_nvm_set_IsCertPortOn_to_nvm
 .text.service_nvm_get_IsCertPortOn_from_nvm
                0x000000000802235c        0xc out/external/libexternal_fuota_stack.a(service_nvm_common.o)
                0x000000000802235c                service_nvm_get_IsCertPortOn_from_nvm
 .text.service_nvm_set_crypto_to_nvm
                0x0000000008022368       0x28 out/external/libexternal_fuota_stack.a(service_nvm_common.o)
                0x0000000008022368                service_nvm_set_crypto_to_nvm
 .text.service_nvm_get_crypto_from_nvm
                0x0000000008022390        0x8 out/external/libexternal_fuota_stack.a(service_nvm_common.o)
                0x0000000008022390                service_nvm_get_crypto_from_nvm
 .text.service_nvm_set_macgroup1_to_nvm
                0x0000000008022398       0x28 out/external/libexternal_fuota_stack.a(service_nvm_common.o)
                0x0000000008022398                service_nvm_set_macgroup1_to_nvm
 .text.service_nvm_get_macgroup1_from_nvm
                0x00000000080223c0        0x8 out/external/libexternal_fuota_stack.a(service_nvm_common.o)
                0x00000000080223c0                service_nvm_get_macgroup1_from_nvm
 .text.service_nvm_set_macgroup2_to_nvm
                0x00000000080223c8       0x2c out/external/libexternal_fuota_stack.a(service_nvm_common.o)
                0x00000000080223c8                service_nvm_set_macgroup2_to_nvm
 .text.service_nvm_get_macgroup2_from_nvm
                0x00000000080223f4        0x8 out/external/libexternal_fuota_stack.a(service_nvm_common.o)
                0x00000000080223f4                service_nvm_get_macgroup2_from_nvm
 .text.service_nvm_set_sec_element_to_nvm
                0x00000000080223fc       0x2c out/external/libexternal_fuota_stack.a(service_nvm_common.o)
                0x00000000080223fc                service_nvm_set_sec_element_to_nvm
 .text.service_nvm_get_sec_element_from_nvm
                0x0000000008022428        0x8 out/external/libexternal_fuota_stack.a(service_nvm_common.o)
                0x0000000008022428                service_nvm_get_sec_element_from_nvm
 .text.service_nvm_set_regionchannels_to_nvm
                0x0000000008022430       0x2c out/external/libexternal_fuota_stack.a(service_nvm_common.o)
                0x0000000008022430                service_nvm_set_regionchannels_to_nvm
 .text.service_nvm_get_regionchannels_from_nvm
                0x000000000802245c        0x8 out/external/libexternal_fuota_stack.a(service_nvm_common.o)
                0x000000000802245c                service_nvm_get_regionchannels_from_nvm
 .text.service_nvm_get_multicast_from_nvm
                0x0000000008022464        0x8 out/external/libexternal_fuota_stack.a(service_nvm_common.o)
                0x0000000008022464                service_nvm_get_multicast_from_nvm
 .text.service_nvm_set_multicast_to_nvm
                0x000000000802246c       0x28 out/external/libexternal_fuota_stack.a(service_nvm_common.o)
                0x000000000802246c                service_nvm_set_multicast_to_nvm
 .text.service_nvm_get_tp_port_from_nvm
                0x0000000008022494       0x10 out/external/libexternal_fuota_stack.a(service_nvm_common.o)
                0x0000000008022494                service_nvm_get_tp_port_from_nvm
 .text.service_nvm_set_tp_port_to_nvm
                0x00000000080224a4       0x28 out/external/libexternal_fuota_stack.a(service_nvm_common.o)
                0x00000000080224a4                service_nvm_set_tp_port_to_nvm
 .text.service_nvm_get_chs_from_nvm
                0x00000000080224cc        0xc out/external/libexternal_fuota_stack.a(service_nvm_common.o)
                0x00000000080224cc                service_nvm_get_chs_from_nvm
 .text.service_nvm_set_chs_to_nvm
                0x00000000080224d8       0x18 out/external/libexternal_fuota_stack.a(service_nvm_common.o)
                0x00000000080224d8                service_nvm_set_chs_to_nvm
 .text.service_nvm_get_freq_from_nvm
                0x00000000080224f0        0xc out/external/libexternal_fuota_stack.a(service_nvm_common.o)
                0x00000000080224f0                service_nvm_get_freq_from_nvm
 .text.service_nvm_set_freq_to_nvm
                0x00000000080224fc       0x18 out/external/libexternal_fuota_stack.a(service_nvm_common.o)
                0x00000000080224fc                service_nvm_set_freq_to_nvm
 .text.service_nvm_get_sf_from_nvm
                0x0000000008022514        0xc out/external/libexternal_fuota_stack.a(service_nvm_common.o)
                0x0000000008022514                service_nvm_get_sf_from_nvm
 .text.service_nvm_set_sf_to_nvm
                0x0000000008022520       0x18 out/external/libexternal_fuota_stack.a(service_nvm_common.o)
                0x0000000008022520                service_nvm_set_sf_to_nvm
 .text.service_nvm_get_bandwidth_from_nvm
                0x0000000008022538       0x14 out/external/libexternal_fuota_stack.a(service_nvm_common.o)
                0x0000000008022538                service_nvm_get_bandwidth_from_nvm
 .text.service_nvm_set_bandwidth_to_nvm
                0x000000000802254c       0x24 out/external/libexternal_fuota_stack.a(service_nvm_common.o)
                0x000000000802254c                service_nvm_set_bandwidth_to_nvm
 .text.service_nvm_get_codingrate_from_nvm
                0x0000000008022570        0xc out/external/libexternal_fuota_stack.a(service_nvm_common.o)
                0x0000000008022570                service_nvm_get_codingrate_from_nvm
 .text.service_nvm_set_codingrate_to_nvm
                0x000000000802257c       0x18 out/external/libexternal_fuota_stack.a(service_nvm_common.o)
                0x000000000802257c                service_nvm_set_codingrate_to_nvm
 .text.service_nvm_get_preamlen_from_nvm
                0x0000000008022594        0xc out/external/libexternal_fuota_stack.a(service_nvm_common.o)
                0x0000000008022594                service_nvm_get_preamlen_from_nvm
 .text.service_nvm_set_preamlen_to_nvm
                0x00000000080225a0       0x18 out/external/libexternal_fuota_stack.a(service_nvm_common.o)
                0x00000000080225a0                service_nvm_set_preamlen_to_nvm
 .text.service_nvm_get_powerdbm_from_nvm
                0x00000000080225b8        0xc out/external/libexternal_fuota_stack.a(service_nvm_common.o)
                0x00000000080225b8                service_nvm_get_powerdbm_from_nvm
 .text.service_nvm_set_powerdbm_to_nvm
                0x00000000080225c4       0x18 out/external/libexternal_fuota_stack.a(service_nvm_common.o)
                0x00000000080225c4                service_nvm_set_powerdbm_to_nvm
 .text.service_nvm_get_crypt_enable_from_nvm
                0x00000000080225dc        0xc out/external/libexternal_fuota_stack.a(service_nvm_common.o)
                0x00000000080225dc                service_nvm_get_crypt_enable_from_nvm
 .text.service_nvm_set_crypt_enable_to_nvm
                0x00000000080225e8       0x18 out/external/libexternal_fuota_stack.a(service_nvm_common.o)
                0x00000000080225e8                service_nvm_set_crypt_enable_to_nvm
 .text.service_nvm_get_crypt_key_from_nvm
                0x0000000008022600       0x1c out/external/libexternal_fuota_stack.a(service_nvm_common.o)
                0x0000000008022600                service_nvm_get_crypt_key_from_nvm
 .text.service_nvm_set_crypt_key_to_nvm
                0x000000000802261c       0x34 out/external/libexternal_fuota_stack.a(service_nvm_common.o)
                0x000000000802261c                service_nvm_set_crypt_key_to_nvm
 .text.service_nvm_get_crypt_IV_from_nvm
                0x0000000008022650       0x1c out/external/libexternal_fuota_stack.a(service_nvm_common.o)
                0x0000000008022650                service_nvm_get_crypt_IV_from_nvm
 .text.service_nvm_set_crypt_IV_to_nvm
                0x000000000802266c       0x34 out/external/libexternal_fuota_stack.a(service_nvm_common.o)
                0x000000000802266c                service_nvm_set_crypt_IV_to_nvm
 .text.service_nvm_set_fdev_to_nvm
                0x00000000080226a0       0x18 out/external/libexternal_fuota_stack.a(service_nvm_common.o)
                0x00000000080226a0                service_nvm_set_fdev_to_nvm
 .text.service_nvm_set_bitrate_to_nvm
                0x00000000080226b8       0x18 out/external/libexternal_fuota_stack.a(service_nvm_common.o)
                0x00000000080226b8                service_nvm_set_bitrate_to_nvm
 .text.service_nvm_get_bitrate_from_nvm
                0x00000000080226d0        0xc out/external/libexternal_fuota_stack.a(service_nvm_common.o)
                0x00000000080226d0                service_nvm_get_bitrate_from_nvm
 .text.service_nvm_get_fdev_from_nvm
                0x00000000080226dc        0xc out/external/libexternal_fuota_stack.a(service_nvm_common.o)
                0x00000000080226dc                service_nvm_get_fdev_from_nvm
 .text.service_nvm_set_dcs_to_nvm
                0x00000000080226e8       0x18 out/external/libexternal_fuota_stack.a(service_nvm_common.o)
                0x00000000080226e8                service_nvm_set_dcs_to_nvm
 .text.service_nvm_get_dcs_from_nvm
                0x0000000008022700        0xc out/external/libexternal_fuota_stack.a(service_nvm_common.o)
                0x0000000008022700                service_nvm_get_dcs_from_nvm
 .text.service_nvm_get_iqinverted_from_nvm
                0x000000000802270c        0xc out/external/libexternal_fuota_stack.a(service_nvm_common.o)
                0x000000000802270c                service_nvm_get_iqinverted_from_nvm
 .text.service_nvm_set_iqinverted_to_nvm
                0x0000000008022718       0x18 out/external/libexternal_fuota_stack.a(service_nvm_common.o)
                0x0000000008022718                service_nvm_set_iqinverted_to_nvm
 .text.service_nvm_get_symbol_timeout_from_nvm
                0x0000000008022730        0xc out/external/libexternal_fuota_stack.a(service_nvm_common.o)
                0x0000000008022730                service_nvm_get_symbol_timeout_from_nvm
 .text.service_nvm_set_symbol_timeout_to_nvm
                0x000000000802273c       0x18 out/external/libexternal_fuota_stack.a(service_nvm_common.o)
                0x000000000802273c                service_nvm_set_symbol_timeout_to_nvm
 .text.service_nvm_get_fix_length_payload_from_nvm
                0x0000000008022754        0xc out/external/libexternal_fuota_stack.a(service_nvm_common.o)
                0x0000000008022754                service_nvm_get_fix_length_payload_from_nvm
 .text.service_nvm_set_fix_length_payload_to_nvm
                0x0000000008022760       0x18 out/external/libexternal_fuota_stack.a(service_nvm_common.o)
                0x0000000008022760                service_nvm_set_fix_length_payload_to_nvm
 .text.service_nvm_get_syncword_from_nvm
                0x0000000008022778        0xc out/external/libexternal_fuota_stack.a(service_nvm_common.o)
                0x0000000008022778                service_nvm_get_syncword_from_nvm
 .text.service_nvm_set_syncword_to_nvm
                0x0000000008022784       0x18 out/external/libexternal_fuota_stack.a(service_nvm_common.o)
                0x0000000008022784                service_nvm_set_syncword_to_nvm
 .text.service_nvm_get_CAD_from_nvm
                0x000000000802279c        0xc out/external/libexternal_fuota_stack.a(service_nvm_common.o)
                0x000000000802279c                service_nvm_get_CAD_from_nvm
 .text.service_nvm_set_CAD_to_nvm
                0x00000000080227a8       0x18 out/external/libexternal_fuota_stack.a(service_nvm_common.o)
                0x00000000080227a8                service_nvm_set_CAD_to_nvm
 .text.service_nvm_get_certi_from_nvm
                0x00000000080227c0        0xc out/external/libexternal_fuota_stack.a(service_nvm_common.o)
                0x00000000080227c0                service_nvm_get_certi_from_nvm
 .text.service_nvm_set_certi_to_nvm
                0x00000000080227cc       0x18 out/external/libexternal_fuota_stack.a(service_nvm_common.o)
                0x00000000080227cc                service_nvm_set_certi_to_nvm
 .text.service_lora_mac_nvm_data_init
                0x00000000080227e4       0x30 out/external/libexternal_fuota_stack.a(service_nvm_common.o)
                0x00000000080227e4                service_lora_mac_nvm_data_init
 .text.uhal_flash_init
                0x0000000008022814        0x2 out/external/libexternal_fuota_stack.a(uhal_flash.o)
                0x0000000008022814                uhal_flash_init
 .text.uhal_flash_deinit
                0x0000000008022816        0x2 out/external/libexternal_fuota_stack.a(uhal_flash.o)
                0x0000000008022816                uhal_flash_deinit
 .text.uhal_flash_write
                0x0000000008022818       0x44 out/external/libexternal_fuota_stack.a(uhal_flash.o)
                0x0000000008022818                uhal_flash_write
 .text.uhal_flash_read
                0x000000000802285c       0x10 out/external/libexternal_fuota_stack.a(uhal_flash.o)
                0x000000000802285c                uhal_flash_read
 .text.uhal_flash_erase
                0x000000000802286c       0x50 out/external/libexternal_fuota_stack.a(uhal_flash.o)
                0x000000000802286c                uhal_flash_erase
 .text.uhal_flash_get_page_size
                0x00000000080228bc        0x6 out/external/libexternal_fuota_stack.a(uhal_flash.o)
                0x00000000080228bc                uhal_flash_get_page_size
 .text.uhal_flash_check_addr_valid
                0x00000000080228c2        0x4 out/external/libexternal_fuota_stack.a(uhal_flash.o)
                0x00000000080228c2                uhal_flash_check_addr_valid
 .text.uhal_flash_suspend
                0x00000000080228c6        0x2 out/external/libexternal_fuota_stack.a(uhal_flash.o)
                0x00000000080228c6                uhal_flash_suspend
 .text.uhal_flash_resume
                0x00000000080228c8        0x2 out/external/libexternal_fuota_stack.a(uhal_flash.o)
                0x00000000080228c8                uhal_flash_resume
 .text.uhal_sys_get_uid
                0x00000000080228ca       0x1c out/external/libexternal_fuota_stack.a(uhal_system.o)
                0x00000000080228ca                uhal_sys_get_uid
 *fill*         0x00000000080228e6        0x2 
 .text.uhal_sys_reboot
                0x00000000080228e8       0x24 out/external/libexternal_fuota_stack.a(uhal_system.o)
                0x00000000080228e8                uhal_sys_reboot
 .text.uhal_sys_board_critical_section_begin
                0x000000000802290c        0xa out/external/libexternal_fuota_stack.a(uhal_system.o)
                0x000000000802290c                uhal_sys_board_critical_section_begin
 .text.uhal_sys_board_critical_section_end
                0x0000000008022916        0xa out/external/libexternal_fuota_stack.a(uhal_system.o)
                0x0000000008022916                uhal_sys_board_critical_section_end
 .text.uhal_sys_randomseed
                0x0000000008022920        0x2 out/external/libexternal_fuota_stack.a(uhal_system.o)
                0x0000000008022920                uhal_sys_randomseed
 .text.uhal_sys_random
                0x0000000008022922        0x2 out/external/libexternal_fuota_stack.a(uhal_system.o)
                0x0000000008022922                uhal_sys_random
 .text.uhal_sys_user_app_timer_create
                0x0000000008022924       0x2c out/external/libexternal_fuota_stack.a(uhal_system.o)
                0x0000000008022924                uhal_sys_user_app_timer_create
 .text.uhal_sys_user_app_timer_start
                0x0000000008022950       0x20 out/external/libexternal_fuota_stack.a(uhal_system.o)
                0x0000000008022950                uhal_sys_user_app_timer_start
 .text.uhal_sys_user_app_timer_stop
                0x0000000008022970       0x18 out/external/libexternal_fuota_stack.a(uhal_system.o)
                0x0000000008022970                uhal_sys_user_app_timer_stop
 .text.uhal_rtc_tick2ms
                0x0000000008022988        0xc out/external/libexternal_fuota_stack.a(uhal_rtc.o)
                0x0000000008022988                uhal_rtc_tick2ms
 .text.uhal_rtc_ms2tick
                0x0000000008022994        0xc out/external/libexternal_fuota_stack.a(uhal_rtc.o)
                0x0000000008022994                uhal_rtc_ms2tick
 .text.uhal_rtc_sleep_mode_tick2ms
                0x00000000080229a0        0x4 out/external/libexternal_fuota_stack.a(uhal_rtc.o)
                0x00000000080229a0                uhal_rtc_sleep_mode_tick2ms
 .text.uhal_rtc_sleep_mode_ms2tick
                0x00000000080229a4        0x4 out/external/libexternal_fuota_stack.a(uhal_rtc.o)
                0x00000000080229a4                uhal_rtc_sleep_mode_ms2tick
 .text.uhal_rtc_init
                0x00000000080229a8       0x74 out/external/libexternal_fuota_stack.a(uhal_rtc.o)
                0x00000000080229a8                uhal_rtc_init
 .text.uhal_rtc_set_alarm
                0x0000000008022a1c       0x14 out/external/libexternal_fuota_stack.a(uhal_rtc.o)
                0x0000000008022a1c                uhal_rtc_set_alarm
 .text.uhal_rtc_cancel_alarm
                0x0000000008022a30       0x10 out/external/libexternal_fuota_stack.a(uhal_rtc.o)
                0x0000000008022a30                uhal_rtc_cancel_alarm
 .text.uhal_rtc_get_counter
                0x0000000008022a40       0x10 out/external/libexternal_fuota_stack.a(uhal_rtc.o)
                0x0000000008022a40                uhal_rtc_get_counter
 .text.uhal_rtc_get_timestamp
                0x0000000008022a50       0x24 out/external/libexternal_fuota_stack.a(uhal_rtc.o)
                0x0000000008022a50                uhal_rtc_get_timestamp
 .text.uhal_rtc_get_us_timestamp
                0x0000000008022a74       0x2c out/external/libexternal_fuota_stack.a(uhal_rtc.o)
                0x0000000008022a74                uhal_rtc_get_us_timestamp
 .text.uhal_rtc_get_elapsed_time
                0x0000000008022aa0       0x20 out/external/libexternal_fuota_stack.a(uhal_rtc.o)
                0x0000000008022aa0                uhal_rtc_get_elapsed_time
 .text.uhal_rtc_suspend
                0x0000000008022ac0        0x2 out/external/libexternal_fuota_stack.a(uhal_rtc.o)
                0x0000000008022ac0                uhal_rtc_suspend
 .text.uhal_rtc_resume
                0x0000000008022ac2        0x2 out/external/libexternal_fuota_stack.a(uhal_rtc.o)
                0x0000000008022ac2                uhal_rtc_resume
 .text.uhal_cyrpto_set_iv.part.0
                0x0000000008022ac4       0x34 out/external/libexternal_fuota_stack.a(uhal_crypto.o)
 .text.uhal_crypto_aes_crypt.constprop.0
                0x0000000008022af8      0x110 out/external/libexternal_fuota_stack.a(uhal_crypto.o)
 .text.uhal_cyrpto_set_key
                0x0000000008022c08       0x44 out/external/libexternal_fuota_stack.a(uhal_crypto.o)
                0x0000000008022c08                uhal_cyrpto_set_key
 .text.uhal_cyrpto_set_iv
                0x0000000008022c4c        0xe out/external/libexternal_fuota_stack.a(uhal_crypto.o)
                0x0000000008022c4c                uhal_cyrpto_set_iv
 .text.uhal_crypto_aes_ecb_encrypt
                0x0000000008022c5a       0x18 out/external/libexternal_fuota_stack.a(uhal_crypto.o)
                0x0000000008022c5a                uhal_crypto_aes_ecb_encrypt
 .text.uhal_crypto_aes_ecb_decrypt
                0x0000000008022c72       0x18 out/external/libexternal_fuota_stack.a(uhal_crypto.o)
                0x0000000008022c72                uhal_crypto_aes_ecb_decrypt
 *fill*         0x0000000008022c8a        0x2 
 .text.uhal_crypto_aes_cbc_encrypt
                0x0000000008022c8c       0x3c out/external/libexternal_fuota_stack.a(uhal_crypto.o)
                0x0000000008022c8c                uhal_crypto_aes_cbc_encrypt
 .text.uhal_crypto_aes_cbc_decrypt
                0x0000000008022cc8       0x3c out/external/libexternal_fuota_stack.a(uhal_crypto.o)
                0x0000000008022cc8                uhal_crypto_aes_cbc_decrypt
 .text.uhal_crypto_aes_ctr_encrypt
                0x0000000008022d04       0x3c out/external/libexternal_fuota_stack.a(uhal_crypto.o)
                0x0000000008022d04                uhal_crypto_aes_ctr_encrypt
 .text.uhal_crypto_aes_ctr_decrypt
                0x0000000008022d40       0x3c out/external/libexternal_fuota_stack.a(uhal_crypto.o)
                0x0000000008022d40                uhal_crypto_aes_ctr_decrypt
 .text.aes_set_key
                0x0000000008022d7c        0xa out/external/libexternal_fuota_stack.a(uhal_crypto.o)
                0x0000000008022d7c                aes_set_key
 .text.aes_encrypt
                0x0000000008022d86       0x10 out/external/libexternal_fuota_stack.a(uhal_crypto.o)
                0x0000000008022d86                aes_encrypt
 .text.aes_cbc_encrypt
                0x0000000008022d96       0x20 out/external/libexternal_fuota_stack.a(uhal_crypto.o)
                0x0000000008022d96                aes_cbc_encrypt
 .text.aes_decrypt
                0x0000000008022db6       0x10 out/external/libexternal_fuota_stack.a(uhal_crypto.o)
                0x0000000008022db6                aes_decrypt
 .text.aes_cbc_decrypt
                0x0000000008022dc6       0x20 out/external/libexternal_fuota_stack.a(uhal_crypto.o)
                0x0000000008022dc6                aes_cbc_decrypt
 *fill*         0x0000000008022de6        0x2 
 .text.HAL_NVIC_SetPriorityGrouping
                0x0000000008022de8       0x24 out/external/libexternal_fuota_stack.a(stm32wlxx_hal_cortex.o)
                0x0000000008022de8                HAL_NVIC_SetPriorityGrouping
 .text.HAL_NVIC_SetPriority
                0x0000000008022e0c       0x64 out/external/libexternal_fuota_stack.a(stm32wlxx_hal_cortex.o)
                0x0000000008022e0c                HAL_NVIC_SetPriority
 .text.HAL_NVIC_EnableIRQ
                0x0000000008022e70       0x1c out/external/libexternal_fuota_stack.a(stm32wlxx_hal_cortex.o)
                0x0000000008022e70                HAL_NVIC_EnableIRQ
 .text.HAL_NVIC_DisableIRQ
                0x0000000008022e8c       0x28 out/external/libexternal_fuota_stack.a(stm32wlxx_hal_cortex.o)
                0x0000000008022e8c                HAL_NVIC_DisableIRQ
 .text.HAL_NVIC_SystemReset
                0x0000000008022eb4       0x24 out/external/libexternal_fuota_stack.a(stm32wlxx_hal_cortex.o)
                0x0000000008022eb4                HAL_NVIC_SystemReset
 .text.HAL_SYSTICK_Config
                0x0000000008022ed8       0x28 out/external/libexternal_fuota_stack.a(stm32wlxx_hal_cortex.o)
                0x0000000008022ed8                HAL_SYSTICK_Config
 .text.HAL_NVIC_GetPriorityGrouping
                0x0000000008022f00       0x10 out/external/libexternal_fuota_stack.a(stm32wlxx_hal_cortex.o)
                0x0000000008022f00                HAL_NVIC_GetPriorityGrouping
 .text.HAL_NVIC_GetPriority
                0x0000000008022f10       0x5c out/external/libexternal_fuota_stack.a(stm32wlxx_hal_cortex.o)
                0x0000000008022f10                HAL_NVIC_GetPriority
 .text.HAL_NVIC_GetActive
                0x0000000008022f6c       0x24 out/external/libexternal_fuota_stack.a(stm32wlxx_hal_cortex.o)
                0x0000000008022f6c                HAL_NVIC_GetActive
 .text.HAL_NVIC_SetPendingIRQ
                0x0000000008022f90       0x20 out/external/libexternal_fuota_stack.a(stm32wlxx_hal_cortex.o)
                0x0000000008022f90                HAL_NVIC_SetPendingIRQ
 .text.HAL_NVIC_GetPendingIRQ
                0x0000000008022fb0       0x24 out/external/libexternal_fuota_stack.a(stm32wlxx_hal_cortex.o)
                0x0000000008022fb0                HAL_NVIC_GetPendingIRQ
 .text.HAL_NVIC_ClearPendingIRQ
                0x0000000008022fd4       0x20 out/external/libexternal_fuota_stack.a(stm32wlxx_hal_cortex.o)
                0x0000000008022fd4                HAL_NVIC_ClearPendingIRQ
 .text.HAL_SYSTICK_CLKSourceConfig
                0x0000000008022ff4       0x16 out/external/libexternal_fuota_stack.a(stm32wlxx_hal_cortex.o)
                0x0000000008022ff4                HAL_SYSTICK_CLKSourceConfig
 .text.HAL_SYSTICK_Callback
                0x000000000802300a        0x2 out/external/libexternal_fuota_stack.a(stm32wlxx_hal_cortex.o)
                0x000000000802300a                HAL_SYSTICK_Callback
 .text.HAL_SYSTICK_IRQHandler
                0x000000000802300c        0x8 out/external/libexternal_fuota_stack.a(stm32wlxx_hal_cortex.o)
                0x000000000802300c                HAL_SYSTICK_IRQHandler
 .text.HAL_MPU_Enable
                0x0000000008023014       0x18 out/external/libexternal_fuota_stack.a(stm32wlxx_hal_cortex.o)
                0x0000000008023014                HAL_MPU_Enable
 .text.HAL_MPU_Disable
                0x000000000802302c       0x14 out/external/libexternal_fuota_stack.a(stm32wlxx_hal_cortex.o)
                0x000000000802302c                HAL_MPU_Disable
 .text.HAL_MPU_ConfigRegion
                0x0000000008023040       0x54 out/external/libexternal_fuota_stack.a(stm32wlxx_hal_cortex.o)
                0x0000000008023040                HAL_MPU_ConfigRegion
 .text.RadioCheckRfFrequency
                0x0000000008023094        0x4 out/external/libexternal_fuota_stack.a(radio.o)
 .text.RadioOnTxTimeoutIrq
                0x0000000008023098       0x14 out/external/libexternal_fuota_stack.a(radio.o)
 .text.RadioOnRxTimeoutIrq
                0x00000000080230ac       0x14 out/external/libexternal_fuota_stack.a(radio.o)
 .text.RadioRead
                0x00000000080230c0        0x4 out/external/libexternal_fuota_stack.a(radio.o)
 .text.RadioWrite
                0x00000000080230c4        0x4 out/external/libexternal_fuota_stack.a(radio.o)
 .text.RadioTxCw
                0x00000000080230c8       0x14 out/external/libexternal_fuota_stack.a(radio.o)
 .text.RadioSetRxDutyCycle
                0x00000000080230dc       0x24 out/external/libexternal_fuota_stack.a(radio.o)
 .text.RadioRxBoosted
                0x0000000008023100       0x5c out/external/libexternal_fuota_stack.a(radio.o)
 .text.RadioStandby
                0x000000000802315c        0x6 out/external/libexternal_fuota_stack.a(radio.o)
 *fill*         0x0000000008023162        0x2 
 .text.RadioGetStatus
                0x0000000008023164       0x1c out/external/libexternal_fuota_stack.a(radio.o)
 .text.RadioIrqProcess
                0x0000000008023180      0x1f0 out/external/libexternal_fuota_stack.a(radio.o)
 .text.RadioOnDioIrq
                0x0000000008023370       0x10 out/external/libexternal_fuota_stack.a(radio.o)
 .text.RadioGetWakeupTime
                0x0000000008023380        0xa out/external/libexternal_fuota_stack.a(radio.o)
 .text.RadioReadRegisters
                0x000000000802338a        0x4 out/external/libexternal_fuota_stack.a(radio.o)
 .text.RadioWriteRegisters
                0x000000000802338e        0x4 out/external/libexternal_fuota_stack.a(radio.o)
 .text.RadioRssi
                0x0000000008023392        0xa out/external/libexternal_fuota_stack.a(radio.o)
 .text.RadioSetTxContinuousWave
                0x000000000802339c       0x38 out/external/libexternal_fuota_stack.a(radio.o)
 .text.RadioSetChannel
                0x00000000080233d4        0x4 out/external/libexternal_fuota_stack.a(radio.o)
 .text.RadioStartCad
                0x00000000080233d8       0x28 out/external/libexternal_fuota_stack.a(radio.o)
 .text.RadioRx  0x0000000008023400       0x5c out/external/libexternal_fuota_stack.a(radio.o)
 .text.RadioSleep
                0x000000000802345c       0x14 out/external/libexternal_fuota_stack.a(radio.o)
 .text.RadioSetMaxPayloadLength
                0x0000000008023470       0x2c out/external/libexternal_fuota_stack.a(radio.o)
 .text.RadioSetPublicNetwork
                0x000000000802349c       0x3c out/external/libexternal_fuota_stack.a(radio.o)
 .text.RadioSetModem
                0x00000000080234d8       0x44 out/external/libexternal_fuota_stack.a(radio.o)
 .text.RadioSetTxGenericConfig
                0x000000000802351c      0x1f4 out/external/libexternal_fuota_stack.a(radio.o)
 .text.RadioSetRxGenericConfig
                0x0000000008023710      0x214 out/external/libexternal_fuota_stack.a(radio.o)
 .text.RadioSetTxConfig
                0x0000000008023924      0x18c out/external/libexternal_fuota_stack.a(radio.o)
 .text.RadioSetRxConfig
                0x0000000008023ab0      0x2d8 out/external/libexternal_fuota_stack.a(radio.o)
 .text.RadioRandom
                0x0000000008023d88       0x1c out/external/libexternal_fuota_stack.a(radio.o)
 .text.RadioIsChannelFree
                0x0000000008023da4       0x7c out/external/libexternal_fuota_stack.a(radio.o)
 .text.RadioInit
                0x0000000008023e20       0xa8 out/external/libexternal_fuota_stack.a(radio.o)
 .text.RadioSend
                0x0000000008023ec8      0x1a4 out/external/libexternal_fuota_stack.a(radio.o)
 .text.RadioTimeOnAir
                0x000000000802406c       0xec out/external/libexternal_fuota_stack.a(radio.o)
 .text.RadioTxPrbs
                0x0000000008024158       0x30 out/external/libexternal_fuota_stack.a(radio.o)
 .text.RFW_TransmitLongPacket
                0x0000000008024188        0x6 out/external/libexternal_fuota_stack.a(radio_fw.o)
                0x0000000008024188                RFW_TransmitLongPacket
 .text.RFW_ReceiveLongPacket
                0x000000000802418e        0x6 out/external/libexternal_fuota_stack.a(radio_fw.o)
                0x000000000802418e                RFW_ReceiveLongPacket
 .text.RFW_Init
                0x0000000008024194        0x6 out/external/libexternal_fuota_stack.a(radio_fw.o)
                0x0000000008024194                RFW_Init
 .text.RFW_DeInit
                0x000000000802419a        0x2 out/external/libexternal_fuota_stack.a(radio_fw.o)
                0x000000000802419a                RFW_DeInit
 .text.RFW_Is_Init
                0x000000000802419c        0x4 out/external/libexternal_fuota_stack.a(radio_fw.o)
                0x000000000802419c                RFW_Is_Init
 .text.RFW_Is_LongPacketModeEnabled
                0x00000000080241a0        0x4 out/external/libexternal_fuota_stack.a(radio_fw.o)
                0x00000000080241a0                RFW_Is_LongPacketModeEnabled
 .text.RFW_SetAntSwitch
                0x00000000080241a4        0x2 out/external/libexternal_fuota_stack.a(radio_fw.o)
                0x00000000080241a4                RFW_SetAntSwitch
 .text.RFW_TransmitInit
                0x00000000080241a6        0x6 out/external/libexternal_fuota_stack.a(radio_fw.o)
                0x00000000080241a6                RFW_TransmitInit
 .text.RFW_ReceiveInit
                0x00000000080241ac        0x6 out/external/libexternal_fuota_stack.a(radio_fw.o)
                0x00000000080241ac                RFW_ReceiveInit
 .text.RFW_DeInit_TxLongPacket
                0x00000000080241b2        0x2 out/external/libexternal_fuota_stack.a(radio_fw.o)
                0x00000000080241b2                RFW_DeInit_TxLongPacket
 .text.RFW_ReceivePayload
                0x00000000080241b4        0x2 out/external/libexternal_fuota_stack.a(radio_fw.o)
                0x00000000080241b4                RFW_ReceivePayload
 .text.RFW_SetRadioModem
                0x00000000080241b6        0x2 out/external/libexternal_fuota_stack.a(radio_fw.o)
                0x00000000080241b6                RFW_SetRadioModem
 .text.SUBGRF_WriteCommand
                0x00000000080241b8       0x20 out/external/libexternal_fuota_stack.a(radio_driver.o)
 .text.SUBGRF_ReadCommand
                0x00000000080241d8       0x20 out/external/libexternal_fuota_stack.a(radio_driver.o)
 .text.SUBGRF_GetOperatingMode
                0x00000000080241f8        0xc out/external/libexternal_fuota_stack.a(radio_driver.o)
                0x00000000080241f8                SUBGRF_GetOperatingMode
 .text.SUBGRF_SetStandby
                0x0000000008024204       0x2c out/external/libexternal_fuota_stack.a(radio_driver.o)
                0x0000000008024204                SUBGRF_SetStandby
 .text.SUBGRF_SetFs
                0x0000000008024230       0x18 out/external/libexternal_fuota_stack.a(radio_driver.o)
                0x0000000008024230                SUBGRF_SetFs
 .text.SUBGRF_SetTx
                0x0000000008024248       0x2c out/external/libexternal_fuota_stack.a(radio_driver.o)
                0x0000000008024248                SUBGRF_SetTx
 .text.SUBGRF_SetRx
                0x0000000008024274       0x2c out/external/libexternal_fuota_stack.a(radio_driver.o)
                0x0000000008024274                SUBGRF_SetRx
 .text.SUBGRF_SetRxDutyCycle
                0x00000000080242a0       0x3c out/external/libexternal_fuota_stack.a(radio_driver.o)
                0x00000000080242a0                SUBGRF_SetRxDutyCycle
 .text.SUBGRF_SetCad
                0x00000000080242dc       0x18 out/external/libexternal_fuota_stack.a(radio_driver.o)
                0x00000000080242dc                SUBGRF_SetCad
 .text.SUBGRF_SetTxContinuousWave
                0x00000000080242f4        0xa out/external/libexternal_fuota_stack.a(radio_driver.o)
                0x00000000080242f4                SUBGRF_SetTxContinuousWave
 .text.SUBGRF_SetTxInfinitePreamble
                0x00000000080242fe        0xa out/external/libexternal_fuota_stack.a(radio_driver.o)
                0x00000000080242fe                SUBGRF_SetTxInfinitePreamble
 .text.SUBGRF_SetStopRxTimerOnPreambleDetect
                0x0000000008024308       0x18 out/external/libexternal_fuota_stack.a(radio_driver.o)
                0x0000000008024308                SUBGRF_SetStopRxTimerOnPreambleDetect
 .text.SUBGRF_SetRegulatorMode
                0x0000000008024320       0x22 out/external/libexternal_fuota_stack.a(radio_driver.o)
                0x0000000008024320                SUBGRF_SetRegulatorMode
 .text.SUBGRF_Calibrate
                0x0000000008024342       0x1c out/external/libexternal_fuota_stack.a(radio_driver.o)
                0x0000000008024342                SUBGRF_Calibrate
 *fill*         0x000000000802435e        0x2 
 .text.SUBGRF_CalibrateImage
                0x0000000008024360       0x78 out/external/libexternal_fuota_stack.a(radio_driver.o)
                0x0000000008024360                SUBGRF_CalibrateImage
 .text.SUBGRF_SetPaConfig
                0x00000000080243d8       0x24 out/external/libexternal_fuota_stack.a(radio_driver.o)
                0x00000000080243d8                SUBGRF_SetPaConfig
 .text.SUBGRF_SetRxTxFallbackMode
                0x00000000080243fc       0x18 out/external/libexternal_fuota_stack.a(radio_driver.o)
                0x00000000080243fc                SUBGRF_SetRxTxFallbackMode
 .text.SUBGRF_SetDioIrqParams
                0x0000000008024414       0x38 out/external/libexternal_fuota_stack.a(radio_driver.o)
                0x0000000008024414                SUBGRF_SetDioIrqParams
 .text.SUBGRF_GetIrqStatus
                0x000000000802444c       0x1a out/external/libexternal_fuota_stack.a(radio_driver.o)
                0x000000000802444c                SUBGRF_GetIrqStatus
 .text.SUBGRF_SetTcxoMode
                0x0000000008024466       0x2c out/external/libexternal_fuota_stack.a(radio_driver.o)
                0x0000000008024466                SUBGRF_SetTcxoMode
 *fill*         0x0000000008024492        0x2 
 .text.SUBGRF_SetRfFrequency
                0x0000000008024494       0x4c out/external/libexternal_fuota_stack.a(radio_driver.o)
                0x0000000008024494                SUBGRF_SetRfFrequency
 .text.SUBGRF_GetPacketType
                0x00000000080244e0        0xc out/external/libexternal_fuota_stack.a(radio_driver.o)
                0x00000000080244e0                SUBGRF_GetPacketType
 .text.SUBGRF_SetCadParams
                0x00000000080244ec       0x3c out/external/libexternal_fuota_stack.a(radio_driver.o)
                0x00000000080244ec                SUBGRF_SetCadParams
 .text.SUBGRF_SetBufferBaseAddress
                0x0000000008024528       0x1a out/external/libexternal_fuota_stack.a(radio_driver.o)
                0x0000000008024528                SUBGRF_SetBufferBaseAddress
 .text.SUBGRF_GetStatus
                0x0000000008024542       0x22 out/external/libexternal_fuota_stack.a(radio_driver.o)
                0x0000000008024542                SUBGRF_GetStatus
 .text.SUBGRF_GetRssiInst
                0x0000000008024564       0x1a out/external/libexternal_fuota_stack.a(radio_driver.o)
                0x0000000008024564                SUBGRF_GetRssiInst
 *fill*         0x000000000802457e        0x2 
 .text.SUBGRF_GetPacketStatus
                0x0000000008024580       0x78 out/external/libexternal_fuota_stack.a(radio_driver.o)
                0x0000000008024580                SUBGRF_GetPacketStatus
 .text.SUBGRF_GetDeviceErrors
                0x00000000080245f8       0x2c out/external/libexternal_fuota_stack.a(radio_driver.o)
                0x00000000080245f8                SUBGRF_GetDeviceErrors
 .text.SUBGRF_ClearDeviceErrors
                0x0000000008024624       0x18 out/external/libexternal_fuota_stack.a(radio_driver.o)
                0x0000000008024624                SUBGRF_ClearDeviceErrors
 .text.SUBGRF_ClearIrqStatus
                0x000000000802463c       0x1c out/external/libexternal_fuota_stack.a(radio_driver.o)
                0x000000000802463c                SUBGRF_ClearIrqStatus
 .text.SUBGRF_WriteRegister
                0x0000000008024658       0x20 out/external/libexternal_fuota_stack.a(radio_driver.o)
                0x0000000008024658                SUBGRF_WriteRegister
 .text.SUBGRF_SetRxBoosted
                0x0000000008024678       0x38 out/external/libexternal_fuota_stack.a(radio_driver.o)
                0x0000000008024678                SUBGRF_SetRxBoosted
 .text.SUBGRF_SetLoRaSymbNumTimeout
                0x00000000080246b0       0x30 out/external/libexternal_fuota_stack.a(radio_driver.o)
                0x00000000080246b0                SUBGRF_SetLoRaSymbNumTimeout
 .text.SUBGRF_SetPacketType
                0x00000000080246e0       0x2c out/external/libexternal_fuota_stack.a(radio_driver.o)
                0x00000000080246e0                SUBGRF_SetPacketType
 .text.SUBGRF_SetModulationParams
                0x000000000802470c       0xec out/external/libexternal_fuota_stack.a(radio_driver.o)
                0x000000000802470c                SUBGRF_SetModulationParams
 .text.SUBGRF_ReadRegister
                0x00000000080247f8       0x20 out/external/libexternal_fuota_stack.a(radio_driver.o)
                0x00000000080247f8                SUBGRF_ReadRegister
 .text.Radio_SMPS_Set
                0x0000000008024818       0x28 out/external/libexternal_fuota_stack.a(radio_driver.o)
 .text.SUBGRF_Init
                0x0000000008024840       0x6c out/external/libexternal_fuota_stack.a(radio_driver.o)
                0x0000000008024840                SUBGRF_Init
 .text.SUBGRF_SetSleep
                0x00000000080248ac       0x34 out/external/libexternal_fuota_stack.a(radio_driver.o)
                0x00000000080248ac                SUBGRF_SetSleep
 .text.SUBGRF_SetWhiteningSeed
                0x00000000080248e0       0x38 out/external/libexternal_fuota_stack.a(radio_driver.o)
                0x00000000080248e0                SUBGRF_SetWhiteningSeed
 .text.SUBGRF_SetTxParams
                0x0000000008024918       0x84 out/external/libexternal_fuota_stack.a(radio_driver.o)
                0x0000000008024918                SUBGRF_SetTxParams
 .text.SUBGRF_GetRxBufferStatus
                0x000000000802499c       0x44 out/external/libexternal_fuota_stack.a(radio_driver.o)
                0x000000000802499c                SUBGRF_GetRxBufferStatus
 .text.SUBGRF_WriteRegisters
                0x00000000080249e0       0x20 out/external/libexternal_fuota_stack.a(radio_driver.o)
                0x00000000080249e0                SUBGRF_WriteRegisters
 .text.SUBGRF_SetSyncWord
                0x0000000008024a00       0x12 out/external/libexternal_fuota_stack.a(radio_driver.o)
                0x0000000008024a00                SUBGRF_SetSyncWord
 *fill*         0x0000000008024a12        0x2 
 .text.SUBGRF_SetCrcSeed
                0x0000000008024a14       0x28 out/external/libexternal_fuota_stack.a(radio_driver.o)
                0x0000000008024a14                SUBGRF_SetCrcSeed
 .text.SUBGRF_SetCrcPolynomial
                0x0000000008024a3c       0x28 out/external/libexternal_fuota_stack.a(radio_driver.o)
                0x0000000008024a3c                SUBGRF_SetCrcPolynomial
 .text.SUBGRF_SetPacketParams
                0x0000000008024a64       0xe4 out/external/libexternal_fuota_stack.a(radio_driver.o)
                0x0000000008024a64                SUBGRF_SetPacketParams
 .text.SUBGRF_ReadRegisters
                0x0000000008024b48       0x20 out/external/libexternal_fuota_stack.a(radio_driver.o)
                0x0000000008024b48                SUBGRF_ReadRegisters
 .text.SUBGRF_GetRandom
                0x0000000008024b68       0x68 out/external/libexternal_fuota_stack.a(radio_driver.o)
                0x0000000008024b68                SUBGRF_GetRandom
 .text.SUBGRF_WriteBuffer
                0x0000000008024bd0       0x20 out/external/libexternal_fuota_stack.a(radio_driver.o)
                0x0000000008024bd0                SUBGRF_WriteBuffer
 .text.SUBGRF_SetPayload
                0x0000000008024bf0        0xa out/external/libexternal_fuota_stack.a(radio_driver.o)
                0x0000000008024bf0                SUBGRF_SetPayload
 .text.SUBGRF_SendPayload
                0x0000000008024bfa       0x12 out/external/libexternal_fuota_stack.a(radio_driver.o)
                0x0000000008024bfa                SUBGRF_SendPayload
 .text.SUBGRF_ReadBuffer
                0x0000000008024c0c       0x20 out/external/libexternal_fuota_stack.a(radio_driver.o)
                0x0000000008024c0c                SUBGRF_ReadBuffer
 .text.SUBGRF_GetPayload
                0x0000000008024c2c       0x32 out/external/libexternal_fuota_stack.a(radio_driver.o)
                0x0000000008024c2c                SUBGRF_GetPayload
 .text.SUBGRF_SetSwitch
                0x0000000008024c5e       0x2c out/external/libexternal_fuota_stack.a(radio_driver.o)
                0x0000000008024c5e                SUBGRF_SetSwitch
 .text.SUBGRF_SetRfTxPower
                0x0000000008024c8a       0x2a out/external/libexternal_fuota_stack.a(radio_driver.o)
                0x0000000008024c8a                SUBGRF_SetRfTxPower
 .text.SUBGRF_GetRadioWakeUpTime
                0x0000000008024cb4        0x4 out/external/libexternal_fuota_stack.a(radio_driver.o)
                0x0000000008024cb4                SUBGRF_GetRadioWakeUpTime
 .text.HAL_SUBGHZ_TxCpltCallback
                0x0000000008024cb8        0xc out/external/libexternal_fuota_stack.a(radio_driver.o)
                0x0000000008024cb8                HAL_SUBGHZ_TxCpltCallback
 .text.HAL_SUBGHZ_RxCpltCallback
                0x0000000008024cc4        0xc out/external/libexternal_fuota_stack.a(radio_driver.o)
                0x0000000008024cc4                HAL_SUBGHZ_RxCpltCallback
 .text.HAL_SUBGHZ_CRCErrorCallback
                0x0000000008024cd0        0xc out/external/libexternal_fuota_stack.a(radio_driver.o)
                0x0000000008024cd0                HAL_SUBGHZ_CRCErrorCallback
 .text.HAL_SUBGHZ_CADStatusCallback
                0x0000000008024cdc       0x20 out/external/libexternal_fuota_stack.a(radio_driver.o)
                0x0000000008024cdc                HAL_SUBGHZ_CADStatusCallback
 .text.HAL_SUBGHZ_RxTxTimeoutCallback
                0x0000000008024cfc       0x10 out/external/libexternal_fuota_stack.a(radio_driver.o)
                0x0000000008024cfc                HAL_SUBGHZ_RxTxTimeoutCallback
 .text.HAL_SUBGHZ_HeaderErrorCallback
                0x0000000008024d0c        0xc out/external/libexternal_fuota_stack.a(radio_driver.o)
                0x0000000008024d0c                HAL_SUBGHZ_HeaderErrorCallback
 .text.HAL_SUBGHZ_PreambleDetectedCallback
                0x0000000008024d18        0xc out/external/libexternal_fuota_stack.a(radio_driver.o)
                0x0000000008024d18                HAL_SUBGHZ_PreambleDetectedCallback
 .text.HAL_SUBGHZ_SyncWordValidCallback
                0x0000000008024d24        0xc out/external/libexternal_fuota_stack.a(radio_driver.o)
                0x0000000008024d24                HAL_SUBGHZ_SyncWordValidCallback
 .text.HAL_SUBGHZ_HeaderValidCallback
                0x0000000008024d30        0xc out/external/libexternal_fuota_stack.a(radio_driver.o)
                0x0000000008024d30                HAL_SUBGHZ_HeaderValidCallback
 .text.SUBGRF_GetFskBandwidthRegValue
                0x0000000008024d3c       0x28 out/external/libexternal_fuota_stack.a(radio_driver.o)
                0x0000000008024d3c                SUBGRF_GetFskBandwidthRegValue
 .text.SUBGRF_GetCFO
                0x0000000008024d64       0x80 out/external/libexternal_fuota_stack.a(radio_driver.o)
                0x0000000008024d64                SUBGRF_GetCFO
 .text.UTIL_MEM_cpy_8
                0x0000000008024de4       0x14 out/external/libexternal_fuota_stack.a(stm32_mem.o)
                0x0000000008024de4                UTIL_MEM_cpy_8
 .text.UTIL_MEM_cpyr_8
                0x0000000008024df8       0x14 out/external/libexternal_fuota_stack.a(stm32_mem.o)
                0x0000000008024df8                UTIL_MEM_cpyr_8
 .text.UTIL_MEM_set_8
                0x0000000008024e0c        0xe out/external/libexternal_fuota_stack.a(stm32_mem.o)
                0x0000000008024e0c                UTIL_MEM_set_8
 *fill*         0x0000000008024e1a        0x2 
 .text.UTIL_TIMER_Init
                0x0000000008024e1c       0x14 out/external/libexternal_fuota_stack.a(stm32_timer.o)
                0x0000000008024e1c                UTIL_TIMER_Init
 .text.UTIL_TIMER_DeInit
                0x0000000008024e30        0xc out/external/libexternal_fuota_stack.a(stm32_timer.o)
                0x0000000008024e30                UTIL_TIMER_DeInit
 .text.UTIL_TIMER_Create
                0x0000000008024e3c       0x34 out/external/libexternal_fuota_stack.a(stm32_timer.o)
                0x0000000008024e3c                UTIL_TIMER_Create
 .text.UTIL_TIMER_SetReloadMode
                0x0000000008024e70        0xc out/external/libexternal_fuota_stack.a(stm32_timer.o)
                0x0000000008024e70                UTIL_TIMER_SetReloadMode
 .text.UTIL_TIMER_IsRunning
                0x0000000008024e7c        0x6 out/external/libexternal_fuota_stack.a(stm32_timer.o)
                0x0000000008024e7c                UTIL_TIMER_IsRunning
 *fill*         0x0000000008024e82        0x2 
 .text.UTIL_TIMER_GetCurrentTime
                0x0000000008024e84       0x14 out/external/libexternal_fuota_stack.a(stm32_timer.o)
                0x0000000008024e84                UTIL_TIMER_GetCurrentTime
 .text.UTIL_TIMER_GetElapsedTime
                0x0000000008024e98       0x20 out/external/libexternal_fuota_stack.a(stm32_timer.o)
                0x0000000008024e98                UTIL_TIMER_GetElapsedTime
 .text.TimerExists
                0x0000000008024eb8       0x1c out/external/libexternal_fuota_stack.a(stm32_timer.o)
                0x0000000008024eb8                TimerExists
 .text.UTIL_TIMER_GetRemainingTime
                0x0000000008024ed4       0x30 out/external/libexternal_fuota_stack.a(stm32_timer.o)
                0x0000000008024ed4                UTIL_TIMER_GetRemainingTime
 .text.UTIL_TIMER_GetFirstRemainingTime
                0x0000000008024f04       0x20 out/external/libexternal_fuota_stack.a(stm32_timer.o)
                0x0000000008024f04                UTIL_TIMER_GetFirstRemainingTime
 .text.TimerSetTimeout
                0x0000000008024f24       0x38 out/external/libexternal_fuota_stack.a(stm32_timer.o)
                0x0000000008024f24                TimerSetTimeout
 .text.UTIL_TIMER_Stop
                0x0000000008024f5c       0x5c out/external/libexternal_fuota_stack.a(stm32_timer.o)
                0x0000000008024f5c                UTIL_TIMER_Stop
 .text.TimerInsertTimer
                0x0000000008024fb8       0x2c out/external/libexternal_fuota_stack.a(stm32_timer.o)
                0x0000000008024fb8                TimerInsertTimer
 .text.TimerInsertNewHeadTimer
                0x0000000008024fe4       0x18 out/external/libexternal_fuota_stack.a(stm32_timer.o)
                0x0000000008024fe4                TimerInsertNewHeadTimer
 .text.UTIL_TIMER_Start
                0x0000000008024ffc       0x74 out/external/libexternal_fuota_stack.a(stm32_timer.o)
                0x0000000008024ffc                UTIL_TIMER_Start
 .text.UTIL_TIMER_StartWithPeriod
                0x0000000008025070       0x30 out/external/libexternal_fuota_stack.a(stm32_timer.o)
                0x0000000008025070                UTIL_TIMER_StartWithPeriod
 .text.UTIL_TIMER_SetPeriod
                0x00000000080250a0       0x30 out/external/libexternal_fuota_stack.a(stm32_timer.o)
                0x00000000080250a0                UTIL_TIMER_SetPeriod
 .text.UTIL_TIMER_IRQ_Handler
                0x00000000080250d0       0x88 out/external/libexternal_fuota_stack.a(stm32_timer.o)
                0x00000000080250d0                UTIL_TIMER_IRQ_Handler
 .text.tiny_vsnprintf_like
                0x0000000008025158      0x244 out/external/libexternal_fuota_stack.a(stm32_tiny_vsnprintf.o)
                0x0000000008025158                tiny_vsnprintf_like
 .text.CalendarDiv61
                0x000000000802539c       0x2c out/external/libexternal_fuota_stack.a(stm32_systime.o)
 .text.CalendarDiv60
                0x00000000080253c8       0x2e out/external/libexternal_fuota_stack.a(stm32_systime.o)
 .text.SysTimeAdd
                0x00000000080253f6       0x36 out/external/libexternal_fuota_stack.a(stm32_systime.o)
                0x00000000080253f6                SysTimeAdd
 .text.SysTimeSub
                0x000000000802542c       0x36 out/external/libexternal_fuota_stack.a(stm32_systime.o)
                0x000000000802542c                SysTimeSub
 *fill*         0x0000000008025462        0x2 
 .text.SysTimeSet
                0x0000000008025464       0x50 out/external/libexternal_fuota_stack.a(stm32_systime.o)
                0x0000000008025464                SysTimeSet
 .text.SysTimeGet
                0x00000000080254b4       0x4c out/external/libexternal_fuota_stack.a(stm32_systime.o)
                0x00000000080254b4                SysTimeGet
 .text.SysTimeGetMcuTime
                0x0000000008025500       0x2c out/external/libexternal_fuota_stack.a(stm32_systime.o)
                0x0000000008025500                SysTimeGetMcuTime
 .text.SysTimeToMs
                0x000000000802552c       0x44 out/external/libexternal_fuota_stack.a(stm32_systime.o)
                0x000000000802552c                SysTimeToMs
 .text.SysTimeFromMs
                0x0000000008025570       0x54 out/external/libexternal_fuota_stack.a(stm32_systime.o)
                0x0000000008025570                SysTimeFromMs
 .text.SysTimeMkTime
                0x00000000080255c4       0x78 out/external/libexternal_fuota_stack.a(stm32_systime.o)
                0x00000000080255c4                SysTimeMkTime
 .text.SysTimeLocalTime
                0x000000000802563c      0x128 out/external/libexternal_fuota_stack.a(stm32_systime.o)
                0x000000000802563c                SysTimeLocalTime
 .text.HAL_MspInit
                0x0000000008025764        0x2 out/external/libexternal_fuota_stack.a(stm32wlxx_hal.o)
 .text.HAL_MspDeInit
                0x0000000008025766        0x2 out/external/libexternal_fuota_stack.a(stm32wlxx_hal.o)
                0x0000000008025766                HAL_MspDeInit
 .text.HAL_DeInit
                0x0000000008025768       0x4c out/external/libexternal_fuota_stack.a(stm32wlxx_hal.o)
                0x0000000008025768                HAL_DeInit
 .text.HAL_InitTick
                0x00000000080257b4       0x4c out/external/libexternal_fuota_stack.a(stm32wlxx_hal.o)
                0x00000000080257b4                HAL_InitTick
 .text.HAL_Init
                0x0000000008025800       0x2c out/external/libexternal_fuota_stack.a(stm32wlxx_hal.o)
                0x0000000008025800                HAL_Init
 .text.HAL_IncTick
                0x000000000802582c       0x18 out/external/libexternal_fuota_stack.a(stm32wlxx_hal.o)
                0x000000000802582c                HAL_IncTick
 .text.HAL_GetTick
                0x0000000008025844        0xc out/external/libexternal_fuota_stack.a(stm32wlxx_hal.o)
                0x0000000008025844                HAL_GetTick
 .text.HAL_GetTickPrio
                0x0000000008025850        0xc out/external/libexternal_fuota_stack.a(stm32wlxx_hal.o)
                0x0000000008025850                HAL_GetTickPrio
 .text.HAL_SetTickFreq
                0x000000000802585c       0x28 out/external/libexternal_fuota_stack.a(stm32wlxx_hal.o)
                0x000000000802585c                HAL_SetTickFreq
 .text.HAL_GetTickFreq
                0x0000000008025884        0xc out/external/libexternal_fuota_stack.a(stm32wlxx_hal.o)
                0x0000000008025884                HAL_GetTickFreq
 .text.HAL_Delay
                0x0000000008025890       0x28 out/external/libexternal_fuota_stack.a(stm32wlxx_hal.o)
                0x0000000008025890                HAL_Delay
 .text.HAL_SuspendTick
                0x00000000080258b8        0xe out/external/libexternal_fuota_stack.a(stm32wlxx_hal.o)
                0x00000000080258b8                HAL_SuspendTick
 .text.HAL_ResumeTick
                0x00000000080258c6        0xe out/external/libexternal_fuota_stack.a(stm32wlxx_hal.o)
                0x00000000080258c6                HAL_ResumeTick
 .text.HAL_GetHalVersion
                0x00000000080258d4        0x8 out/external/libexternal_fuota_stack.a(stm32wlxx_hal.o)
                0x00000000080258d4                HAL_GetHalVersion
 .text.HAL_GetREVID
                0x00000000080258dc        0xc out/external/libexternal_fuota_stack.a(stm32wlxx_hal.o)
                0x00000000080258dc                HAL_GetREVID
 .text.HAL_GetDEVID
                0x00000000080258e8       0x10 out/external/libexternal_fuota_stack.a(stm32wlxx_hal.o)
                0x00000000080258e8                HAL_GetDEVID
 .text.HAL_GetUIDw0
                0x00000000080258f8        0xc out/external/libexternal_fuota_stack.a(stm32wlxx_hal.o)
                0x00000000080258f8                HAL_GetUIDw0
 .text.HAL_GetUIDw1
                0x0000000008025904        0xc out/external/libexternal_fuota_stack.a(stm32wlxx_hal.o)
                0x0000000008025904                HAL_GetUIDw1
 .text.HAL_GetUIDw2
                0x0000000008025910        0xc out/external/libexternal_fuota_stack.a(stm32wlxx_hal.o)
                0x0000000008025910                HAL_GetUIDw2
 .text.HAL_DBGMCU_EnableDBGSleepMode
                0x000000000802591c       0x10 out/external/libexternal_fuota_stack.a(stm32wlxx_hal.o)
                0x000000000802591c                HAL_DBGMCU_EnableDBGSleepMode
 .text.HAL_DBGMCU_DisableDBGSleepMode
                0x000000000802592c       0x10 out/external/libexternal_fuota_stack.a(stm32wlxx_hal.o)
                0x000000000802592c                HAL_DBGMCU_DisableDBGSleepMode
 .text.HAL_DBGMCU_EnableDBGStopMode
                0x000000000802593c       0x10 out/external/libexternal_fuota_stack.a(stm32wlxx_hal.o)
                0x000000000802593c                HAL_DBGMCU_EnableDBGStopMode
 .text.HAL_DBGMCU_DisableDBGStopMode
                0x000000000802594c       0x10 out/external/libexternal_fuota_stack.a(stm32wlxx_hal.o)
                0x000000000802594c                HAL_DBGMCU_DisableDBGStopMode
 .text.HAL_DBGMCU_EnableDBGStandbyMode
                0x000000000802595c       0x10 out/external/libexternal_fuota_stack.a(stm32wlxx_hal.o)
                0x000000000802595c                HAL_DBGMCU_EnableDBGStandbyMode
 .text.HAL_DBGMCU_DisableDBGStandbyMode
                0x000000000802596c       0x10 out/external/libexternal_fuota_stack.a(stm32wlxx_hal.o)
                0x000000000802596c                HAL_DBGMCU_DisableDBGStandbyMode
 .text.HAL_SYSCFG_SRAM2Erase
                0x000000000802597c       0x18 out/external/libexternal_fuota_stack.a(stm32wlxx_hal.o)
                0x000000000802597c                HAL_SYSCFG_SRAM2Erase
 .text.HAL_SYSCFG_VREFBUF_VoltageScalingConfig
                0x0000000008025994       0x2c out/external/libexternal_fuota_stack.a(stm32wlxx_hal.o)
                0x0000000008025994                HAL_SYSCFG_VREFBUF_VoltageScalingConfig
 .text.HAL_SYSCFG_VREFBUF_HighImpedanceConfig
                0x00000000080259c0       0x14 out/external/libexternal_fuota_stack.a(stm32wlxx_hal.o)
                0x00000000080259c0                HAL_SYSCFG_VREFBUF_HighImpedanceConfig
 .text.HAL_SYSCFG_VREFBUF_TrimmingConfig
                0x00000000080259d4        0xc out/external/libexternal_fuota_stack.a(stm32wlxx_hal.o)
                0x00000000080259d4                HAL_SYSCFG_VREFBUF_TrimmingConfig
 .text.HAL_SYSCFG_EnableVREFBUF
                0x00000000080259e0       0x30 out/external/libexternal_fuota_stack.a(stm32wlxx_hal.o)
                0x00000000080259e0                HAL_SYSCFG_EnableVREFBUF
 .text.HAL_SYSCFG_DisableVREFBUF
                0x0000000008025a10       0x10 out/external/libexternal_fuota_stack.a(stm32wlxx_hal.o)
                0x0000000008025a10                HAL_SYSCFG_DisableVREFBUF
 .text.HAL_SYSCFG_EnableIOAnalogSwitchBooster
                0x0000000008025a20       0x10 out/external/libexternal_fuota_stack.a(stm32wlxx_hal.o)
                0x0000000008025a20                HAL_SYSCFG_EnableIOAnalogSwitchBooster
 .text.HAL_SYSCFG_DisableIOAnalogSwitchBooster
                0x0000000008025a30       0x10 out/external/libexternal_fuota_stack.a(stm32wlxx_hal.o)
                0x0000000008025a30                HAL_SYSCFG_DisableIOAnalogSwitchBooster
 .text.LL_RCC_HSE_IsReady
                0x0000000008025a40        0xc out/external/libexternal_fuota_stack.a(stm32wlxx_hal_rcc.o)
 .text.LL_RCC_HSI_IsReady
                0x0000000008025a4c        0xc out/external/libexternal_fuota_stack.a(stm32wlxx_hal_rcc.o)
 .text.LL_RCC_MSI_IsReady
                0x0000000008025a58        0xc out/external/libexternal_fuota_stack.a(stm32wlxx_hal_rcc.o)
 .text.LL_RCC_MSI_SetCalibTrimming
                0x0000000008025a64       0x12 out/external/libexternal_fuota_stack.a(stm32wlxx_hal_rcc.o)
 .text.LL_RCC_PLL_IsReady
                0x0000000008025a76        0xc out/external/libexternal_fuota_stack.a(stm32wlxx_hal_rcc.o)
 *fill*         0x0000000008025a82        0x2 
 .text.RCC_SetFlashLatencyFromMSIRange
                0x0000000008025a84       0xd4 out/external/libexternal_fuota_stack.a(stm32wlxx_hal_rcc.o)
 .text.HAL_RCC_DeInit
                0x0000000008025b58       0xf4 out/external/libexternal_fuota_stack.a(stm32wlxx_hal_rcc.o)
                0x0000000008025b58                HAL_RCC_DeInit
 .text.HAL_RCC_MCOConfig
                0x0000000008025c4c       0x4e out/external/libexternal_fuota_stack.a(stm32wlxx_hal_rcc.o)
                0x0000000008025c4c                HAL_RCC_MCOConfig
 *fill*         0x0000000008025c9a        0x2 
 .text.HAL_RCC_GetSysClockFreq
                0x0000000008025c9c       0xdc out/external/libexternal_fuota_stack.a(stm32wlxx_hal_rcc.o)
                0x0000000008025c9c                HAL_RCC_GetSysClockFreq
 .text.HAL_RCC_GetHCLKFreq
                0x0000000008025d78       0x20 out/external/libexternal_fuota_stack.a(stm32wlxx_hal_rcc.o)
                0x0000000008025d78                HAL_RCC_GetHCLKFreq
 .text.HAL_RCC_OscConfig
                0x0000000008025d98      0x544 out/external/libexternal_fuota_stack.a(stm32wlxx_hal_rcc.o)
                0x0000000008025d98                HAL_RCC_OscConfig
 .text.HAL_RCC_ClockConfig
                0x00000000080262dc      0x1bc out/external/libexternal_fuota_stack.a(stm32wlxx_hal_rcc.o)
                0x00000000080262dc                HAL_RCC_ClockConfig
 .text.HAL_RCC_GetHCLK3Freq
                0x0000000008026498       0x24 out/external/libexternal_fuota_stack.a(stm32wlxx_hal_rcc.o)
                0x0000000008026498                HAL_RCC_GetHCLK3Freq
 .text.HAL_RCC_GetPCLK1Freq
                0x00000000080264bc       0x20 out/external/libexternal_fuota_stack.a(stm32wlxx_hal_rcc.o)
                0x00000000080264bc                HAL_RCC_GetPCLK1Freq
 .text.HAL_RCC_GetPCLK2Freq
                0x00000000080264dc       0x20 out/external/libexternal_fuota_stack.a(stm32wlxx_hal_rcc.o)
                0x00000000080264dc                HAL_RCC_GetPCLK2Freq
 .text.HAL_RCC_GetOscConfig
                0x00000000080264fc       0xe2 out/external/libexternal_fuota_stack.a(stm32wlxx_hal_rcc.o)
                0x00000000080264fc                HAL_RCC_GetOscConfig
 *fill*         0x00000000080265de        0x2 
 .text.HAL_RCC_GetClockConfig
                0x00000000080265e0       0x48 out/external/libexternal_fuota_stack.a(stm32wlxx_hal_rcc.o)
                0x00000000080265e0                HAL_RCC_GetClockConfig
 .text.HAL_RCC_EnableCSS
                0x0000000008026628        0xe out/external/libexternal_fuota_stack.a(stm32wlxx_hal_rcc.o)
                0x0000000008026628                HAL_RCC_EnableCSS
 .text.HAL_RCC_CSSCallback
                0x0000000008026636        0x2 out/external/libexternal_fuota_stack.a(stm32wlxx_hal_rcc.o)
                0x0000000008026636                HAL_RCC_CSSCallback
 .text.HAL_RCC_NMI_IRQHandler
                0x0000000008026638       0x18 out/external/libexternal_fuota_stack.a(stm32wlxx_hal_rcc.o)
                0x0000000008026638                HAL_RCC_NMI_IRQHandler
 .text.HAL_RCC_GetResetSource
                0x0000000008026650       0x1a out/external/libexternal_fuota_stack.a(stm32wlxx_hal_rcc.o)
                0x0000000008026650                HAL_RCC_GetResetSource
 .text.LL_RCC_HSI_IsReady
                0x000000000802666a        0xc out/external/libexternal_fuota_stack.a(stm32wlxx_hal_rcc_ex.o)
 .text.LL_RCC_LSE_IsReady
                0x0000000008026676        0xe out/external/libexternal_fuota_stack.a(stm32wlxx_hal_rcc_ex.o)
 .text.LL_RCC_LSI_IsReady
                0x0000000008026684        0xe out/external/libexternal_fuota_stack.a(stm32wlxx_hal_rcc_ex.o)
 .text.LL_RCC_MSI_IsEnabledRangeSelect
                0x0000000008026692        0xc out/external/libexternal_fuota_stack.a(stm32wlxx_hal_rcc_ex.o)
 .text.LL_RCC_SetI2CClockSource
                0x000000000802669e       0x20 out/external/libexternal_fuota_stack.a(stm32wlxx_hal_rcc_ex.o)
 .text.LL_RCC_SetLPTIMClockSource
                0x00000000080266be       0x1a out/external/libexternal_fuota_stack.a(stm32wlxx_hal_rcc_ex.o)
 .text.RCC_PLL_GetFreqDomain_Q
                0x00000000080266d8       0x94 out/external/libexternal_fuota_stack.a(stm32wlxx_hal_rcc_ex.o)
 .text.HAL_RCCEx_PeriphCLKConfig
                0x000000000802676c      0x1bc out/external/libexternal_fuota_stack.a(stm32wlxx_hal_rcc_ex.o)
                0x000000000802676c                HAL_RCCEx_PeriphCLKConfig
 .text.HAL_RCCEx_GetPeriphCLKConfig
                0x0000000008026928       0xbc out/external/libexternal_fuota_stack.a(stm32wlxx_hal_rcc_ex.o)
                0x0000000008026928                HAL_RCCEx_GetPeriphCLKConfig
 .text.HAL_RCCEx_GetPeriphCLKFreq
                0x00000000080269e4      0x3f4 out/external/libexternal_fuota_stack.a(stm32wlxx_hal_rcc_ex.o)
                0x00000000080269e4                HAL_RCCEx_GetPeriphCLKFreq
 .text.HAL_RCCEx_WakeUpStopCLKConfig
                0x0000000008026dd8       0x10 out/external/libexternal_fuota_stack.a(stm32wlxx_hal_rcc_ex.o)
                0x0000000008026dd8                HAL_RCCEx_WakeUpStopCLKConfig
 .text.HAL_RCCEx_EnableLSECSS
                0x0000000008026de8       0x12 out/external/libexternal_fuota_stack.a(stm32wlxx_hal_rcc_ex.o)
                0x0000000008026de8                HAL_RCCEx_EnableLSECSS
 .text.HAL_RCCEx_DisableLSECSS
                0x0000000008026dfa       0x1a out/external/libexternal_fuota_stack.a(stm32wlxx_hal_rcc_ex.o)
                0x0000000008026dfa                HAL_RCCEx_DisableLSECSS
 .text.HAL_RCCEx_EnableLSECSS_IT
                0x0000000008026e14       0x2c out/external/libexternal_fuota_stack.a(stm32wlxx_hal_rcc_ex.o)
                0x0000000008026e14                HAL_RCCEx_EnableLSECSS_IT
 .text.HAL_RCCEx_LSECSS_Callback
                0x0000000008026e40        0x2 out/external/libexternal_fuota_stack.a(stm32wlxx_hal_rcc_ex.o)
                0x0000000008026e40                HAL_RCCEx_LSECSS_Callback
 .text.HAL_RCCEx_LSECSS_IRQHandler
                0x0000000008026e42       0x12 out/external/libexternal_fuota_stack.a(stm32wlxx_hal_rcc_ex.o)
                0x0000000008026e42                HAL_RCCEx_LSECSS_IRQHandler
 .text.HAL_RCCEx_EnableLSCO
                0x0000000008026e54       0x68 out/external/libexternal_fuota_stack.a(stm32wlxx_hal_rcc_ex.o)
                0x0000000008026e54                HAL_RCCEx_EnableLSCO
 .text.HAL_RCCEx_DisableLSCO
                0x0000000008026ebc       0x3c out/external/libexternal_fuota_stack.a(stm32wlxx_hal_rcc_ex.o)
                0x0000000008026ebc                HAL_RCCEx_DisableLSCO
 .text.HAL_RCCEx_EnableMSIPLLMode
                0x0000000008026ef8        0xe out/external/libexternal_fuota_stack.a(stm32wlxx_hal_rcc_ex.o)
                0x0000000008026ef8                HAL_RCCEx_EnableMSIPLLMode
 .text.HAL_RCCEx_DisableMSIPLLMode
                0x0000000008026f06        0xe out/external/libexternal_fuota_stack.a(stm32wlxx_hal_rcc_ex.o)
                0x0000000008026f06                HAL_RCCEx_DisableMSIPLLMode
 .text.HAL_RTC_MspInit
                0x0000000008026f14        0x2 out/external/libexternal_fuota_stack.a(stm32wlxx_hal_rtc.o)
 .text.HAL_RTC_MspDeInit
                0x0000000008026f16        0x2 out/external/libexternal_fuota_stack.a(stm32wlxx_hal_rtc.o)
 .text.HAL_RTC_DST_Add1Hour
                0x0000000008026f18       0x1c out/external/libexternal_fuota_stack.a(stm32wlxx_hal_rtc.o)
                0x0000000008026f18                HAL_RTC_DST_Add1Hour
 .text.HAL_RTC_DST_Sub1Hour
                0x0000000008026f34       0x1c out/external/libexternal_fuota_stack.a(stm32wlxx_hal_rtc.o)
                0x0000000008026f34                HAL_RTC_DST_Sub1Hour
 .text.HAL_RTC_DST_SetStoreOperation
                0x0000000008026f50       0x1c out/external/libexternal_fuota_stack.a(stm32wlxx_hal_rtc.o)
                0x0000000008026f50                HAL_RTC_DST_SetStoreOperation
 .text.HAL_RTC_DST_ClearStoreOperation
                0x0000000008026f6c       0x1c out/external/libexternal_fuota_stack.a(stm32wlxx_hal_rtc.o)
                0x0000000008026f6c                HAL_RTC_DST_ClearStoreOperation
 .text.HAL_RTC_DST_ReadStoreOperation
                0x0000000008026f88       0x10 out/external/libexternal_fuota_stack.a(stm32wlxx_hal_rtc.o)
                0x0000000008026f88                HAL_RTC_DST_ReadStoreOperation
 .text.HAL_RTC_DeactivateAlarm
                0x0000000008026f98       0x7c out/external/libexternal_fuota_stack.a(stm32wlxx_hal_rtc.o)
                0x0000000008026f98                HAL_RTC_DeactivateAlarm
 .text.HAL_RTC_AlarmAEventCallback
                0x0000000008027014        0x2 out/external/libexternal_fuota_stack.a(stm32wlxx_hal_rtc.o)
 *fill*         0x0000000008027016        0x2 
 .text.HAL_RTC_AlarmIRQHandler
                0x0000000008027018       0x34 out/external/libexternal_fuota_stack.a(stm32wlxx_hal_rtc.o)
                0x0000000008027018                HAL_RTC_AlarmIRQHandler
 .text.HAL_RTC_PollForAlarmAEvent
                0x000000000802704c       0x40 out/external/libexternal_fuota_stack.a(stm32wlxx_hal_rtc.o)
                0x000000000802704c                HAL_RTC_PollForAlarmAEvent
 .text.HAL_RTC_WaitForSynchro
                0x000000000802708c       0x30 out/external/libexternal_fuota_stack.a(stm32wlxx_hal_rtc.o)
                0x000000000802708c                HAL_RTC_WaitForSynchro
 .text.HAL_RTC_GetState
                0x00000000080270bc        0x6 out/external/libexternal_fuota_stack.a(stm32wlxx_hal_rtc.o)
                0x00000000080270bc                HAL_RTC_GetState
 *fill*         0x00000000080270c2        0x2 
 .text.RTC_EnterInitMode
                0x00000000080270c4       0x50 out/external/libexternal_fuota_stack.a(stm32wlxx_hal_rtc.o)
                0x00000000080270c4                RTC_EnterInitMode
 .text.RTC_ExitInitMode
                0x0000000008027114       0x48 out/external/libexternal_fuota_stack.a(stm32wlxx_hal_rtc.o)
                0x0000000008027114                RTC_ExitInitMode
 .text.HAL_RTC_Init
                0x000000000802715c       0xa0 out/external/libexternal_fuota_stack.a(stm32wlxx_hal_rtc.o)
                0x000000000802715c                HAL_RTC_Init
 .text.HAL_RTC_DeInit
                0x00000000080271fc       0x84 out/external/libexternal_fuota_stack.a(stm32wlxx_hal_rtc.o)
                0x00000000080271fc                HAL_RTC_DeInit
 .text.RTC_ByteToBcd2
                0x0000000008027280       0x16 out/external/libexternal_fuota_stack.a(stm32wlxx_hal_rtc.o)
                0x0000000008027280                RTC_ByteToBcd2
 *fill*         0x0000000008027296        0x2 
 .text.HAL_RTC_SetTime
                0x0000000008027298       0xd4 out/external/libexternal_fuota_stack.a(stm32wlxx_hal_rtc.o)
                0x0000000008027298                HAL_RTC_SetTime
 .text.HAL_RTC_SetDate
                0x000000000802736c       0x98 out/external/libexternal_fuota_stack.a(stm32wlxx_hal_rtc.o)
                0x000000000802736c                HAL_RTC_SetDate
 .text.HAL_RTC_SetAlarm
                0x0000000008027404      0x148 out/external/libexternal_fuota_stack.a(stm32wlxx_hal_rtc.o)
                0x0000000008027404                HAL_RTC_SetAlarm
 .text.HAL_RTC_SetAlarm_IT
                0x000000000802754c      0x158 out/external/libexternal_fuota_stack.a(stm32wlxx_hal_rtc.o)
                0x000000000802754c                HAL_RTC_SetAlarm_IT
 .text.RTC_Bcd2ToByte
                0x00000000080276a4       0x12 out/external/libexternal_fuota_stack.a(stm32wlxx_hal_rtc.o)
                0x00000000080276a4                RTC_Bcd2ToByte
 *fill*         0x00000000080276b6        0x2 
 .text.HAL_RTC_GetTime
                0x00000000080276b8       0x58 out/external/libexternal_fuota_stack.a(stm32wlxx_hal_rtc.o)
                0x00000000080276b8                HAL_RTC_GetTime
 .text.HAL_RTC_GetDate
                0x0000000008027710       0x40 out/external/libexternal_fuota_stack.a(stm32wlxx_hal_rtc.o)
                0x0000000008027710                HAL_RTC_GetDate
 .text.HAL_RTC_GetAlarm
                0x0000000008027750       0x80 out/external/libexternal_fuota_stack.a(stm32wlxx_hal_rtc.o)
                0x0000000008027750                HAL_RTC_GetAlarm
 .text.HAL_RTCEx_SetTimeStamp
                0x00000000080277d0       0x50 out/external/libexternal_fuota_stack.a(stm32wlxx_hal_rtc_ex.o)
                0x00000000080277d0                HAL_RTCEx_SetTimeStamp
 .text.HAL_RTCEx_SetTimeStamp_IT
                0x0000000008027820       0x64 out/external/libexternal_fuota_stack.a(stm32wlxx_hal_rtc_ex.o)
                0x0000000008027820                HAL_RTCEx_SetTimeStamp_IT
 .text.HAL_RTCEx_DeactivateTimeStamp
                0x0000000008027884       0x50 out/external/libexternal_fuota_stack.a(stm32wlxx_hal_rtc_ex.o)
                0x0000000008027884                HAL_RTCEx_DeactivateTimeStamp
 .text.HAL_RTCEx_SetInternalTimeStamp
                0x00000000080278d4       0x40 out/external/libexternal_fuota_stack.a(stm32wlxx_hal_rtc_ex.o)
                0x00000000080278d4                HAL_RTCEx_SetInternalTimeStamp
 .text.HAL_RTCEx_DeactivateInternalTimeStamp
                0x0000000008027914       0x54 out/external/libexternal_fuota_stack.a(stm32wlxx_hal_rtc_ex.o)
                0x0000000008027914                HAL_RTCEx_DeactivateInternalTimeStamp
 .text.HAL_RTCEx_GetTimeStamp
                0x0000000008027968       0x94 out/external/libexternal_fuota_stack.a(stm32wlxx_hal_rtc_ex.o)
                0x0000000008027968                HAL_RTCEx_GetTimeStamp
 .text.HAL_RTCEx_TimeStampEventCallback
                0x00000000080279fc        0x2 out/external/libexternal_fuota_stack.a(stm32wlxx_hal_rtc_ex.o)
                0x00000000080279fc                HAL_RTCEx_TimeStampEventCallback
 *fill*         0x00000000080279fe        0x2 
 .text.HAL_RTCEx_TimeStampIRQHandler
                0x0000000008027a00       0x20 out/external/libexternal_fuota_stack.a(stm32wlxx_hal_rtc_ex.o)
                0x0000000008027a00                HAL_RTCEx_TimeStampIRQHandler
 .text.HAL_RTCEx_PollForTimeStampEvent
                0x0000000008027a20       0x50 out/external/libexternal_fuota_stack.a(stm32wlxx_hal_rtc_ex.o)
                0x0000000008027a20                HAL_RTCEx_PollForTimeStampEvent
 .text.HAL_RTCEx_SetWakeUpTimer
                0x0000000008027a70       0x94 out/external/libexternal_fuota_stack.a(stm32wlxx_hal_rtc_ex.o)
                0x0000000008027a70                HAL_RTCEx_SetWakeUpTimer
 .text.HAL_RTCEx_SetWakeUpTimer_IT
                0x0000000008027b04       0xc0 out/external/libexternal_fuota_stack.a(stm32wlxx_hal_rtc_ex.o)
                0x0000000008027b04                HAL_RTCEx_SetWakeUpTimer_IT
 .text.HAL_RTCEx_DeactivateWakeUpTimer
                0x0000000008027bc4       0x70 out/external/libexternal_fuota_stack.a(stm32wlxx_hal_rtc_ex.o)
                0x0000000008027bc4                HAL_RTCEx_DeactivateWakeUpTimer
 .text.HAL_RTCEx_GetWakeUpTimer
                0x0000000008027c34        0xc out/external/libexternal_fuota_stack.a(stm32wlxx_hal_rtc_ex.o)
                0x0000000008027c34                HAL_RTCEx_GetWakeUpTimer
 .text.HAL_RTCEx_WakeUpTimerEventCallback
                0x0000000008027c40        0x2 out/external/libexternal_fuota_stack.a(stm32wlxx_hal_rtc_ex.o)
                0x0000000008027c40                HAL_RTCEx_WakeUpTimerEventCallback
 *fill*         0x0000000008027c42        0x2 
 .text.HAL_RTCEx_WakeUpTimerIRQHandler
                0x0000000008027c44       0x20 out/external/libexternal_fuota_stack.a(stm32wlxx_hal_rtc_ex.o)
                0x0000000008027c44                HAL_RTCEx_WakeUpTimerIRQHandler
 .text.HAL_RTCEx_PollForWakeUpTimerEvent
                0x0000000008027c64       0x40 out/external/libexternal_fuota_stack.a(stm32wlxx_hal_rtc_ex.o)
                0x0000000008027c64                HAL_RTCEx_PollForWakeUpTimerEvent
 .text.HAL_RTCEx_SetSmoothCalib
                0x0000000008027ca4       0x8c out/external/libexternal_fuota_stack.a(stm32wlxx_hal_rtc_ex.o)
                0x0000000008027ca4                HAL_RTCEx_SetSmoothCalib
 .text.HAL_RTCEx_SetLowPowerCalib
                0x0000000008027d30       0x44 out/external/libexternal_fuota_stack.a(stm32wlxx_hal_rtc_ex.o)
                0x0000000008027d30                HAL_RTCEx_SetLowPowerCalib
 .text.HAL_RTCEx_SetSynchroShift
                0x0000000008027d74       0xac out/external/libexternal_fuota_stack.a(stm32wlxx_hal_rtc_ex.o)
                0x0000000008027d74                HAL_RTCEx_SetSynchroShift
 .text.HAL_RTCEx_SetCalibrationOutPut
                0x0000000008027e20       0x4c out/external/libexternal_fuota_stack.a(stm32wlxx_hal_rtc_ex.o)
                0x0000000008027e20                HAL_RTCEx_SetCalibrationOutPut
 .text.HAL_RTCEx_DeactivateCalibrationOutPut
                0x0000000008027e6c       0x40 out/external/libexternal_fuota_stack.a(stm32wlxx_hal_rtc_ex.o)
                0x0000000008027e6c                HAL_RTCEx_DeactivateCalibrationOutPut
 .text.HAL_RTCEx_SetRefClock
                0x0000000008027eac       0x54 out/external/libexternal_fuota_stack.a(stm32wlxx_hal_rtc_ex.o)
                0x0000000008027eac                HAL_RTCEx_SetRefClock
 .text.HAL_RTCEx_DeactivateRefClock
                0x0000000008027f00       0x54 out/external/libexternal_fuota_stack.a(stm32wlxx_hal_rtc_ex.o)
                0x0000000008027f00                HAL_RTCEx_DeactivateRefClock
 .text.HAL_RTCEx_EnableBypassShadow
                0x0000000008027f54       0x40 out/external/libexternal_fuota_stack.a(stm32wlxx_hal_rtc_ex.o)
                0x0000000008027f54                HAL_RTCEx_EnableBypassShadow
 .text.HAL_RTCEx_DisableBypassShadow
                0x0000000008027f94       0x40 out/external/libexternal_fuota_stack.a(stm32wlxx_hal_rtc_ex.o)
                0x0000000008027f94                HAL_RTCEx_DisableBypassShadow
 .text.HAL_RTCEx_MonotonicCounterIncrement
                0x0000000008027fd4        0xc out/external/libexternal_fuota_stack.a(stm32wlxx_hal_rtc_ex.o)
                0x0000000008027fd4                HAL_RTCEx_MonotonicCounterIncrement
 .text.HAL_RTCEx_MonotonicCounterGet
                0x0000000008027fe0       0x10 out/external/libexternal_fuota_stack.a(stm32wlxx_hal_rtc_ex.o)
                0x0000000008027fe0                HAL_RTCEx_MonotonicCounterGet
 .text.HAL_RTCEx_SetSSRU_IT
                0x0000000008027ff0       0x54 out/external/libexternal_fuota_stack.a(stm32wlxx_hal_rtc_ex.o)
                0x0000000008027ff0                HAL_RTCEx_SetSSRU_IT
 .text.HAL_RTCEx_DeactivateSSRU
                0x0000000008028044       0x44 out/external/libexternal_fuota_stack.a(stm32wlxx_hal_rtc_ex.o)
                0x0000000008028044                HAL_RTCEx_DeactivateSSRU
 .text.HAL_RTCEx_SSRUEventCallback
                0x0000000008028088        0x2 out/external/libexternal_fuota_stack.a(stm32wlxx_hal_rtc_ex.o)
 *fill*         0x000000000802808a        0x2 
 .text.HAL_RTCEx_SSRUIRQHandler
                0x000000000802808c       0x20 out/external/libexternal_fuota_stack.a(stm32wlxx_hal_rtc_ex.o)
                0x000000000802808c                HAL_RTCEx_SSRUIRQHandler
 .text.HAL_RTCEx_AlarmBEventCallback
                0x00000000080280ac        0x2 out/external/libexternal_fuota_stack.a(stm32wlxx_hal_rtc_ex.o)
                0x00000000080280ac                HAL_RTCEx_AlarmBEventCallback
 *fill*         0x00000000080280ae        0x2 
 .text.HAL_RTCEx_PollForAlarmBEvent
                0x00000000080280b0       0x40 out/external/libexternal_fuota_stack.a(stm32wlxx_hal_rtc_ex.o)
                0x00000000080280b0                HAL_RTCEx_PollForAlarmBEvent
 .text.HAL_RTCEx_SetTamper
                0x00000000080280f0       0x88 out/external/libexternal_fuota_stack.a(stm32wlxx_hal_rtc_ex.o)
                0x00000000080280f0                HAL_RTCEx_SetTamper
 .text.HAL_RTCEx_SetTamper_IT
                0x0000000008028178       0xa4 out/external/libexternal_fuota_stack.a(stm32wlxx_hal_rtc_ex.o)
                0x0000000008028178                HAL_RTCEx_SetTamper_IT
 .text.HAL_RTCEx_DeactivateTamper
                0x000000000802821c       0x38 out/external/libexternal_fuota_stack.a(stm32wlxx_hal_rtc_ex.o)
                0x000000000802821c                HAL_RTCEx_DeactivateTamper
 .text.HAL_RTCEx_PollForTamperEvent
                0x0000000008028254       0x38 out/external/libexternal_fuota_stack.a(stm32wlxx_hal_rtc_ex.o)
                0x0000000008028254                HAL_RTCEx_PollForTamperEvent
 .text.HAL_RTCEx_SetInternalTamper
                0x000000000802828c       0x54 out/external/libexternal_fuota_stack.a(stm32wlxx_hal_rtc_ex.o)
                0x000000000802828c                HAL_RTCEx_SetInternalTamper
 .text.HAL_RTCEx_SetInternalTamper_IT
                0x00000000080282e0       0x70 out/external/libexternal_fuota_stack.a(stm32wlxx_hal_rtc_ex.o)
                0x00000000080282e0                HAL_RTCEx_SetInternalTamper_IT
 .text.HAL_RTCEx_DeactivateInternalTamper
                0x0000000008028350       0x24 out/external/libexternal_fuota_stack.a(stm32wlxx_hal_rtc_ex.o)
                0x0000000008028350                HAL_RTCEx_DeactivateInternalTamper
 .text.HAL_RTCEx_PollForInternalTamperEvent
                0x0000000008028374        0x4 out/external/libexternal_fuota_stack.a(stm32wlxx_hal_rtc_ex.o)
                0x0000000008028374                HAL_RTCEx_PollForInternalTamperEvent
 .text.HAL_RTCEx_Tamper1EventCallback
                0x0000000008028378        0x2 out/external/libexternal_fuota_stack.a(stm32wlxx_hal_rtc_ex.o)
                0x0000000008028378                HAL_RTCEx_Tamper1EventCallback
 .text.HAL_RTCEx_Tamper2EventCallback
                0x000000000802837a        0x2 out/external/libexternal_fuota_stack.a(stm32wlxx_hal_rtc_ex.o)
                0x000000000802837a                HAL_RTCEx_Tamper2EventCallback
 .text.HAL_RTCEx_Tamper3EventCallback
                0x000000000802837c        0x2 out/external/libexternal_fuota_stack.a(stm32wlxx_hal_rtc_ex.o)
                0x000000000802837c                HAL_RTCEx_Tamper3EventCallback
 .text.HAL_RTCEx_InternalTamper3EventCallback
                0x000000000802837e        0x2 out/external/libexternal_fuota_stack.a(stm32wlxx_hal_rtc_ex.o)
                0x000000000802837e                HAL_RTCEx_InternalTamper3EventCallback
 .text.HAL_RTCEx_InternalTamper5EventCallback
                0x0000000008028380        0x2 out/external/libexternal_fuota_stack.a(stm32wlxx_hal_rtc_ex.o)
                0x0000000008028380                HAL_RTCEx_InternalTamper5EventCallback
 .text.HAL_RTCEx_InternalTamper6EventCallback
                0x0000000008028382        0x2 out/external/libexternal_fuota_stack.a(stm32wlxx_hal_rtc_ex.o)
                0x0000000008028382                HAL_RTCEx_InternalTamper6EventCallback
 .text.HAL_RTCEx_InternalTamper8EventCallback
                0x0000000008028384        0x2 out/external/libexternal_fuota_stack.a(stm32wlxx_hal_rtc_ex.o)
                0x0000000008028384                HAL_RTCEx_InternalTamper8EventCallback
 *fill*         0x0000000008028386        0x2 
 .text.HAL_RTCEx_TamperIRQHandler
                0x0000000008028388       0x58 out/external/libexternal_fuota_stack.a(stm32wlxx_hal_rtc_ex.o)
                0x0000000008028388                HAL_RTCEx_TamperIRQHandler
 .text.HAL_RTCEx_BKUPWrite
                0x00000000080283e0        0xe out/external/libexternal_fuota_stack.a(stm32wlxx_hal_rtc_ex.o)
                0x00000000080283e0                HAL_RTCEx_BKUPWrite
 .text.HAL_RTCEx_BKUPRead
                0x00000000080283ee        0xe out/external/libexternal_fuota_stack.a(stm32wlxx_hal_rtc_ex.o)
                0x00000000080283ee                HAL_RTCEx_BKUPRead
 .text.HAL_PWR_DeInit
                0x00000000080283fc       0x38 out/external/libexternal_fuota_stack.a(stm32wlxx_hal_pwr.o)
                0x00000000080283fc                HAL_PWR_DeInit
 .text.HAL_PWR_EnableBkUpAccess
                0x0000000008028434       0x10 out/external/libexternal_fuota_stack.a(stm32wlxx_hal_pwr.o)
                0x0000000008028434                HAL_PWR_EnableBkUpAccess
 .text.HAL_PWR_DisableBkUpAccess
                0x0000000008028444       0x10 out/external/libexternal_fuota_stack.a(stm32wlxx_hal_pwr.o)
                0x0000000008028444                HAL_PWR_DisableBkUpAccess
 .text.HAL_PWR_ConfigPVD
                0x0000000008028454       0x68 out/external/libexternal_fuota_stack.a(stm32wlxx_hal_pwr.o)
                0x0000000008028454                HAL_PWR_ConfigPVD
 .text.HAL_PWR_EnablePVD
                0x00000000080284bc       0x10 out/external/libexternal_fuota_stack.a(stm32wlxx_hal_pwr.o)
                0x00000000080284bc                HAL_PWR_EnablePVD
 .text.HAL_PWR_DisablePVD
                0x00000000080284cc       0x10 out/external/libexternal_fuota_stack.a(stm32wlxx_hal_pwr.o)
                0x00000000080284cc                HAL_PWR_DisablePVD
 .text.HAL_PWR_EnableWakeUpPin
                0x00000000080284dc       0x20 out/external/libexternal_fuota_stack.a(stm32wlxx_hal_pwr.o)
                0x00000000080284dc                HAL_PWR_EnableWakeUpPin
 .text.HAL_PWR_DisableWakeUpPin
                0x00000000080284fc       0x14 out/external/libexternal_fuota_stack.a(stm32wlxx_hal_pwr.o)
                0x00000000080284fc                HAL_PWR_DisableWakeUpPin
 .text.HAL_PWR_EnterSLEEPMode
                0x0000000008028510       0x40 out/external/libexternal_fuota_stack.a(stm32wlxx_hal_pwr.o)
                0x0000000008028510                HAL_PWR_EnterSLEEPMode
 .text.HAL_PWR_EnterSTOPMode
                0x0000000008028550       0x12 out/external/libexternal_fuota_stack.a(stm32wlxx_hal_pwr.o)
                0x0000000008028550                HAL_PWR_EnterSTOPMode
 *fill*         0x0000000008028562        0x2 
 .text.HAL_PWR_EnterSTANDBYMode
                0x0000000008028564       0x24 out/external/libexternal_fuota_stack.a(stm32wlxx_hal_pwr.o)
                0x0000000008028564                HAL_PWR_EnterSTANDBYMode
 .text.HAL_PWR_EnableSleepOnExit
                0x0000000008028588       0x10 out/external/libexternal_fuota_stack.a(stm32wlxx_hal_pwr.o)
                0x0000000008028588                HAL_PWR_EnableSleepOnExit
 .text.HAL_PWR_DisableSleepOnExit
                0x0000000008028598       0x10 out/external/libexternal_fuota_stack.a(stm32wlxx_hal_pwr.o)
                0x0000000008028598                HAL_PWR_DisableSleepOnExit
 .text.HAL_PWR_EnableSEVOnPend
                0x00000000080285a8       0x10 out/external/libexternal_fuota_stack.a(stm32wlxx_hal_pwr.o)
                0x00000000080285a8                HAL_PWR_EnableSEVOnPend
 .text.HAL_PWR_DisableSEVOnPend
                0x00000000080285b8       0x10 out/external/libexternal_fuota_stack.a(stm32wlxx_hal_pwr.o)
                0x00000000080285b8                HAL_PWR_DisableSEVOnPend
 .text.HAL_PWR_PVDCallback
                0x00000000080285c8        0x2 out/external/libexternal_fuota_stack.a(stm32wlxx_hal_pwr.o)
                0x00000000080285c8                HAL_PWR_PVDCallback
 *fill*         0x00000000080285ca        0x2 
 .text.HAL_PWREx_GetVoltageRange
                0x00000000080285cc       0x10 out/external/libexternal_fuota_stack.a(stm32wlxx_hal_pwr_ex.o)
                0x00000000080285cc                HAL_PWREx_GetVoltageRange
 .text.HAL_PWREx_ControlVoltageScaling
                0x00000000080285dc       0x68 out/external/libexternal_fuota_stack.a(stm32wlxx_hal_pwr_ex.o)
                0x00000000080285dc                HAL_PWREx_ControlVoltageScaling
 .text.HAL_PWREx_EnableBatteryCharging
                0x0000000008028644       0x1c out/external/libexternal_fuota_stack.a(stm32wlxx_hal_pwr_ex.o)
                0x0000000008028644                HAL_PWREx_EnableBatteryCharging
 .text.HAL_PWREx_DisableBatteryCharging
                0x0000000008028660       0x10 out/external/libexternal_fuota_stack.a(stm32wlxx_hal_pwr_ex.o)
                0x0000000008028660                HAL_PWREx_DisableBatteryCharging
 .text.HAL_PWREx_EnableInternalWakeUpLine
                0x0000000008028670       0x10 out/external/libexternal_fuota_stack.a(stm32wlxx_hal_pwr_ex.o)
                0x0000000008028670                HAL_PWREx_EnableInternalWakeUpLine
 .text.HAL_PWREx_DisableInternalWakeUpLine
                0x0000000008028680       0x10 out/external/libexternal_fuota_stack.a(stm32wlxx_hal_pwr_ex.o)
                0x0000000008028680                HAL_PWREx_DisableInternalWakeUpLine
 .text.HAL_PWREx_SetRadioBusyPolarity
                0x0000000008028690       0x14 out/external/libexternal_fuota_stack.a(stm32wlxx_hal_pwr_ex.o)
                0x0000000008028690                HAL_PWREx_SetRadioBusyPolarity
 .text.HAL_PWREx_SetRadioBusyTrigger
                0x00000000080286a4       0x14 out/external/libexternal_fuota_stack.a(stm32wlxx_hal_pwr_ex.o)
                0x00000000080286a4                HAL_PWREx_SetRadioBusyTrigger
 .text.HAL_PWREx_SetRadioIRQTrigger
                0x00000000080286b8       0x14 out/external/libexternal_fuota_stack.a(stm32wlxx_hal_pwr_ex.o)
                0x00000000080286b8                HAL_PWREx_SetRadioIRQTrigger
 .text.HAL_PWREx_EnableGPIOPullUp
                0x00000000080286cc       0x70 out/external/libexternal_fuota_stack.a(stm32wlxx_hal_pwr_ex.o)
                0x00000000080286cc                HAL_PWREx_EnableGPIOPullUp
 .text.HAL_PWREx_DisableGPIOPullUp
                0x000000000802873c       0x58 out/external/libexternal_fuota_stack.a(stm32wlxx_hal_pwr_ex.o)
                0x000000000802873c                HAL_PWREx_DisableGPIOPullUp
 .text.HAL_PWREx_EnableGPIOPullDown
                0x0000000008028794       0x70 out/external/libexternal_fuota_stack.a(stm32wlxx_hal_pwr_ex.o)
                0x0000000008028794                HAL_PWREx_EnableGPIOPullDown
 .text.HAL_PWREx_DisableGPIOPullDown
                0x0000000008028804       0x58 out/external/libexternal_fuota_stack.a(stm32wlxx_hal_pwr_ex.o)
                0x0000000008028804                HAL_PWREx_DisableGPIOPullDown
 .text.HAL_PWREx_EnablePullUpPullDownConfig
                0x000000000802885c       0x10 out/external/libexternal_fuota_stack.a(stm32wlxx_hal_pwr_ex.o)
                0x000000000802885c                HAL_PWREx_EnablePullUpPullDownConfig
 .text.HAL_PWREx_DisablePullUpPullDownConfig
                0x000000000802886c       0x10 out/external/libexternal_fuota_stack.a(stm32wlxx_hal_pwr_ex.o)
                0x000000000802886c                HAL_PWREx_DisablePullUpPullDownConfig
 .text.HAL_PWREx_EnableSRAMRetention
                0x000000000802887c       0x10 out/external/libexternal_fuota_stack.a(stm32wlxx_hal_pwr_ex.o)
                0x000000000802887c                HAL_PWREx_EnableSRAMRetention
 .text.HAL_PWREx_DisableSRAMRetention
                0x000000000802888c       0x10 out/external/libexternal_fuota_stack.a(stm32wlxx_hal_pwr_ex.o)
                0x000000000802888c                HAL_PWREx_DisableSRAMRetention
 .text.HAL_PWREx_EnableFlashPowerDown
                0x000000000802889c       0x1c out/external/libexternal_fuota_stack.a(stm32wlxx_hal_pwr_ex.o)
                0x000000000802889c                HAL_PWREx_EnableFlashPowerDown
 .text.HAL_PWREx_DisableFlashPowerDown
                0x00000000080288b8       0x10 out/external/libexternal_fuota_stack.a(stm32wlxx_hal_pwr_ex.o)
                0x00000000080288b8                HAL_PWREx_DisableFlashPowerDown
 .text.HAL_PWREx_EnableWPVD
                0x00000000080288c8       0x10 out/external/libexternal_fuota_stack.a(stm32wlxx_hal_pwr_ex.o)
                0x00000000080288c8                HAL_PWREx_EnableWPVD
 .text.HAL_PWREx_DisableWPVD
                0x00000000080288d8       0x10 out/external/libexternal_fuota_stack.a(stm32wlxx_hal_pwr_ex.o)
                0x00000000080288d8                HAL_PWREx_DisableWPVD
 .text.HAL_PWREx_EnableBORPVD_ULP
                0x00000000080288e8       0x10 out/external/libexternal_fuota_stack.a(stm32wlxx_hal_pwr_ex.o)
                0x00000000080288e8                HAL_PWREx_EnableBORPVD_ULP
 .text.HAL_PWREx_DisableBORPVD_ULP
                0x00000000080288f8       0x10 out/external/libexternal_fuota_stack.a(stm32wlxx_hal_pwr_ex.o)
                0x00000000080288f8                HAL_PWREx_DisableBORPVD_ULP
 .text.HAL_PWREx_EnablePVM3
                0x0000000008028908       0x10 out/external/libexternal_fuota_stack.a(stm32wlxx_hal_pwr_ex.o)
                0x0000000008028908                HAL_PWREx_EnablePVM3
 .text.HAL_PWREx_DisablePVM3
                0x0000000008028918       0x10 out/external/libexternal_fuota_stack.a(stm32wlxx_hal_pwr_ex.o)
                0x0000000008028918                HAL_PWREx_DisablePVM3
 .text.HAL_PWREx_ConfigPVM
                0x0000000008028928       0x70 out/external/libexternal_fuota_stack.a(stm32wlxx_hal_pwr_ex.o)
                0x0000000008028928                HAL_PWREx_ConfigPVM
 .text.HAL_PWREx_SetRadioEOL
                0x0000000008028998       0x14 out/external/libexternal_fuota_stack.a(stm32wlxx_hal_pwr_ex.o)
                0x0000000008028998                HAL_PWREx_SetRadioEOL
 .text.HAL_PWREx_SMPS_SetMode
                0x00000000080289ac       0x14 out/external/libexternal_fuota_stack.a(stm32wlxx_hal_pwr_ex.o)
                0x00000000080289ac                HAL_PWREx_SMPS_SetMode
 .text.HAL_PWREx_SMPS_GetEffectiveMode
                0x00000000080289c0       0x10 out/external/libexternal_fuota_stack.a(stm32wlxx_hal_pwr_ex.o)
                0x00000000080289c0                HAL_PWREx_SMPS_GetEffectiveMode
 .text.HAL_PWREx_EnableLowPowerRunMode
                0x00000000080289d0       0x10 out/external/libexternal_fuota_stack.a(stm32wlxx_hal_pwr_ex.o)
                0x00000000080289d0                HAL_PWREx_EnableLowPowerRunMode
 .text.HAL_PWREx_DisableLowPowerRunMode
                0x00000000080289e0       0x40 out/external/libexternal_fuota_stack.a(stm32wlxx_hal_pwr_ex.o)
                0x00000000080289e0                HAL_PWREx_DisableLowPowerRunMode
 .text.HAL_PWREx_EnterSTOP0Mode
                0x0000000008028a20       0x34 out/external/libexternal_fuota_stack.a(stm32wlxx_hal_pwr_ex.o)
                0x0000000008028a20                HAL_PWREx_EnterSTOP0Mode
 .text.HAL_PWREx_EnterSTOP1Mode
                0x0000000008028a54       0x38 out/external/libexternal_fuota_stack.a(stm32wlxx_hal_pwr_ex.o)
                0x0000000008028a54                HAL_PWREx_EnterSTOP1Mode
 .text.HAL_PWREx_EnterSTOP2Mode
                0x0000000008028a8c       0x38 out/external/libexternal_fuota_stack.a(stm32wlxx_hal_pwr_ex.o)
                0x0000000008028a8c                HAL_PWREx_EnterSTOP2Mode
 .text.HAL_PWREx_EnterSHUTDOWNMode
                0x0000000008028ac4       0x20 out/external/libexternal_fuota_stack.a(stm32wlxx_hal_pwr_ex.o)
                0x0000000008028ac4                HAL_PWREx_EnterSHUTDOWNMode
 .text.HAL_PWREx_PVM3Callback
                0x0000000008028ae4        0x2 out/external/libexternal_fuota_stack.a(stm32wlxx_hal_pwr_ex.o)
                0x0000000008028ae4                HAL_PWREx_PVM3Callback
 *fill*         0x0000000008028ae6        0x2 
 .text.HAL_PWREx_PVD_PVM_IRQHandler
                0x0000000008028ae8       0x28 out/external/libexternal_fuota_stack.a(stm32wlxx_hal_pwr_ex.o)
                0x0000000008028ae8                HAL_PWREx_PVD_PVM_IRQHandler
 .text.FLASH_Program_Fast
                0x0000000008028b10       0x30 out/external/libexternal_fuota_stack.a(stm32wlxx_hal_flash.o)
 .text.HAL_FLASH_EndOfOperationCallback
                0x0000000008028b40        0x2 out/external/libexternal_fuota_stack.a(stm32wlxx_hal_flash.o)
                0x0000000008028b40                HAL_FLASH_EndOfOperationCallback
 .text.HAL_FLASH_OperationErrorCallback
                0x0000000008028b42        0x2 out/external/libexternal_fuota_stack.a(stm32wlxx_hal_flash.o)
                0x0000000008028b42                HAL_FLASH_OperationErrorCallback
 .text.HAL_FLASH_IRQHandler
                0x0000000008028b44       0xa4 out/external/libexternal_fuota_stack.a(stm32wlxx_hal_flash.o)
                0x0000000008028b44                HAL_FLASH_IRQHandler
 .text.HAL_FLASH_Unlock
                0x0000000008028be8       0x24 out/external/libexternal_fuota_stack.a(stm32wlxx_hal_flash.o)
                0x0000000008028be8                HAL_FLASH_Unlock
 .text.HAL_FLASH_Lock
                0x0000000008028c0c       0x18 out/external/libexternal_fuota_stack.a(stm32wlxx_hal_flash.o)
                0x0000000008028c0c                HAL_FLASH_Lock
 .text.HAL_FLASH_OB_Unlock
                0x0000000008028c24       0x28 out/external/libexternal_fuota_stack.a(stm32wlxx_hal_flash.o)
                0x0000000008028c24                HAL_FLASH_OB_Unlock
 .text.HAL_FLASH_OB_Lock
                0x0000000008028c4c       0x1c out/external/libexternal_fuota_stack.a(stm32wlxx_hal_flash.o)
                0x0000000008028c4c                HAL_FLASH_OB_Lock
 .text.HAL_FLASH_OB_Launch
                0x0000000008028c68       0x14 out/external/libexternal_fuota_stack.a(stm32wlxx_hal_flash.o)
                0x0000000008028c68                HAL_FLASH_OB_Launch
 .text.HAL_FLASH_GetError
                0x0000000008028c7c        0xc out/external/libexternal_fuota_stack.a(stm32wlxx_hal_flash.o)
                0x0000000008028c7c                HAL_FLASH_GetError
 .text.FLASH_WaitForLastOperation
                0x0000000008028c88       0x5c out/external/libexternal_fuota_stack.a(stm32wlxx_hal_flash.o)
                0x0000000008028c88                FLASH_WaitForLastOperation
 .text.HAL_FLASH_Program
                0x0000000008028ce4       0x70 out/external/libexternal_fuota_stack.a(stm32wlxx_hal_flash.o)
                0x0000000008028ce4                HAL_FLASH_Program
 .text.HAL_FLASH_Program_IT
                0x0000000008028d54       0x7c out/external/libexternal_fuota_stack.a(stm32wlxx_hal_flash.o)
                0x0000000008028d54                HAL_FLASH_Program_IT
 .text.HAL_FLASHEx_OBProgram
                0x0000000008028dd0      0x138 out/external/libexternal_fuota_stack.a(stm32wlxx_hal_flash_ex.o)
                0x0000000008028dd0                HAL_FLASHEx_OBProgram
 .text.HAL_FLASHEx_OBGetConfig
                0x0000000008028f08       0x98 out/external/libexternal_fuota_stack.a(stm32wlxx_hal_flash_ex.o)
                0x0000000008028f08                HAL_FLASHEx_OBGetConfig
 .text.HAL_FLASHEx_FlashEmptyCheck
                0x0000000008028fa0       0x10 out/external/libexternal_fuota_stack.a(stm32wlxx_hal_flash_ex.o)
                0x0000000008028fa0                HAL_FLASHEx_FlashEmptyCheck
 .text.HAL_FLASHEx_ForceFlashEmpty
                0x0000000008028fb0       0x14 out/external/libexternal_fuota_stack.a(stm32wlxx_hal_flash_ex.o)
                0x0000000008028fb0                HAL_FLASHEx_ForceFlashEmpty
 .text.HAL_FLASHEx_SuspendOperation
                0x0000000008028fc4       0x10 out/external/libexternal_fuota_stack.a(stm32wlxx_hal_flash_ex.o)
                0x0000000008028fc4                HAL_FLASHEx_SuspendOperation
 .text.HAL_FLASHEx_AllowOperation
                0x0000000008028fd4       0x10 out/external/libexternal_fuota_stack.a(stm32wlxx_hal_flash_ex.o)
                0x0000000008028fd4                HAL_FLASHEx_AllowOperation
 .text.HAL_FLASHEx_IsOperationSuspended
                0x0000000008028fe4       0x10 out/external/libexternal_fuota_stack.a(stm32wlxx_hal_flash_ex.o)
                0x0000000008028fe4                HAL_FLASHEx_IsOperationSuspended
 .text.FLASH_PageErase
                0x0000000008028ff4       0x1c out/external/libexternal_fuota_stack.a(stm32wlxx_hal_flash_ex.o)
                0x0000000008028ff4                FLASH_PageErase
 .text.HAL_FLASHEx_Erase
                0x0000000008029010       0x9c out/external/libexternal_fuota_stack.a(stm32wlxx_hal_flash_ex.o)
                0x0000000008029010                HAL_FLASHEx_Erase
 .text.HAL_FLASHEx_Erase_IT
                0x00000000080290ac       0x64 out/external/libexternal_fuota_stack.a(stm32wlxx_hal_flash_ex.o)
                0x00000000080290ac                HAL_FLASHEx_Erase_IT
 .text.LL_PWR_UnselectSUBGHZSPI_NSS
                0x0000000008029110       0x14 out/external/libexternal_fuota_stack.a(stm32wlxx_hal_subghz.o)
 .text.LL_PWR_SelectSUBGHZSPI_NSS
                0x0000000008029124       0x14 out/external/libexternal_fuota_stack.a(stm32wlxx_hal_subghz.o)
 .text.HAL_SUBGHZ_MspInit
                0x0000000008029138        0x2 out/external/libexternal_fuota_stack.a(stm32wlxx_hal_subghz.o)
 .text.HAL_SUBGHZ_MspDeInit
                0x000000000802913a        0x2 out/external/libexternal_fuota_stack.a(stm32wlxx_hal_subghz.o)
 .text.HAL_SUBGHZ_TxCpltCallback
                0x000000000802913c        0x2 out/external/libexternal_fuota_stack.a(stm32wlxx_hal_subghz.o)
 .text.HAL_SUBGHZ_RxCpltCallback
                0x000000000802913e        0x2 out/external/libexternal_fuota_stack.a(stm32wlxx_hal_subghz.o)
 .text.HAL_SUBGHZ_PreambleDetectedCallback
                0x0000000008029140        0x2 out/external/libexternal_fuota_stack.a(stm32wlxx_hal_subghz.o)
 .text.HAL_SUBGHZ_SyncWordValidCallback
                0x0000000008029142        0x2 out/external/libexternal_fuota_stack.a(stm32wlxx_hal_subghz.o)
 .text.HAL_SUBGHZ_HeaderValidCallback
                0x0000000008029144        0x2 out/external/libexternal_fuota_stack.a(stm32wlxx_hal_subghz.o)
 .text.HAL_SUBGHZ_HeaderErrorCallback
                0x0000000008029146        0x2 out/external/libexternal_fuota_stack.a(stm32wlxx_hal_subghz.o)
 .text.HAL_SUBGHZ_CRCErrorCallback
                0x0000000008029148        0x2 out/external/libexternal_fuota_stack.a(stm32wlxx_hal_subghz.o)
 .text.HAL_SUBGHZ_CADStatusCallback
                0x000000000802914a        0x2 out/external/libexternal_fuota_stack.a(stm32wlxx_hal_subghz.o)
 .text.HAL_SUBGHZ_RxTxTimeoutCallback
                0x000000000802914c        0x2 out/external/libexternal_fuota_stack.a(stm32wlxx_hal_subghz.o)
 .text.HAL_SUBGHZ_GetState
                0x000000000802914e        0x4 out/external/libexternal_fuota_stack.a(stm32wlxx_hal_subghz.o)
                0x000000000802914e                HAL_SUBGHZ_GetState
 .text.HAL_SUBGHZ_GetError
                0x0000000008029152        0x4 out/external/libexternal_fuota_stack.a(stm32wlxx_hal_subghz.o)
                0x0000000008029152                HAL_SUBGHZ_GetError
 *fill*         0x0000000008029156        0x2 
 .text.SUBGHZSPI_Init
                0x0000000008029158       0x24 out/external/libexternal_fuota_stack.a(stm32wlxx_hal_subghz.o)
                0x0000000008029158                SUBGHZSPI_Init
 .text.HAL_SUBGHZ_Init
                0x000000000802917c       0xa0 out/external/libexternal_fuota_stack.a(stm32wlxx_hal_subghz.o)
                0x000000000802917c                HAL_SUBGHZ_Init
 .text.SUBGHZSPI_DeInit
                0x000000000802921c       0x10 out/external/libexternal_fuota_stack.a(stm32wlxx_hal_subghz.o)
                0x000000000802921c                SUBGHZSPI_DeInit
 .text.HAL_SUBGHZ_DeInit
                0x000000000802922c       0x88 out/external/libexternal_fuota_stack.a(stm32wlxx_hal_subghz.o)
                0x000000000802922c                HAL_SUBGHZ_DeInit
 .text.SUBGHZSPI_Transmit
                0x00000000080292b4       0x68 out/external/libexternal_fuota_stack.a(stm32wlxx_hal_subghz.o)
                0x00000000080292b4                SUBGHZSPI_Transmit
 .text.SUBGHZSPI_Receive
                0x000000000802931c       0x6c out/external/libexternal_fuota_stack.a(stm32wlxx_hal_subghz.o)
                0x000000000802931c                SUBGHZSPI_Receive
 .text.SUBGHZ_WaitOnBusy
                0x0000000008029388       0x48 out/external/libexternal_fuota_stack.a(stm32wlxx_hal_subghz.o)
                0x0000000008029388                SUBGHZ_WaitOnBusy
 .text.SUBGHZ_CheckDeviceReady
                0x00000000080293d0       0x38 out/external/libexternal_fuota_stack.a(stm32wlxx_hal_subghz.o)
                0x00000000080293d0                SUBGHZ_CheckDeviceReady
 .text.HAL_SUBGHZ_WriteRegisters
                0x0000000008029408       0x72 out/external/libexternal_fuota_stack.a(stm32wlxx_hal_subghz.o)
                0x0000000008029408                HAL_SUBGHZ_WriteRegisters
 .text.HAL_SUBGHZ_WriteRegister
                0x000000000802947a       0x16 out/external/libexternal_fuota_stack.a(stm32wlxx_hal_subghz.o)
                0x000000000802947a                HAL_SUBGHZ_WriteRegister
 .text.HAL_SUBGHZ_ReadRegisters
                0x0000000008029490       0x76 out/external/libexternal_fuota_stack.a(stm32wlxx_hal_subghz.o)
                0x0000000008029490                HAL_SUBGHZ_ReadRegisters
 .text.HAL_SUBGHZ_ReadRegister
                0x0000000008029506        0x6 out/external/libexternal_fuota_stack.a(stm32wlxx_hal_subghz.o)
                0x0000000008029506                HAL_SUBGHZ_ReadRegister
 .text.HAL_SUBGHZ_ExecSetCmd
                0x000000000802950c       0x70 out/external/libexternal_fuota_stack.a(stm32wlxx_hal_subghz.o)
                0x000000000802950c                HAL_SUBGHZ_ExecSetCmd
 .text.HAL_SUBGHZ_ExecGetCmd
                0x000000000802957c       0x66 out/external/libexternal_fuota_stack.a(stm32wlxx_hal_subghz.o)
                0x000000000802957c                HAL_SUBGHZ_ExecGetCmd
 .text.HAL_SUBGHZ_IRQHandler
                0x00000000080295e2       0x90 out/external/libexternal_fuota_stack.a(stm32wlxx_hal_subghz.o)
                0x00000000080295e2                HAL_SUBGHZ_IRQHandler
 .text.HAL_SUBGHZ_WriteBuffer
                0x0000000008029672       0x66 out/external/libexternal_fuota_stack.a(stm32wlxx_hal_subghz.o)
                0x0000000008029672                HAL_SUBGHZ_WriteBuffer
 .text.HAL_SUBGHZ_ReadBuffer
                0x00000000080296d8       0x6e out/external/libexternal_fuota_stack.a(stm32wlxx_hal_subghz.o)
                0x00000000080296d8                HAL_SUBGHZ_ReadBuffer
 *fill*         0x0000000008029746        0x2 
 .text.HAL_GPIO_Init
                0x0000000008029748      0x164 out/external/libexternal_fuota_stack.a(stm32wlxx_hal_gpio.o)
                0x0000000008029748                HAL_GPIO_Init
 .text.HAL_GPIO_DeInit
                0x00000000080298ac       0xe8 out/external/libexternal_fuota_stack.a(stm32wlxx_hal_gpio.o)
                0x00000000080298ac                HAL_GPIO_DeInit
 .text.HAL_GPIO_ReadPin
                0x0000000008029994        0xc out/external/libexternal_fuota_stack.a(stm32wlxx_hal_gpio.o)
                0x0000000008029994                HAL_GPIO_ReadPin
 .text.HAL_GPIO_WritePin
                0x00000000080299a0        0xa out/external/libexternal_fuota_stack.a(stm32wlxx_hal_gpio.o)
                0x00000000080299a0                HAL_GPIO_WritePin
 .text.HAL_GPIO_TogglePin
                0x00000000080299aa       0x12 out/external/libexternal_fuota_stack.a(stm32wlxx_hal_gpio.o)
                0x00000000080299aa                HAL_GPIO_TogglePin
 .text.HAL_GPIO_LockPin
                0x00000000080299bc       0x2a out/external/libexternal_fuota_stack.a(stm32wlxx_hal_gpio.o)
                0x00000000080299bc                HAL_GPIO_LockPin
 .text.HAL_GPIO_EXTI_Callback
                0x00000000080299e6        0x2 out/external/libexternal_fuota_stack.a(stm32wlxx_hal_gpio.o)
                0x00000000080299e6                HAL_GPIO_EXTI_Callback
 .text.HAL_GPIO_EXTI_IRQHandler
                0x00000000080299e8       0x18 out/external/libexternal_fuota_stack.a(stm32wlxx_hal_gpio.o)
                0x00000000080299e8                HAL_GPIO_EXTI_IRQHandler
 .text.CRYP_SetKey
                0x0000000008029a00       0x6e out/external/libexternal_fuota_stack.a(stm32wlxx_hal_cryp.o)
 .text.CRYP_Read_IVRegisters
                0x0000000008029a6e       0x1a out/external/libexternal_fuota_stack.a(stm32wlxx_hal_cryp.o)
 .text.CRYP_WaitOnCCFlag
                0x0000000008029a88       0x2e out/external/libexternal_fuota_stack.a(stm32wlxx_hal_cryp.o)
 *fill*         0x0000000008029ab6        0x2 
 .text.CRYP_GCMCCM_SetHeaderPhase
                0x0000000008029ab8      0x214 out/external/libexternal_fuota_stack.a(stm32wlxx_hal_cryp.o)
 .text.HAL_CRYP_SetConfig
                0x0000000008029ccc       0x94 out/external/libexternal_fuota_stack.a(stm32wlxx_hal_cryp.o)
                0x0000000008029ccc                HAL_CRYP_SetConfig
 .text.HAL_CRYP_GetConfig
                0x0000000008029d60       0x6e out/external/libexternal_fuota_stack.a(stm32wlxx_hal_cryp.o)
                0x0000000008029d60                HAL_CRYP_GetConfig
 .text.HAL_CRYP_MspInit
                0x0000000008029dce        0x2 out/external/libexternal_fuota_stack.a(stm32wlxx_hal_cryp.o)
 .text.HAL_CRYP_Init
                0x0000000008029dd0       0x46 out/external/libexternal_fuota_stack.a(stm32wlxx_hal_cryp.o)
                0x0000000008029dd0                HAL_CRYP_Init
 .text.HAL_CRYP_MspDeInit
                0x0000000008029e16        0x2 out/external/libexternal_fuota_stack.a(stm32wlxx_hal_cryp.o)
 .text.HAL_CRYP_DeInit
                0x0000000008029e18       0x2e out/external/libexternal_fuota_stack.a(stm32wlxx_hal_cryp.o)
                0x0000000008029e18                HAL_CRYP_DeInit
 .text.HAL_CRYP_ProcessSuspend
                0x0000000008029e46        0x8 out/external/libexternal_fuota_stack.a(stm32wlxx_hal_cryp.o)
                0x0000000008029e46                HAL_CRYP_ProcessSuspend
 .text.HAL_CRYP_GetError
                0x0000000008029e4e        0x4 out/external/libexternal_fuota_stack.a(stm32wlxx_hal_cryp.o)
                0x0000000008029e4e                HAL_CRYP_GetError
 .text.HAL_CRYP_GetState
                0x0000000008029e52        0x6 out/external/libexternal_fuota_stack.a(stm32wlxx_hal_cryp.o)
                0x0000000008029e52                HAL_CRYP_GetState
 .text.HAL_CRYP_InCpltCallback
                0x0000000008029e58        0x2 out/external/libexternal_fuota_stack.a(stm32wlxx_hal_cryp.o)
                0x0000000008029e58                HAL_CRYP_InCpltCallback
 .text.CRYP_PhaseProcessingResume
                0x0000000008029e5a      0x1e6 out/external/libexternal_fuota_stack.a(stm32wlxx_hal_cryp.o)
 .text.CRYP_AESGCM_Process_IT
                0x000000000802a040      0x360 out/external/libexternal_fuota_stack.a(stm32wlxx_hal_cryp.o)
 .text.CRYP_AESCCM_Process_IT
                0x000000000802a3a0      0x370 out/external/libexternal_fuota_stack.a(stm32wlxx_hal_cryp.o)
 .text.HAL_CRYP_Encrypt_IT
                0x000000000802a710      0x178 out/external/libexternal_fuota_stack.a(stm32wlxx_hal_cryp.o)
                0x000000000802a710                HAL_CRYP_Encrypt_IT
 .text.HAL_CRYP_Decrypt_IT
                0x000000000802a888      0x210 out/external/libexternal_fuota_stack.a(stm32wlxx_hal_cryp.o)
                0x000000000802a888                HAL_CRYP_Decrypt_IT
 .text.HAL_CRYP_Resume
                0x000000000802aa98      0x15a out/external/libexternal_fuota_stack.a(stm32wlxx_hal_cryp.o)
                0x000000000802aa98                HAL_CRYP_Resume
 .text.HAL_CRYP_OutCpltCallback
                0x000000000802abf2        0x2 out/external/libexternal_fuota_stack.a(stm32wlxx_hal_cryp.o)
                0x000000000802abf2                HAL_CRYP_OutCpltCallback
 .text.HAL_CRYP_ErrorCallback
                0x000000000802abf4        0x2 out/external/libexternal_fuota_stack.a(stm32wlxx_hal_cryp.o)
                0x000000000802abf4                HAL_CRYP_ErrorCallback
 .text.HAL_CRYP_Suspend
                0x000000000802abf6      0x1b4 out/external/libexternal_fuota_stack.a(stm32wlxx_hal_cryp.o)
                0x000000000802abf6                HAL_CRYP_Suspend
 .text.CRYP_AES_ProcessData
                0x000000000802adaa       0xe2 out/external/libexternal_fuota_stack.a(stm32wlxx_hal_cryp.o)
 .text.CRYP_AESCCM_Process
                0x000000000802ae8c      0x1e4 out/external/libexternal_fuota_stack.a(stm32wlxx_hal_cryp.o)
 .text.CRYP_AESGCM_Process
                0x000000000802b070      0x1f4 out/external/libexternal_fuota_stack.a(stm32wlxx_hal_cryp.o)
 .text.HAL_CRYP_Encrypt
                0x000000000802b264      0x128 out/external/libexternal_fuota_stack.a(stm32wlxx_hal_cryp.o)
                0x000000000802b264                HAL_CRYP_Encrypt
 .text.HAL_CRYP_Decrypt
                0x000000000802b38c      0x1b0 out/external/libexternal_fuota_stack.a(stm32wlxx_hal_cryp.o)
                0x000000000802b38c                HAL_CRYP_Decrypt
 .text.CRYP_SetDMAConfig
                0x000000000802b53c       0x84 out/external/libexternal_fuota_stack.a(stm32wlxx_hal_cryp.o)
 .text.CRYP_GCMCCM_SetPayloadPhase_DMA
                0x000000000802b5c0      0x11c out/external/libexternal_fuota_stack.a(stm32wlxx_hal_cryp.o)
 .text.CRYP_GCMCCM_SetHeaderPhase_DMA
                0x000000000802b6dc      0x148 out/external/libexternal_fuota_stack.a(stm32wlxx_hal_cryp.o)
 .text.CRYP_AESGCM_Process_DMA
                0x000000000802b824       0xa6 out/external/libexternal_fuota_stack.a(stm32wlxx_hal_cryp.o)
 .text.CRYP_AESCCM_Process_DMA
                0x000000000802b8ca       0xa6 out/external/libexternal_fuota_stack.a(stm32wlxx_hal_cryp.o)
 .text.HAL_CRYP_Encrypt_DMA
                0x000000000802b970       0xe0 out/external/libexternal_fuota_stack.a(stm32wlxx_hal_cryp.o)
                0x000000000802b970                HAL_CRYP_Encrypt_DMA
 .text.HAL_CRYP_Decrypt_DMA
                0x000000000802ba50      0x188 out/external/libexternal_fuota_stack.a(stm32wlxx_hal_cryp.o)
                0x000000000802ba50                HAL_CRYP_Decrypt_DMA
 .text.CRYP_DMAError
                0x000000000802bbd8       0x22 out/external/libexternal_fuota_stack.a(stm32wlxx_hal_cryp.o)
 *fill*         0x000000000802bbfa        0x2 
 .text.HAL_CRYP_IRQHandler
                0x000000000802bbfc      0x4fc out/external/libexternal_fuota_stack.a(stm32wlxx_hal_cryp.o)
                0x000000000802bbfc                HAL_CRYP_IRQHandler
 .text.CRYP_ClearCCFlagWhenHigh.constprop.0
                0x000000000802c0f8       0x40 out/external/libexternal_fuota_stack.a(stm32wlxx_hal_cryp.o)
 .text.CRYP_DMAInCplt
                0x000000000802c138      0x100 out/external/libexternal_fuota_stack.a(stm32wlxx_hal_cryp.o)
 .text.CRYP_DMAOutCplt
                0x000000000802c238      0x126 out/external/libexternal_fuota_stack.a(stm32wlxx_hal_cryp.o)
 .text.DMA_SetConfig
                0x000000000802c35e       0x3c out/external/libexternal_fuota_stack.a(stm32wlxx_hal_dma.o)
 *fill*         0x000000000802c39a        0x2 
 .text.DMA_CalcDMAMUXChannelBaseAndMask
                0x000000000802c39c       0x4c out/external/libexternal_fuota_stack.a(stm32wlxx_hal_dma.o)
 .text.HAL_DMA_Init
                0x000000000802c3e8       0xe4 out/external/libexternal_fuota_stack.a(stm32wlxx_hal_dma.o)
                0x000000000802c3e8                HAL_DMA_Init
 .text.HAL_DMA_DeInit
                0x000000000802c4cc       0xb8 out/external/libexternal_fuota_stack.a(stm32wlxx_hal_dma.o)
                0x000000000802c4cc                HAL_DMA_DeInit
 .text.HAL_DMA_Start
                0x000000000802c584       0x50 out/external/libexternal_fuota_stack.a(stm32wlxx_hal_dma.o)
                0x000000000802c584                HAL_DMA_Start
 .text.HAL_DMA_Start_IT
                0x000000000802c5d4       0x90 out/external/libexternal_fuota_stack.a(stm32wlxx_hal_dma.o)
                0x000000000802c5d4                HAL_DMA_Start_IT
 .text.HAL_DMA_Abort
                0x000000000802c664       0x6c out/external/libexternal_fuota_stack.a(stm32wlxx_hal_dma.o)
                0x000000000802c664                HAL_DMA_Abort
 .text.HAL_DMA_Abort_IT
                0x000000000802c6d0       0x70 out/external/libexternal_fuota_stack.a(stm32wlxx_hal_dma.o)
                0x000000000802c6d0                HAL_DMA_Abort_IT
 .text.HAL_DMA_PollForTransfer
                0x000000000802c740      0x10e out/external/libexternal_fuota_stack.a(stm32wlxx_hal_dma.o)
                0x000000000802c740                HAL_DMA_PollForTransfer
 *fill*         0x000000000802c84e        0x2 
 .text.HAL_DMA_IRQHandler
                0x000000000802c850       0xc8 out/external/libexternal_fuota_stack.a(stm32wlxx_hal_dma.o)
                0x000000000802c850                HAL_DMA_IRQHandler
 .text.HAL_DMA_RegisterCallback
                0x000000000802c918       0x44 out/external/libexternal_fuota_stack.a(stm32wlxx_hal_dma.o)
                0x000000000802c918                HAL_DMA_RegisterCallback
 .text.HAL_DMA_UnRegisterCallback
                0x000000000802c95c       0x54 out/external/libexternal_fuota_stack.a(stm32wlxx_hal_dma.o)
                0x000000000802c95c                HAL_DMA_UnRegisterCallback
 .text.HAL_DMA_GetState
                0x000000000802c9b0        0x6 out/external/libexternal_fuota_stack.a(stm32wlxx_hal_dma.o)
                0x000000000802c9b0                HAL_DMA_GetState
 .text.HAL_DMA_GetError
                0x000000000802c9b6        0x4 out/external/libexternal_fuota_stack.a(stm32wlxx_hal_dma.o)
                0x000000000802c9b6                HAL_DMA_GetError
 *fill*         0x000000000802c9ba        0x2 
 .text.rand1    0x000000000802c9bc       0x28 out/external/libexternal_fuota_stack.a(utilities.o)
                0x000000000802c9bc                rand1
 .text.srand1   0x000000000802c9e4        0xc out/external/libexternal_fuota_stack.a(utilities.o)
                0x000000000802c9e4                srand1
 .text.randr    0x000000000802c9f0       0x1a out/external/libexternal_fuota_stack.a(utilities.o)
                0x000000000802c9f0                randr
 .text.memcpy1  0x000000000802ca0a       0x14 out/external/libexternal_fuota_stack.a(utilities.o)
                0x000000000802ca0a                memcpy1
 .text.memcpyr  0x000000000802ca1e       0x14 out/external/libexternal_fuota_stack.a(utilities.o)
                0x000000000802ca1e                memcpyr
 .text.memset1  0x000000000802ca32        0xe out/external/libexternal_fuota_stack.a(utilities.o)
                0x000000000802ca32                memset1
 .text.Nibble2HexChar
                0x000000000802ca40       0x16 out/external/libexternal_fuota_stack.a(utilities.o)
                0x000000000802ca40                Nibble2HexChar
 *fill*         0x000000000802ca56        0x2 
 .text.Crc32    0x000000000802ca58       0x34 out/external/libexternal_fuota_stack.a(utilities.o)
                0x000000000802ca58                Crc32
 .text.Crc32Init
                0x000000000802ca8c        0x6 out/external/libexternal_fuota_stack.a(utilities.o)
                0x000000000802ca8c                Crc32Init
 *fill*         0x000000000802ca92        0x2 
 .text.Crc32Update
                0x000000000802ca94       0x34 out/external/libexternal_fuota_stack.a(utilities.o)
                0x000000000802ca94                Crc32Update
 .text.Crc32Finalize
                0x000000000802cac8        0x4 out/external/libexternal_fuota_stack.a(utilities.o)
                0x000000000802cac8                Crc32Finalize
 .text.AES_CMAC_Init
                0x000000000802cacc       0x20 out/external/libexternal_fuota_stack.a(cmac.o)
                0x000000000802cacc                AES_CMAC_Init
 .text.AES_CMAC_SetKey
                0x000000000802caec        0xa out/external/libexternal_fuota_stack.a(cmac.o)
                0x000000000802caec                AES_CMAC_SetKey
 .text.AES_CMAC_Update
                0x000000000802caf6       0xce out/external/libexternal_fuota_stack.a(cmac.o)
                0x000000000802caf6                AES_CMAC_Update
 .text.AES_CMAC_Final
                0x000000000802cbc4      0x16c out/external/libexternal_fuota_stack.a(cmac.o)
                0x000000000802cbc4                AES_CMAC_Final
 .text.SoftSeHalGetUniqueId
                0x000000000802cd30        0x4 out/external/libexternal_fuota_stack.a(soft-se-hal.o)
                0x000000000802cd30                SoftSeHalGetUniqueId
 .text.ComputeCmac
                0x000000000802cd34       0x80 out/external/libexternal_fuota_stack.a(soft-se.o)
 .text.SecureElementInit
                0x000000000802cdb4      0x12c out/external/libexternal_fuota_stack.a(soft-se.o)
                0x000000000802cdb4                SecureElementInit
 .text.SecureElementComputeAesCmac
                0x000000000802cee0        0xc out/external/libexternal_fuota_stack.a(soft-se.o)
                0x000000000802cee0                SecureElementComputeAesCmac
 .text.SecureElementVerifyAesCmac
                0x000000000802ceec       0x2c out/external/libexternal_fuota_stack.a(soft-se.o)
                0x000000000802ceec                SecureElementVerifyAesCmac
 .text.SecureElementAesEncrypt
                0x000000000802cf18       0x7c out/external/libexternal_fuota_stack.a(soft-se.o)
                0x000000000802cf18                SecureElementAesEncrypt
 .text.SecureElementSetKey.part.0
                0x000000000802cf94       0x78 out/external/libexternal_fuota_stack.a(soft-se.o)
 .text.SecureElementSetKey
                0x000000000802d00c        0xa out/external/libexternal_fuota_stack.a(soft-se.o)
                0x000000000802d00c                SecureElementSetKey
 .text.SecureElementDeriveAndStoreKey
                0x000000000802d016       0x38 out/external/libexternal_fuota_stack.a(soft-se.o)
                0x000000000802d016                SecureElementDeriveAndStoreKey
 .text.SecureElementProcessJoinAccept
                0x000000000802d04e      0x112 out/external/libexternal_fuota_stack.a(soft-se.o)
                0x000000000802d04e                SecureElementProcessJoinAccept
 .text.SecureElementSetDevEui
                0x000000000802d160       0x1c out/external/libexternal_fuota_stack.a(soft-se.o)
                0x000000000802d160                SecureElementSetDevEui
 .text.SecureElementGetDevEui
                0x000000000802d17c        0xc out/external/libexternal_fuota_stack.a(soft-se.o)
                0x000000000802d17c                SecureElementGetDevEui
 .text.SecureElementSetJoinEui
                0x000000000802d188       0x20 out/external/libexternal_fuota_stack.a(soft-se.o)
                0x000000000802d188                SecureElementSetJoinEui
 .text.SecureElementGetJoinEui
                0x000000000802d1a8        0xc out/external/libexternal_fuota_stack.a(soft-se.o)
                0x000000000802d1a8                SecureElementGetJoinEui
 .text.SecureElementSetPin
                0x000000000802d1b4       0x20 out/external/libexternal_fuota_stack.a(soft-se.o)
                0x000000000802d1b4                SecureElementSetPin
 .text.SecureElementGetPin
                0x000000000802d1d4        0xc out/external/libexternal_fuota_stack.a(soft-se.o)
                0x000000000802d1d4                SecureElementGetPin
 .text.LoRaMacAdrCalcNext
                0x000000000802d1e0       0xda out/external/libexternal_fuota_stack.a(LoRaMacAdr.o)
                0x000000000802d1e0                LoRaMacAdrCalcNext
 *fill*         0x000000000802d2ba        0x2 
 .text.UpdateRxSlotIdleState
                0x000000000802d2bc       0x1c out/external/libexternal_fuota_stack.a(LoRaMac.o)
 .text.OnMacProcessNotify
                0x000000000802d2d8       0x14 out/external/libexternal_fuota_stack.a(LoRaMac.o)
 .text.OnRadioRxTimeout
                0x000000000802d2ec       0x14 out/external/libexternal_fuota_stack.a(LoRaMac.o)
 .text.OnRadioTxTimeout
                0x000000000802d300       0x14 out/external/libexternal_fuota_stack.a(LoRaMac.o)
 .text.OnRadioRxError
                0x000000000802d314       0x14 out/external/libexternal_fuota_stack.a(LoRaMac.o)
 .text.OnAbpJoinPendingTimerEvent
                0x000000000802d328       0x24 out/external/libexternal_fuota_stack.a(LoRaMac.o)
 .text.OnRadioRxDone
                0x000000000802d34c       0x3c out/external/libexternal_fuota_stack.a(LoRaMac.o)
 .text.GetMaxAppPayloadWithoutFOptsLength
                0x000000000802d388       0x2c out/external/libexternal_fuota_stack.a(LoRaMac.o)
 .text.OnForceRejoinReqCycleTimerEvent
                0x000000000802d3b4       0x6c out/external/libexternal_fuota_stack.a(LoRaMac.o)
 .text.OnRetransmitTimeoutTimerEvent
                0x000000000802d420       0x30 out/external/libexternal_fuota_stack.a(LoRaMac.o)
 .text.PrepareRxDoneAbort
                0x000000000802d450       0x38 out/external/libexternal_fuota_stack.a(LoRaMac.o)
 .text.ResetMacParameters
                0x000000000802d488      0x15c out/external/libexternal_fuota_stack.a(LoRaMac.o)
 .text.OnRadioTxDone
                0x000000000802d5e4       0x3c out/external/libexternal_fuota_stack.a(LoRaMac.o)
 .text.HandleRadioRxErrorTimeout
                0x000000000802d620       0xcc out/external/libexternal_fuota_stack.a(LoRaMac.o)
 .text.OpenContinuousRxCWindow
                0x000000000802d6ec       0x64 out/external/libexternal_fuota_stack.a(LoRaMac.o)
 .text.SwitchClass
                0x000000000802d750      0x100 out/external/libexternal_fuota_stack.a(LoRaMac.o)
 .text.RxWindowSetup.constprop.0
                0x000000000802d850       0x48 out/external/libexternal_fuota_stack.a(LoRaMac.o)
 .text.OnRxWindow1TimerEvent
                0x000000000802d898       0x44 out/external/libexternal_fuota_stack.a(LoRaMac.o)
 .text.OnRxWindow2TimerEvent
                0x000000000802d8dc       0x4c out/external/libexternal_fuota_stack.a(LoRaMac.o)
 .text.ProcessMacCommands.constprop.0
                0x000000000802d928      0x7b4 out/external/libexternal_fuota_stack.a(LoRaMac.o)
 .text.StopRetransmission.isra.0
                0x000000000802e0dc       0x90 out/external/libexternal_fuota_stack.a(LoRaMac.o)
 .text.OnRejoin1CycleTimerEvent
                0x000000000802e16c       0x58 out/external/libexternal_fuota_stack.a(LoRaMac.o)
 .text.OnRejoin0CycleTimerEvent
                0x000000000802e1c4       0x58 out/external/libexternal_fuota_stack.a(LoRaMac.o)
 .text.LoRaMacIsBusy
                0x000000000802e21c       0x30 out/external/libexternal_fuota_stack.a(LoRaMac.o)
                0x000000000802e21c                LoRaMacIsBusy
 .text.GetMaxAppPayloadWithFOptsLength
                0x000000000802e24c       0x28 out/external/libexternal_fuota_stack.a(LoRaMac.o)
                0x000000000802e24c                GetMaxAppPayloadWithFOptsLength
 .text.PrepareFrame
                0x000000000802e274      0x154 out/external/libexternal_fuota_stack.a(LoRaMac.o)
                0x000000000802e274                PrepareFrame
 .text.SendFrameOnChannel
                0x000000000802e3c8      0x148 out/external/libexternal_fuota_stack.a(LoRaMac.o)
                0x000000000802e3c8                SendFrameOnChannel
 .text.ScheduleTx
                0x000000000802e510      0x1f8 out/external/libexternal_fuota_stack.a(LoRaMac.o)
 .text.OnTxDelayedTimerEvent
                0x000000000802e708       0x78 out/external/libexternal_fuota_stack.a(LoRaMac.o)
 .text.Send     0x000000000802e780       0xfc out/external/libexternal_fuota_stack.a(LoRaMac.o)
                0x000000000802e780                Send
 .text.SendReJoinReq
                0x000000000802e87c      0x100 out/external/libexternal_fuota_stack.a(LoRaMac.o)
                0x000000000802e87c                SendReJoinReq
 .text.SetTxContinuousWave
                0x000000000802e97c       0x2c out/external/libexternal_fuota_stack.a(LoRaMac.o)
                0x000000000802e97c                SetTxContinuousWave
 .text.DetermineFrameType
                0x000000000802e9a8       0x42 out/external/libexternal_fuota_stack.a(LoRaMac.o)
                0x000000000802e9a8                DetermineFrameType
 *fill*         0x000000000802e9ea        0x2 
 .text.LoRaMacInitialization
                0x000000000802e9ec      0x3b8 out/external/libexternal_fuota_stack.a(LoRaMac.o)
                0x000000000802e9ec                LoRaMacInitialization
 .text.LoRaMacStart
                0x000000000802eda4       0x14 out/external/libexternal_fuota_stack.a(LoRaMac.o)
                0x000000000802eda4                LoRaMacStart
 .text.LoRaMacStop
                0x000000000802edb8       0x3c out/external/libexternal_fuota_stack.a(LoRaMac.o)
                0x000000000802edb8                LoRaMacStop
 .text.LoRaMacQueryTxPossible
                0x000000000802edf4       0xc0 out/external/libexternal_fuota_stack.a(LoRaMac.o)
                0x000000000802edf4                LoRaMacQueryTxPossible
 .text.LoRaMacMibGetRequestConfirm
                0x000000000802eeb4      0x29c out/external/libexternal_fuota_stack.a(LoRaMac.o)
                0x000000000802eeb4                LoRaMacMibGetRequestConfirm
 .text.LoRaMacMibSetRequestConfirm
                0x000000000802f150      0x6a0 out/external/libexternal_fuota_stack.a(LoRaMac.o)
                0x000000000802f150                LoRaMacMibSetRequestConfirm
 .text.LoRaMacChannelAdd
                0x000000000802f7f0       0x3c out/external/libexternal_fuota_stack.a(LoRaMac.o)
                0x000000000802f7f0                LoRaMacChannelAdd
 .text.LoRaMacChannelRemove
                0x000000000802f82c       0x3c out/external/libexternal_fuota_stack.a(LoRaMac.o)
                0x000000000802f82c                LoRaMacChannelRemove
 .text.LoRaMacMcChannelSetup
                0x000000000802f868       0xf4 out/external/libexternal_fuota_stack.a(LoRaMac.o)
                0x000000000802f868                LoRaMacMcChannelSetup
 .text.LoRaMacMcChannelDelete
                0x000000000802f95c       0x60 out/external/libexternal_fuota_stack.a(LoRaMac.o)
                0x000000000802f95c                LoRaMacMcChannelDelete
 .text.LoRaMacMcChannelGetGroupId
                0x000000000802f9bc       0x24 out/external/libexternal_fuota_stack.a(LoRaMac.o)
                0x000000000802f9bc                LoRaMacMcChannelGetGroupId
 .text.LoRaMacMcChannelSetupRxParams
                0x000000000802f9e0      0x164 out/external/libexternal_fuota_stack.a(LoRaMac.o)
                0x000000000802f9e0                LoRaMacMcChannelSetupRxParams
 .text.LoRaMacMlmeRequest
                0x000000000802fb44      0x228 out/external/libexternal_fuota_stack.a(LoRaMac.o)
                0x000000000802fb44                LoRaMacMlmeRequest
 .text.LoRaMacProcess
                0x000000000802fd6c      0xb80 out/external/libexternal_fuota_stack.a(LoRaMac.o)
                0x000000000802fd6c                LoRaMacProcess
 .text.LoRaMacMcpsRequest
                0x00000000080308ec      0x188 out/external/libexternal_fuota_stack.a(LoRaMac.o)
                0x00000000080308ec                LoRaMacMcpsRequest
 .text.LoRaMacTestSetDutyCycleOn
                0x0000000008030a74       0x38 out/external/libexternal_fuota_stack.a(LoRaMac.o)
                0x0000000008030a74                LoRaMacTestSetDutyCycleOn
 .text.LoRaMacDeInitialization
                0x0000000008030aac       0x5c out/external/libexternal_fuota_stack.a(LoRaMac.o)
                0x0000000008030aac                LoRaMacDeInitialization
 .text.LoRaMacReset
                0x0000000008030b08       0x6c out/external/libexternal_fuota_stack.a(LoRaMac.o)
                0x0000000008030b08                LoRaMacReset
 .text.LoRaMacUpdateCallbacks
                0x0000000008030b74        0xc out/external/libexternal_fuota_stack.a(LoRaMac.o)
                0x0000000008030b74                LoRaMacUpdateCallbacks
 .text.OnClassBMacProcessNotify
                0x0000000008030b80       0x10 out/external/libexternal_fuota_stack.a(LoRaMacClassB.o)
 .text.LoRaMacClassBPingSlotTimerEvent
                0x0000000008030b90       0x14 out/external/libexternal_fuota_stack.a(LoRaMacClassB.o)
                0x0000000008030b90                LoRaMacClassBPingSlotTimerEvent
 .text.LoRaMacClassBMulticastSlotTimerEvent
                0x0000000008030ba4       0x14 out/external/libexternal_fuota_stack.a(LoRaMacClassB.o)
                0x0000000008030ba4                LoRaMacClassBMulticastSlotTimerEvent
 .text.CalcDownlinkFrequency
                0x0000000008030bb8       0x2c out/external/libexternal_fuota_stack.a(LoRaMacClassB.o)
 .text.LoRaMacClassBBeaconTimerEvent
                0x0000000008030be4       0x38 out/external/libexternal_fuota_stack.a(LoRaMacClassB.o)
                0x0000000008030be4                LoRaMacClassBBeaconTimerEvent
 .text.CalcNextSlotTime
                0x0000000008030c1c       0x94 out/external/libexternal_fuota_stack.a(LoRaMacClassB.o)
 .text.ComputePingOffset
                0x0000000008030cb0       0x74 out/external/libexternal_fuota_stack.a(LoRaMacClassB.o)
 .text.BeaconCrc
                0x0000000008030d24       0x36 out/external/libexternal_fuota_stack.a(LoRaMacClassB.o)
 *fill*         0x0000000008030d5a        0x2 
 .text.CalculateBeaconRxWindowConfig
                0x0000000008030d5c       0x54 out/external/libexternal_fuota_stack.a(LoRaMacClassB.o)
 .text.CalcDownlinkChannelAndFrequency.constprop.0
                0x0000000008030db0       0x68 out/external/libexternal_fuota_stack.a(LoRaMacClassB.o)
 .text.RxBeaconSetup
                0x0000000008030e18       0x7c out/external/libexternal_fuota_stack.a(LoRaMacClassB.o)
 .text.InitClassB
                0x0000000008030e94       0x70 out/external/libexternal_fuota_stack.a(LoRaMacClassB.o)
 .text.InitClassBDefaults
                0x0000000008030f04       0x48 out/external/libexternal_fuota_stack.a(LoRaMacClassB.o)
 .text.LoRaMacClassBInit
                0x0000000008030f4c       0x7c out/external/libexternal_fuota_stack.a(LoRaMacClassB.o)
                0x0000000008030f4c                LoRaMacClassBInit
 .text.LoRaMacClassBSetPingSlotState
                0x0000000008030fc8        0xc out/external/libexternal_fuota_stack.a(LoRaMacClassB.o)
                0x0000000008030fc8                LoRaMacClassBSetPingSlotState
 .text.LoRaMacClassBSetMulticastSlotState
                0x0000000008030fd4        0xc out/external/libexternal_fuota_stack.a(LoRaMacClassB.o)
                0x0000000008030fd4                LoRaMacClassBSetMulticastSlotState
 .text.LoRaMacClassBRxBeacon
                0x0000000008030fe0      0x1e4 out/external/libexternal_fuota_stack.a(LoRaMacClassB.o)
                0x0000000008030fe0                LoRaMacClassBRxBeacon
 .text.LoRaMacClassBIsBeaconExpected
                0x00000000080311c4       0x20 out/external/libexternal_fuota_stack.a(LoRaMacClassB.o)
                0x00000000080311c4                LoRaMacClassBIsBeaconExpected
 .text.LoRaMacClassBIsPingExpected
                0x00000000080311e4       0x14 out/external/libexternal_fuota_stack.a(LoRaMacClassB.o)
                0x00000000080311e4                LoRaMacClassBIsPingExpected
 .text.LoRaMacClassBIsMulticastExpected
                0x00000000080311f8       0x14 out/external/libexternal_fuota_stack.a(LoRaMacClassB.o)
                0x00000000080311f8                LoRaMacClassBIsMulticastExpected
 .text.LoRaMacClassBIsAcquisitionPending
                0x000000000803120c       0x10 out/external/libexternal_fuota_stack.a(LoRaMacClassB.o)
                0x000000000803120c                LoRaMacClassBIsAcquisitionPending
 .text.LoRaMacClassBSetBeaconState
                0x000000000803121c       0x30 out/external/libexternal_fuota_stack.a(LoRaMacClassB.o)
                0x000000000803121c                LoRaMacClassBSetBeaconState
 .text.LoRaMacClassBIsAcquisitionInProgress
                0x000000000803124c       0x14 out/external/libexternal_fuota_stack.a(LoRaMacClassB.o)
                0x000000000803124c                LoRaMacClassBIsAcquisitionInProgress
 .text.LoRaMacClassBIsBeaconModeActive
                0x0000000008031260       0x1c out/external/libexternal_fuota_stack.a(LoRaMacClassB.o)
                0x0000000008031260                LoRaMacClassBIsBeaconModeActive
 .text.LoRaMacClassBSetPingSlotInfo
                0x000000000803127c       0x20 out/external/libexternal_fuota_stack.a(LoRaMacClassB.o)
                0x000000000803127c                LoRaMacClassBSetPingSlotInfo
 .text.LoRaMacClassBResumeBeaconing
                0x000000000803129c       0x34 out/external/libexternal_fuota_stack.a(LoRaMacClassB.o)
                0x000000000803129c                LoRaMacClassBResumeBeaconing
 .text.LoRaMacClassBMibGetRequestConfirm
                0x00000000080312d0       0x18 out/external/libexternal_fuota_stack.a(LoRaMacClassB.o)
                0x00000000080312d0                LoRaMacClassBMibGetRequestConfirm
 .text.LoRaMacMibClassBSetRequestConfirm
                0x00000000080312e8       0x1c out/external/libexternal_fuota_stack.a(LoRaMacClassB.o)
                0x00000000080312e8                LoRaMacMibClassBSetRequestConfirm
 .text.LoRaMacClassBPingSlotInfoAns
                0x0000000008031304       0x24 out/external/libexternal_fuota_stack.a(LoRaMacClassB.o)
                0x0000000008031304                LoRaMacClassBPingSlotInfoAns
 .text.LoRaMacClassBPingSlotChannelReq
                0x0000000008031328       0x90 out/external/libexternal_fuota_stack.a(LoRaMacClassB.o)
                0x0000000008031328                LoRaMacClassBPingSlotChannelReq
 .text.LoRaMacClassBBeaconTimingAns
                0x00000000080313b8       0x74 out/external/libexternal_fuota_stack.a(LoRaMacClassB.o)
                0x00000000080313b8                LoRaMacClassBBeaconTimingAns
 .text.LoRaMacClassBDeviceTimeAns
                0x000000000803142c       0xb8 out/external/libexternal_fuota_stack.a(LoRaMacClassB.o)
                0x000000000803142c                LoRaMacClassBDeviceTimeAns
 .text.LoRaMacClassBBeaconFreqReq
                0x00000000080314e4       0x44 out/external/libexternal_fuota_stack.a(LoRaMacClassB.o)
                0x00000000080314e4                LoRaMacClassBBeaconFreqReq
 .text.LoRaMacClassBIsUplinkCollision
                0x0000000008031528       0x4c out/external/libexternal_fuota_stack.a(LoRaMacClassB.o)
                0x0000000008031528                LoRaMacClassBIsUplinkCollision
 .text.LoRaMacClassBStopRxSlots
                0x0000000008031574       0x48 out/external/libexternal_fuota_stack.a(LoRaMacClassB.o)
                0x0000000008031574                LoRaMacClassBStopRxSlots
 .text.LoRaMacClassBHaltBeaconing
                0x00000000080315bc       0x5c out/external/libexternal_fuota_stack.a(LoRaMacClassB.o)
                0x00000000080315bc                LoRaMacClassBHaltBeaconing
 .text.LoRaMacClassBSwitchClass
                0x0000000008031618       0x3c out/external/libexternal_fuota_stack.a(LoRaMacClassB.o)
                0x0000000008031618                LoRaMacClassBSwitchClass
 .text.LoRaMacClassBStartRxSlots
                0x0000000008031654       0x4c out/external/libexternal_fuota_stack.a(LoRaMacClassB.o)
                0x0000000008031654                LoRaMacClassBStartRxSlots
 .text.UpdateBeaconState
                0x00000000080316a0       0x9c out/external/libexternal_fuota_stack.a(LoRaMacClassB.o)
 .text.LoRaMacClassBSetMulticastPeriodicity
                0x000000000803173c       0x1a out/external/libexternal_fuota_stack.a(LoRaMacClassB.o)
                0x000000000803173c                LoRaMacClassBSetMulticastPeriodicity
 *fill*         0x0000000008031756        0x2 
 .text.LoRaMacClassBSetFPendingBit
                0x0000000008031758       0x3c out/external/libexternal_fuota_stack.a(LoRaMacClassB.o)
                0x0000000008031758                LoRaMacClassBSetFPendingBit
 .text.LoRaMacClassBProcess
                0x0000000008031794      0x5b4 out/external/libexternal_fuota_stack.a(LoRaMacClassB.o)
                0x0000000008031794                LoRaMacClassBProcess
 .text.IsSticky
                0x0000000008031d48       0x24 out/external/libexternal_fuota_stack.a(LoRaMacCommands.o)
 .text.LoRaMacCommandsInit
                0x0000000008031d6c       0x1c out/external/libexternal_fuota_stack.a(LoRaMacCommands.o)
                0x0000000008031d6c                LoRaMacCommandsInit
 .text.LoRaMacCommandsAddCmd
                0x0000000008031d88       0xc0 out/external/libexternal_fuota_stack.a(LoRaMacCommands.o)
                0x0000000008031d88                LoRaMacCommandsAddCmd
 .text.LoRaMacCommandsRemoveCmd
                0x0000000008031e48       0x54 out/external/libexternal_fuota_stack.a(LoRaMacCommands.o)
                0x0000000008031e48                LoRaMacCommandsRemoveCmd
 .text.LoRaMacCommandsGetCmd
                0x0000000008031e9c       0x1c out/external/libexternal_fuota_stack.a(LoRaMacCommands.o)
                0x0000000008031e9c                LoRaMacCommandsGetCmd
 .text.LoRaMacCommandsRemoveNoneStickyCmds
                0x0000000008031eb8       0x1c out/external/libexternal_fuota_stack.a(LoRaMacCommands.o)
                0x0000000008031eb8                LoRaMacCommandsRemoveNoneStickyCmds
 .text.LoRaMacCommandsRemoveStickyAnsCmds
                0x0000000008031ed4       0x3c out/external/libexternal_fuota_stack.a(LoRaMacCommands.o)
                0x0000000008031ed4                LoRaMacCommandsRemoveStickyAnsCmds
 .text.LoRaMacCommandsGetSizeSerializedCmds
                0x0000000008031f10       0x18 out/external/libexternal_fuota_stack.a(LoRaMacCommands.o)
                0x0000000008031f10                LoRaMacCommandsGetSizeSerializedCmds
 .text.LoRaMacCommandsSerializeCmds
                0x0000000008031f28       0x64 out/external/libexternal_fuota_stack.a(LoRaMacCommands.o)
                0x0000000008031f28                LoRaMacCommandsSerializeCmds
 .text.LoRaMacCommandsGetCmdSize
                0x0000000008031f8c       0x14 out/external/libexternal_fuota_stack.a(LoRaMacCommands.o)
                0x0000000008031f8c                LoRaMacCommandsGetCmdSize
 .text.GetElement.constprop.0
                0x0000000008031fa0       0x38 out/external/libexternal_fuota_stack.a(LoRaMacConfirmQueue.o)
 .text.LoRaMacConfirmQueueInit
                0x0000000008031fd8       0x28 out/external/libexternal_fuota_stack.a(LoRaMacConfirmQueue.o)
                0x0000000008031fd8                LoRaMacConfirmQueueInit
 .text.LoRaMacConfirmQueueAdd
                0x0000000008032000       0x4c out/external/libexternal_fuota_stack.a(LoRaMacConfirmQueue.o)
                0x0000000008032000                LoRaMacConfirmQueueAdd
 .text.LoRaMacConfirmQueueRemoveLast
                0x000000000803204c       0x2c out/external/libexternal_fuota_stack.a(LoRaMacConfirmQueue.o)
                0x000000000803204c                LoRaMacConfirmQueueRemoveLast
 .text.LoRaMacConfirmQueueRemoveFirst
                0x0000000008032078       0x2c out/external/libexternal_fuota_stack.a(LoRaMacConfirmQueue.o)
                0x0000000008032078                LoRaMacConfirmQueueRemoveFirst
 .text.LoRaMacConfirmQueueSetStatus
                0x00000000080320a4       0x24 out/external/libexternal_fuota_stack.a(LoRaMacConfirmQueue.o)
                0x00000000080320a4                LoRaMacConfirmQueueSetStatus
 .text.LoRaMacConfirmQueueGetStatus
                0x00000000080320c8       0x20 out/external/libexternal_fuota_stack.a(LoRaMacConfirmQueue.o)
                0x00000000080320c8                LoRaMacConfirmQueueGetStatus
 .text.LoRaMacConfirmQueueSetStatusCmn
                0x00000000080320e8       0x38 out/external/libexternal_fuota_stack.a(LoRaMacConfirmQueue.o)
                0x00000000080320e8                LoRaMacConfirmQueueSetStatusCmn
 .text.LoRaMacConfirmQueueGetStatusCmn
                0x0000000008032120        0xc out/external/libexternal_fuota_stack.a(LoRaMacConfirmQueue.o)
                0x0000000008032120                LoRaMacConfirmQueueGetStatusCmn
 .text.LoRaMacConfirmQueueIsCmdActive
                0x000000000803212c       0x18 out/external/libexternal_fuota_stack.a(LoRaMacConfirmQueue.o)
                0x000000000803212c                LoRaMacConfirmQueueIsCmdActive
 .text.LoRaMacConfirmQueueHandleCb
                0x0000000008032144       0x68 out/external/libexternal_fuota_stack.a(LoRaMacConfirmQueue.o)
                0x0000000008032144                LoRaMacConfirmQueueHandleCb
 .text.LoRaMacConfirmQueueGetCnt
                0x00000000080321ac        0xc out/external/libexternal_fuota_stack.a(LoRaMacConfirmQueue.o)
                0x00000000080321ac                LoRaMacConfirmQueueGetCnt
 .text.LoRaMacConfirmQueueIsFull
                0x00000000080321b8       0x14 out/external/libexternal_fuota_stack.a(LoRaMacConfirmQueue.o)
                0x00000000080321b8                LoRaMacConfirmQueueIsFull
 .text.DeriveSessionKey11x
                0x00000000080321cc       0x7a out/external/libexternal_fuota_stack.a(LoRaMacCrypto.o)
 .text.DeriveSessionKey10x
                0x0000000008032246       0x54 out/external/libexternal_fuota_stack.a(LoRaMacCrypto.o)
 .text.PayloadEncrypt
                0x000000000803229a       0xc2 out/external/libexternal_fuota_stack.a(LoRaMacCrypto.o)
 .text.FOptsEncrypt
                0x000000000803235c       0xc4 out/external/libexternal_fuota_stack.a(LoRaMacCrypto.o)
 .text.LoRaMacCryptoDeriveMcKEKey.part.0
                0x0000000008032420       0x22 out/external/libexternal_fuota_stack.a(LoRaMacCrypto.o)
 *fill*         0x0000000008032442        0x2 
 .text.GetLastFcntDown.constprop.0
                0x0000000008032444       0x58 out/external/libexternal_fuota_stack.a(LoRaMacCrypto.o)
 .text.VerifyCmacB0.constprop.0
                0x000000000803249c       0xc8 out/external/libexternal_fuota_stack.a(LoRaMacCrypto.o)
 .text.ComputeCmacB0.constprop.0
                0x0000000008032564       0x84 out/external/libexternal_fuota_stack.a(LoRaMacCrypto.o)
 .text.LoRaMacCryptoInit
                0x00000000080325e8       0x3c out/external/libexternal_fuota_stack.a(LoRaMacCrypto.o)
                0x00000000080325e8                LoRaMacCryptoInit
 .text.LoRaMacCryptoSetLrWanVersion
                0x0000000008032624       0x10 out/external/libexternal_fuota_stack.a(LoRaMacCrypto.o)
                0x0000000008032624                LoRaMacCryptoSetLrWanVersion
 .text.LoRaMacCryptoGetFCntUp
                0x0000000008032634       0x18 out/external/libexternal_fuota_stack.a(LoRaMacCrypto.o)
                0x0000000008032634                LoRaMacCryptoGetFCntUp
 .text.LoRaMacCryptoGetFCntDown
                0x000000000803264c       0x44 out/external/libexternal_fuota_stack.a(LoRaMacCrypto.o)
                0x000000000803264c                LoRaMacCryptoGetFCntDown
 .text.LoRaMacCryptoGetRJcount
                0x0000000008032690       0x30 out/external/libexternal_fuota_stack.a(LoRaMacCrypto.o)
                0x0000000008032690                LoRaMacCryptoGetRJcount
 .text.LoRaMacCryptoSetMulticastReference
                0x00000000080326c0       0x2c out/external/libexternal_fuota_stack.a(LoRaMacCrypto.o)
                0x00000000080326c0                LoRaMacCryptoSetMulticastReference
 .text.LoRaMacCryptoPrepareJoinRequest
                0x00000000080326ec       0xa8 out/external/libexternal_fuota_stack.a(LoRaMacCrypto.o)
                0x00000000080326ec                LoRaMacCryptoPrepareJoinRequest
 .text.LoRaMacCryptoPrepareReJoinType1
                0x0000000008032794       0x58 out/external/libexternal_fuota_stack.a(LoRaMacCrypto.o)
                0x0000000008032794                LoRaMacCryptoPrepareReJoinType1
 .text.LoRaMacCryptoPrepareReJoinType0or2
                0x00000000080327ec       0x54 out/external/libexternal_fuota_stack.a(LoRaMacCrypto.o)
                0x00000000080327ec                LoRaMacCryptoPrepareReJoinType0or2
 .text.LoRaMacCryptoSecureMessage
                0x0000000008032840      0x19c out/external/libexternal_fuota_stack.a(LoRaMacCrypto.o)
                0x0000000008032840                LoRaMacCryptoSecureMessage
 .text.LoRaMacCryptoUnsecureMessage
                0x00000000080329dc      0x140 out/external/libexternal_fuota_stack.a(LoRaMacCrypto.o)
                0x00000000080329dc                LoRaMacCryptoUnsecureMessage
 .text.LoRaMacCryptoDeriveMcRootKey
                0x0000000008032b1c       0x36 out/external/libexternal_fuota_stack.a(LoRaMacCrypto.o)
                0x0000000008032b1c                LoRaMacCryptoDeriveMcRootKey
 *fill*         0x0000000008032b52        0x2 
 .text.LoRaMacCryptoSetKey
                0x0000000008032b54       0x2c out/external/libexternal_fuota_stack.a(LoRaMacCrypto.o)
                0x0000000008032b54                LoRaMacCryptoSetKey
 .text.LoRaMacCryptoHandleJoinAccept
                0x0000000008032b80      0x180 out/external/libexternal_fuota_stack.a(LoRaMacCrypto.o)
                0x0000000008032b80                LoRaMacCryptoHandleJoinAccept
 .text.LoRaMacCryptoDeriveMcKEKey
                0x0000000008032d00        0xc out/external/libexternal_fuota_stack.a(LoRaMacCrypto.o)
                0x0000000008032d00                LoRaMacCryptoDeriveMcKEKey
 .text.LoRaMacCryptoDeriveMcSessionKeyPair
                0x0000000008032d0c       0x94 out/external/libexternal_fuota_stack.a(LoRaMacCrypto.o)
                0x0000000008032d0c                LoRaMacCryptoDeriveMcSessionKeyPair
 .text.LoRaMacParserJoinAccept
                0x0000000008032da0       0x9c out/external/libexternal_fuota_stack.a(LoRaMacParser.o)
                0x0000000008032da0                LoRaMacParserJoinAccept
 .text.LoRaMacParserData
                0x0000000008032e3c       0xb6 out/external/libexternal_fuota_stack.a(LoRaMacParser.o)
                0x0000000008032e3c                LoRaMacParserData
 .text.LoRaMacSerializerJoinRequest
                0x0000000008032ef2       0x68 out/external/libexternal_fuota_stack.a(LoRaMacSerializer.o)
                0x0000000008032ef2                LoRaMacSerializerJoinRequest
 .text.LoRaMacSerializerReJoinType1
                0x0000000008032f5a       0x70 out/external/libexternal_fuota_stack.a(LoRaMacSerializer.o)
                0x0000000008032f5a                LoRaMacSerializerReJoinType1
 .text.LoRaMacSerializerReJoinType0or2
                0x0000000008032fca       0x70 out/external/libexternal_fuota_stack.a(LoRaMacSerializer.o)
                0x0000000008032fca                LoRaMacSerializerReJoinType0or2
 .text.LoRaMacSerializerData
                0x000000000803303a       0xd8 out/external/libexternal_fuota_stack.a(LoRaMacSerializer.o)
                0x000000000803303a                LoRaMacSerializerData
 *fill*         0x0000000008033112        0x2 
 .text.VerifyRfFreq
                0x0000000008033114       0x28 out/external/libexternal_fuota_stack.a(RegionAS923.o)
 .text.GetTimeOnAir
                0x000000000803313c       0x54 out/external/libexternal_fuota_stack.a(RegionAS923.o)
 .text.RegionAS923SubBandSet
                0x0000000008033190       0x10 out/external/libexternal_fuota_stack.a(RegionAS923.o)
                0x0000000008033190                RegionAS923SubBandSet
 .text.RegionAS923SubBandGet
                0x00000000080331a0        0xc out/external/libexternal_fuota_stack.a(RegionAS923.o)
                0x00000000080331a0                RegionAS923SubBandGet
 .text.RegionAS923GetPhyParam
                0x00000000080331ac      0x170 out/external/libexternal_fuota_stack.a(RegionAS923.o)
                0x00000000080331ac                RegionAS923GetPhyParam
 .text.RegionAS923SetBandTxDone
                0x000000000803331c       0x38 out/external/libexternal_fuota_stack.a(RegionAS923.o)
                0x000000000803331c                RegionAS923SetBandTxDone
 .text.RegionAS923InitDefaults
                0x0000000008033354       0xb8 out/external/libexternal_fuota_stack.a(RegionAS923.o)
                0x0000000008033354                RegionAS923InitDefaults
 .text.RegionAS923Verify
                0x000000000803340c       0x56 out/external/libexternal_fuota_stack.a(RegionAS923.o)
                0x000000000803340c                RegionAS923Verify
 *fill*         0x0000000008033462        0x2 
 .text.RegionAS923ChanMaskSet
                0x0000000008033464       0x3c out/external/libexternal_fuota_stack.a(RegionAS923.o)
                0x0000000008033464                RegionAS923ChanMaskSet
 .text.RegionAS923ComputeRxWindowParameters
                0x00000000080334a0       0x64 out/external/libexternal_fuota_stack.a(RegionAS923.o)
                0x00000000080334a0                RegionAS923ComputeRxWindowParameters
 .text.RegionAS923RxConfig
                0x0000000008033504       0xe8 out/external/libexternal_fuota_stack.a(RegionAS923.o)
                0x0000000008033504                RegionAS923RxConfig
 .text.RegionAS923TxConfig
                0x00000000080335ec      0x108 out/external/libexternal_fuota_stack.a(RegionAS923.o)
                0x00000000080335ec                RegionAS923TxConfig
 .text.RegionAS923LinkAdrReq
                0x00000000080336f4      0x160 out/external/libexternal_fuota_stack.a(RegionAS923.o)
                0x00000000080336f4                RegionAS923LinkAdrReq
 .text.RegionAS923RxParamSetupReq
                0x0000000008033854       0x3c out/external/libexternal_fuota_stack.a(RegionAS923.o)
                0x0000000008033854                RegionAS923RxParamSetupReq
 .text.RegionAS923TxParamSetupReq
                0x0000000008033890        0x4 out/external/libexternal_fuota_stack.a(RegionAS923.o)
                0x0000000008033890                RegionAS923TxParamSetupReq
 .text.RegionAS923DlChannelReq
                0x0000000008033894       0x48 out/external/libexternal_fuota_stack.a(RegionAS923.o)
                0x0000000008033894                RegionAS923DlChannelReq
 .text.RegionAS923AlternateDr
                0x00000000080338dc        0x4 out/external/libexternal_fuota_stack.a(RegionAS923.o)
                0x00000000080338dc                RegionAS923AlternateDr
 .text.RegionAS923NextChannel
                0x00000000080338e0      0x170 out/external/libexternal_fuota_stack.a(RegionAS923.o)
                0x00000000080338e0                RegionAS923NextChannel
 .text.RegionAS923ChannelAdd
                0x0000000008033a50       0xac out/external/libexternal_fuota_stack.a(RegionAS923.o)
                0x0000000008033a50                RegionAS923ChannelAdd
 .text.RegionAS923ChannelsRemove
                0x0000000008033afc       0x30 out/external/libexternal_fuota_stack.a(RegionAS923.o)
                0x0000000008033afc                RegionAS923ChannelsRemove
 .text.RegionAS923ApplyCFList
                0x0000000008033b2c       0x7c out/external/libexternal_fuota_stack.a(RegionAS923.o)
                0x0000000008033b2c                RegionAS923ApplyCFList
 .text.RegionAS923NewChannelReq
                0x0000000008033ba8       0x40 out/external/libexternal_fuota_stack.a(RegionAS923.o)
                0x0000000008033ba8                RegionAS923NewChannelReq
 .text.RegionAS923ApplyDrOffset
                0x0000000008033be8       0x1c out/external/libexternal_fuota_stack.a(RegionAS923.o)
                0x0000000008033be8                RegionAS923ApplyDrOffset
 .text.RegionAS923RxBeaconSetup
                0x0000000008033c04       0x38 out/external/libexternal_fuota_stack.a(RegionAS923.o)
                0x0000000008033c04                RegionAS923RxBeaconSetup
 .text.GetTimeOnAir
                0x0000000008033c3c       0x3c out/external/libexternal_fuota_stack.a(RegionAU915.o)
 .text.VerifyRfFreq
                0x0000000008033c78       0x40 out/external/libexternal_fuota_stack.a(RegionAU915.o)
 .text.RegionAU915GetPhyParam
                0x0000000008033cb8      0x160 out/external/libexternal_fuota_stack.a(RegionAU915.o)
                0x0000000008033cb8                RegionAU915GetPhyParam
 .text.RegionAU915SetBandTxDone
                0x0000000008033e18       0x38 out/external/libexternal_fuota_stack.a(RegionAU915.o)
                0x0000000008033e18                RegionAU915SetBandTxDone
 .text.RegionAU915InitDefaults
                0x0000000008033e50      0x118 out/external/libexternal_fuota_stack.a(RegionAU915.o)
                0x0000000008033e50                RegionAU915InitDefaults
 .text.RegionAU915Verify
                0x0000000008033f68       0x50 out/external/libexternal_fuota_stack.a(RegionAU915.o)
                0x0000000008033f68                RegionAU915Verify
 .text.RegionAU915ApplyCFList
                0x0000000008033fb8       0x80 out/external/libexternal_fuota_stack.a(RegionAU915.o)
                0x0000000008033fb8                RegionAU915ApplyCFList
 .text.RegionAU915ChanMaskSet
                0x0000000008034038       0x6c out/external/libexternal_fuota_stack.a(RegionAU915.o)
                0x0000000008034038                RegionAU915ChanMaskSet
 .text.RegionAU915ComputeRxWindowParameters
                0x00000000080340a4       0x58 out/external/libexternal_fuota_stack.a(RegionAU915.o)
                0x00000000080340a4                RegionAU915ComputeRxWindowParameters
 .text.RegionAU915RxConfig
                0x00000000080340fc       0x98 out/external/libexternal_fuota_stack.a(RegionAU915.o)
                0x00000000080340fc                RegionAU915RxConfig
 .text.RegionAU915TxConfig
                0x0000000008034194       0xcc out/external/libexternal_fuota_stack.a(RegionAU915.o)
                0x0000000008034194                RegionAU915TxConfig
 .text.RegionAU915LinkAdrReq
                0x0000000008034260      0x23c out/external/libexternal_fuota_stack.a(RegionAU915.o)
                0x0000000008034260                RegionAU915LinkAdrReq
 .text.RegionAU915RxParamSetupReq
                0x000000000803449c       0x4c out/external/libexternal_fuota_stack.a(RegionAU915.o)
                0x000000000803449c                RegionAU915RxParamSetupReq
 .text.RegionAU915NewChannelReq
                0x00000000080344e8        0x6 out/external/libexternal_fuota_stack.a(RegionAU915.o)
                0x00000000080344e8                RegionAU915NewChannelReq
 .text.RegionAU915TxParamSetupReq
                0x00000000080344ee        0x4 out/external/libexternal_fuota_stack.a(RegionAU915.o)
                0x00000000080344ee                RegionAU915TxParamSetupReq
 .text.RegionAU915DlChannelReq
                0x00000000080344f2        0x6 out/external/libexternal_fuota_stack.a(RegionAU915.o)
                0x00000000080344f2                RegionAU915DlChannelReq
 .text.RegionAU915AlternateDr
                0x00000000080344f8       0x44 out/external/libexternal_fuota_stack.a(RegionAU915.o)
                0x00000000080344f8                RegionAU915AlternateDr
 .text.RegionAU915NextChannel
                0x000000000803453c      0x13c out/external/libexternal_fuota_stack.a(RegionAU915.o)
                0x000000000803453c                RegionAU915NextChannel
 .text.RegionAU915ChannelAdd
                0x0000000008034678        0x4 out/external/libexternal_fuota_stack.a(RegionAU915.o)
                0x0000000008034678                RegionAU915ChannelAdd
 .text.RegionAU915ChannelsRemove
                0x000000000803467c        0x4 out/external/libexternal_fuota_stack.a(RegionAU915.o)
                0x000000000803467c                RegionAU915ChannelsRemove
 .text.RegionAU915ApplyDrOffset
                0x0000000008034680       0x20 out/external/libexternal_fuota_stack.a(RegionAU915.o)
                0x0000000008034680                RegionAU915ApplyDrOffset
 .text.RegionAU915RxBeaconSetup
                0x00000000080346a0       0x38 out/external/libexternal_fuota_stack.a(RegionAU915.o)
                0x00000000080346a0                RegionAU915RxBeaconSetup
 .text.AU915_SingleChannelRegisterCallback
                0x00000000080346d8       0x10 out/external/libexternal_fuota_stack.a(RegionAU915.o)
                0x00000000080346d8                AU915_SingleChannelRegisterCallback
 .text.RegionBaseUSComputeNext125kHzJoinChannel
                0x00000000080346e8       0x88 out/external/libexternal_fuota_stack.a(RegionBaseUS.o)
                0x00000000080346e8                RegionBaseUSComputeNext125kHzJoinChannel
 .text.RegionBaseUSVerifyFrequencyGroup
                0x0000000008034770       0x1e out/external/libexternal_fuota_stack.a(RegionBaseUS.o)
                0x0000000008034770                RegionBaseUSVerifyFrequencyGroup
 .text.RegionBaseUSCalcDownlinkFrequency
                0x000000000803478e        0x6 out/external/libexternal_fuota_stack.a(RegionBaseUS.o)
                0x000000000803478e                RegionBaseUSCalcDownlinkFrequency
 .text.RegionIsActive
                0x0000000008034794        0xa out/external/libexternal_fuota_stack.a(Region.o)
                0x0000000008034794                RegionIsActive
 .text.RegionGetPhyParam
                0x000000000803479e       0x62 out/external/libexternal_fuota_stack.a(Region.o)
                0x000000000803479e                RegionGetPhyParam
 .text.RegionSetBandTxDone
                0x0000000008034800       0x46 out/external/libexternal_fuota_stack.a(Region.o)
                0x0000000008034800                RegionSetBandTxDone
 .text.RegionInitDefaults
                0x0000000008034846       0x46 out/external/libexternal_fuota_stack.a(Region.o)
                0x0000000008034846                RegionInitDefaults
 .text.RegionVerify
                0x000000000803488c       0x4a out/external/libexternal_fuota_stack.a(Region.o)
                0x000000000803488c                RegionVerify
 .text.RegionApplyCFList
                0x00000000080348d6       0x46 out/external/libexternal_fuota_stack.a(Region.o)
                0x00000000080348d6                RegionApplyCFList
 .text.RegionChanMaskSet
                0x000000000803491c       0x48 out/external/libexternal_fuota_stack.a(Region.o)
                0x000000000803491c                RegionChanMaskSet
 .text.RegionComputeRxWindowParameters
                0x0000000008034964       0x66 out/external/libexternal_fuota_stack.a(Region.o)
                0x0000000008034964                RegionComputeRxWindowParameters
 .text.RegionRxConfig
                0x00000000080349ca       0x4a out/external/libexternal_fuota_stack.a(Region.o)
                0x00000000080349ca                RegionRxConfig
 .text.RegionTxConfig
                0x0000000008034a14       0x66 out/external/libexternal_fuota_stack.a(Region.o)
                0x0000000008034a14                RegionTxConfig
 .text.RegionLinkAdrReq
                0x0000000008034a7a       0x80 out/external/libexternal_fuota_stack.a(Region.o)
                0x0000000008034a7a                RegionLinkAdrReq
 .text.RegionRxParamSetupReq
                0x0000000008034afa       0x48 out/external/libexternal_fuota_stack.a(Region.o)
                0x0000000008034afa                RegionRxParamSetupReq
 .text.RegionNewChannelReq
                0x0000000008034b42       0x76 out/external/libexternal_fuota_stack.a(Region.o)
                0x0000000008034b42                RegionNewChannelReq
 .text.RegionTxParamSetupReq
                0x0000000008034bb8       0x48 out/external/libexternal_fuota_stack.a(Region.o)
                0x0000000008034bb8                RegionTxParamSetupReq
 .text.RegionDlChannelReq
                0x0000000008034c00       0x76 out/external/libexternal_fuota_stack.a(Region.o)
                0x0000000008034c00                RegionDlChannelReq
 .text.RegionAlternateDr
                0x0000000008034c76       0x4a out/external/libexternal_fuota_stack.a(Region.o)
                0x0000000008034c76                RegionAlternateDr
 .text.RegionNextChannel
                0x0000000008034cc0       0x68 out/external/libexternal_fuota_stack.a(Region.o)
                0x0000000008034cc0                RegionNextChannel
 .text.RegionChannelAdd
                0x0000000008034d28       0x48 out/external/libexternal_fuota_stack.a(Region.o)
                0x0000000008034d28                RegionChannelAdd
 .text.RegionChannelsRemove
                0x0000000008034d70       0x48 out/external/libexternal_fuota_stack.a(Region.o)
                0x0000000008034d70                RegionChannelsRemove
 .text.RegionApplyDrOffset
                0x0000000008034db8       0x66 out/external/libexternal_fuota_stack.a(Region.o)
                0x0000000008034db8                RegionApplyDrOffset
 .text.RegionRxBeaconSetup
                0x0000000008034e1e       0x48 out/external/libexternal_fuota_stack.a(Region.o)
                0x0000000008034e1e                RegionRxBeaconSetup
 *fill*         0x0000000008034e66        0x2 
 .text.RegionGetVersion
                0x0000000008034e68        0x8 out/external/libexternal_fuota_stack.a(Region.o)
                0x0000000008034e68                RegionGetVersion
 .text.RegionCN470A20GetBeaconChannelOffset
                0x0000000008034e70        0x8 out/external/libexternal_fuota_stack.a(RegionCN470A20.o)
                0x0000000008034e70                RegionCN470A20GetBeaconChannelOffset
 .text.RegionCN470A20LinkAdrChMaskUpdate
                0x0000000008034e78       0x68 out/external/libexternal_fuota_stack.a(RegionCN470A20.o)
                0x0000000008034e78                RegionCN470A20LinkAdrChMaskUpdate
 .text.RegionCN470A20VerifyRfFreq
                0x0000000008034ee0       0x18 out/external/libexternal_fuota_stack.a(RegionCN470A20.o)
                0x0000000008034ee0                RegionCN470A20VerifyRfFreq
 .text.RegionCN470A20InitializeChannels
                0x0000000008034ef8       0x58 out/external/libexternal_fuota_stack.a(RegionCN470A20.o)
                0x0000000008034ef8                RegionCN470A20InitializeChannels
 .text.RegionCN470A20InitializeChannelsMask
                0x0000000008034f50       0x14 out/external/libexternal_fuota_stack.a(RegionCN470A20.o)
                0x0000000008034f50                RegionCN470A20InitializeChannelsMask
 .text.RegionCN470A20GetRx1Frequency
                0x0000000008034f64       0x28 out/external/libexternal_fuota_stack.a(RegionCN470A20.o)
                0x0000000008034f64                RegionCN470A20GetRx1Frequency
 .text.RegionCN470A20GetDownlinkFrequency
                0x0000000008034f8c        0x4 out/external/libexternal_fuota_stack.a(RegionCN470A20.o)
                0x0000000008034f8c                RegionCN470A20GetDownlinkFrequency
 .text.RegionCN470A20GetRx2Frequency
                0x0000000008034f90       0x34 out/external/libexternal_fuota_stack.a(RegionCN470A20.o)
                0x0000000008034f90                RegionCN470A20GetRx2Frequency
 .text.RegionCN470A26GetDownlinkFrequency
                0x0000000008034fc4        0x8 out/external/libexternal_fuota_stack.a(RegionCN470A26.o)
                0x0000000008034fc4                RegionCN470A26GetDownlinkFrequency
 .text.RegionCN470A26GetBeaconChannelOffset
                0x0000000008034fcc        0x4 out/external/libexternal_fuota_stack.a(RegionCN470A26.o)
                0x0000000008034fcc                RegionCN470A26GetBeaconChannelOffset
 .text.RegionCN470A26LinkAdrChMaskUpdate
                0x0000000008034fd0       0x68 out/external/libexternal_fuota_stack.a(RegionCN470A26.o)
                0x0000000008034fd0                RegionCN470A26LinkAdrChMaskUpdate
 .text.RegionCN470A26VerifyRfFreq
                0x0000000008035038       0x18 out/external/libexternal_fuota_stack.a(RegionCN470A26.o)
                0x0000000008035038                RegionCN470A26VerifyRfFreq
 .text.RegionCN470A26InitializeChannels
                0x0000000008035050       0x2c out/external/libexternal_fuota_stack.a(RegionCN470A26.o)
                0x0000000008035050                RegionCN470A26InitializeChannels
 .text.RegionCN470A26InitializeChannelsMask
                0x000000000803507c       0x14 out/external/libexternal_fuota_stack.a(RegionCN470A26.o)
                0x000000000803507c                RegionCN470A26InitializeChannelsMask
 .text.RegionCN470A26GetRx1Frequency
                0x0000000008035090       0x20 out/external/libexternal_fuota_stack.a(RegionCN470A26.o)
                0x0000000008035090                RegionCN470A26GetRx1Frequency
 .text.RegionCN470A26GetRx2Frequency
                0x00000000080350b0        0x8 out/external/libexternal_fuota_stack.a(RegionCN470A26.o)
                0x00000000080350b0                RegionCN470A26GetRx2Frequency
 .text.RegionCN470B20GetBeaconChannelOffset
                0x00000000080350b8        0x8 out/external/libexternal_fuota_stack.a(RegionCN470B20.o)
                0x00000000080350b8                RegionCN470B20GetBeaconChannelOffset
 .text.RegionCN470B20LinkAdrChMaskUpdate
                0x00000000080350c0        0x4 out/external/libexternal_fuota_stack.a(RegionCN470B20.o)
                0x00000000080350c0                RegionCN470B20LinkAdrChMaskUpdate
 .text.RegionCN470B20VerifyRfFreq
                0x00000000080350c4       0x38 out/external/libexternal_fuota_stack.a(RegionCN470B20.o)
                0x00000000080350c4                RegionCN470B20VerifyRfFreq
 .text.RegionCN470B20InitializeChannels
                0x00000000080350fc       0x58 out/external/libexternal_fuota_stack.a(RegionCN470B20.o)
                0x00000000080350fc                RegionCN470B20InitializeChannels
 .text.RegionCN470B20InitializeChannelsMask
                0x0000000008035154        0x4 out/external/libexternal_fuota_stack.a(RegionCN470B20.o)
                0x0000000008035154                RegionCN470B20InitializeChannelsMask
 .text.RegionCN470B20GetRx1Frequency
                0x0000000008035158       0x28 out/external/libexternal_fuota_stack.a(RegionCN470B20.o)
                0x0000000008035158                RegionCN470B20GetRx1Frequency
 .text.RegionCN470B20GetDownlinkFrequency
                0x0000000008035180       0x1c out/external/libexternal_fuota_stack.a(RegionCN470B20.o)
                0x0000000008035180                RegionCN470B20GetDownlinkFrequency
 .text.RegionCN470B20GetRx2Frequency
                0x000000000803519c       0x24 out/external/libexternal_fuota_stack.a(RegionCN470B20.o)
                0x000000000803519c                RegionCN470B20GetRx2Frequency
 .text.RegionCN470B26GetDownlinkFrequency
                0x00000000080351c0        0x8 out/external/libexternal_fuota_stack.a(RegionCN470B26.o)
                0x00000000080351c0                RegionCN470B26GetDownlinkFrequency
 .text.RegionCN470B26GetBeaconChannelOffset
                0x00000000080351c8        0x4 out/external/libexternal_fuota_stack.a(RegionCN470B26.o)
                0x00000000080351c8                RegionCN470B26GetBeaconChannelOffset
 .text.RegionCN470B26LinkAdrChMaskUpdate
                0x00000000080351cc        0x4 out/external/libexternal_fuota_stack.a(RegionCN470B26.o)
                0x00000000080351cc                RegionCN470B26LinkAdrChMaskUpdate
 .text.RegionCN470B26VerifyRfFreq
                0x00000000080351d0       0x18 out/external/libexternal_fuota_stack.a(RegionCN470B26.o)
                0x00000000080351d0                RegionCN470B26VerifyRfFreq
 .text.RegionCN470B26InitializeChannels
                0x00000000080351e8       0x2c out/external/libexternal_fuota_stack.a(RegionCN470B26.o)
                0x00000000080351e8                RegionCN470B26InitializeChannels
 .text.RegionCN470B26InitializeChannelsMask
                0x0000000008035214        0x4 out/external/libexternal_fuota_stack.a(RegionCN470B26.o)
                0x0000000008035214                RegionCN470B26InitializeChannelsMask
 .text.RegionCN470B26GetRx1Frequency
                0x0000000008035218       0x20 out/external/libexternal_fuota_stack.a(RegionCN470B26.o)
                0x0000000008035218                RegionCN470B26GetRx1Frequency
 .text.RegionCN470B26GetRx2Frequency
                0x0000000008035238        0x8 out/external/libexternal_fuota_stack.a(RegionCN470B26.o)
                0x0000000008035238                RegionCN470B26GetRx2Frequency
 .text.GetTimeOnAir
                0x0000000008035240       0x3c out/external/libexternal_fuota_stack.a(RegionCN470.o)
 .text.VerifyRfFreq
                0x000000000803527c       0x24 out/external/libexternal_fuota_stack.a(RegionCN470.o)
 .text.RegionCN470GetPhyParam
                0x00000000080352a0      0x1fc out/external/libexternal_fuota_stack.a(RegionCN470.o)
                0x00000000080352a0                RegionCN470GetPhyParam
 .text.RegionCN470SetBandTxDone
                0x000000000803549c       0x38 out/external/libexternal_fuota_stack.a(RegionCN470.o)
                0x000000000803549c                RegionCN470SetBandTxDone
 .text.RegionCN470InitDefaults
                0x00000000080354d4      0x114 out/external/libexternal_fuota_stack.a(RegionCN470.o)
                0x00000000080354d4                RegionCN470InitDefaults
 .text.RegionCN470Verify
                0x00000000080355e8       0x3a out/external/libexternal_fuota_stack.a(RegionCN470.o)
                0x00000000080355e8                RegionCN470Verify
 *fill*         0x0000000008035622        0x2 
 .text.RegionCN470ApplyCFList
                0x0000000008035624      0x1bc out/external/libexternal_fuota_stack.a(RegionCN470.o)
                0x0000000008035624                RegionCN470ApplyCFList
 .text.RegionCN470ChanMaskSet
                0x00000000080357e0       0x60 out/external/libexternal_fuota_stack.a(RegionCN470.o)
                0x00000000080357e0                RegionCN470ChanMaskSet
 .text.RegionCN470ComputeRxWindowParameters
                0x0000000008035840       0x58 out/external/libexternal_fuota_stack.a(RegionCN470.o)
                0x0000000008035840                RegionCN470ComputeRxWindowParameters
 .text.RegionCN470RxConfig
                0x0000000008035898       0xc4 out/external/libexternal_fuota_stack.a(RegionCN470.o)
                0x0000000008035898                RegionCN470RxConfig
 .text.RegionCN470TxConfig
                0x000000000803595c       0xfc out/external/libexternal_fuota_stack.a(RegionCN470.o)
                0x000000000803595c                RegionCN470TxConfig
 .text.RegionCN470LinkAdrReq
                0x0000000008035a58      0x180 out/external/libexternal_fuota_stack.a(RegionCN470.o)
                0x0000000008035a58                RegionCN470LinkAdrReq
 .text.RegionCN470RxParamSetupReq
                0x0000000008035bd8       0x3c out/external/libexternal_fuota_stack.a(RegionCN470.o)
                0x0000000008035bd8                RegionCN470RxParamSetupReq
 .text.RegionCN470NewChannelReq
                0x0000000008035c14        0x6 out/external/libexternal_fuota_stack.a(RegionCN470.o)
                0x0000000008035c14                RegionCN470NewChannelReq
 .text.RegionCN470TxParamSetupReq
                0x0000000008035c1a        0x6 out/external/libexternal_fuota_stack.a(RegionCN470.o)
                0x0000000008035c1a                RegionCN470TxParamSetupReq
 .text.RegionCN470DlChannelReq
                0x0000000008035c20        0x6 out/external/libexternal_fuota_stack.a(RegionCN470.o)
                0x0000000008035c20                RegionCN470DlChannelReq
 .text.RegionCN470AlternateDr
                0x0000000008035c26        0x2 out/external/libexternal_fuota_stack.a(RegionCN470.o)
                0x0000000008035c26                RegionCN470AlternateDr
 .text.RegionCN470NextChannel
                0x0000000008035c28      0x120 out/external/libexternal_fuota_stack.a(RegionCN470.o)
                0x0000000008035c28                RegionCN470NextChannel
 .text.RegionCN470ChannelAdd
                0x0000000008035d48        0x4 out/external/libexternal_fuota_stack.a(RegionCN470.o)
                0x0000000008035d48                RegionCN470ChannelAdd
 .text.RegionCN470ChannelsRemove
                0x0000000008035d4c        0x4 out/external/libexternal_fuota_stack.a(RegionCN470.o)
                0x0000000008035d4c                RegionCN470ChannelsRemove
 .text.RegionCN470ApplyDrOffset
                0x0000000008035d50       0x18 out/external/libexternal_fuota_stack.a(RegionCN470.o)
                0x0000000008035d50                RegionCN470ApplyDrOffset
 .text.RegionCN470RxBeaconSetup
                0x0000000008035d68       0x38 out/external/libexternal_fuota_stack.a(RegionCN470.o)
                0x0000000008035d68                RegionCN470RxBeaconSetup
 .text.VerifyRfFreq
                0x0000000008035da0       0x28 out/external/libexternal_fuota_stack.a(RegionCN779.o)
 .text.GetTimeOnAir
                0x0000000008035dc8       0x54 out/external/libexternal_fuota_stack.a(RegionCN779.o)
 .text.RegionCN779GetPhyParam
                0x0000000008035e1c      0x124 out/external/libexternal_fuota_stack.a(RegionCN779.o)
                0x0000000008035e1c                RegionCN779GetPhyParam
 .text.RegionCN779SetBandTxDone
                0x0000000008035f40       0x38 out/external/libexternal_fuota_stack.a(RegionCN779.o)
                0x0000000008035f40                RegionCN779SetBandTxDone
 .text.RegionCN779InitDefaults
                0x0000000008035f78       0xb8 out/external/libexternal_fuota_stack.a(RegionCN779.o)
                0x0000000008035f78                RegionCN779InitDefaults
 .text.RegionCN779Verify
                0x0000000008036030       0x44 out/external/libexternal_fuota_stack.a(RegionCN779.o)
                0x0000000008036030                RegionCN779Verify
 .text.RegionCN779ChanMaskSet
                0x0000000008036074       0x3c out/external/libexternal_fuota_stack.a(RegionCN779.o)
                0x0000000008036074                RegionCN779ChanMaskSet
 .text.RegionCN779ComputeRxWindowParameters
                0x00000000080360b0       0x64 out/external/libexternal_fuota_stack.a(RegionCN779.o)
                0x00000000080360b0                RegionCN779ComputeRxWindowParameters
 .text.RegionCN779RxConfig
                0x0000000008036114       0xe8 out/external/libexternal_fuota_stack.a(RegionCN779.o)
                0x0000000008036114                RegionCN779RxConfig
 .text.RegionCN779TxConfig
                0x00000000080361fc      0x108 out/external/libexternal_fuota_stack.a(RegionCN779.o)
                0x00000000080361fc                RegionCN779TxConfig
 .text.RegionCN779LinkAdrReq
                0x0000000008036304      0x150 out/external/libexternal_fuota_stack.a(RegionCN779.o)
                0x0000000008036304                RegionCN779LinkAdrReq
 .text.RegionCN779RxParamSetupReq
                0x0000000008036454       0x3c out/external/libexternal_fuota_stack.a(RegionCN779.o)
                0x0000000008036454                RegionCN779RxParamSetupReq
 .text.RegionCN779TxParamSetupReq
                0x0000000008036490        0x6 out/external/libexternal_fuota_stack.a(RegionCN779.o)
                0x0000000008036490                RegionCN779TxParamSetupReq
 *fill*         0x0000000008036496        0x2 
 .text.RegionCN779DlChannelReq
                0x0000000008036498       0x48 out/external/libexternal_fuota_stack.a(RegionCN779.o)
                0x0000000008036498                RegionCN779DlChannelReq
 .text.RegionCN779AlternateDr
                0x00000000080364e0        0x2 out/external/libexternal_fuota_stack.a(RegionCN779.o)
                0x00000000080364e0                RegionCN779AlternateDr
 *fill*         0x00000000080364e2        0x2 
 .text.RegionCN779NextChannel
                0x00000000080364e4       0xf4 out/external/libexternal_fuota_stack.a(RegionCN779.o)
                0x00000000080364e4                RegionCN779NextChannel
 .text.RegionCN779ChannelAdd
                0x00000000080365d8       0xac out/external/libexternal_fuota_stack.a(RegionCN779.o)
                0x00000000080365d8                RegionCN779ChannelAdd
 .text.RegionCN779ChannelsRemove
                0x0000000008036684       0x30 out/external/libexternal_fuota_stack.a(RegionCN779.o)
                0x0000000008036684                RegionCN779ChannelsRemove
 .text.RegionCN779ApplyCFList
                0x00000000080366b4       0x7c out/external/libexternal_fuota_stack.a(RegionCN779.o)
                0x00000000080366b4                RegionCN779ApplyCFList
 .text.RegionCN779NewChannelReq
                0x0000000008036730       0x40 out/external/libexternal_fuota_stack.a(RegionCN779.o)
                0x0000000008036730                RegionCN779NewChannelReq
 .text.RegionCN779ApplyDrOffset
                0x0000000008036770        0xc out/external/libexternal_fuota_stack.a(RegionCN779.o)
                0x0000000008036770                RegionCN779ApplyDrOffset
 .text.RegionCN779RxBeaconSetup
                0x000000000803677c       0x38 out/external/libexternal_fuota_stack.a(RegionCN779.o)
                0x000000000803677c                RegionCN779RxBeaconSetup
 .text.RegionCommonChanVerifyDr
                0x00000000080367b4       0x64 out/external/libexternal_fuota_stack.a(RegionCommon.o)
                0x00000000080367b4                RegionCommonChanVerifyDr
 .text.RegionCommonValueInRange
                0x0000000008036818       0x12 out/external/libexternal_fuota_stack.a(RegionCommon.o)
                0x0000000008036818                RegionCommonValueInRange
 .text.RegionCommonChanDisable
                0x000000000803682a       0x32 out/external/libexternal_fuota_stack.a(RegionCommon.o)
                0x000000000803682a                RegionCommonChanDisable
 .text.RegionCommonCountChannels
                0x000000000803685c       0x3c out/external/libexternal_fuota_stack.a(RegionCommon.o)
                0x000000000803685c                RegionCommonCountChannels
 .text.RegionCommonChanMaskCopy
                0x0000000008036898       0x1e out/external/libexternal_fuota_stack.a(RegionCommon.o)
                0x0000000008036898                RegionCommonChanMaskCopy
 .text.RegionCommonSetBandTxDone
                0x00000000080368b6       0x26 out/external/libexternal_fuota_stack.a(RegionCommon.o)
                0x00000000080368b6                RegionCommonSetBandTxDone
 .text.RegionCommonUpdateBandTimeOff
                0x00000000080368dc       0xe4 out/external/libexternal_fuota_stack.a(RegionCommon.o)
                0x00000000080368dc                RegionCommonUpdateBandTimeOff
 .text.RegionCommonParseLinkAdrReq
                0x00000000080369c0       0x34 out/external/libexternal_fuota_stack.a(RegionCommon.o)
                0x00000000080369c0                RegionCommonParseLinkAdrReq
 .text.RegionCommonLinkAdrReqVerifyParams
                0x00000000080369f4       0x96 out/external/libexternal_fuota_stack.a(RegionCommon.o)
                0x00000000080369f4                RegionCommonLinkAdrReqVerifyParams
 *fill*         0x0000000008036a8a        0x2 
 .text.RegionCommonComputeSymbolTimeLoRa
                0x0000000008036a8c       0x10 out/external/libexternal_fuota_stack.a(RegionCommon.o)
                0x0000000008036a8c                RegionCommonComputeSymbolTimeLoRa
 .text.RegionCommonComputeSymbolTimeFsk
                0x0000000008036a9c        0xa out/external/libexternal_fuota_stack.a(RegionCommon.o)
                0x0000000008036a9c                RegionCommonComputeSymbolTimeFsk
 .text.RegionCommonComputeRxWindowParameters
                0x0000000008036aa6       0x52 out/external/libexternal_fuota_stack.a(RegionCommon.o)
                0x0000000008036aa6                RegionCommonComputeRxWindowParameters
 .text.RegionCommonComputeTxPower
                0x0000000008036af8       0x2a out/external/libexternal_fuota_stack.a(RegionCommon.o)
                0x0000000008036af8                RegionCommonComputeTxPower
 *fill*         0x0000000008036b22        0x2 
 .text.RegionCommonRxBeaconSetup
                0x0000000008036b24       0x5c out/external/libexternal_fuota_stack.a(RegionCommon.o)
                0x0000000008036b24                RegionCommonRxBeaconSetup
 .text.RegionCommonCountNbOfEnabledChannels
                0x0000000008036b80       0xb4 out/external/libexternal_fuota_stack.a(RegionCommon.o)
                0x0000000008036b80                RegionCommonCountNbOfEnabledChannels
 .text.RegionCommonIdentifyChannels
                0x0000000008036c34       0x88 out/external/libexternal_fuota_stack.a(RegionCommon.o)
                0x0000000008036c34                RegionCommonIdentifyChannels
 .text.RegionCommonGetNextLowerTxDr
                0x0000000008036cbc       0x36 out/external/libexternal_fuota_stack.a(RegionCommon.o)
                0x0000000008036cbc                RegionCommonGetNextLowerTxDr
 .text.RegionCommonLimitTxPower
                0x0000000008036cf2        0x8 out/external/libexternal_fuota_stack.a(RegionCommon.o)
                0x0000000008036cf2                RegionCommonLimitTxPower
 *fill*         0x0000000008036cfa        0x2 
 .text.RegionCommonGetBandwidth
                0x0000000008036cfc       0x24 out/external/libexternal_fuota_stack.a(RegionCommon.o)
                0x0000000008036cfc                RegionCommonGetBandwidth
 .text.VerifyRfFreq
                0x0000000008036d20       0x28 out/external/libexternal_fuota_stack.a(RegionEU433.o)
 .text.GetTimeOnAir
                0x0000000008036d48       0x54 out/external/libexternal_fuota_stack.a(RegionEU433.o)
 .text.RegionEU433GetPhyParam
                0x0000000008036d9c      0x11c out/external/libexternal_fuota_stack.a(RegionEU433.o)
                0x0000000008036d9c                RegionEU433GetPhyParam
 .text.RegionEU433SetBandTxDone
                0x0000000008036eb8       0x38 out/external/libexternal_fuota_stack.a(RegionEU433.o)
                0x0000000008036eb8                RegionEU433SetBandTxDone
 .text.RegionEU433InitDefaults
                0x0000000008036ef0       0xb8 out/external/libexternal_fuota_stack.a(RegionEU433.o)
                0x0000000008036ef0                RegionEU433InitDefaults
 .text.RegionEU433Verify
                0x0000000008036fa8       0x44 out/external/libexternal_fuota_stack.a(RegionEU433.o)
                0x0000000008036fa8                RegionEU433Verify
 .text.RegionEU433ChanMaskSet
                0x0000000008036fec       0x3c out/external/libexternal_fuota_stack.a(RegionEU433.o)
                0x0000000008036fec                RegionEU433ChanMaskSet
 .text.RegionEU433ComputeRxWindowParameters
                0x0000000008037028       0x64 out/external/libexternal_fuota_stack.a(RegionEU433.o)
                0x0000000008037028                RegionEU433ComputeRxWindowParameters
 .text.RegionEU433RxConfig
                0x000000000803708c       0xe8 out/external/libexternal_fuota_stack.a(RegionEU433.o)
                0x000000000803708c                RegionEU433RxConfig
 .text.RegionEU433TxConfig
                0x0000000008037174      0x108 out/external/libexternal_fuota_stack.a(RegionEU433.o)
                0x0000000008037174                RegionEU433TxConfig
 .text.RegionEU433LinkAdrReq
                0x000000000803727c      0x150 out/external/libexternal_fuota_stack.a(RegionEU433.o)
                0x000000000803727c                RegionEU433LinkAdrReq
 .text.RegionEU433RxParamSetupReq
                0x00000000080373cc       0x3c out/external/libexternal_fuota_stack.a(RegionEU433.o)
                0x00000000080373cc                RegionEU433RxParamSetupReq
 .text.RegionEU433TxParamSetupReq
                0x0000000008037408        0x6 out/external/libexternal_fuota_stack.a(RegionEU433.o)
                0x0000000008037408                RegionEU433TxParamSetupReq
 *fill*         0x000000000803740e        0x2 
 .text.RegionEU433DlChannelReq
                0x0000000008037410       0x48 out/external/libexternal_fuota_stack.a(RegionEU433.o)
                0x0000000008037410                RegionEU433DlChannelReq
 .text.RegionEU433AlternateDr
                0x0000000008037458        0x2 out/external/libexternal_fuota_stack.a(RegionEU433.o)
                0x0000000008037458                RegionEU433AlternateDr
 *fill*         0x000000000803745a        0x2 
 .text.RegionEU433NextChannel
                0x000000000803745c       0xf4 out/external/libexternal_fuota_stack.a(RegionEU433.o)
                0x000000000803745c                RegionEU433NextChannel
 .text.RegionEU433ChannelAdd
                0x0000000008037550       0xac out/external/libexternal_fuota_stack.a(RegionEU433.o)
                0x0000000008037550                RegionEU433ChannelAdd
 .text.RegionEU433ChannelsRemove
                0x00000000080375fc       0x30 out/external/libexternal_fuota_stack.a(RegionEU433.o)
                0x00000000080375fc                RegionEU433ChannelsRemove
 .text.RegionEU433ApplyCFList
                0x000000000803762c       0x7c out/external/libexternal_fuota_stack.a(RegionEU433.o)
                0x000000000803762c                RegionEU433ApplyCFList
 .text.RegionEU433NewChannelReq
                0x00000000080376a8       0x40 out/external/libexternal_fuota_stack.a(RegionEU433.o)
                0x00000000080376a8                RegionEU433NewChannelReq
 .text.RegionEU433ApplyDrOffset
                0x00000000080376e8        0xc out/external/libexternal_fuota_stack.a(RegionEU433.o)
                0x00000000080376e8                RegionEU433ApplyDrOffset
 .text.RegionEU433RxBeaconSetup
                0x00000000080376f4       0x38 out/external/libexternal_fuota_stack.a(RegionEU433.o)
                0x00000000080376f4                RegionEU433RxBeaconSetup
 .text.GetTimeOnAir
                0x000000000803772c       0x54 out/external/libexternal_fuota_stack.a(RegionEU868.o)
 .text.VerifyRfFreq
                0x0000000008037780       0x9c out/external/libexternal_fuota_stack.a(RegionEU868.o)
 .text.RegionEU868GetPhyParam
                0x000000000803781c      0x11c out/external/libexternal_fuota_stack.a(RegionEU868.o)
                0x000000000803781c                RegionEU868GetPhyParam
 .text.RegionEU868SetBandTxDone
                0x0000000008037938       0x38 out/external/libexternal_fuota_stack.a(RegionEU868.o)
                0x0000000008037938                RegionEU868SetBandTxDone
 .text.RegionEU868InitDefaults
                0x0000000008037970       0xcc out/external/libexternal_fuota_stack.a(RegionEU868.o)
                0x0000000008037970                RegionEU868InitDefaults
 .text.RegionEU868Verify
                0x0000000008037a3c       0x50 out/external/libexternal_fuota_stack.a(RegionEU868.o)
                0x0000000008037a3c                RegionEU868Verify
 .text.RegionEU868ChanMaskSet
                0x0000000008037a8c       0x3c out/external/libexternal_fuota_stack.a(RegionEU868.o)
                0x0000000008037a8c                RegionEU868ChanMaskSet
 .text.RegionEU868ComputeRxWindowParameters
                0x0000000008037ac8       0x64 out/external/libexternal_fuota_stack.a(RegionEU868.o)
                0x0000000008037ac8                RegionEU868ComputeRxWindowParameters
 .text.RegionEU868RxConfig
                0x0000000008037b2c       0xe8 out/external/libexternal_fuota_stack.a(RegionEU868.o)
                0x0000000008037b2c                RegionEU868RxConfig
 .text.RegionEU868TxConfig
                0x0000000008037c14      0x108 out/external/libexternal_fuota_stack.a(RegionEU868.o)
                0x0000000008037c14                RegionEU868TxConfig
 .text.RegionEU868LinkAdrReq
                0x0000000008037d1c      0x150 out/external/libexternal_fuota_stack.a(RegionEU868.o)
                0x0000000008037d1c                RegionEU868LinkAdrReq
 .text.RegionEU868RxParamSetupReq
                0x0000000008037e6c       0x46 out/external/libexternal_fuota_stack.a(RegionEU868.o)
                0x0000000008037e6c                RegionEU868RxParamSetupReq
 .text.RegionEU868TxParamSetupReq
                0x0000000008037eb2        0x6 out/external/libexternal_fuota_stack.a(RegionEU868.o)
                0x0000000008037eb2                RegionEU868TxParamSetupReq
 .text.RegionEU868DlChannelReq
                0x0000000008037eb8       0x54 out/external/libexternal_fuota_stack.a(RegionEU868.o)
                0x0000000008037eb8                RegionEU868DlChannelReq
 .text.RegionEU868AlternateDr
                0x0000000008037f0c        0x2 out/external/libexternal_fuota_stack.a(RegionEU868.o)
                0x0000000008037f0c                RegionEU868AlternateDr
 *fill*         0x0000000008037f0e        0x2 
 .text.RegionEU868NextChannel
                0x0000000008037f10       0xf4 out/external/libexternal_fuota_stack.a(RegionEU868.o)
                0x0000000008037f10                RegionEU868NextChannel
 .text.RegionEU868ChannelAdd
                0x0000000008038004       0xbc out/external/libexternal_fuota_stack.a(RegionEU868.o)
                0x0000000008038004                RegionEU868ChannelAdd
 .text.RegionEU868ChannelsRemove
                0x00000000080380c0       0x30 out/external/libexternal_fuota_stack.a(RegionEU868.o)
                0x00000000080380c0                RegionEU868ChannelsRemove
 .text.RegionEU868ApplyCFList
                0x00000000080380f0       0x7c out/external/libexternal_fuota_stack.a(RegionEU868.o)
                0x00000000080380f0                RegionEU868ApplyCFList
 .text.RegionEU868NewChannelReq
                0x000000000803816c       0x40 out/external/libexternal_fuota_stack.a(RegionEU868.o)
                0x000000000803816c                RegionEU868NewChannelReq
 .text.RegionEU868ApplyDrOffset
                0x00000000080381ac        0xc out/external/libexternal_fuota_stack.a(RegionEU868.o)
                0x00000000080381ac                RegionEU868ApplyDrOffset
 .text.RegionEU868RxBeaconSetup
                0x00000000080381b8       0x38 out/external/libexternal_fuota_stack.a(RegionEU868.o)
                0x00000000080381b8                RegionEU868RxBeaconSetup
 .text.VerifyRfFreq
                0x00000000080381f0       0x28 out/external/libexternal_fuota_stack.a(RegionIN865.o)
 .text.GetTimeOnAir
                0x0000000008038218       0x54 out/external/libexternal_fuota_stack.a(RegionIN865.o)
 .text.RegionIN865GetPhyParam
                0x000000000803826c      0x120 out/external/libexternal_fuota_stack.a(RegionIN865.o)
                0x000000000803826c                RegionIN865GetPhyParam
 .text.RegionIN865SetBandTxDone
                0x000000000803838c       0x38 out/external/libexternal_fuota_stack.a(RegionIN865.o)
                0x000000000803838c                RegionIN865SetBandTxDone
 .text.RegionIN865InitDefaults
                0x00000000080383c4       0xb8 out/external/libexternal_fuota_stack.a(RegionIN865.o)
                0x00000000080383c4                RegionIN865InitDefaults
 .text.RegionIN865Verify
                0x000000000803847c       0x4a out/external/libexternal_fuota_stack.a(RegionIN865.o)
                0x000000000803847c                RegionIN865Verify
 *fill*         0x00000000080384c6        0x2 
 .text.RegionIN865ChanMaskSet
                0x00000000080384c8       0x3c out/external/libexternal_fuota_stack.a(RegionIN865.o)
                0x00000000080384c8                RegionIN865ChanMaskSet
 .text.RegionIN865ComputeRxWindowParameters
                0x0000000008038504       0x64 out/external/libexternal_fuota_stack.a(RegionIN865.o)
                0x0000000008038504                RegionIN865ComputeRxWindowParameters
 .text.RegionIN865RxConfig
                0x0000000008038568       0xe8 out/external/libexternal_fuota_stack.a(RegionIN865.o)
                0x0000000008038568                RegionIN865RxConfig
 .text.RegionIN865TxConfig
                0x0000000008038650      0x108 out/external/libexternal_fuota_stack.a(RegionIN865.o)
                0x0000000008038650                RegionIN865TxConfig
 .text.RegionIN865LinkAdrReq
                0x0000000008038758      0x160 out/external/libexternal_fuota_stack.a(RegionIN865.o)
                0x0000000008038758                RegionIN865LinkAdrReq
 .text.RegionIN865RxParamSetupReq
                0x00000000080388b8       0x44 out/external/libexternal_fuota_stack.a(RegionIN865.o)
                0x00000000080388b8                RegionIN865RxParamSetupReq
 .text.RegionIN865TxParamSetupReq
                0x00000000080388fc        0x6 out/external/libexternal_fuota_stack.a(RegionIN865.o)
                0x00000000080388fc                RegionIN865TxParamSetupReq
 *fill*         0x0000000008038902        0x2 
 .text.RegionIN865DlChannelReq
                0x0000000008038904       0x48 out/external/libexternal_fuota_stack.a(RegionIN865.o)
                0x0000000008038904                RegionIN865DlChannelReq
 .text.RegionIN865AlternateDr
                0x000000000803894c        0x2 out/external/libexternal_fuota_stack.a(RegionIN865.o)
                0x000000000803894c                RegionIN865AlternateDr
 *fill*         0x000000000803894e        0x2 
 .text.RegionIN865NextChannel
                0x0000000008038950       0xf4 out/external/libexternal_fuota_stack.a(RegionIN865.o)
                0x0000000008038950                RegionIN865NextChannel
 .text.RegionIN865ChannelAdd
                0x0000000008038a44       0xac out/external/libexternal_fuota_stack.a(RegionIN865.o)
                0x0000000008038a44                RegionIN865ChannelAdd
 .text.RegionIN865ChannelsRemove
                0x0000000008038af0       0x30 out/external/libexternal_fuota_stack.a(RegionIN865.o)
                0x0000000008038af0                RegionIN865ChannelsRemove
 .text.RegionIN865ApplyCFList
                0x0000000008038b20       0x7c out/external/libexternal_fuota_stack.a(RegionIN865.o)
                0x0000000008038b20                RegionIN865ApplyCFList
 .text.RegionIN865NewChannelReq
                0x0000000008038b9c       0x40 out/external/libexternal_fuota_stack.a(RegionIN865.o)
                0x0000000008038b9c                RegionIN865NewChannelReq
 .text.RegionIN865ApplyDrOffset
                0x0000000008038bdc       0x20 out/external/libexternal_fuota_stack.a(RegionIN865.o)
                0x0000000008038bdc                RegionIN865ApplyDrOffset
 .text.RegionIN865RxBeaconSetup
                0x0000000008038bfc       0x38 out/external/libexternal_fuota_stack.a(RegionIN865.o)
                0x0000000008038bfc                RegionIN865RxBeaconSetup
 .text.GetTimeOnAir
                0x0000000008038c34       0x3c out/external/libexternal_fuota_stack.a(RegionKR920.o)
 .text.VerifyRfFreq
                0x0000000008038c70       0x40 out/external/libexternal_fuota_stack.a(RegionKR920.o)
 .text.RegionKR920GetPhyParam
                0x0000000008038cb0      0x120 out/external/libexternal_fuota_stack.a(RegionKR920.o)
                0x0000000008038cb0                RegionKR920GetPhyParam
 .text.RegionKR920SetBandTxDone
                0x0000000008038dd0       0x38 out/external/libexternal_fuota_stack.a(RegionKR920.o)
                0x0000000008038dd0                RegionKR920SetBandTxDone
 .text.RegionKR920InitDefaults
                0x0000000008038e08       0xcc out/external/libexternal_fuota_stack.a(RegionKR920.o)
                0x0000000008038e08                RegionKR920InitDefaults
 .text.RegionKR920Verify
                0x0000000008038ed4       0x38 out/external/libexternal_fuota_stack.a(RegionKR920.o)
                0x0000000008038ed4                RegionKR920Verify
 .text.RegionKR920ChanMaskSet
                0x0000000008038f0c       0x3c out/external/libexternal_fuota_stack.a(RegionKR920.o)
                0x0000000008038f0c                RegionKR920ChanMaskSet
 .text.RegionKR920ComputeRxWindowParameters
                0x0000000008038f48       0x58 out/external/libexternal_fuota_stack.a(RegionKR920.o)
                0x0000000008038f48                RegionKR920ComputeRxWindowParameters
 .text.RegionKR920RxConfig
                0x0000000008038fa0       0xa0 out/external/libexternal_fuota_stack.a(RegionKR920.o)
                0x0000000008038fa0                RegionKR920RxConfig
 .text.RegionKR920TxConfig
                0x0000000008039040      0x100 out/external/libexternal_fuota_stack.a(RegionKR920.o)
                0x0000000008039040                RegionKR920TxConfig
 .text.RegionKR920LinkAdrReq
                0x0000000008039140      0x150 out/external/libexternal_fuota_stack.a(RegionKR920.o)
                0x0000000008039140                RegionKR920LinkAdrReq
 .text.RegionKR920RxParamSetupReq
                0x0000000008039290       0x3c out/external/libexternal_fuota_stack.a(RegionKR920.o)
                0x0000000008039290                RegionKR920RxParamSetupReq
 .text.RegionKR920TxParamSetupReq
                0x00000000080392cc        0x6 out/external/libexternal_fuota_stack.a(RegionKR920.o)
                0x00000000080392cc                RegionKR920TxParamSetupReq
 *fill*         0x00000000080392d2        0x2 
 .text.RegionKR920DlChannelReq
                0x00000000080392d4       0x48 out/external/libexternal_fuota_stack.a(RegionKR920.o)
                0x00000000080392d4                RegionKR920DlChannelReq
 .text.RegionKR920AlternateDr
                0x000000000803931c        0x2 out/external/libexternal_fuota_stack.a(RegionKR920.o)
                0x000000000803931c                RegionKR920AlternateDr
 *fill*         0x000000000803931e        0x2 
 .text.RegionKR920NextChannel
                0x0000000008039320      0x168 out/external/libexternal_fuota_stack.a(RegionKR920.o)
                0x0000000008039320                RegionKR920NextChannel
 .text.RegionKR920ChannelAdd
                0x0000000008039488       0xac out/external/libexternal_fuota_stack.a(RegionKR920.o)
                0x0000000008039488                RegionKR920ChannelAdd
 .text.RegionKR920ChannelsRemove
                0x0000000008039534       0x30 out/external/libexternal_fuota_stack.a(RegionKR920.o)
                0x0000000008039534                RegionKR920ChannelsRemove
 .text.RegionKR920ApplyCFList
                0x0000000008039564       0x7c out/external/libexternal_fuota_stack.a(RegionKR920.o)
                0x0000000008039564                RegionKR920ApplyCFList
 .text.RegionKR920NewChannelReq
                0x00000000080395e0       0x40 out/external/libexternal_fuota_stack.a(RegionKR920.o)
                0x00000000080395e0                RegionKR920NewChannelReq
 .text.RegionKR920ApplyDrOffset
                0x0000000008039620        0xc out/external/libexternal_fuota_stack.a(RegionKR920.o)
                0x0000000008039620                RegionKR920ApplyDrOffset
 .text.RegionKR920RxBeaconSetup
                0x000000000803962c       0x38 out/external/libexternal_fuota_stack.a(RegionKR920.o)
                0x000000000803962c                RegionKR920RxBeaconSetup
 .text.GetTimeOnAir
                0x0000000008039664       0x3c out/external/libexternal_fuota_stack.a(RegionLA915.o)
 .text.VerifyRfFreq
                0x00000000080396a0       0x40 out/external/libexternal_fuota_stack.a(RegionLA915.o)
 .text.RegionLA915GetPhyParam
                0x00000000080396e0      0x120 out/external/libexternal_fuota_stack.a(RegionLA915.o)
                0x00000000080396e0                RegionLA915GetPhyParam
 .text.RegionLA915SetBandTxDone
                0x0000000008039800       0x30 out/external/libexternal_fuota_stack.a(RegionLA915.o)
                0x0000000008039800                RegionLA915SetBandTxDone
 .text.RegionLA915InitDefaults
                0x0000000008039830       0xe4 out/external/libexternal_fuota_stack.a(RegionLA915.o)
                0x0000000008039830                RegionLA915InitDefaults
 .text.RegionLA915Verify
                0x0000000008039914       0x58 out/external/libexternal_fuota_stack.a(RegionLA915.o)
                0x0000000008039914                RegionLA915Verify
 .text.RegionLA915ApplyCFList
                0x000000000803996c       0x50 out/external/libexternal_fuota_stack.a(RegionLA915.o)
                0x000000000803996c                RegionLA915ApplyCFList
 .text.RegionLA915ChanMaskSet
                0x00000000080399bc       0x60 out/external/libexternal_fuota_stack.a(RegionLA915.o)
                0x00000000080399bc                RegionLA915ChanMaskSet
 .text.RegionLA915ComputeRxWindowParameters
                0x0000000008039a1c       0x70 out/external/libexternal_fuota_stack.a(RegionLA915.o)
                0x0000000008039a1c                RegionLA915ComputeRxWindowParameters
 .text.RegionLA915RxConfig
                0x0000000008039a8c       0x88 out/external/libexternal_fuota_stack.a(RegionLA915.o)
                0x0000000008039a8c                RegionLA915RxConfig
 .text.RegionLA915TxConfig
                0x0000000008039b14       0xd0 out/external/libexternal_fuota_stack.a(RegionLA915.o)
                0x0000000008039b14                RegionLA915TxConfig
 .text.RegionLA915LinkAdrReq
                0x0000000008039be4      0x204 out/external/libexternal_fuota_stack.a(RegionLA915.o)
                0x0000000008039be4                RegionLA915LinkAdrReq
 .text.RegionLA915RxParamSetupReq
                0x0000000008039de8       0x4c out/external/libexternal_fuota_stack.a(RegionLA915.o)
                0x0000000008039de8                RegionLA915RxParamSetupReq
 .text.RegionLA915NewChannelReq
                0x0000000008039e34        0x4 out/external/libexternal_fuota_stack.a(RegionLA915.o)
                0x0000000008039e34                RegionLA915NewChannelReq
 .text.RegionLA915TxParamSetupReq
                0x0000000008039e38        0x4 out/external/libexternal_fuota_stack.a(RegionLA915.o)
                0x0000000008039e38                RegionLA915TxParamSetupReq
 .text.RegionLA915DlChannelReq
                0x0000000008039e3c        0x4 out/external/libexternal_fuota_stack.a(RegionLA915.o)
                0x0000000008039e3c                RegionLA915DlChannelReq
 .text.RegionLA915AlternateDr
                0x0000000008039e40       0x28 out/external/libexternal_fuota_stack.a(RegionLA915.o)
                0x0000000008039e40                RegionLA915AlternateDr
 .text.RegionLA915NextChannel
                0x0000000008039e68      0x16c out/external/libexternal_fuota_stack.a(RegionLA915.o)
                0x0000000008039e68                RegionLA915NextChannel
 .text.RegionLA915ChannelAdd
                0x0000000008039fd4        0x4 out/external/libexternal_fuota_stack.a(RegionLA915.o)
                0x0000000008039fd4                RegionLA915ChannelAdd
 .text.RegionLA915ChannelsRemove
                0x0000000008039fd8        0x4 out/external/libexternal_fuota_stack.a(RegionLA915.o)
                0x0000000008039fd8                RegionLA915ChannelsRemove
 .text.RegionLA915ApplyDrOffset
                0x0000000008039fdc       0x20 out/external/libexternal_fuota_stack.a(RegionLA915.o)
                0x0000000008039fdc                RegionLA915ApplyDrOffset
 .text.RegionLA915RxBeaconSetup
                0x0000000008039ffc       0x38 out/external/libexternal_fuota_stack.a(RegionLA915.o)
                0x0000000008039ffc                RegionLA915RxBeaconSetup
 .text.VerifyRfFreq
                0x000000000803a034       0x28 out/external/libexternal_fuota_stack.a(RegionRU864.o)
 .text.GetTimeOnAir
                0x000000000803a05c       0x54 out/external/libexternal_fuota_stack.a(RegionRU864.o)
 .text.RegionRU864GetPhyParam
                0x000000000803a0b0      0x124 out/external/libexternal_fuota_stack.a(RegionRU864.o)
                0x000000000803a0b0                RegionRU864GetPhyParam
 .text.RegionRU864SetBandTxDone
                0x000000000803a1d4       0x38 out/external/libexternal_fuota_stack.a(RegionRU864.o)
                0x000000000803a1d4                RegionRU864SetBandTxDone
 .text.RegionRU864InitDefaults
                0x000000000803a20c       0xa8 out/external/libexternal_fuota_stack.a(RegionRU864.o)
                0x000000000803a20c                RegionRU864InitDefaults
 .text.RegionRU864Verify
                0x000000000803a2b4       0x44 out/external/libexternal_fuota_stack.a(RegionRU864.o)
                0x000000000803a2b4                RegionRU864Verify
 .text.RegionRU864ChanMaskSet
                0x000000000803a2f8       0x3c out/external/libexternal_fuota_stack.a(RegionRU864.o)
                0x000000000803a2f8                RegionRU864ChanMaskSet
 .text.RegionRU864ComputeRxWindowParameters
                0x000000000803a334       0x64 out/external/libexternal_fuota_stack.a(RegionRU864.o)
                0x000000000803a334                RegionRU864ComputeRxWindowParameters
 .text.RegionRU864RxConfig
                0x000000000803a398       0xe8 out/external/libexternal_fuota_stack.a(RegionRU864.o)
                0x000000000803a398                RegionRU864RxConfig
 .text.RegionRU864TxConfig
                0x000000000803a480      0x108 out/external/libexternal_fuota_stack.a(RegionRU864.o)
                0x000000000803a480                RegionRU864TxConfig
 .text.RegionRU864LinkAdrReq
                0x000000000803a588      0x150 out/external/libexternal_fuota_stack.a(RegionRU864.o)
                0x000000000803a588                RegionRU864LinkAdrReq
 .text.RegionRU864RxParamSetupReq
                0x000000000803a6d8       0x3c out/external/libexternal_fuota_stack.a(RegionRU864.o)
                0x000000000803a6d8                RegionRU864RxParamSetupReq
 .text.RegionRU864TxParamSetupReq
                0x000000000803a714        0x6 out/external/libexternal_fuota_stack.a(RegionRU864.o)
                0x000000000803a714                RegionRU864TxParamSetupReq
 *fill*         0x000000000803a71a        0x2 
 .text.RegionRU864DlChannelReq
                0x000000000803a71c       0x48 out/external/libexternal_fuota_stack.a(RegionRU864.o)
                0x000000000803a71c                RegionRU864DlChannelReq
 .text.RegionRU864AlternateDr
                0x000000000803a764        0x2 out/external/libexternal_fuota_stack.a(RegionRU864.o)
                0x000000000803a764                RegionRU864AlternateDr
 *fill*         0x000000000803a766        0x2 
 .text.RegionRU864NextChannel
                0x000000000803a768       0xf4 out/external/libexternal_fuota_stack.a(RegionRU864.o)
                0x000000000803a768                RegionRU864NextChannel
 .text.RegionRU864ChannelAdd
                0x000000000803a85c       0xac out/external/libexternal_fuota_stack.a(RegionRU864.o)
                0x000000000803a85c                RegionRU864ChannelAdd
 .text.RegionRU864ChannelsRemove
                0x000000000803a908       0x30 out/external/libexternal_fuota_stack.a(RegionRU864.o)
                0x000000000803a908                RegionRU864ChannelsRemove
 .text.RegionRU864ApplyCFList
                0x000000000803a938       0x7c out/external/libexternal_fuota_stack.a(RegionRU864.o)
                0x000000000803a938                RegionRU864ApplyCFList
 .text.RegionRU864NewChannelReq
                0x000000000803a9b4       0x40 out/external/libexternal_fuota_stack.a(RegionRU864.o)
                0x000000000803a9b4                RegionRU864NewChannelReq
 .text.RegionRU864ApplyDrOffset
                0x000000000803a9f4        0xc out/external/libexternal_fuota_stack.a(RegionRU864.o)
                0x000000000803a9f4                RegionRU864ApplyDrOffset
 .text.RegionRU864RxBeaconSetup
                0x000000000803aa00       0x38 out/external/libexternal_fuota_stack.a(RegionRU864.o)
                0x000000000803aa00                RegionRU864RxBeaconSetup
 .text.GetTimeOnAir
                0x000000000803aa38       0x3c out/external/libexternal_fuota_stack.a(RegionUS915.o)
 .text.VerifyRfFreq
                0x000000000803aa74       0x40 out/external/libexternal_fuota_stack.a(RegionUS915.o)
 .text.RegionUS915GetPhyParam
                0x000000000803aab4      0x138 out/external/libexternal_fuota_stack.a(RegionUS915.o)
                0x000000000803aab4                RegionUS915GetPhyParam
 .text.RegionUS915SetBandTxDone
                0x000000000803abec       0x38 out/external/libexternal_fuota_stack.a(RegionUS915.o)
                0x000000000803abec                RegionUS915SetBandTxDone
 .text.RegionUS915InitDefaults
                0x000000000803ac24      0x118 out/external/libexternal_fuota_stack.a(RegionUS915.o)
                0x000000000803ac24                RegionUS915InitDefaults
 .text.RegionUS915Verify
                0x000000000803ad3c       0x46 out/external/libexternal_fuota_stack.a(RegionUS915.o)
                0x000000000803ad3c                RegionUS915Verify
 *fill*         0x000000000803ad82        0x2 
 .text.RegionUS915ApplyCFList
                0x000000000803ad84       0x80 out/external/libexternal_fuota_stack.a(RegionUS915.o)
                0x000000000803ad84                RegionUS915ApplyCFList
 .text.RegionUS915ChanMaskSet
                0x000000000803ae04       0x78 out/external/libexternal_fuota_stack.a(RegionUS915.o)
                0x000000000803ae04                RegionUS915ChanMaskSet
 .text.RegionUS915ComputeRxWindowParameters
                0x000000000803ae7c       0x58 out/external/libexternal_fuota_stack.a(RegionUS915.o)
                0x000000000803ae7c                RegionUS915ComputeRxWindowParameters
 .text.RegionUS915RxConfig
                0x000000000803aed4       0x98 out/external/libexternal_fuota_stack.a(RegionUS915.o)
                0x000000000803aed4                RegionUS915RxConfig
 .text.RegionUS915TxConfig
                0x000000000803af6c       0xfc out/external/libexternal_fuota_stack.a(RegionUS915.o)
                0x000000000803af6c                RegionUS915TxConfig
 .text.RegionUS915LinkAdrReq
                0x000000000803b068      0x220 out/external/libexternal_fuota_stack.a(RegionUS915.o)
                0x000000000803b068                RegionUS915LinkAdrReq
 .text.RegionUS915RxParamSetupReq
                0x000000000803b288       0x58 out/external/libexternal_fuota_stack.a(RegionUS915.o)
                0x000000000803b288                RegionUS915RxParamSetupReq
 .text.RegionUS915NewChannelReq
                0x000000000803b2e0        0x6 out/external/libexternal_fuota_stack.a(RegionUS915.o)
                0x000000000803b2e0                RegionUS915NewChannelReq
 .text.RegionUS915TxParamSetupReq
                0x000000000803b2e6        0x6 out/external/libexternal_fuota_stack.a(RegionUS915.o)
                0x000000000803b2e6                RegionUS915TxParamSetupReq
 .text.RegionUS915DlChannelReq
                0x000000000803b2ec        0x6 out/external/libexternal_fuota_stack.a(RegionUS915.o)
                0x000000000803b2ec                RegionUS915DlChannelReq
 *fill*         0x000000000803b2f2        0x2 
 .text.RegionUS915AlternateDr
                0x000000000803b2f4       0x44 out/external/libexternal_fuota_stack.a(RegionUS915.o)
                0x000000000803b2f4                RegionUS915AlternateDr
 .text.RegionUS915NextChannel
                0x000000000803b338      0x13c out/external/libexternal_fuota_stack.a(RegionUS915.o)
                0x000000000803b338                RegionUS915NextChannel
 .text.RegionUS915ChannelAdd
                0x000000000803b474        0x4 out/external/libexternal_fuota_stack.a(RegionUS915.o)
                0x000000000803b474                RegionUS915ChannelAdd
 .text.RegionUS915ChannelsRemove
                0x000000000803b478        0x4 out/external/libexternal_fuota_stack.a(RegionUS915.o)
                0x000000000803b478                RegionUS915ChannelsRemove
 .text.RegionUS915ApplyDrOffset
                0x000000000803b47c       0x14 out/external/libexternal_fuota_stack.a(RegionUS915.o)
                0x000000000803b47c                RegionUS915ApplyDrOffset
 .text.RegionUS915RxBeaconSetup
                0x000000000803b490       0x38 out/external/libexternal_fuota_stack.a(RegionUS915.o)
                0x000000000803b490                RegionUS915RxBeaconSetup
 .text.US915_SingleChannelRegisterCallback
                0x000000000803b4c8       0x10 out/external/libexternal_fuota_stack.a(RegionUS915.o)
                0x000000000803b4c8                US915_SingleChannelRegisterCallback
 .text.memcmp   0x000000000803b4d8       0x20 /opt/gcc-arm-none-eabi-10-2020-q4-major/bin/../lib/gcc/arm-none-eabi/10.2.1/../../../../arm-none-eabi/lib/thumb/v7e-m/nofp/libc_nano.a(lib_a-memcmp.o)
                0x000000000803b4d8                memcmp
 .text.memcpy   0x000000000803b4f8       0x1c /opt/gcc-arm-none-eabi-10-2020-q4-major/bin/../lib/gcc/arm-none-eabi/10.2.1/../../../../arm-none-eabi/lib/thumb/v7e-m/nofp/libc_nano.a(lib_a-memcpy-stub.o)
                0x000000000803b4f8                memcpy
 .text.memset   0x000000000803b514       0x10 /opt/gcc-arm-none-eabi-10-2020-q4-major/bin/../lib/gcc/arm-none-eabi/10.2.1/../../../../arm-none-eabi/lib/thumb/v7e-m/nofp/libc_nano.a(lib_a-memset.o)
                0x000000000803b514                memset
 *fill*         0x000000000803b524        0x4 
 .text.floor    0x000000000803b528       0xf8 /opt/gcc-arm-none-eabi-10-2020-q4-major/bin/../lib/gcc/arm-none-eabi/10.2.1/../../../../arm-none-eabi/lib/thumb/v7e-m/nofp/libm.a(lib_a-s_floor.o)
                0x000000000803b528                floor
 *(.glue_7)
 .glue_7        0x000000000803b620        0x0 linker stubs
 *(.glue_7t)
 .glue_7t       0x000000000803b620        0x0 linker stubs
 *(.eh_frame)
 *(.init)
 *(.fini)
                0x000000000803b620                . = ALIGN (0x8)

.vfp11_veneer   0x000000000803b620        0x0
 .vfp11_veneer  0x000000000803b620        0x0 linker stubs

.v4_bx          0x000000000803b620        0x0
 .v4_bx         0x000000000803b620        0x0 linker stubs

.iplt           0x000000000803b620        0x0
 .iplt          0x000000000803b620        0x0 out/external/libexternal_fuota_stack.a(subghz.o)

.rodata         0x000000000803b620      0x9d8
                0x000000000803b620                . = ALIGN (0x8)
 *(.rodata)
 .rodata        0x000000000803b620       0x10 out/external/libexternal_fuota_stack.a(radio.o)
 .rodata        0x000000000803b630       0x11 out/external/libexternal_fuota_stack.a(radio_driver.o)
 *fill*         0x000000000803b641        0x3 
 .rodata        0x000000000803b644       0x10 out/external/libexternal_fuota_stack.a(stm32_systime.o)
 .rodata        0x000000000803b654        0xc out/external/libexternal_fuota_stack.a(stm32wlxx_hal_rcc.o)
 .rodata        0x000000000803b660       0x30 out/external/libexternal_fuota_stack.a(stm32wlxx_hal_cryp.o)
 .rodata        0x000000000803b690       0x20 out/external/libexternal_fuota_stack.a(RegionCN470A20.o)
 .rodata        0x000000000803b6b0        0x4 out/external/libexternal_fuota_stack.a(RegionCN470.o)
 .rodata        0x000000000803b6b4       0x24 out/external/libexternal_fuota_stack.a(RegionCN779.o)
 .rodata        0x000000000803b6d8       0x24 out/external/libexternal_fuota_stack.a(RegionEU433.o)
 .rodata        0x000000000803b6fc       0x24 out/external/libexternal_fuota_stack.a(RegionEU868.o)
 .rodata        0x000000000803b720       0x24 out/external/libexternal_fuota_stack.a(RegionIN865.o)
 .rodata        0x000000000803b744       0x24 out/external/libexternal_fuota_stack.a(RegionKR920.o)
 .rodata        0x000000000803b768       0x18 out/external/libexternal_fuota_stack.a(RegionRU864.o)
 .rodata        0x000000000803b780       0xfe /home/jenkins/workspace/RUI_Release/rui-v3/version.o
 *(.rodata*)
 *fill*         0x000000000803b87e        0x2 
 .rodata.UTIL_SYSTIMDriver
                0x000000000803b880       0x14 out/external/libexternal_fuota_stack.a(timer_if.o)
                0x000000000803b880                UTIL_SYSTIMDriver
 .rodata.UTIL_TimerDriver
                0x000000000803b894       0x2c out/external/libexternal_fuota_stack.a(timer_if.o)
                0x000000000803b894                UTIL_TimerDriver
 .rodata.rak3172_sprintf.constprop.0.str1.1
                0x000000000803b8c0       0x22 out/external/libexternal_fuota_stack.a(service_lora_config.o)
 *fill*         0x000000000803b8e2        0x2 
 .rodata.AHBPrescTable
                0x000000000803b8e4       0x40 out/external/libexternal_fuota_stack.a(system_stm32wlxx.o)
                0x000000000803b8e4                AHBPrescTable
 .rodata.APBPrescTable
                0x000000000803b924       0x20 out/external/libexternal_fuota_stack.a(system_stm32wlxx.o)
                0x000000000803b924                APBPrescTable
 .rodata.MSIRangeTable
                0x000000000803b944       0x40 out/external/libexternal_fuota_stack.a(system_stm32wlxx.o)
                0x000000000803b944                MSIRangeTable
 .rodata.Bandwidths
                0x000000000803b984        0xa out/external/libexternal_fuota_stack.a(radio.o)
                0x000000000803b984                Bandwidths
 *fill*         0x000000000803b98e        0x2 
 .rodata.CSWTCH.56
                0x000000000803b990       0x2c out/external/libexternal_fuota_stack.a(radio.o)
 .rodata.CSWTCH.74
                0x000000000803b9bc        0x4 out/external/libexternal_fuota_stack.a(radio.o)
 .rodata.Radio  0x000000000803b9c0       0x84 out/external/libexternal_fuota_stack.a(radio.o)
                0x000000000803b9c0                Radio
 .rodata.FskBandwidths
                0x000000000803ba44       0xb0 out/external/libexternal_fuota_stack.a(radio_driver.o)
 .rodata.tiny_vsnprintf_like.str1.1
                0x000000000803baf4       0x51 out/external/libexternal_fuota_stack.a(stm32_tiny_vsnprintf.o)
 .rodata.str1.1
                0x000000000803bb45       0x1c out/external/libexternal_fuota_stack.a(stm32_systime.o)
 .rodata.SecureElementInit.str1.1
                0x000000000803bb61       0x11 out/external/libexternal_fuota_stack.a(soft-se.o)
 .rodata.LoRaMacMaxEirpTable
                0x000000000803bb72       0x10 out/external/libexternal_fuota_stack.a(LoRaMac.o)
 .rodata.BeaconPrecTimeValue
                0x000000000803bb82        0x4 out/external/libexternal_fuota_stack.a(LoRaMacClassB.o)
 .rodata.CSWTCH.21
                0x000000000803bb86       0x20 out/external/libexternal_fuota_stack.a(LoRaMacCommands.o)
 *fill*         0x000000000803bba6        0x2 
 .rodata.BandwidthsAS923
                0x000000000803bba8       0x20 out/external/libexternal_fuota_stack.a(RegionAS923.o)
 .rodata.CSWTCH.94
                0x000000000803bbc8        0x7 out/external/libexternal_fuota_stack.a(RegionAS923.o)
 .rodata.DataratesAS923
                0x000000000803bbcf        0x8 out/external/libexternal_fuota_stack.a(RegionAS923.o)
 .rodata.EffectiveRx1DrOffsetDownlinkDwell0AS923
                0x000000000803bbd7       0x40 out/external/libexternal_fuota_stack.a(RegionAS923.o)
 .rodata.EffectiveRx1DrOffsetDownlinkDwell1AS923
                0x000000000803bc17       0x40 out/external/libexternal_fuota_stack.a(RegionAS923.o)
 .rodata.MaxPayloadOfDatarateDwell0AS923
                0x000000000803bc57        0x8 out/external/libexternal_fuota_stack.a(RegionAS923.o)
 .rodata.MaxPayloadOfDatarateDwell1AS923
                0x000000000803bc5f        0x8 out/external/libexternal_fuota_stack.a(RegionAS923.o)
 *fill*         0x000000000803bc67        0x1 
 .rodata.BandwidthsAU915
                0x000000000803bc68       0x40 out/external/libexternal_fuota_stack.a(RegionAU915.o)
 .rodata.DatarateOffsetsAU915
                0x000000000803bca8       0x2a out/external/libexternal_fuota_stack.a(RegionAU915.o)
 .rodata.DataratesAU915
                0x000000000803bcd2       0x10 out/external/libexternal_fuota_stack.a(RegionAU915.o)
 .rodata.MaxPayloadOfDatarateDwell0AU915
                0x000000000803bce2        0xe out/external/libexternal_fuota_stack.a(RegionAU915.o)
 .rodata.MaxPayloadOfDatarateDwell1AU915
                0x000000000803bcf0        0xe out/external/libexternal_fuota_stack.a(RegionAU915.o)
 *fill*         0x000000000803bcfe        0x2 
 .rodata.BandwidthsCN470
                0x000000000803bd00       0x20 out/external/libexternal_fuota_stack.a(RegionCN470.o)
 .rodata.DatarateOffsetsCN470
                0x000000000803bd20       0x30 out/external/libexternal_fuota_stack.a(RegionCN470.o)
 .rodata.DataratesCN470
                0x000000000803bd50        0x8 out/external/libexternal_fuota_stack.a(RegionCN470.o)
 .rodata.MaxPayloadOfDatarateCN470
                0x000000000803bd58        0x8 out/external/libexternal_fuota_stack.a(RegionCN470.o)
 .rodata.BandwidthsCN779
                0x000000000803bd60       0x20 out/external/libexternal_fuota_stack.a(RegionCN779.o)
 .rodata.CSWTCH.81
                0x000000000803bd80        0x7 out/external/libexternal_fuota_stack.a(RegionCN779.o)
 .rodata.DataratesCN779
                0x000000000803bd87        0x8 out/external/libexternal_fuota_stack.a(RegionCN779.o)
 .rodata.MaxPayloadOfDatarateCN779
                0x000000000803bd8f        0x8 out/external/libexternal_fuota_stack.a(RegionCN779.o)
 *fill*         0x000000000803bd97        0x1 
 .rodata.BandwidthsEU433
                0x000000000803bd98       0x20 out/external/libexternal_fuota_stack.a(RegionEU433.o)
 .rodata.CSWTCH.81
                0x000000000803bdb8        0x7 out/external/libexternal_fuota_stack.a(RegionEU433.o)
 .rodata.DataratesEU433
                0x000000000803bdbf        0x8 out/external/libexternal_fuota_stack.a(RegionEU433.o)
 .rodata.MaxPayloadOfDatarateEU433
                0x000000000803bdc7        0x8 out/external/libexternal_fuota_stack.a(RegionEU433.o)
 *fill*         0x000000000803bdcf        0x1 
 .rodata.BandwidthsEU868
                0x000000000803bdd0       0x20 out/external/libexternal_fuota_stack.a(RegionEU868.o)
 .rodata.CSWTCH.82
                0x000000000803bdf0        0x7 out/external/libexternal_fuota_stack.a(RegionEU868.o)
 .rodata.DataratesEU868
                0x000000000803bdf7        0x8 out/external/libexternal_fuota_stack.a(RegionEU868.o)
 .rodata.MaxPayloadOfDatarateEU868
                0x000000000803bdff        0x8 out/external/libexternal_fuota_stack.a(RegionEU868.o)
 *fill*         0x000000000803be07        0x1 
 .rodata.BandwidthsIN865
                0x000000000803be08       0x20 out/external/libexternal_fuota_stack.a(RegionIN865.o)
 .rodata.CSWTCH.79
                0x000000000803be28        0x7 out/external/libexternal_fuota_stack.a(RegionIN865.o)
 .rodata.DataratesIN865
                0x000000000803be2f        0x8 out/external/libexternal_fuota_stack.a(RegionIN865.o)
 .rodata.EffectiveRx1DrOffsetIN865
                0x000000000803be37       0x40 out/external/libexternal_fuota_stack.a(RegionIN865.o)
 .rodata.MaxPayloadOfDatarateIN865
                0x000000000803be77        0x8 out/external/libexternal_fuota_stack.a(RegionIN865.o)
 *fill*         0x000000000803be7f        0x1 
 .rodata.BandwidthsKR920
                0x000000000803be80       0x18 out/external/libexternal_fuota_stack.a(RegionKR920.o)
 .rodata.CSWTCH.91
                0x000000000803be98        0x7 out/external/libexternal_fuota_stack.a(RegionKR920.o)
 .rodata.DataratesKR920
                0x000000000803be9f        0x6 out/external/libexternal_fuota_stack.a(RegionKR920.o)
 .rodata.MaxPayloadOfDatarateKR920
                0x000000000803bea5        0x6 out/external/libexternal_fuota_stack.a(RegionKR920.o)
 *fill*         0x000000000803beab        0x1 
 .rodata.BandwidthsLA915
                0x000000000803beac       0x40 out/external/libexternal_fuota_stack.a(RegionLA915.o)
 .rodata.DatarateOffsetsLA915
                0x000000000803beec       0x2a out/external/libexternal_fuota_stack.a(RegionLA915.o)
 .rodata.DataratesLA915
                0x000000000803bf16       0x10 out/external/libexternal_fuota_stack.a(RegionLA915.o)
 .rodata.MaxPayloadOfDatarateDwell0LA915
                0x000000000803bf26       0x10 out/external/libexternal_fuota_stack.a(RegionLA915.o)
 .rodata.MaxPayloadOfDatarateDwell1LA915
                0x000000000803bf36        0xf out/external/libexternal_fuota_stack.a(RegionLA915.o)
 *fill*         0x000000000803bf45        0x3 
 .rodata.BandwidthsRU864
                0x000000000803bf48       0x20 out/external/libexternal_fuota_stack.a(RegionRU864.o)
 .rodata.CSWTCH.79
                0x000000000803bf68        0x7 out/external/libexternal_fuota_stack.a(RegionRU864.o)
 .rodata.DataratesRU864
                0x000000000803bf6f        0x8 out/external/libexternal_fuota_stack.a(RegionRU864.o)
 .rodata.MaxPayloadOfDatarateRU864
                0x000000000803bf77        0x8 out/external/libexternal_fuota_stack.a(RegionRU864.o)
 *fill*         0x000000000803bf7f        0x1 
 .rodata.BandwidthsUS915
                0x000000000803bf80       0x40 out/external/libexternal_fuota_stack.a(RegionUS915.o)
 .rodata.DatarateOffsetsUS915
                0x000000000803bfc0       0x14 out/external/libexternal_fuota_stack.a(RegionUS915.o)
 .rodata.DataratesUS915
                0x000000000803bfd4       0x10 out/external/libexternal_fuota_stack.a(RegionUS915.o)
 .rodata.MaxPayloadOfDatarateUS915
                0x000000000803bfe4       0x10 out/external/libexternal_fuota_stack.a(RegionUS915.o)
                0x000000000803bff8                . = ALIGN (0x8)
 *fill*         0x000000000803bff4        0x4 

.ARM.extab      0x000000000803bff8        0x0
                0x000000000803bff8                . = ALIGN (0x8)
 *(.ARM.extab* .gnu.linkonce.armextab.*)
 .ARM.extab     0x000000000803bff8        0x0 /opt/gcc-arm-none-eabi-10-2020-q4-major/bin/../lib/gcc/arm-none-eabi/10.2.1/thumb/v7e-m/nofp/libgcc.a(_udivmoddi4.o)
                0x000000000803bff8                . = ALIGN (0x8)

.ARM            0x000000000803bff8        0x8
                0x000000000803bff8                . = ALIGN (0x8)
                0x000000000803bff8                __exidx_start = .
 *(.ARM.exidx*)
 .ARM.exidx     0x000000000803bff8        0x8 /opt/gcc-arm-none-eabi-10-2020-q4-major/bin/../lib/gcc/arm-none-eabi/10.2.1/thumb/v7e-m/nofp/libgcc.a(_udivmoddi4.o)
                0x000000000803c000                __exidx_end = .
                0x000000000803c000                . = ALIGN (0x8)

.rel.dyn        0x000000000803c000        0x0
 .rel.iplt      0x000000000803c000        0x0 out/external/libexternal_fuota_stack.a(subghz.o)

.preinit_array  0x000000000803c000        0x0
                0x000000000803c000                . = ALIGN (0x8)
                [!provide]                        PROVIDE (__preinit_array_start = .)
 *(.preinit_array*)
                [!provide]                        PROVIDE (__preinit_array_end = .)
                0x000000000803c000                . = ALIGN (0x8)

.init_array     0x000000000803c000        0x0
                0x000000000803c000                . = ALIGN (0x8)
                [!provide]                        PROVIDE (__init_array_start = .)
 *(SORT_BY_NAME(.init_array.*))
 *(.init_array*)
                [!provide]                        PROVIDE (__init_array_end = .)
                0x000000000803c000                . = ALIGN (0x8)

.fini_array     0x000000000803c000        0x0
                0x000000000803c000                . = ALIGN (0x8)
                [!provide]                        PROVIDE (__fini_array_start = .)
 *(SORT_BY_NAME(.fini_array.*))
 *(.fini_array*)
                [!provide]                        PROVIDE (__fini_array_end = .)
                0x000000000803c000                . = ALIGN (0x8)
                0x000000000803c000                _sidata_lora = LOADADDR (.data)

.data           0x0000000020000000      0x2d0 load address 0x000000000803c000
                0x0000000020000000                . = ALIGN (0x8)
                0x0000000020000000                _sdata_lora = .
 *(.data)
 .data          0x0000000020000000        0x0 out/external/libexternal_fuota_stack.a(subghz.o)
 .data          0x0000000020000000        0x0 out/external/libexternal_fuota_stack.a(radio_board_if.o)
 .data          0x0000000020000000        0x0 out/external/libexternal_fuota_stack.a(timer_if.o)
 .data          0x0000000020000000        0x0 out/external/libexternal_fuota_stack.a(board.o)
 .data          0x0000000020000000        0x0 out/external/libexternal_fuota_stack.a(service_lora_config.o)
 .data          0x0000000020000000        0x0 out/external/libexternal_fuota_stack.a(service_lora_multicast.o)
 .data          0x0000000020000000        0x0 out/external/libexternal_fuota_stack.a(LmHandler.o)
 .data          0x0000000020000000        0x0 out/external/libexternal_fuota_stack.a(LmhpClockSync.o)
 .data          0x0000000020000000        0x0 out/external/libexternal_fuota_stack.a(LmhpRemoteMcastSetup.o)
 .data          0x0000000020000000        0x0 out/external/libexternal_fuota_stack.a(LmhpFragmentation.o)
 .data          0x0000000020000000        0x0 out/external/libexternal_fuota_stack.a(FragDecoder.o)
 .data          0x0000000020000000        0x0 out/external/libexternal_fuota_stack.a(udrv_flash.o)
 .data          0x0000000020000000        0x0 out/external/libexternal_fuota_stack.a(system_stm32wlxx.o)
 .data          0x0000000020000000        0x0 out/external/libexternal_fuota_stack.a(stm32wlxx_hal_msp.o)
 .data          0x0000000020000000        0x0 out/external/libexternal_fuota_stack.a(service_nvm_common.o)
 .data          0x0000000020000000        0x0 out/external/libexternal_fuota_stack.a(uhal_flash.o)
 .data          0x0000000020000000        0x0 out/external/libexternal_fuota_stack.a(uhal_system.o)
 .data          0x0000000020000000        0x0 out/external/libexternal_fuota_stack.a(uhal_rtc.o)
 .data          0x0000000020000000        0x0 out/external/libexternal_fuota_stack.a(uhal_crypto.o)
 .data          0x0000000020000000        0x0 out/external/libexternal_fuota_stack.a(stm32wlxx_hal_cortex.o)
 .data          0x0000000020000000        0x0 out/external/libexternal_fuota_stack.a(radio.o)
 .data          0x0000000020000000        0x0 out/external/libexternal_fuota_stack.a(radio_fw.o)
 .data          0x0000000020000000        0x0 out/external/libexternal_fuota_stack.a(radio_driver.o)
 .data          0x0000000020000000        0x0 out/external/libexternal_fuota_stack.a(stm32_mem.o)
 .data          0x0000000020000000        0x0 out/external/libexternal_fuota_stack.a(stm32_timer.o)
 .data          0x0000000020000000        0x0 out/external/libexternal_fuota_stack.a(stm32_tiny_vsnprintf.o)
 .data          0x0000000020000000        0x0 out/external/libexternal_fuota_stack.a(stm32_systime.o)
 .data          0x0000000020000000        0x0 out/external/libexternal_fuota_stack.a(stm32wlxx_hal.o)
 .data          0x0000000020000000        0x0 out/external/libexternal_fuota_stack.a(stm32wlxx_hal_rcc.o)
 .data          0x0000000020000000        0x0 out/external/libexternal_fuota_stack.a(stm32wlxx_hal_rcc_ex.o)
 .data          0x0000000020000000        0x0 out/external/libexternal_fuota_stack.a(stm32wlxx_hal_rtc.o)
 .data          0x0000000020000000        0x0 out/external/libexternal_fuota_stack.a(stm32wlxx_hal_rtc_ex.o)
 .data          0x0000000020000000        0x0 out/external/libexternal_fuota_stack.a(stm32wlxx_hal_pwr.o)
 .data          0x0000000020000000        0x0 out/external/libexternal_fuota_stack.a(stm32wlxx_hal_pwr_ex.o)
 .data          0x0000000020000000        0x0 out/external/libexternal_fuota_stack.a(stm32wlxx_hal_flash.o)
 .data          0x0000000020000000        0x0 out/external/libexternal_fuota_stack.a(stm32wlxx_hal_flash_ex.o)
 .data          0x0000000020000000        0x0 out/external/libexternal_fuota_stack.a(stm32wlxx_hal_subghz.o)
 .data          0x0000000020000000        0x0 out/external/libexternal_fuota_stack.a(stm32wlxx_hal_gpio.o)
 .data          0x0000000020000000        0x0 out/external/libexternal_fuota_stack.a(stm32wlxx_hal_cryp.o)
 .data          0x0000000020000000        0x0 out/external/libexternal_fuota_stack.a(stm32wlxx_hal_dma.o)
 .data          0x0000000020000000        0x0 out/external/libexternal_fuota_stack.a(utilities.o)
 .data          0x0000000020000000        0x0 out/external/libexternal_fuota_stack.a(cmac.o)
 .data          0x0000000020000000        0x0 out/external/libexternal_fuota_stack.a(soft-se-hal.o)
 .data          0x0000000020000000        0x0 out/external/libexternal_fuota_stack.a(soft-se.o)
 .data          0x0000000020000000        0x0 out/external/libexternal_fuota_stack.a(LoRaMacAdr.o)
 .data          0x0000000020000000        0x0 out/external/libexternal_fuota_stack.a(LoRaMac.o)
 .data          0x0000000020000000        0x0 out/external/libexternal_fuota_stack.a(LoRaMacClassB.o)
 .data          0x0000000020000000        0x0 out/external/libexternal_fuota_stack.a(LoRaMacCommands.o)
 .data          0x0000000020000000        0x0 out/external/libexternal_fuota_stack.a(LoRaMacConfirmQueue.o)
 .data          0x0000000020000000        0x0 out/external/libexternal_fuota_stack.a(LoRaMacCrypto.o)
 .data          0x0000000020000000        0x0 out/external/libexternal_fuota_stack.a(LoRaMacParser.o)
 .data          0x0000000020000000        0x0 out/external/libexternal_fuota_stack.a(LoRaMacSerializer.o)
 .data          0x0000000020000000        0x0 out/external/libexternal_fuota_stack.a(RegionAS923.o)
 .data          0x0000000020000000        0x0 out/external/libexternal_fuota_stack.a(RegionAU915.o)
 .data          0x0000000020000000        0x0 out/external/libexternal_fuota_stack.a(RegionBaseUS.o)
 .data          0x0000000020000000        0x0 out/external/libexternal_fuota_stack.a(Region.o)
 .data          0x0000000020000000        0x0 out/external/libexternal_fuota_stack.a(RegionCN470A20.o)
 .data          0x0000000020000000        0x0 out/external/libexternal_fuota_stack.a(RegionCN470A26.o)
 .data          0x0000000020000000        0x0 out/external/libexternal_fuota_stack.a(RegionCN470B20.o)
 .data          0x0000000020000000        0x0 out/external/libexternal_fuota_stack.a(RegionCN470B26.o)
 .data          0x0000000020000000        0x0 out/external/libexternal_fuota_stack.a(RegionCN470.o)
 .data          0x0000000020000000        0x0 out/external/libexternal_fuota_stack.a(RegionCN779.o)
 .data          0x0000000020000000        0x0 out/external/libexternal_fuota_stack.a(RegionCommon.o)
 .data          0x0000000020000000        0x0 out/external/libexternal_fuota_stack.a(RegionEU433.o)
 .data          0x0000000020000000        0x0 out/external/libexternal_fuota_stack.a(RegionEU868.o)
 .data          0x0000000020000000        0x0 out/external/libexternal_fuota_stack.a(RegionIN865.o)
 .data          0x0000000020000000        0x0 out/external/libexternal_fuota_stack.a(RegionKR920.o)
 .data          0x0000000020000000        0x0 out/external/libexternal_fuota_stack.a(RegionLA915.o)
 .data          0x0000000020000000        0x0 out/external/libexternal_fuota_stack.a(RegionRU864.o)
 .data          0x0000000020000000        0x0 out/external/libexternal_fuota_stack.a(RegionUS915.o)
 .data          0x0000000020000000        0x0 /opt/gcc-arm-none-eabi-10-2020-q4-major/bin/../lib/gcc/arm-none-eabi/10.2.1/../../../../arm-none-eabi/lib/thumb/v7e-m/nofp/libc_nano.a(lib_a-memcmp.o)
 .data          0x0000000020000000        0x0 /opt/gcc-arm-none-eabi-10-2020-q4-major/bin/../lib/gcc/arm-none-eabi/10.2.1/../../../../arm-none-eabi/lib/thumb/v7e-m/nofp/libc_nano.a(lib_a-memcpy-stub.o)
 .data          0x0000000020000000        0x0 /opt/gcc-arm-none-eabi-10-2020-q4-major/bin/../lib/gcc/arm-none-eabi/10.2.1/../../../../arm-none-eabi/lib/thumb/v7e-m/nofp/libc_nano.a(lib_a-memset.o)
 .data          0x0000000020000000        0x0 /opt/gcc-arm-none-eabi-10-2020-q4-major/bin/../lib/gcc/arm-none-eabi/10.2.1/../../../../arm-none-eabi/lib/thumb/v7e-m/nofp/libc_nano.a(lib_a-strlen.o)
 .data          0x0000000020000000        0x0 /opt/gcc-arm-none-eabi-10-2020-q4-major/bin/../lib/gcc/arm-none-eabi/10.2.1/../../../../arm-none-eabi/lib/thumb/v7e-m/nofp/libm.a(lib_a-s_floor.o)
 .data          0x0000000020000000        0x0 /home/jenkins/workspace/RUI_Release/rui-v3/version.o
 .data          0x0000000020000000        0x0 /opt/gcc-arm-none-eabi-10-2020-q4-major/bin/../lib/gcc/arm-none-eabi/10.2.1/thumb/v7e-m/nofp/libgcc.a(_arm_addsubdf3.o)
 .data          0x0000000020000000        0x0 /opt/gcc-arm-none-eabi-10-2020-q4-major/bin/../lib/gcc/arm-none-eabi/10.2.1/thumb/v7e-m/nofp/libgcc.a(_arm_cmpdf2.o)
 .data          0x0000000020000000        0x0 /opt/gcc-arm-none-eabi-10-2020-q4-major/bin/../lib/gcc/arm-none-eabi/10.2.1/thumb/v7e-m/nofp/libgcc.a(_arm_fixdfsi.o)
 .data          0x0000000020000000        0x0 /opt/gcc-arm-none-eabi-10-2020-q4-major/bin/../lib/gcc/arm-none-eabi/10.2.1/thumb/v7e-m/nofp/libgcc.a(_arm_addsubsf3.o)
 .data          0x0000000020000000        0x0 /opt/gcc-arm-none-eabi-10-2020-q4-major/bin/../lib/gcc/arm-none-eabi/10.2.1/thumb/v7e-m/nofp/libgcc.a(_arm_cmpsf2.o)
 .data          0x0000000020000000        0x0 /opt/gcc-arm-none-eabi-10-2020-q4-major/bin/../lib/gcc/arm-none-eabi/10.2.1/thumb/v7e-m/nofp/libgcc.a(_aeabi_ldivmod.o)
 .data          0x0000000020000000        0x0 /opt/gcc-arm-none-eabi-10-2020-q4-major/bin/../lib/gcc/arm-none-eabi/10.2.1/thumb/v7e-m/nofp/libgcc.a(_aeabi_uldivmod.o)
 .data          0x0000000020000000        0x0 /opt/gcc-arm-none-eabi-10-2020-q4-major/bin/../lib/gcc/arm-none-eabi/10.2.1/thumb/v7e-m/nofp/libgcc.a(_udivmoddi4.o)
 .data          0x0000000020000000        0x0 /opt/gcc-arm-none-eabi-10-2020-q4-major/bin/../lib/gcc/arm-none-eabi/10.2.1/thumb/v7e-m/nofp/libgcc.a(_dvmd_tls.o)
 *(.data*)
 .data.CommissioningParams
                0x0000000020000000       0x20 out/external/libexternal_fuota_stack.a(LmHandler.o)
 .data.LmhpClockSyncPackage
                0x0000000020000020       0x38 out/external/libexternal_fuota_stack.a(LmhpClockSync.o)
 .data.LmhpRemoteMcastSetupPackage
                0x0000000020000058       0x38 out/external/libexternal_fuota_stack.a(LmhpRemoteMcastSetup.o)
 .data.LmhpFragmentationPackage
                0x0000000020000090       0x38 out/external/libexternal_fuota_stack.a(LmhpFragmentation.o)
 .data.SystemCoreClock
                0x00000000200000c8        0x4 out/external/libexternal_fuota_stack.a(system_stm32wlxx.o)
                0x00000000200000c8                SystemCoreClock
 .data.iv_size  0x00000000200000cc        0x2 out/external/libexternal_fuota_stack.a(uhal_crypto.o)
 .data.MaxPayloadLength
                0x00000000200000ce        0x1 out/external/libexternal_fuota_stack.a(radio.o)
 *fill*         0x00000000200000cf        0x1 
 .data.WeekDayString
                0x00000000200000d0       0x1c out/external/libexternal_fuota_stack.a(stm32_systime.o)
                0x00000000200000d0                WeekDayString
 .data.uwTickFreq
                0x00000000200000ec        0x1 out/external/libexternal_fuota_stack.a(stm32wlxx_hal.o)
                0x00000000200000ec                uwTickFreq
 *fill*         0x00000000200000ed        0x3 
 .data.uwTickPrio
                0x00000000200000f0        0x4 out/external/libexternal_fuota_stack.a(stm32wlxx_hal.o)
                0x00000000200000f0                uwTickPrio
 .data.next     0x00000000200000f4        0x4 out/external/libexternal_fuota_stack.a(utilities.o)
 .data.KeyAddrList
                0x00000000200000f8       0x14 out/external/libexternal_fuota_stack.a(LoRaMacCrypto.o)
 .data.AS923BeaconFreq
                0x000000002000010c       0x14 out/external/libexternal_fuota_stack.a(RegionAS923.o)
                0x000000002000010c                AS923BeaconFreq
 .data.AS923PingSlotFreq
                0x0000000020000120       0x14 out/external/libexternal_fuota_stack.a(RegionAS923.o)
                0x0000000020000120                AS923PingSlotFreq
 .data.AS923Rx2Freq
                0x0000000020000134       0x14 out/external/libexternal_fuota_stack.a(RegionAS923.o)
                0x0000000020000134                AS923Rx2Freq
 .data.AS923_Ch1
                0x0000000020000148       0x3c out/external/libexternal_fuota_stack.a(RegionAS923.o)
                0x0000000020000148                AS923_Ch1
 .data.AS923_Ch2
                0x0000000020000184       0x3c out/external/libexternal_fuota_stack.a(RegionAS923.o)
                0x0000000020000184                AS923_Ch2
 .data.CommonJoinChannels
                0x00000000200001c0       0xf0 out/external/libexternal_fuota_stack.a(RegionCN470.o)
                0x00000000200001c0                CommonJoinChannels
 .data.sw_version
                0x00000000200002b0        0x4 /home/jenkins/workspace/RUI_Release/rui-v3/version.o
                0x00000000200002b0                sw_version
 .data.model_id
                0x00000000200002b4        0x4 /home/jenkins/workspace/RUI_Release/rui-v3/version.o
                0x00000000200002b4                model_id
 .data.chip_id  0x00000000200002b8        0x4 /home/jenkins/workspace/RUI_Release/rui-v3/version.o
                0x00000000200002b8                chip_id
 .data.build_date
                0x00000000200002bc        0x4 /home/jenkins/workspace/RUI_Release/rui-v3/version.o
                0x00000000200002bc                build_date
 .data.build_time
                0x00000000200002c0        0x4 /home/jenkins/workspace/RUI_Release/rui-v3/version.o
                0x00000000200002c0                build_time
 .data.repo_info
                0x00000000200002c4        0x4 /home/jenkins/workspace/RUI_Release/rui-v3/version.o
                0x00000000200002c4                repo_info
 .data.cli_version
                0x00000000200002c8        0x4 /home/jenkins/workspace/RUI_Release/rui-v3/version.o
                0x00000000200002c8                cli_version
 .data.api_version
                0x00000000200002cc        0x4 /home/jenkins/workspace/RUI_Release/rui-v3/version.o
                0x00000000200002cc                api_version
                0x00000000200002d0                . = ALIGN (0x8)
                0x00000000200002d0                _edata_lora = .

.igot.plt       0x00000000200002d0        0x0 load address 0x000000000803c2d0
 .igot.plt      0x00000000200002d0        0x0 out/external/libexternal_fuota_stack.a(subghz.o)
                0x00000000200002d0                . = ALIGN (0x8)

.bss            0x00000000200002d0     0x5bc8 load address 0x000000000803c2d0
                0x00000000200002d0                _sbss_lora = .
                0x00000000200002d0                __bss_lora_start__ = _sbss_lora
 *(.bss)
 .bss           0x00000000200002d0        0x0 out/external/libexternal_fuota_stack.a(subghz.o)
 .bss           0x00000000200002d0        0x0 out/external/libexternal_fuota_stack.a(radio_board_if.o)
 .bss           0x00000000200002d0        0x0 out/external/libexternal_fuota_stack.a(timer_if.o)
 .bss           0x00000000200002d0        0x0 out/external/libexternal_fuota_stack.a(board.o)
 .bss           0x00000000200002d0        0x0 out/external/libexternal_fuota_stack.a(service_lora_config.o)
 .bss           0x00000000200002d0        0x0 out/external/libexternal_fuota_stack.a(service_lora_multicast.o)
 .bss           0x00000000200002d0        0x0 out/external/libexternal_fuota_stack.a(LmHandler.o)
 .bss           0x00000000200002d0        0x0 out/external/libexternal_fuota_stack.a(LmhpClockSync.o)
 .bss           0x00000000200002d0        0x0 out/external/libexternal_fuota_stack.a(LmhpRemoteMcastSetup.o)
 .bss           0x00000000200002d0        0x0 out/external/libexternal_fuota_stack.a(LmhpFragmentation.o)
 .bss           0x00000000200002d0        0x0 out/external/libexternal_fuota_stack.a(FragDecoder.o)
 .bss           0x00000000200002d0        0x0 out/external/libexternal_fuota_stack.a(udrv_flash.o)
 .bss           0x00000000200002d0        0x0 out/external/libexternal_fuota_stack.a(system_stm32wlxx.o)
 .bss           0x00000000200002d0        0x0 out/external/libexternal_fuota_stack.a(stm32wlxx_hal_msp.o)
 .bss           0x00000000200002d0        0x0 out/external/libexternal_fuota_stack.a(service_nvm_common.o)
 .bss           0x00000000200002d0        0x0 out/external/libexternal_fuota_stack.a(uhal_flash.o)
 .bss           0x00000000200002d0        0x0 out/external/libexternal_fuota_stack.a(uhal_system.o)
 .bss           0x00000000200002d0        0x0 out/external/libexternal_fuota_stack.a(uhal_rtc.o)
 .bss           0x00000000200002d0        0x0 out/external/libexternal_fuota_stack.a(uhal_crypto.o)
 .bss           0x00000000200002d0        0x0 out/external/libexternal_fuota_stack.a(stm32wlxx_hal_cortex.o)
 .bss           0x00000000200002d0        0x0 out/external/libexternal_fuota_stack.a(radio.o)
 .bss           0x00000000200002d0        0x0 out/external/libexternal_fuota_stack.a(radio_fw.o)
 .bss           0x00000000200002d0        0x0 out/external/libexternal_fuota_stack.a(radio_driver.o)
 .bss           0x00000000200002d0        0x0 out/external/libexternal_fuota_stack.a(stm32_mem.o)
 .bss           0x00000000200002d0        0x0 out/external/libexternal_fuota_stack.a(stm32_timer.o)
 .bss           0x00000000200002d0        0x0 out/external/libexternal_fuota_stack.a(stm32_tiny_vsnprintf.o)
 .bss           0x00000000200002d0        0x0 out/external/libexternal_fuota_stack.a(stm32_systime.o)
 .bss           0x00000000200002d0        0x0 out/external/libexternal_fuota_stack.a(stm32wlxx_hal.o)
 .bss           0x00000000200002d0        0x0 out/external/libexternal_fuota_stack.a(stm32wlxx_hal_rcc.o)
 .bss           0x00000000200002d0        0x0 out/external/libexternal_fuota_stack.a(stm32wlxx_hal_rcc_ex.o)
 .bss           0x00000000200002d0        0x0 out/external/libexternal_fuota_stack.a(stm32wlxx_hal_rtc.o)
 .bss           0x00000000200002d0        0x0 out/external/libexternal_fuota_stack.a(stm32wlxx_hal_rtc_ex.o)
 .bss           0x00000000200002d0        0x0 out/external/libexternal_fuota_stack.a(stm32wlxx_hal_pwr.o)
 .bss           0x00000000200002d0        0x0 out/external/libexternal_fuota_stack.a(stm32wlxx_hal_pwr_ex.o)
 .bss           0x00000000200002d0        0x0 out/external/libexternal_fuota_stack.a(stm32wlxx_hal_flash.o)
 .bss           0x00000000200002d0        0x0 out/external/libexternal_fuota_stack.a(stm32wlxx_hal_flash_ex.o)
 .bss           0x00000000200002d0        0x0 out/external/libexternal_fuota_stack.a(stm32wlxx_hal_subghz.o)
 .bss           0x00000000200002d0        0x0 out/external/libexternal_fuota_stack.a(stm32wlxx_hal_gpio.o)
 .bss           0x00000000200002d0        0x0 out/external/libexternal_fuota_stack.a(stm32wlxx_hal_cryp.o)
 .bss           0x00000000200002d0        0x0 out/external/libexternal_fuota_stack.a(stm32wlxx_hal_dma.o)
 .bss           0x00000000200002d0        0x0 out/external/libexternal_fuota_stack.a(utilities.o)
 .bss           0x00000000200002d0        0x0 out/external/libexternal_fuota_stack.a(cmac.o)
 .bss           0x00000000200002d0        0x0 out/external/libexternal_fuota_stack.a(soft-se-hal.o)
 .bss           0x00000000200002d0        0x0 out/external/libexternal_fuota_stack.a(soft-se.o)
 .bss           0x00000000200002d0        0x0 out/external/libexternal_fuota_stack.a(LoRaMacAdr.o)
 .bss           0x00000000200002d0        0x0 out/external/libexternal_fuota_stack.a(LoRaMac.o)
 .bss           0x00000000200002d0        0x0 out/external/libexternal_fuota_stack.a(LoRaMacClassB.o)
 .bss           0x00000000200002d0        0x0 out/external/libexternal_fuota_stack.a(LoRaMacCommands.o)
 .bss           0x00000000200002d0        0x0 out/external/libexternal_fuota_stack.a(LoRaMacConfirmQueue.o)
 .bss           0x00000000200002d0        0x0 out/external/libexternal_fuota_stack.a(LoRaMacCrypto.o)
 .bss           0x00000000200002d0        0x0 out/external/libexternal_fuota_stack.a(LoRaMacParser.o)
 .bss           0x00000000200002d0        0x0 out/external/libexternal_fuota_stack.a(LoRaMacSerializer.o)
 .bss           0x00000000200002d0        0x0 out/external/libexternal_fuota_stack.a(RegionAS923.o)
 .bss           0x00000000200002d0        0x0 out/external/libexternal_fuota_stack.a(RegionAU915.o)
 .bss           0x00000000200002d0        0x0 out/external/libexternal_fuota_stack.a(RegionBaseUS.o)
 .bss           0x00000000200002d0        0x0 out/external/libexternal_fuota_stack.a(Region.o)
 .bss           0x00000000200002d0        0x0 out/external/libexternal_fuota_stack.a(RegionCN470A20.o)
 .bss           0x00000000200002d0        0x0 out/external/libexternal_fuota_stack.a(RegionCN470A26.o)
 .bss           0x00000000200002d0        0x0 out/external/libexternal_fuota_stack.a(RegionCN470B20.o)
 .bss           0x00000000200002d0        0x0 out/external/libexternal_fuota_stack.a(RegionCN470B26.o)
 .bss           0x00000000200002d0        0x0 out/external/libexternal_fuota_stack.a(RegionCN470.o)
 .bss           0x00000000200002d0        0x0 out/external/libexternal_fuota_stack.a(RegionCN779.o)
 .bss           0x00000000200002d0        0x0 out/external/libexternal_fuota_stack.a(RegionCommon.o)
 .bss           0x00000000200002d0        0x0 out/external/libexternal_fuota_stack.a(RegionEU433.o)
 .bss           0x00000000200002d0        0x0 out/external/libexternal_fuota_stack.a(RegionEU868.o)
 .bss           0x00000000200002d0        0x0 out/external/libexternal_fuota_stack.a(RegionIN865.o)
 .bss           0x00000000200002d0        0x0 out/external/libexternal_fuota_stack.a(RegionKR920.o)
 .bss           0x00000000200002d0        0x0 out/external/libexternal_fuota_stack.a(RegionLA915.o)
 .bss           0x00000000200002d0        0x0 out/external/libexternal_fuota_stack.a(RegionRU864.o)
 .bss           0x00000000200002d0        0x0 out/external/libexternal_fuota_stack.a(RegionUS915.o)
 .bss           0x00000000200002d0        0x0 /opt/gcc-arm-none-eabi-10-2020-q4-major/bin/../lib/gcc/arm-none-eabi/10.2.1/../../../../arm-none-eabi/lib/thumb/v7e-m/nofp/libc_nano.a(lib_a-memcmp.o)
 .bss           0x00000000200002d0        0x0 /opt/gcc-arm-none-eabi-10-2020-q4-major/bin/../lib/gcc/arm-none-eabi/10.2.1/../../../../arm-none-eabi/lib/thumb/v7e-m/nofp/libc_nano.a(lib_a-memcpy-stub.o)
 .bss           0x00000000200002d0        0x0 /opt/gcc-arm-none-eabi-10-2020-q4-major/bin/../lib/gcc/arm-none-eabi/10.2.1/../../../../arm-none-eabi/lib/thumb/v7e-m/nofp/libc_nano.a(lib_a-memset.o)
 .bss           0x00000000200002d0        0x0 /opt/gcc-arm-none-eabi-10-2020-q4-major/bin/../lib/gcc/arm-none-eabi/10.2.1/../../../../arm-none-eabi/lib/thumb/v7e-m/nofp/libc_nano.a(lib_a-strlen.o)
 .bss           0x00000000200002d0        0x0 /opt/gcc-arm-none-eabi-10-2020-q4-major/bin/../lib/gcc/arm-none-eabi/10.2.1/../../../../arm-none-eabi/lib/thumb/v7e-m/nofp/libm.a(lib_a-s_floor.o)
 .bss           0x00000000200002d0        0x0 /home/jenkins/workspace/RUI_Release/rui-v3/version.o
 .bss           0x00000000200002d0        0x0 /opt/gcc-arm-none-eabi-10-2020-q4-major/bin/../lib/gcc/arm-none-eabi/10.2.1/thumb/v7e-m/nofp/libgcc.a(_arm_addsubdf3.o)
 .bss           0x00000000200002d0        0x0 /opt/gcc-arm-none-eabi-10-2020-q4-major/bin/../lib/gcc/arm-none-eabi/10.2.1/thumb/v7e-m/nofp/libgcc.a(_arm_cmpdf2.o)
 .bss           0x00000000200002d0        0x0 /opt/gcc-arm-none-eabi-10-2020-q4-major/bin/../lib/gcc/arm-none-eabi/10.2.1/thumb/v7e-m/nofp/libgcc.a(_arm_fixdfsi.o)
 .bss           0x00000000200002d0        0x0 /opt/gcc-arm-none-eabi-10-2020-q4-major/bin/../lib/gcc/arm-none-eabi/10.2.1/thumb/v7e-m/nofp/libgcc.a(_arm_addsubsf3.o)
 .bss           0x00000000200002d0        0x0 /opt/gcc-arm-none-eabi-10-2020-q4-major/bin/../lib/gcc/arm-none-eabi/10.2.1/thumb/v7e-m/nofp/libgcc.a(_arm_cmpsf2.o)
 .bss           0x00000000200002d0        0x0 /opt/gcc-arm-none-eabi-10-2020-q4-major/bin/../lib/gcc/arm-none-eabi/10.2.1/thumb/v7e-m/nofp/libgcc.a(_aeabi_ldivmod.o)
 .bss           0x00000000200002d0        0x0 /opt/gcc-arm-none-eabi-10-2020-q4-major/bin/../lib/gcc/arm-none-eabi/10.2.1/thumb/v7e-m/nofp/libgcc.a(_aeabi_uldivmod.o)
 .bss           0x00000000200002d0        0x0 /opt/gcc-arm-none-eabi-10-2020-q4-major/bin/../lib/gcc/arm-none-eabi/10.2.1/thumb/v7e-m/nofp/libgcc.a(_udivmoddi4.o)
 .bss           0x00000000200002d0        0x0 /opt/gcc-arm-none-eabi-10-2020-q4-major/bin/../lib/gcc/arm-none-eabi/10.2.1/thumb/v7e-m/nofp/libgcc.a(_dvmd_tls.o)
 *(.bss*)
 .bss.hsubghz   0x00000000200002d0        0xc out/external/libexternal_fuota_stack.a(subghz.o)
                0x00000000200002d0                hsubghz
 .bss.RTC_Initialized
                0x00000000200002dc        0x1 out/external/libexternal_fuota_stack.a(timer_if.o)
 *fill*         0x00000000200002dd        0x3 
 .bss.RtcTimerContext
                0x00000000200002e0        0x4 out/external/libexternal_fuota_stack.a(timer_if.o)
 .bss.IsClockSynched
                0x00000000200002e4        0x1 out/external/libexternal_fuota_stack.a(service_lora_config.o)
                0x00000000200002e4                IsClockSynched
 *fill*         0x00000000200002e5        0x3 
 .bss.LmHandlerPackages_fuota
                0x00000000200002e8       0x10 out/external/libexternal_fuota_stack.a(service_lora_config.o)
                0x00000000200002e8                LmHandlerPackages_fuota
 .bss.McSession_group
                0x00000000200002f8       0xd0 out/external/libexternal_fuota_stack.a(service_lora_multicast.o)
                0x00000000200002f8                McSession_group
 .bss.IsUplinkTxPending
                0x00000000200003c8        0x1 out/external/libexternal_fuota_stack.a(LmHandler.o)
 *fill*         0x00000000200003c9        0x3 
 .bss.LmHandlerCallbacks
                0x00000000200003cc        0x4 out/external/libexternal_fuota_stack.a(LmHandler.o)
 .bss.LmHandlerPackages
                0x00000000200003d0       0x10 out/external/libexternal_fuota_stack.a(LmHandler.o)
                0x00000000200003d0                LmHandlerPackages
 .bss.LmHandlerParams
                0x00000000200003e0        0x4 out/external/libexternal_fuota_stack.a(LmHandler.o)
                0x00000000200003e0                LmHandlerParams
 .bss.LmhpClockSyncState
                0x00000000200003e4       0x10 out/external/libexternal_fuota_stack.a(LmhpClockSync.o)
 .bss.LmhpRemoteMcastSetupState
                0x00000000200003f4        0x8 out/external/libexternal_fuota_stack.a(LmhpRemoteMcastSetup.o)
 .bss.McSessionData
                0x00000000200003fc       0xe0 out/external/libexternal_fuota_stack.a(LmhpRemoteMcastSetup.o)
                0x00000000200003fc                McSessionData
 .bss.SessionStartTimer
                0x00000000200004dc       0x18 out/external/libexternal_fuota_stack.a(LmhpRemoteMcastSetup.o)
 .bss.SessionStopTimer
                0x00000000200004f4       0x18 out/external/libexternal_fuota_stack.a(LmhpRemoteMcastSetup.o)
                0x00000000200004f4                SessionStopTimer
 .bss.service_lora_mcastsetup_callback
                0x000000002000050c        0x4 out/external/libexternal_fuota_stack.a(LmhpRemoteMcastSetup.o)
 .bss.DelayedReplyAppData
                0x0000000020000510        0x8 out/external/libexternal_fuota_stack.a(LmhpFragmentation.o)
                0x0000000020000510                DelayedReplyAppData
 .bss.FragSessionData
                0x0000000020000518       0x60 out/external/libexternal_fuota_stack.a(LmhpFragmentation.o)
                0x0000000020000518                FragSessionData
 .bss.FragmentTxDelayTimer
                0x0000000020000578       0x18 out/external/libexternal_fuota_stack.a(LmhpFragmentation.o)
 .bss.LmhpFragmentationParams
                0x0000000020000590        0x4 out/external/libexternal_fuota_stack.a(LmhpFragmentation.o)
                0x0000000020000590                LmhpFragmentationParams
 .bss.LmhpFragmentationState
                0x0000000020000594        0xc out/external/libexternal_fuota_stack.a(LmhpFragmentation.o)
 .bss.TxDelayTime
                0x00000000200005a0        0x4 out/external/libexternal_fuota_stack.a(LmhpFragmentation.o)
 .bss.FragDecoder
                0x00000000200005a4     0x2478 out/external/libexternal_fuota_stack.a(FragDecoder.o)
 *fill*         0x0000000020002a1c        0x4 
 .bss.page_buff
                0x0000000020002a20     0x1000 out/external/libexternal_fuota_stack.a(udrv_flash.o)
 .bss.udrv_flash_initialized
                0x0000000020003a20        0x1 out/external/libexternal_fuota_stack.a(udrv_flash.o)
                0x0000000020003a20                udrv_flash_initialized
 *fill*         0x0000000020003a21        0x3 
 .bss.g_lora_mac_nvm_data
                0x0000000020003a24      0x7fc out/external/libexternal_fuota_stack.a(service_nvm_common.o)
                0x0000000020003a24                g_lora_mac_nvm_data
 .bss.g_rui_cfg_t
                0x0000000020004220      0x294 out/external/libexternal_fuota_stack.a(service_nvm_common.o)
                0x0000000020004220                g_rui_cfg_t
 .bss.EraseInitStruct.0
                0x00000000200044b4        0xc out/external/libexternal_fuota_stack.a(uhal_flash.o)
 .bss.uhal_system_user_app_timer_id
                0x00000000200044c0       0x18 out/external/libexternal_fuota_stack.a(uhal_system.o)
 .bss.hrtc      0x00000000200044d8       0x38 out/external/libexternal_fuota_stack.a(uhal_rtc.o)
                0x00000000200044d8                hrtc
 .bss.hcryp     0x0000000020004510      0x10c out/external/libexternal_fuota_stack.a(uhal_crypto.o)
                0x0000000020004510                hcryp
 .bss.hdma_aes_in
                0x000000002000461c       0x60 out/external/libexternal_fuota_stack.a(uhal_crypto.o)
                0x000000002000461c                hdma_aes_in
 .bss.hdma_aes_out
                0x000000002000467c       0x60 out/external/libexternal_fuota_stack.a(uhal_crypto.o)
                0x000000002000467c                hdma_aes_out
 .bss.iv        0x00000000200046dc       0x10 out/external/libexternal_fuota_stack.a(uhal_crypto.o)
 .bss.key       0x00000000200046ec       0x10 out/external/libexternal_fuota_stack.a(uhal_crypto.o)
 .bss.key_size  0x00000000200046fc        0x2 out/external/libexternal_fuota_stack.a(uhal_crypto.o)
 .bss.RadioBuffer
                0x00000000200046fe       0xff out/external/libexternal_fuota_stack.a(radio.o)
 *fill*         0x00000000200047fd        0x3 
 .bss.RadioEvents
                0x0000000020004800        0x4 out/external/libexternal_fuota_stack.a(radio.o)
 .bss.RxTimeoutTimer
                0x0000000020004804       0x18 out/external/libexternal_fuota_stack.a(radio.o)
                0x0000000020004804                RxTimeoutTimer
 .bss.SubgRf    0x000000002000481c       0x58 out/external/libexternal_fuota_stack.a(radio.o)
                0x000000002000481c                SubgRf
 .bss.TxTimeoutTimer
                0x0000000020004874       0x18 out/external/libexternal_fuota_stack.a(radio.o)
                0x0000000020004874                TxTimeoutTimer
 .bss.FrequencyError
                0x000000002000488c        0x4 out/external/libexternal_fuota_stack.a(radio_driver.o)
                0x000000002000488c                FrequencyError
 .bss.ImageCalibrated
                0x0000000020004890        0x1 out/external/libexternal_fuota_stack.a(radio_driver.o)
 .bss.LoRaHeaderType
                0x0000000020004891        0x1 out/external/libexternal_fuota_stack.a(radio_driver.o)
 .bss.OperatingMode
                0x0000000020004892        0x1 out/external/libexternal_fuota_stack.a(radio_driver.o)
 .bss.PacketType
                0x0000000020004893        0x1 out/external/libexternal_fuota_stack.a(radio_driver.o)
 .bss.RadioOnDioIrqCb
                0x0000000020004894        0x4 out/external/libexternal_fuota_stack.a(radio_driver.o)
 .bss.TimerListHead
                0x0000000020004898        0x4 out/external/libexternal_fuota_stack.a(stm32_timer.o)
 .bss.uwTick    0x000000002000489c        0x4 out/external/libexternal_fuota_stack.a(stm32wlxx_hal.o)
                0x000000002000489c                uwTick
 .bss.pFlash    0x00000000200048a0       0x18 out/external/libexternal_fuota_stack.a(stm32wlxx_hal_flash.o)
                0x00000000200048a0                pFlash
 .bss.SeNvm     0x00000000200048b8        0x4 out/external/libexternal_fuota_stack.a(soft-se.o)
 .bss.LoRaMacRadioEvents
                0x00000000200048bc        0x4 out/external/libexternal_fuota_stack.a(LoRaMac.o)
                0x00000000200048bc                LoRaMacRadioEvents
 .bss.MacCtx    0x00000000200048c0      0x580 out/external/libexternal_fuota_stack.a(LoRaMac.o)
 .bss.Nvm       0x0000000020004e40      0x850 out/external/libexternal_fuota_stack.a(LoRaMac.o)
 .bss.RegionBands
                0x0000000020005690       0x90 out/external/libexternal_fuota_stack.a(LoRaMac.o)
 .bss.RxDoneParams
                0x0000000020005720       0x10 out/external/libexternal_fuota_stack.a(LoRaMac.o)
                0x0000000020005720                RxDoneParams
 .bss.TxDoneParams
                0x0000000020005730        0x4 out/external/libexternal_fuota_stack.a(LoRaMac.o)
                0x0000000020005730                TxDoneParams
 .bss.initialized.0
                0x0000000020005734        0x1 out/external/libexternal_fuota_stack.a(LoRaMac.o)
 *fill*         0x0000000020005735        0x3 
 .bss.ClassBNvm
                0x0000000020005738        0x4 out/external/libexternal_fuota_stack.a(LoRaMacClassB.o)
 .bss.Ctx       0x000000002000573c       0xc4 out/external/libexternal_fuota_stack.a(LoRaMacClassB.o)
 .bss.LoRaMacClassBEvents
                0x0000000020005800        0x4 out/external/libexternal_fuota_stack.a(LoRaMacClassB.o)
                0x0000000020005800                LoRaMacClassBEvents
 .bss.multicastSlotRxConfig.0
                0x0000000020005804       0x14 out/external/libexternal_fuota_stack.a(LoRaMacClassB.o)
 .bss.pingSlotRxConfig.1
                0x0000000020005818       0x14 out/external/libexternal_fuota_stack.a(LoRaMacClassB.o)
 .bss.CommandsCtx
                0x000000002000582c      0x20c out/external/libexternal_fuota_stack.a(LoRaMacCommands.o)
 .bss.ConfirmQueueCtx
                0x0000000020005a38       0x24 out/external/libexternal_fuota_stack.a(LoRaMacConfirmQueue.o)
 .bss.CryptoNvm
                0x0000000020005a5c        0x4 out/external/libexternal_fuota_stack.a(LoRaMacCrypto.o)
 .bss.RJcount0  0x0000000020005a60        0x2 out/external/libexternal_fuota_stack.a(LoRaMacCrypto.o)
 .bss.AS923SubBand
                0x0000000020005a62        0x1 out/external/libexternal_fuota_stack.a(RegionAS923.o)
 *fill*         0x0000000020005a63        0x1 
 .bss.RegionBands
                0x0000000020005a64        0x4 out/external/libexternal_fuota_stack.a(RegionAS923.o)
 .bss.RegionNvmGroup2
                0x0000000020005a68        0x4 out/external/libexternal_fuota_stack.a(RegionAS923.o)
 .bss.AU915_SingleChannel
                0x0000000020005a6c        0x8 out/external/libexternal_fuota_stack.a(RegionAU915.o)
 .bss.RegionBands
                0x0000000020005a74        0x4 out/external/libexternal_fuota_stack.a(RegionAU915.o)
 .bss.RegionNvmGroup1
                0x0000000020005a78        0x4 out/external/libexternal_fuota_stack.a(RegionAU915.o)
 .bss.RegionNvmGroup2
                0x0000000020005a7c        0x4 out/external/libexternal_fuota_stack.a(RegionAU915.o)
 .bss.ChannelPlanCtx
                0x0000000020005a80       0x24 out/external/libexternal_fuota_stack.a(RegionCN470.o)
 .bss.RegionBands
                0x0000000020005aa4        0x4 out/external/libexternal_fuota_stack.a(RegionCN470.o)
 .bss.RegionNvmGroup1
                0x0000000020005aa8        0x4 out/external/libexternal_fuota_stack.a(RegionCN470.o)
 .bss.RegionNvmGroup2
                0x0000000020005aac        0x4 out/external/libexternal_fuota_stack.a(RegionCN470.o)
 .bss.RegionBands
                0x0000000020005ab0        0x4 out/external/libexternal_fuota_stack.a(RegionCN779.o)
 .bss.RegionNvmGroup2
                0x0000000020005ab4        0x4 out/external/libexternal_fuota_stack.a(RegionCN779.o)
 .bss.RegionBands
                0x0000000020005ab8        0x4 out/external/libexternal_fuota_stack.a(RegionEU433.o)
 .bss.RegionNvmGroup2
                0x0000000020005abc        0x4 out/external/libexternal_fuota_stack.a(RegionEU433.o)
 .bss.RegionBands
                0x0000000020005ac0        0x4 out/external/libexternal_fuota_stack.a(RegionEU868.o)
 .bss.RegionNvmGroup2
                0x0000000020005ac4        0x4 out/external/libexternal_fuota_stack.a(RegionEU868.o)
 .bss.RegionBands
                0x0000000020005ac8        0x4 out/external/libexternal_fuota_stack.a(RegionIN865.o)
 .bss.RegionNvmGroup2
                0x0000000020005acc        0x4 out/external/libexternal_fuota_stack.a(RegionIN865.o)
 .bss.RegionBands
                0x0000000020005ad0        0x4 out/external/libexternal_fuota_stack.a(RegionKR920.o)
 .bss.RegionNvmGroup2
                0x0000000020005ad4        0x4 out/external/libexternal_fuota_stack.a(RegionKR920.o)
 .bss.NvmCtx    0x0000000020005ad8      0x39c out/external/libexternal_fuota_stack.a(RegionLA915.o)
 .bss.trialsCount.0
                0x0000000020005e74        0x1 out/external/libexternal_fuota_stack.a(RegionLA915.o)
 *fill*         0x0000000020005e75        0x3 
 .bss.RegionBands
                0x0000000020005e78        0x4 out/external/libexternal_fuota_stack.a(RegionRU864.o)
 .bss.RegionNvmGroup2
                0x0000000020005e7c        0x4 out/external/libexternal_fuota_stack.a(RegionRU864.o)
 .bss.RegionBands
                0x0000000020005e80        0x4 out/external/libexternal_fuota_stack.a(RegionUS915.o)
 .bss.RegionNvmGroup1
                0x0000000020005e84        0x4 out/external/libexternal_fuota_stack.a(RegionUS915.o)
 .bss.RegionNvmGroup2
                0x0000000020005e88        0x4 out/external/libexternal_fuota_stack.a(RegionUS915.o)
 .bss.US915_SingleChannel
                0x0000000020005e8c        0x8 out/external/libexternal_fuota_stack.a(RegionUS915.o)
 *(COMMON)
                0x0000000020005e98                . = ALIGN (0x8)
 *fill*         0x0000000020005e94        0x4 
                0x0000000020005e98                _ebss_lora = .
                0x0000000020005e98                __bss_lora_end__ = _ebss_lora

/DISCARD/
 libc.a(*)
 libm.a(*)
 libgcc.a(*)

.ARM.attributes
                0x0000000000000000       0x2c
 *(.ARM.attributes)
 .ARM.attributes
                0x0000000000000000       0x2e out/external/libexternal_fuota_stack.a(subghz.o)
 .ARM.attributes
                0x000000000000002e       0x2e out/external/libexternal_fuota_stack.a(radio_board_if.o)
 .ARM.attributes
                0x000000000000005c       0x2e out/external/libexternal_fuota_stack.a(timer_if.o)
 .ARM.attributes
                0x000000000000008a       0x2e out/external/libexternal_fuota_stack.a(board.o)
 .ARM.attributes
                0x00000000000000b8       0x2e out/external/libexternal_fuota_stack.a(service_lora_config.o)
 .ARM.attributes
                0x00000000000000e6       0x2e out/external/libexternal_fuota_stack.a(service_lora_multicast.o)
 .ARM.attributes
                0x0000000000000114       0x2e out/external/libexternal_fuota_stack.a(LmHandler.o)
 .ARM.attributes
                0x0000000000000142       0x2e out/external/libexternal_fuota_stack.a(LmhpClockSync.o)
 .ARM.attributes
                0x0000000000000170       0x2e out/external/libexternal_fuota_stack.a(LmhpRemoteMcastSetup.o)
 .ARM.attributes
                0x000000000000019e       0x2e out/external/libexternal_fuota_stack.a(LmhpFragmentation.o)
 .ARM.attributes
                0x00000000000001cc       0x2e out/external/libexternal_fuota_stack.a(FragDecoder.o)
 .ARM.attributes
                0x00000000000001fa       0x2e out/external/libexternal_fuota_stack.a(udrv_flash.o)
 .ARM.attributes
                0x0000000000000228       0x2e out/external/libexternal_fuota_stack.a(system_stm32wlxx.o)
 .ARM.attributes
                0x0000000000000256       0x2e out/external/libexternal_fuota_stack.a(stm32wlxx_hal_msp.o)
 .ARM.attributes
                0x0000000000000284       0x2e out/external/libexternal_fuota_stack.a(service_nvm_common.o)
 .ARM.attributes
                0x00000000000002b2       0x2e out/external/libexternal_fuota_stack.a(uhal_flash.o)
 .ARM.attributes
                0x00000000000002e0       0x2e out/external/libexternal_fuota_stack.a(uhal_system.o)
 .ARM.attributes
                0x000000000000030e       0x2e out/external/libexternal_fuota_stack.a(uhal_rtc.o)
 .ARM.attributes
                0x000000000000033c       0x2e out/external/libexternal_fuota_stack.a(uhal_crypto.o)
 .ARM.attributes
                0x000000000000036a       0x2e out/external/libexternal_fuota_stack.a(stm32wlxx_hal_cortex.o)
 .ARM.attributes
                0x0000000000000398       0x2e out/external/libexternal_fuota_stack.a(radio.o)
 .ARM.attributes
                0x00000000000003c6       0x2e out/external/libexternal_fuota_stack.a(radio_fw.o)
 .ARM.attributes
                0x00000000000003f4       0x2e out/external/libexternal_fuota_stack.a(radio_driver.o)
 .ARM.attributes
                0x0000000000000422       0x2e out/external/libexternal_fuota_stack.a(stm32_mem.o)
 .ARM.attributes
                0x0000000000000450       0x2e out/external/libexternal_fuota_stack.a(stm32_timer.o)
 .ARM.attributes
                0x000000000000047e       0x2e out/external/libexternal_fuota_stack.a(stm32_tiny_vsnprintf.o)
 .ARM.attributes
                0x00000000000004ac       0x2e out/external/libexternal_fuota_stack.a(stm32_systime.o)
 .ARM.attributes
                0x00000000000004da       0x2e out/external/libexternal_fuota_stack.a(stm32wlxx_hal.o)
 .ARM.attributes
                0x0000000000000508       0x2e out/external/libexternal_fuota_stack.a(stm32wlxx_hal_rcc.o)
 .ARM.attributes
                0x0000000000000536       0x2e out/external/libexternal_fuota_stack.a(stm32wlxx_hal_rcc_ex.o)
 .ARM.attributes
                0x0000000000000564       0x2e out/external/libexternal_fuota_stack.a(stm32wlxx_hal_rtc.o)
 .ARM.attributes
                0x0000000000000592       0x2e out/external/libexternal_fuota_stack.a(stm32wlxx_hal_rtc_ex.o)
 .ARM.attributes
                0x00000000000005c0       0x2e out/external/libexternal_fuota_stack.a(stm32wlxx_hal_pwr.o)
 .ARM.attributes
                0x00000000000005ee       0x2e out/external/libexternal_fuota_stack.a(stm32wlxx_hal_pwr_ex.o)
 .ARM.attributes
                0x000000000000061c       0x2e out/external/libexternal_fuota_stack.a(stm32wlxx_hal_flash.o)
 .ARM.attributes
                0x000000000000064a       0x2e out/external/libexternal_fuota_stack.a(stm32wlxx_hal_flash_ex.o)
 .ARM.attributes
                0x0000000000000678       0x2e out/external/libexternal_fuota_stack.a(stm32wlxx_hal_subghz.o)
 .ARM.attributes
                0x00000000000006a6       0x2e out/external/libexternal_fuota_stack.a(stm32wlxx_hal_gpio.o)
 .ARM.attributes
                0x00000000000006d4       0x2e out/external/libexternal_fuota_stack.a(stm32wlxx_hal_cryp.o)
 .ARM.attributes
                0x0000000000000702       0x2e out/external/libexternal_fuota_stack.a(stm32wlxx_hal_dma.o)
 .ARM.attributes
                0x0000000000000730       0x2e out/external/libexternal_fuota_stack.a(utilities.o)
 .ARM.attributes
                0x000000000000075e       0x2e out/external/libexternal_fuota_stack.a(cmac.o)
 .ARM.attributes
                0x000000000000078c       0x2e out/external/libexternal_fuota_stack.a(soft-se-hal.o)
 .ARM.attributes
                0x00000000000007ba       0x2e out/external/libexternal_fuota_stack.a(soft-se.o)
 .ARM.attributes
                0x00000000000007e8       0x2e out/external/libexternal_fuota_stack.a(LoRaMacAdr.o)
 .ARM.attributes
                0x0000000000000816       0x2e out/external/libexternal_fuota_stack.a(LoRaMac.o)
 .ARM.attributes
                0x0000000000000844       0x2e out/external/libexternal_fuota_stack.a(LoRaMacClassB.o)
 .ARM.attributes
                0x0000000000000872       0x2e out/external/libexternal_fuota_stack.a(LoRaMacCommands.o)
 .ARM.attributes
                0x00000000000008a0       0x2e out/external/libexternal_fuota_stack.a(LoRaMacConfirmQueue.o)
 .ARM.attributes
                0x00000000000008ce       0x2e out/external/libexternal_fuota_stack.a(LoRaMacCrypto.o)
 .ARM.attributes
                0x00000000000008fc       0x2e out/external/libexternal_fuota_stack.a(LoRaMacParser.o)
 .ARM.attributes
                0x000000000000092a       0x2e out/external/libexternal_fuota_stack.a(LoRaMacSerializer.o)
 .ARM.attributes
                0x0000000000000958       0x2e out/external/libexternal_fuota_stack.a(RegionAS923.o)
 .ARM.attributes
                0x0000000000000986       0x2e out/external/libexternal_fuota_stack.a(RegionAU915.o)
 .ARM.attributes
                0x00000000000009b4       0x2e out/external/libexternal_fuota_stack.a(RegionBaseUS.o)
 .ARM.attributes
                0x00000000000009e2       0x2e out/external/libexternal_fuota_stack.a(Region.o)
 .ARM.attributes
                0x0000000000000a10       0x2e out/external/libexternal_fuota_stack.a(RegionCN470A20.o)
 .ARM.attributes
                0x0000000000000a3e       0x2e out/external/libexternal_fuota_stack.a(RegionCN470A26.o)
 .ARM.attributes
                0x0000000000000a6c       0x2e out/external/libexternal_fuota_stack.a(RegionCN470B20.o)
 .ARM.attributes
                0x0000000000000a9a       0x2e out/external/libexternal_fuota_stack.a(RegionCN470B26.o)
 .ARM.attributes
                0x0000000000000ac8       0x2e out/external/libexternal_fuota_stack.a(RegionCN470.o)
 .ARM.attributes
                0x0000000000000af6       0x2e out/external/libexternal_fuota_stack.a(RegionCN779.o)
 .ARM.attributes
                0x0000000000000b24       0x2e out/external/libexternal_fuota_stack.a(RegionCommon.o)
 .ARM.attributes
                0x0000000000000b52       0x2e out/external/libexternal_fuota_stack.a(RegionEU433.o)
 .ARM.attributes
                0x0000000000000b80       0x2e out/external/libexternal_fuota_stack.a(RegionEU868.o)
 .ARM.attributes
                0x0000000000000bae       0x2e out/external/libexternal_fuota_stack.a(RegionIN865.o)
 .ARM.attributes
                0x0000000000000bdc       0x2e out/external/libexternal_fuota_stack.a(RegionKR920.o)
 .ARM.attributes
                0x0000000000000c0a       0x2e out/external/libexternal_fuota_stack.a(RegionLA915.o)
 .ARM.attributes
                0x0000000000000c38       0x2e out/external/libexternal_fuota_stack.a(RegionRU864.o)
 .ARM.attributes
                0x0000000000000c66       0x2e out/external/libexternal_fuota_stack.a(RegionUS915.o)
 .ARM.attributes
                0x0000000000000c94       0x2e /opt/gcc-arm-none-eabi-10-2020-q4-major/bin/../lib/gcc/arm-none-eabi/10.2.1/../../../../arm-none-eabi/lib/thumb/v7e-m/nofp/libc_nano.a(lib_a-memcmp.o)
 .ARM.attributes
                0x0000000000000cc2       0x2e /opt/gcc-arm-none-eabi-10-2020-q4-major/bin/../lib/gcc/arm-none-eabi/10.2.1/../../../../arm-none-eabi/lib/thumb/v7e-m/nofp/libc_nano.a(lib_a-memcpy-stub.o)
 .ARM.attributes
                0x0000000000000cf0       0x2e /opt/gcc-arm-none-eabi-10-2020-q4-major/bin/../lib/gcc/arm-none-eabi/10.2.1/../../../../arm-none-eabi/lib/thumb/v7e-m/nofp/libc_nano.a(lib_a-memset.o)
 .ARM.attributes
                0x0000000000000d1e       0x17 /opt/gcc-arm-none-eabi-10-2020-q4-major/bin/../lib/gcc/arm-none-eabi/10.2.1/../../../../arm-none-eabi/lib/thumb/v7e-m/nofp/libc_nano.a(lib_a-strlen.o)
 .ARM.attributes
                0x0000000000000d35       0x2e /opt/gcc-arm-none-eabi-10-2020-q4-major/bin/../lib/gcc/arm-none-eabi/10.2.1/../../../../arm-none-eabi/lib/thumb/v7e-m/nofp/libm.a(lib_a-s_floor.o)
 .ARM.attributes
                0x0000000000000d63       0x33 /home/jenkins/workspace/RUI_Release/rui-v3/version.o
 .ARM.attributes
                0x0000000000000d96       0x1e /opt/gcc-arm-none-eabi-10-2020-q4-major/bin/../lib/gcc/arm-none-eabi/10.2.1/thumb/v7e-m/nofp/libgcc.a(_arm_addsubdf3.o)
 .ARM.attributes
                0x0000000000000db4       0x1e /opt/gcc-arm-none-eabi-10-2020-q4-major/bin/../lib/gcc/arm-none-eabi/10.2.1/thumb/v7e-m/nofp/libgcc.a(_arm_cmpdf2.o)
 .ARM.attributes
                0x0000000000000dd2       0x1e /opt/gcc-arm-none-eabi-10-2020-q4-major/bin/../lib/gcc/arm-none-eabi/10.2.1/thumb/v7e-m/nofp/libgcc.a(_arm_fixdfsi.o)
 .ARM.attributes
                0x0000000000000df0       0x1e /opt/gcc-arm-none-eabi-10-2020-q4-major/bin/../lib/gcc/arm-none-eabi/10.2.1/thumb/v7e-m/nofp/libgcc.a(_arm_addsubsf3.o)
 .ARM.attributes
                0x0000000000000e0e       0x1e /opt/gcc-arm-none-eabi-10-2020-q4-major/bin/../lib/gcc/arm-none-eabi/10.2.1/thumb/v7e-m/nofp/libgcc.a(_arm_cmpsf2.o)
 .ARM.attributes
                0x0000000000000e2c       0x1e /opt/gcc-arm-none-eabi-10-2020-q4-major/bin/../lib/gcc/arm-none-eabi/10.2.1/thumb/v7e-m/nofp/libgcc.a(_aeabi_ldivmod.o)
 .ARM.attributes
                0x0000000000000e4a       0x1e /opt/gcc-arm-none-eabi-10-2020-q4-major/bin/../lib/gcc/arm-none-eabi/10.2.1/thumb/v7e-m/nofp/libgcc.a(_aeabi_uldivmod.o)
 .ARM.attributes
                0x0000000000000e68       0x2e /opt/gcc-arm-none-eabi-10-2020-q4-major/bin/../lib/gcc/arm-none-eabi/10.2.1/thumb/v7e-m/nofp/libgcc.a(_udivmoddi4.o)
 .ARM.attributes
                0x0000000000000e96       0x1e /opt/gcc-arm-none-eabi-10-2020-q4-major/bin/../lib/gcc/arm-none-eabi/10.2.1/thumb/v7e-m/nofp/libgcc.a(_dvmd_tls.o)
OUTPUT(/home/jenkins/workspace/RUI_Release/rui-v3/image/RUI_fuota_stack_1.0.0 elf32-littlearm)
LOAD linker stubs
LOAD /opt/gcc-arm-none-eabi-10-2020-q4-major/bin/../lib/gcc/arm-none-eabi/10.2.1/../../../../arm-none-eabi/lib/thumb/v7e-m/nofp/libc.a
LOAD /opt/gcc-arm-none-eabi-10-2020-q4-major/bin/../lib/gcc/arm-none-eabi/10.2.1/../../../../arm-none-eabi/lib/thumb/v7e-m/nofp/libm.a
LOAD /opt/gcc-arm-none-eabi-10-2020-q4-major/bin/../lib/gcc/arm-none-eabi/10.2.1/thumb/v7e-m/nofp/libgcc.a

.comment        0x0000000000000000       0x4d
 .comment       0x0000000000000000       0x4d out/external/libexternal_fuota_stack.a(subghz.o)
                                         0x4e (size before relaxing)
 .comment       0x000000000000004d       0x4e out/external/libexternal_fuota_stack.a(radio_board_if.o)
 .comment       0x000000000000004d       0x4e out/external/libexternal_fuota_stack.a(timer_if.o)
 .comment       0x000000000000004d       0x4e out/external/libexternal_fuota_stack.a(board.o)
 .comment       0x000000000000004d       0x4e out/external/libexternal_fuota_stack.a(service_lora_config.o)
 .comment       0x000000000000004d       0x4e out/external/libexternal_fuota_stack.a(service_lora_multicast.o)
 .comment       0x000000000000004d       0x4e out/external/libexternal_fuota_stack.a(LmHandler.o)
 .comment       0x000000000000004d       0x4e out/external/libexternal_fuota_stack.a(LmhpClockSync.o)
 .comment       0x000000000000004d       0x4e out/external/libexternal_fuota_stack.a(LmhpRemoteMcastSetup.o)
 .comment       0x000000000000004d       0x4e out/external/libexternal_fuota_stack.a(LmhpFragmentation.o)
 .comment       0x000000000000004d       0x4e out/external/libexternal_fuota_stack.a(FragDecoder.o)
 .comment       0x000000000000004d       0x4e out/external/libexternal_fuota_stack.a(udrv_flash.o)
 .comment       0x000000000000004d       0x4e out/external/libexternal_fuota_stack.a(system_stm32wlxx.o)
 .comment       0x000000000000004d       0x4e out/external/libexternal_fuota_stack.a(stm32wlxx_hal_msp.o)
 .comment       0x000000000000004d       0x4e out/external/libexternal_fuota_stack.a(service_nvm_common.o)
 .comment       0x000000000000004d       0x4e out/external/libexternal_fuota_stack.a(uhal_flash.o)
 .comment       0x000000000000004d       0x4e out/external/libexternal_fuota_stack.a(uhal_system.o)
 .comment       0x000000000000004d       0x4e out/external/libexternal_fuota_stack.a(uhal_rtc.o)
 .comment       0x000000000000004d       0x4e out/external/libexternal_fuota_stack.a(uhal_crypto.o)
 .comment       0x000000000000004d       0x4e out/external/libexternal_fuota_stack.a(stm32wlxx_hal_cortex.o)
 .comment       0x000000000000004d       0x4e out/external/libexternal_fuota_stack.a(radio.o)
 .comment       0x000000000000004d       0x4e out/external/libexternal_fuota_stack.a(radio_fw.o)
 .comment       0x000000000000004d       0x4e out/external/libexternal_fuota_stack.a(radio_driver.o)
 .comment       0x000000000000004d       0x4e out/external/libexternal_fuota_stack.a(stm32_mem.o)
 .comment       0x000000000000004d       0x4e out/external/libexternal_fuota_stack.a(stm32_timer.o)
 .comment       0x000000000000004d       0x4e out/external/libexternal_fuota_stack.a(stm32_tiny_vsnprintf.o)
 .comment       0x000000000000004d       0x4e out/external/libexternal_fuota_stack.a(stm32_systime.o)
 .comment       0x000000000000004d       0x4e out/external/libexternal_fuota_stack.a(stm32wlxx_hal.o)
 .comment       0x000000000000004d       0x4e out/external/libexternal_fuota_stack.a(stm32wlxx_hal_rcc.o)
 .comment       0x000000000000004d       0x4e out/external/libexternal_fuota_stack.a(stm32wlxx_hal_rcc_ex.o)
 .comment       0x000000000000004d       0x4e out/external/libexternal_fuota_stack.a(stm32wlxx_hal_rtc.o)
 .comment       0x000000000000004d       0x4e out/external/libexternal_fuota_stack.a(stm32wlxx_hal_rtc_ex.o)
 .comment       0x000000000000004d       0x4e out/external/libexternal_fuota_stack.a(stm32wlxx_hal_pwr.o)
 .comment       0x000000000000004d       0x4e out/external/libexternal_fuota_stack.a(stm32wlxx_hal_pwr_ex.o)
 .comment       0x000000000000004d       0x4e out/external/libexternal_fuota_stack.a(stm32wlxx_hal_flash.o)
 .comment       0x000000000000004d       0x4e out/external/libexternal_fuota_stack.a(stm32wlxx_hal_flash_ex.o)
 .comment       0x000000000000004d       0x4e out/external/libexternal_fuota_stack.a(stm32wlxx_hal_subghz.o)
 .comment       0x000000000000004d       0x4e out/external/libexternal_fuota_stack.a(stm32wlxx_hal_gpio.o)
 .comment       0x000000000000004d       0x4e out/external/libexternal_fuota_stack.a(stm32wlxx_hal_cryp.o)
 .comment       0x000000000000004d       0x4e out/external/libexternal_fuota_stack.a(stm32wlxx_hal_dma.o)
 .comment       0x000000000000004d       0x4e out/external/libexternal_fuota_stack.a(utilities.o)
 .comment       0x000000000000004d       0x4e out/external/libexternal_fuota_stack.a(cmac.o)
 .comment       0x000000000000004d       0x4e out/external/libexternal_fuota_stack.a(soft-se-hal.o)
 .comment       0x000000000000004d       0x4e out/external/libexternal_fuota_stack.a(soft-se.o)
 .comment       0x000000000000004d       0x4e out/external/libexternal_fuota_stack.a(LoRaMacAdr.o)
 .comment       0x000000000000004d       0x4e out/external/libexternal_fuota_stack.a(LoRaMac.o)
 .comment       0x000000000000004d       0x4e out/external/libexternal_fuota_stack.a(LoRaMacClassB.o)
 .comment       0x000000000000004d       0x4e out/external/libexternal_fuota_stack.a(LoRaMacCommands.o)
 .comment       0x000000000000004d       0x4e out/external/libexternal_fuota_stack.a(LoRaMacConfirmQueue.o)
 .comment       0x000000000000004d       0x4e out/external/libexternal_fuota_stack.a(LoRaMacCrypto.o)
 .comment       0x000000000000004d       0x4e out/external/libexternal_fuota_stack.a(LoRaMacParser.o)
 .comment       0x000000000000004d       0x4e out/external/libexternal_fuota_stack.a(LoRaMacSerializer.o)
 .comment       0x000000000000004d       0x4e out/external/libexternal_fuota_stack.a(RegionAS923.o)
 .comment       0x000000000000004d       0x4e out/external/libexternal_fuota_stack.a(RegionAU915.o)
 .comment       0x000000000000004d       0x4e out/external/libexternal_fuota_stack.a(RegionBaseUS.o)
 .comment       0x000000000000004d       0x4e out/external/libexternal_fuota_stack.a(Region.o)
 .comment       0x000000000000004d       0x4e out/external/libexternal_fuota_stack.a(RegionCN470A20.o)
 .comment       0x000000000000004d       0x4e out/external/libexternal_fuota_stack.a(RegionCN470A26.o)
 .comment       0x000000000000004d       0x4e out/external/libexternal_fuota_stack.a(RegionCN470B20.o)
 .comment       0x000000000000004d       0x4e out/external/libexternal_fuota_stack.a(RegionCN470B26.o)
 .comment       0x000000000000004d       0x4e out/external/libexternal_fuota_stack.a(RegionCN470.o)
 .comment       0x000000000000004d       0x4e out/external/libexternal_fuota_stack.a(RegionCN779.o)
 .comment       0x000000000000004d       0x4e out/external/libexternal_fuota_stack.a(RegionCommon.o)
 .comment       0x000000000000004d       0x4e out/external/libexternal_fuota_stack.a(RegionEU433.o)
 .comment       0x000000000000004d       0x4e out/external/libexternal_fuota_stack.a(RegionEU868.o)
 .comment       0x000000000000004d       0x4e out/external/libexternal_fuota_stack.a(RegionIN865.o)
 .comment       0x000000000000004d       0x4e out/external/libexternal_fuota_stack.a(RegionKR920.o)
 .comment       0x000000000000004d       0x4e out/external/libexternal_fuota_stack.a(RegionLA915.o)
 .comment       0x000000000000004d       0x4e out/external/libexternal_fuota_stack.a(RegionRU864.o)
 .comment       0x000000000000004d       0x4e out/external/libexternal_fuota_stack.a(RegionUS915.o)
 .comment       0x000000000000004d       0x4e /home/jenkins/workspace/RUI_Release/rui-v3/version.o

.debug_frame    0x0000000000000000      0x3ec
 .debug_frame   0x0000000000000000       0x28 /opt/gcc-arm-none-eabi-10-2020-q4-major/bin/../lib/gcc/arm-none-eabi/10.2.1/../../../../arm-none-eabi/lib/thumb/v7e-m/nofp/libc_nano.a(lib_a-memcmp.o)
 .debug_frame   0x0000000000000028       0x28 /opt/gcc-arm-none-eabi-10-2020-q4-major/bin/../lib/gcc/arm-none-eabi/10.2.1/../../../../arm-none-eabi/lib/thumb/v7e-m/nofp/libc_nano.a(lib_a-memcpy-stub.o)
 .debug_frame   0x0000000000000050       0x20 /opt/gcc-arm-none-eabi-10-2020-q4-major/bin/../lib/gcc/arm-none-eabi/10.2.1/../../../../arm-none-eabi/lib/thumb/v7e-m/nofp/libc_nano.a(lib_a-memset.o)
 .debug_frame   0x0000000000000070       0x30 /opt/gcc-arm-none-eabi-10-2020-q4-major/bin/../lib/gcc/arm-none-eabi/10.2.1/../../../../arm-none-eabi/lib/thumb/v7e-m/nofp/libm.a(lib_a-s_floor.o)
 .debug_frame   0x00000000000000a0       0xac /opt/gcc-arm-none-eabi-10-2020-q4-major/bin/../lib/gcc/arm-none-eabi/10.2.1/thumb/v7e-m/nofp/libgcc.a(_arm_addsubdf3.o)
 .debug_frame   0x000000000000014c       0xc4 /opt/gcc-arm-none-eabi-10-2020-q4-major/bin/../lib/gcc/arm-none-eabi/10.2.1/thumb/v7e-m/nofp/libgcc.a(_arm_cmpdf2.o)
 .debug_frame   0x0000000000000210       0x24 /opt/gcc-arm-none-eabi-10-2020-q4-major/bin/../lib/gcc/arm-none-eabi/10.2.1/thumb/v7e-m/nofp/libgcc.a(_arm_fixdfsi.o)
 .debug_frame   0x0000000000000234       0x4c /opt/gcc-arm-none-eabi-10-2020-q4-major/bin/../lib/gcc/arm-none-eabi/10.2.1/thumb/v7e-m/nofp/libgcc.a(_arm_addsubsf3.o)
 .debug_frame   0x0000000000000280       0xc8 /opt/gcc-arm-none-eabi-10-2020-q4-major/bin/../lib/gcc/arm-none-eabi/10.2.1/thumb/v7e-m/nofp/libgcc.a(_arm_cmpsf2.o)
 .debug_frame   0x0000000000000348       0x44 /opt/gcc-arm-none-eabi-10-2020-q4-major/bin/../lib/gcc/arm-none-eabi/10.2.1/thumb/v7e-m/nofp/libgcc.a(_aeabi_ldivmod.o)
 .debug_frame   0x000000000000038c       0x2c /opt/gcc-arm-none-eabi-10-2020-q4-major/bin/../lib/gcc/arm-none-eabi/10.2.1/thumb/v7e-m/nofp/libgcc.a(_aeabi_uldivmod.o)
 .debug_frame   0x00000000000003b8       0x34 /opt/gcc-arm-none-eabi-10-2020-q4-major/bin/../lib/gcc/arm-none-eabi/10.2.1/thumb/v7e-m/nofp/libgcc.a(_udivmoddi4.o)

Cross Reference Table

Symbol                                            File
AES_CMAC_Final                                    out/external/libexternal_fuota_stack.a(cmac.o)
                                                  out/external/libexternal_fuota_stack.a(soft-se.o)
AES_CMAC_Init                                     out/external/libexternal_fuota_stack.a(cmac.o)
                                                  out/external/libexternal_fuota_stack.a(soft-se.o)
AES_CMAC_SetKey                                   out/external/libexternal_fuota_stack.a(cmac.o)
                                                  out/external/libexternal_fuota_stack.a(soft-se.o)
AES_CMAC_Update                                   out/external/libexternal_fuota_stack.a(cmac.o)
                                                  out/external/libexternal_fuota_stack.a(soft-se.o)
AHBPrescTable                                     out/external/libexternal_fuota_stack.a(system_stm32wlxx.o)
                                                  out/external/libexternal_fuota_stack.a(stm32wlxx_hal_rcc_ex.o)
                                                  out/external/libexternal_fuota_stack.a(stm32wlxx_hal_rcc.o)
APBPrescTable                                     out/external/libexternal_fuota_stack.a(system_stm32wlxx.o)
                                                  out/external/libexternal_fuota_stack.a(stm32wlxx_hal_rcc_ex.o)
                                                  out/external/libexternal_fuota_stack.a(stm32wlxx_hal_rcc.o)
AS923BeaconFreq                                   out/external/libexternal_fuota_stack.a(RegionAS923.o)
AS923PingSlotFreq                                 out/external/libexternal_fuota_stack.a(RegionAS923.o)
AS923Rx2Freq                                      out/external/libexternal_fuota_stack.a(RegionAS923.o)
AS923_Ch1                                         out/external/libexternal_fuota_stack.a(RegionAS923.o)
AS923_Ch2                                         out/external/libexternal_fuota_stack.a(RegionAS923.o)
AU915_SingleChannelRegisterCallback               out/external/libexternal_fuota_stack.a(RegionAU915.o)
Bandwidths                                        out/external/libexternal_fuota_stack.a(radio.o)
BoardCriticalSectionBegin                         out/external/libexternal_fuota_stack.a(board.o)
                                                  out/external/libexternal_fuota_stack.a(LoRaMacClassB.o)
                                                  out/external/libexternal_fuota_stack.a(LoRaMac.o)
                                                  out/external/libexternal_fuota_stack.a(LmhpFragmentation.o)
                                                  out/external/libexternal_fuota_stack.a(LmhpRemoteMcastSetup.o)
BoardCriticalSectionEnd                           out/external/libexternal_fuota_stack.a(board.o)
                                                  out/external/libexternal_fuota_stack.a(LoRaMacClassB.o)
                                                  out/external/libexternal_fuota_stack.a(LoRaMac.o)
                                                  out/external/libexternal_fuota_stack.a(LmhpFragmentation.o)
                                                  out/external/libexternal_fuota_stack.a(LmhpRemoteMcastSetup.o)
BoardGetHardwareFreq                              out/external/libexternal_fuota_stack.a(board.o)
BoardGetUniqueId                                  out/external/libexternal_fuota_stack.a(board.o)
                                                  out/external/libexternal_fuota_stack.a(soft-se-hal.o)
BoardInitMcu                                      out/external/libexternal_fuota_stack.a(board.o)
BoardResetMcu                                     out/external/libexternal_fuota_stack.a(board.o)
CommonJoinChannels                                out/external/libexternal_fuota_stack.a(RegionCN470.o)
Crc32                                             out/external/libexternal_fuota_stack.a(utilities.o)
                                                  out/external/libexternal_fuota_stack.a(LoRaMac.o)
Crc32Finalize                                     out/external/libexternal_fuota_stack.a(utilities.o)
                                                  out/external/libexternal_fuota_stack.a(service_lora_config.o)
Crc32Init                                         out/external/libexternal_fuota_stack.a(utilities.o)
                                                  out/external/libexternal_fuota_stack.a(service_lora_config.o)
Crc32Update                                       out/external/libexternal_fuota_stack.a(utilities.o)
                                                  out/external/libexternal_fuota_stack.a(service_lora_config.o)
DelayedReplyAppData                               out/external/libexternal_fuota_stack.a(LmhpFragmentation.o)
DetermineFrameType                                out/external/libexternal_fuota_stack.a(LoRaMac.o)
Error_Handler                                     out/external/libexternal_fuota_stack.a(system_stm32wlxx.o)
                                                  out/external/libexternal_fuota_stack.a(uhal_crypto.o)
                                                  out/external/libexternal_fuota_stack.a(uhal_rtc.o)
                                                  out/external/libexternal_fuota_stack.a(stm32wlxx_hal_msp.o)
                                                  out/external/libexternal_fuota_stack.a(timer_if.o)
                                                  out/external/libexternal_fuota_stack.a(subghz.o)
FLASH_PageErase                                   out/external/libexternal_fuota_stack.a(stm32wlxx_hal_flash_ex.o)
                                                  out/external/libexternal_fuota_stack.a(stm32wlxx_hal_flash.o)
FLASH_WaitForLastOperation                        out/external/libexternal_fuota_stack.a(stm32wlxx_hal_flash.o)
                                                  out/external/libexternal_fuota_stack.a(stm32wlxx_hal_flash_ex.o)
FUOTA_StartTime_IsRunning                         out/external/libexternal_fuota_stack.a(LmhpRemoteMcastSetup.o)
FragDecoderGetMaxFileSize                         out/external/libexternal_fuota_stack.a(FragDecoder.o)
                                                  out/external/libexternal_fuota_stack.a(LmhpFragmentation.o)
FragDecoderGetStatus                              out/external/libexternal_fuota_stack.a(FragDecoder.o)
                                                  out/external/libexternal_fuota_stack.a(LmhpFragmentation.o)
FragDecoderInit                                   out/external/libexternal_fuota_stack.a(FragDecoder.o)
                                                  out/external/libexternal_fuota_stack.a(LmhpFragmentation.o)
FragDecoderProcess                                out/external/libexternal_fuota_stack.a(FragDecoder.o)
                                                  out/external/libexternal_fuota_stack.a(LmhpFragmentation.o)
FragDecoderUpdateCallback                         out/external/libexternal_fuota_stack.a(FragDecoder.o)
FragSessionData                                   out/external/libexternal_fuota_stack.a(LmhpFragmentation.o)
FrequencyError                                    out/external/libexternal_fuota_stack.a(radio_driver.o)
GetMaxAppPayloadWithFOptsLength                   out/external/libexternal_fuota_stack.a(LoRaMac.o)
HAL_CRYP_DeInit                                   out/external/libexternal_fuota_stack.a(stm32wlxx_hal_cryp.o)
                                                  out/external/libexternal_fuota_stack.a(uhal_crypto.o)
HAL_CRYP_Decrypt                                  out/external/libexternal_fuota_stack.a(stm32wlxx_hal_cryp.o)
                                                  out/external/libexternal_fuota_stack.a(uhal_crypto.o)
HAL_CRYP_Decrypt_DMA                              out/external/libexternal_fuota_stack.a(stm32wlxx_hal_cryp.o)
HAL_CRYP_Decrypt_IT                               out/external/libexternal_fuota_stack.a(stm32wlxx_hal_cryp.o)
HAL_CRYP_Encrypt                                  out/external/libexternal_fuota_stack.a(stm32wlxx_hal_cryp.o)
                                                  out/external/libexternal_fuota_stack.a(uhal_crypto.o)
HAL_CRYP_Encrypt_DMA                              out/external/libexternal_fuota_stack.a(stm32wlxx_hal_cryp.o)
HAL_CRYP_Encrypt_IT                               out/external/libexternal_fuota_stack.a(stm32wlxx_hal_cryp.o)
HAL_CRYP_ErrorCallback                            out/external/libexternal_fuota_stack.a(stm32wlxx_hal_cryp.o)
HAL_CRYP_GetConfig                                out/external/libexternal_fuota_stack.a(stm32wlxx_hal_cryp.o)
HAL_CRYP_GetError                                 out/external/libexternal_fuota_stack.a(stm32wlxx_hal_cryp.o)
HAL_CRYP_GetState                                 out/external/libexternal_fuota_stack.a(stm32wlxx_hal_cryp.o)
HAL_CRYP_IRQHandler                               out/external/libexternal_fuota_stack.a(stm32wlxx_hal_cryp.o)
HAL_CRYP_InCpltCallback                           out/external/libexternal_fuota_stack.a(stm32wlxx_hal_cryp.o)
HAL_CRYP_Init                                     out/external/libexternal_fuota_stack.a(stm32wlxx_hal_cryp.o)
                                                  out/external/libexternal_fuota_stack.a(uhal_crypto.o)
HAL_CRYP_MspDeInit                                out/external/libexternal_fuota_stack.a(stm32wlxx_hal_msp.o)
HAL_CRYP_MspInit                                  out/external/libexternal_fuota_stack.a(stm32wlxx_hal_msp.o)
HAL_CRYP_OutCpltCallback                          out/external/libexternal_fuota_stack.a(stm32wlxx_hal_cryp.o)
HAL_CRYP_ProcessSuspend                           out/external/libexternal_fuota_stack.a(stm32wlxx_hal_cryp.o)
HAL_CRYP_Resume                                   out/external/libexternal_fuota_stack.a(stm32wlxx_hal_cryp.o)
HAL_CRYP_SetConfig                                out/external/libexternal_fuota_stack.a(stm32wlxx_hal_cryp.o)
HAL_CRYP_Suspend                                  out/external/libexternal_fuota_stack.a(stm32wlxx_hal_cryp.o)
HAL_DBGMCU_DisableDBGSleepMode                    out/external/libexternal_fuota_stack.a(stm32wlxx_hal.o)
HAL_DBGMCU_DisableDBGStandbyMode                  out/external/libexternal_fuota_stack.a(stm32wlxx_hal.o)
HAL_DBGMCU_DisableDBGStopMode                     out/external/libexternal_fuota_stack.a(stm32wlxx_hal.o)
HAL_DBGMCU_EnableDBGSleepMode                     out/external/libexternal_fuota_stack.a(stm32wlxx_hal.o)
HAL_DBGMCU_EnableDBGStandbyMode                   out/external/libexternal_fuota_stack.a(stm32wlxx_hal.o)
HAL_DBGMCU_EnableDBGStopMode                      out/external/libexternal_fuota_stack.a(stm32wlxx_hal.o)
HAL_DMA_Abort                                     out/external/libexternal_fuota_stack.a(stm32wlxx_hal_dma.o)
HAL_DMA_Abort_IT                                  out/external/libexternal_fuota_stack.a(stm32wlxx_hal_dma.o)
HAL_DMA_DeInit                                    out/external/libexternal_fuota_stack.a(stm32wlxx_hal_dma.o)
HAL_DMA_GetError                                  out/external/libexternal_fuota_stack.a(stm32wlxx_hal_dma.o)
HAL_DMA_GetState                                  out/external/libexternal_fuota_stack.a(stm32wlxx_hal_dma.o)
HAL_DMA_IRQHandler                                out/external/libexternal_fuota_stack.a(stm32wlxx_hal_dma.o)
HAL_DMA_Init                                      out/external/libexternal_fuota_stack.a(stm32wlxx_hal_dma.o)
HAL_DMA_PollForTransfer                           out/external/libexternal_fuota_stack.a(stm32wlxx_hal_dma.o)
HAL_DMA_RegisterCallback                          out/external/libexternal_fuota_stack.a(stm32wlxx_hal_dma.o)
HAL_DMA_Start                                     out/external/libexternal_fuota_stack.a(stm32wlxx_hal_dma.o)
HAL_DMA_Start_IT                                  out/external/libexternal_fuota_stack.a(stm32wlxx_hal_dma.o)
                                                  out/external/libexternal_fuota_stack.a(stm32wlxx_hal_cryp.o)
HAL_DMA_UnRegisterCallback                        out/external/libexternal_fuota_stack.a(stm32wlxx_hal_dma.o)
HAL_DeInit                                        out/external/libexternal_fuota_stack.a(stm32wlxx_hal.o)
HAL_Delay                                         out/external/libexternal_fuota_stack.a(stm32wlxx_hal.o)
                                                  out/external/libexternal_fuota_stack.a(radio.o)
HAL_FLASHEx_AllowOperation                        out/external/libexternal_fuota_stack.a(stm32wlxx_hal_flash_ex.o)
HAL_FLASHEx_Erase                                 out/external/libexternal_fuota_stack.a(stm32wlxx_hal_flash_ex.o)
                                                  out/external/libexternal_fuota_stack.a(uhal_flash.o)
HAL_FLASHEx_Erase_IT                              out/external/libexternal_fuota_stack.a(stm32wlxx_hal_flash_ex.o)
HAL_FLASHEx_FlashEmptyCheck                       out/external/libexternal_fuota_stack.a(stm32wlxx_hal_flash_ex.o)
HAL_FLASHEx_ForceFlashEmpty                       out/external/libexternal_fuota_stack.a(stm32wlxx_hal_flash_ex.o)
HAL_FLASHEx_IsOperationSuspended                  out/external/libexternal_fuota_stack.a(stm32wlxx_hal_flash_ex.o)
HAL_FLASHEx_OBGetConfig                           out/external/libexternal_fuota_stack.a(stm32wlxx_hal_flash_ex.o)
HAL_FLASHEx_OBProgram                             out/external/libexternal_fuota_stack.a(stm32wlxx_hal_flash_ex.o)
HAL_FLASHEx_SuspendOperation                      out/external/libexternal_fuota_stack.a(stm32wlxx_hal_flash_ex.o)
HAL_FLASH_EndOfOperationCallback                  out/external/libexternal_fuota_stack.a(stm32wlxx_hal_flash.o)
HAL_FLASH_GetError                                out/external/libexternal_fuota_stack.a(stm32wlxx_hal_flash.o)
HAL_FLASH_IRQHandler                              out/external/libexternal_fuota_stack.a(stm32wlxx_hal_flash.o)
HAL_FLASH_Lock                                    out/external/libexternal_fuota_stack.a(stm32wlxx_hal_flash.o)
                                                  out/external/libexternal_fuota_stack.a(uhal_flash.o)
HAL_FLASH_OB_Launch                               out/external/libexternal_fuota_stack.a(stm32wlxx_hal_flash.o)
HAL_FLASH_OB_Lock                                 out/external/libexternal_fuota_stack.a(stm32wlxx_hal_flash.o)
HAL_FLASH_OB_Unlock                               out/external/libexternal_fuota_stack.a(stm32wlxx_hal_flash.o)
HAL_FLASH_OperationErrorCallback                  out/external/libexternal_fuota_stack.a(stm32wlxx_hal_flash.o)
HAL_FLASH_Program                                 out/external/libexternal_fuota_stack.a(stm32wlxx_hal_flash.o)
                                                  out/external/libexternal_fuota_stack.a(uhal_flash.o)
HAL_FLASH_Program_IT                              out/external/libexternal_fuota_stack.a(stm32wlxx_hal_flash.o)
HAL_FLASH_Unlock                                  out/external/libexternal_fuota_stack.a(stm32wlxx_hal_flash.o)
                                                  out/external/libexternal_fuota_stack.a(uhal_flash.o)
HAL_GPIO_DeInit                                   out/external/libexternal_fuota_stack.a(stm32wlxx_hal_gpio.o)
                                                  out/external/libexternal_fuota_stack.a(board.o)
                                                  out/external/libexternal_fuota_stack.a(radio_board_if.o)
HAL_GPIO_EXTI_Callback                            out/external/libexternal_fuota_stack.a(stm32wlxx_hal_gpio.o)
HAL_GPIO_EXTI_IRQHandler                          out/external/libexternal_fuota_stack.a(stm32wlxx_hal_gpio.o)
HAL_GPIO_Init                                     out/external/libexternal_fuota_stack.a(stm32wlxx_hal_gpio.o)
                                                  out/external/libexternal_fuota_stack.a(stm32wlxx_hal_rcc_ex.o)
                                                  out/external/libexternal_fuota_stack.a(stm32wlxx_hal_rcc.o)
                                                  out/external/libexternal_fuota_stack.a(board.o)
                                                  out/external/libexternal_fuota_stack.a(radio_board_if.o)
HAL_GPIO_LockPin                                  out/external/libexternal_fuota_stack.a(stm32wlxx_hal_gpio.o)
HAL_GPIO_ReadPin                                  out/external/libexternal_fuota_stack.a(stm32wlxx_hal_gpio.o)
                                                  out/external/libexternal_fuota_stack.a(board.o)
HAL_GPIO_TogglePin                                out/external/libexternal_fuota_stack.a(stm32wlxx_hal_gpio.o)
HAL_GPIO_WritePin                                 out/external/libexternal_fuota_stack.a(stm32wlxx_hal_gpio.o)
                                                  out/external/libexternal_fuota_stack.a(radio_board_if.o)
HAL_GetDEVID                                      out/external/libexternal_fuota_stack.a(stm32wlxx_hal.o)
HAL_GetHalVersion                                 out/external/libexternal_fuota_stack.a(stm32wlxx_hal.o)
HAL_GetREVID                                      out/external/libexternal_fuota_stack.a(stm32wlxx_hal.o)
HAL_GetTick                                       out/external/libexternal_fuota_stack.a(stm32wlxx_hal.o)
                                                  out/external/libexternal_fuota_stack.a(stm32wlxx_hal_dma.o)
                                                  out/external/libexternal_fuota_stack.a(stm32wlxx_hal_cryp.o)
                                                  out/external/libexternal_fuota_stack.a(stm32wlxx_hal_flash.o)
                                                  out/external/libexternal_fuota_stack.a(stm32wlxx_hal_rtc_ex.o)
                                                  out/external/libexternal_fuota_stack.a(stm32wlxx_hal_rtc.o)
                                                  out/external/libexternal_fuota_stack.a(stm32wlxx_hal_rcc_ex.o)
                                                  out/external/libexternal_fuota_stack.a(stm32wlxx_hal_rcc.o)
HAL_GetTickFreq                                   out/external/libexternal_fuota_stack.a(stm32wlxx_hal.o)
HAL_GetTickPrio                                   out/external/libexternal_fuota_stack.a(stm32wlxx_hal.o)
HAL_GetUIDw0                                      out/external/libexternal_fuota_stack.a(stm32wlxx_hal.o)
                                                  out/external/libexternal_fuota_stack.a(uhal_system.o)
HAL_GetUIDw1                                      out/external/libexternal_fuota_stack.a(stm32wlxx_hal.o)
                                                  out/external/libexternal_fuota_stack.a(uhal_system.o)
HAL_GetUIDw2                                      out/external/libexternal_fuota_stack.a(stm32wlxx_hal.o)
                                                  out/external/libexternal_fuota_stack.a(uhal_system.o)
HAL_IncTick                                       out/external/libexternal_fuota_stack.a(stm32wlxx_hal.o)
HAL_Init                                          out/external/libexternal_fuota_stack.a(stm32wlxx_hal.o)
HAL_InitTick                                      out/external/libexternal_fuota_stack.a(stm32wlxx_hal.o)
                                                  out/external/libexternal_fuota_stack.a(stm32wlxx_hal_rcc.o)
HAL_MPU_ConfigRegion                              out/external/libexternal_fuota_stack.a(stm32wlxx_hal_cortex.o)
HAL_MPU_Disable                                   out/external/libexternal_fuota_stack.a(stm32wlxx_hal_cortex.o)
HAL_MPU_Enable                                    out/external/libexternal_fuota_stack.a(stm32wlxx_hal_cortex.o)
HAL_MspDeInit                                     out/external/libexternal_fuota_stack.a(stm32wlxx_hal.o)
HAL_MspInit                                       out/external/libexternal_fuota_stack.a(stm32wlxx_hal_msp.o)
HAL_NVIC_ClearPendingIRQ                          out/external/libexternal_fuota_stack.a(stm32wlxx_hal_cortex.o)
HAL_NVIC_DisableIRQ                               out/external/libexternal_fuota_stack.a(stm32wlxx_hal_cortex.o)
                                                  out/external/libexternal_fuota_stack.a(stm32wlxx_hal_msp.o)
                                                  out/external/libexternal_fuota_stack.a(subghz.o)
HAL_NVIC_EnableIRQ                                out/external/libexternal_fuota_stack.a(stm32wlxx_hal_cortex.o)
                                                  out/external/libexternal_fuota_stack.a(stm32wlxx_hal_msp.o)
                                                  out/external/libexternal_fuota_stack.a(subghz.o)
HAL_NVIC_GetActive                                out/external/libexternal_fuota_stack.a(stm32wlxx_hal_cortex.o)
HAL_NVIC_GetPendingIRQ                            out/external/libexternal_fuota_stack.a(stm32wlxx_hal_cortex.o)
HAL_NVIC_GetPriority                              out/external/libexternal_fuota_stack.a(stm32wlxx_hal_cortex.o)
HAL_NVIC_GetPriorityGrouping                      out/external/libexternal_fuota_stack.a(stm32wlxx_hal_cortex.o)
HAL_NVIC_SetPendingIRQ                            out/external/libexternal_fuota_stack.a(stm32wlxx_hal_cortex.o)
HAL_NVIC_SetPriority                              out/external/libexternal_fuota_stack.a(stm32wlxx_hal_cortex.o)
                                                  out/external/libexternal_fuota_stack.a(stm32wlxx_hal.o)
                                                  out/external/libexternal_fuota_stack.a(stm32wlxx_hal_msp.o)
                                                  out/external/libexternal_fuota_stack.a(subghz.o)
HAL_NVIC_SetPriorityGrouping                      out/external/libexternal_fuota_stack.a(stm32wlxx_hal_cortex.o)
                                                  out/external/libexternal_fuota_stack.a(stm32wlxx_hal.o)
HAL_NVIC_SystemReset                              out/external/libexternal_fuota_stack.a(stm32wlxx_hal_cortex.o)
HAL_PWREx_ConfigPVM                               out/external/libexternal_fuota_stack.a(stm32wlxx_hal_pwr_ex.o)
HAL_PWREx_ControlVoltageScaling                   out/external/libexternal_fuota_stack.a(stm32wlxx_hal_pwr_ex.o)
HAL_PWREx_DisableBORPVD_ULP                       out/external/libexternal_fuota_stack.a(stm32wlxx_hal_pwr_ex.o)
HAL_PWREx_DisableBatteryCharging                  out/external/libexternal_fuota_stack.a(stm32wlxx_hal_pwr_ex.o)
HAL_PWREx_DisableFlashPowerDown                   out/external/libexternal_fuota_stack.a(stm32wlxx_hal_pwr_ex.o)
HAL_PWREx_DisableGPIOPullDown                     out/external/libexternal_fuota_stack.a(stm32wlxx_hal_pwr_ex.o)
HAL_PWREx_DisableGPIOPullUp                       out/external/libexternal_fuota_stack.a(stm32wlxx_hal_pwr_ex.o)
HAL_PWREx_DisableInternalWakeUpLine               out/external/libexternal_fuota_stack.a(stm32wlxx_hal_pwr_ex.o)
HAL_PWREx_DisableLowPowerRunMode                  out/external/libexternal_fuota_stack.a(stm32wlxx_hal_pwr_ex.o)
                                                  out/external/libexternal_fuota_stack.a(stm32wlxx_hal_pwr.o)
HAL_PWREx_DisablePVM3                             out/external/libexternal_fuota_stack.a(stm32wlxx_hal_pwr_ex.o)
HAL_PWREx_DisablePullUpPullDownConfig             out/external/libexternal_fuota_stack.a(stm32wlxx_hal_pwr_ex.o)
HAL_PWREx_DisableSRAMRetention                    out/external/libexternal_fuota_stack.a(stm32wlxx_hal_pwr_ex.o)
HAL_PWREx_DisableWPVD                             out/external/libexternal_fuota_stack.a(stm32wlxx_hal_pwr_ex.o)
HAL_PWREx_EnableBORPVD_ULP                        out/external/libexternal_fuota_stack.a(stm32wlxx_hal_pwr_ex.o)
HAL_PWREx_EnableBatteryCharging                   out/external/libexternal_fuota_stack.a(stm32wlxx_hal_pwr_ex.o)
HAL_PWREx_EnableFlashPowerDown                    out/external/libexternal_fuota_stack.a(stm32wlxx_hal_pwr_ex.o)
HAL_PWREx_EnableGPIOPullDown                      out/external/libexternal_fuota_stack.a(stm32wlxx_hal_pwr_ex.o)
HAL_PWREx_EnableGPIOPullUp                        out/external/libexternal_fuota_stack.a(stm32wlxx_hal_pwr_ex.o)
HAL_PWREx_EnableInternalWakeUpLine                out/external/libexternal_fuota_stack.a(stm32wlxx_hal_pwr_ex.o)
HAL_PWREx_EnableLowPowerRunMode                   out/external/libexternal_fuota_stack.a(stm32wlxx_hal_pwr_ex.o)
                                                  out/external/libexternal_fuota_stack.a(stm32wlxx_hal_pwr.o)
HAL_PWREx_EnablePVM3                              out/external/libexternal_fuota_stack.a(stm32wlxx_hal_pwr_ex.o)
HAL_PWREx_EnablePullUpPullDownConfig              out/external/libexternal_fuota_stack.a(stm32wlxx_hal_pwr_ex.o)
HAL_PWREx_EnableSRAMRetention                     out/external/libexternal_fuota_stack.a(stm32wlxx_hal_pwr_ex.o)
HAL_PWREx_EnableWPVD                              out/external/libexternal_fuota_stack.a(stm32wlxx_hal_pwr_ex.o)
HAL_PWREx_EnterSHUTDOWNMode                       out/external/libexternal_fuota_stack.a(stm32wlxx_hal_pwr_ex.o)
HAL_PWREx_EnterSTOP0Mode                          out/external/libexternal_fuota_stack.a(stm32wlxx_hal_pwr_ex.o)
                                                  out/external/libexternal_fuota_stack.a(stm32wlxx_hal_pwr.o)
HAL_PWREx_EnterSTOP1Mode                          out/external/libexternal_fuota_stack.a(stm32wlxx_hal_pwr_ex.o)
                                                  out/external/libexternal_fuota_stack.a(stm32wlxx_hal_pwr.o)
HAL_PWREx_EnterSTOP2Mode                          out/external/libexternal_fuota_stack.a(stm32wlxx_hal_pwr_ex.o)
HAL_PWREx_GetVoltageRange                         out/external/libexternal_fuota_stack.a(stm32wlxx_hal_pwr_ex.o)
                                                  out/external/libexternal_fuota_stack.a(stm32wlxx_hal_rcc.o)
HAL_PWREx_PVD_PVM_IRQHandler                      out/external/libexternal_fuota_stack.a(stm32wlxx_hal_pwr_ex.o)
HAL_PWREx_PVM3Callback                            out/external/libexternal_fuota_stack.a(stm32wlxx_hal_pwr_ex.o)
HAL_PWREx_SMPS_GetEffectiveMode                   out/external/libexternal_fuota_stack.a(stm32wlxx_hal_pwr_ex.o)
HAL_PWREx_SMPS_SetMode                            out/external/libexternal_fuota_stack.a(stm32wlxx_hal_pwr_ex.o)
HAL_PWREx_SetRadioBusyPolarity                    out/external/libexternal_fuota_stack.a(stm32wlxx_hal_pwr_ex.o)
HAL_PWREx_SetRadioBusyTrigger                     out/external/libexternal_fuota_stack.a(stm32wlxx_hal_pwr_ex.o)
HAL_PWREx_SetRadioEOL                             out/external/libexternal_fuota_stack.a(stm32wlxx_hal_pwr_ex.o)
HAL_PWREx_SetRadioIRQTrigger                      out/external/libexternal_fuota_stack.a(stm32wlxx_hal_pwr_ex.o)
HAL_PWR_ConfigPVD                                 out/external/libexternal_fuota_stack.a(stm32wlxx_hal_pwr.o)
HAL_PWR_DeInit                                    out/external/libexternal_fuota_stack.a(stm32wlxx_hal_pwr.o)
HAL_PWR_DisableBkUpAccess                         out/external/libexternal_fuota_stack.a(stm32wlxx_hal_pwr.o)
                                                  out/external/libexternal_fuota_stack.a(stm32wlxx_hal_rcc_ex.o)
HAL_PWR_DisablePVD                                out/external/libexternal_fuota_stack.a(stm32wlxx_hal_pwr.o)
HAL_PWR_DisableSEVOnPend                          out/external/libexternal_fuota_stack.a(stm32wlxx_hal_pwr.o)
HAL_PWR_DisableSleepOnExit                        out/external/libexternal_fuota_stack.a(stm32wlxx_hal_pwr.o)
HAL_PWR_DisableWakeUpPin                          out/external/libexternal_fuota_stack.a(stm32wlxx_hal_pwr.o)
HAL_PWR_EnableBkUpAccess                          out/external/libexternal_fuota_stack.a(stm32wlxx_hal_pwr.o)
                                                  out/external/libexternal_fuota_stack.a(stm32wlxx_hal_rcc_ex.o)
                                                  out/external/libexternal_fuota_stack.a(stm32wlxx_hal_rcc.o)
HAL_PWR_EnablePVD                                 out/external/libexternal_fuota_stack.a(stm32wlxx_hal_pwr.o)
HAL_PWR_EnableSEVOnPend                           out/external/libexternal_fuota_stack.a(stm32wlxx_hal_pwr.o)
HAL_PWR_EnableSleepOnExit                         out/external/libexternal_fuota_stack.a(stm32wlxx_hal_pwr.o)
HAL_PWR_EnableWakeUpPin                           out/external/libexternal_fuota_stack.a(stm32wlxx_hal_pwr.o)
HAL_PWR_EnterSLEEPMode                            out/external/libexternal_fuota_stack.a(stm32wlxx_hal_pwr.o)
HAL_PWR_EnterSTANDBYMode                          out/external/libexternal_fuota_stack.a(stm32wlxx_hal_pwr.o)
HAL_PWR_EnterSTOPMode                             out/external/libexternal_fuota_stack.a(stm32wlxx_hal_pwr.o)
HAL_PWR_PVDCallback                               out/external/libexternal_fuota_stack.a(stm32wlxx_hal_pwr.o)
                                                  out/external/libexternal_fuota_stack.a(stm32wlxx_hal_pwr_ex.o)
HAL_RCCEx_DisableLSCO                             out/external/libexternal_fuota_stack.a(stm32wlxx_hal_rcc_ex.o)
HAL_RCCEx_DisableLSECSS                           out/external/libexternal_fuota_stack.a(stm32wlxx_hal_rcc_ex.o)
HAL_RCCEx_DisableMSIPLLMode                       out/external/libexternal_fuota_stack.a(stm32wlxx_hal_rcc_ex.o)
HAL_RCCEx_EnableLSCO                              out/external/libexternal_fuota_stack.a(stm32wlxx_hal_rcc_ex.o)
HAL_RCCEx_EnableLSECSS                            out/external/libexternal_fuota_stack.a(stm32wlxx_hal_rcc_ex.o)
HAL_RCCEx_EnableLSECSS_IT                         out/external/libexternal_fuota_stack.a(stm32wlxx_hal_rcc_ex.o)
HAL_RCCEx_EnableMSIPLLMode                        out/external/libexternal_fuota_stack.a(stm32wlxx_hal_rcc_ex.o)
HAL_RCCEx_GetPeriphCLKConfig                      out/external/libexternal_fuota_stack.a(stm32wlxx_hal_rcc_ex.o)
HAL_RCCEx_GetPeriphCLKFreq                        out/external/libexternal_fuota_stack.a(stm32wlxx_hal_rcc_ex.o)
HAL_RCCEx_LSECSS_Callback                         out/external/libexternal_fuota_stack.a(stm32wlxx_hal_rcc_ex.o)
HAL_RCCEx_LSECSS_IRQHandler                       out/external/libexternal_fuota_stack.a(stm32wlxx_hal_rcc_ex.o)
HAL_RCCEx_PeriphCLKConfig                         out/external/libexternal_fuota_stack.a(stm32wlxx_hal_rcc_ex.o)
                                                  out/external/libexternal_fuota_stack.a(stm32wlxx_hal_msp.o)
HAL_RCCEx_WakeUpStopCLKConfig                     out/external/libexternal_fuota_stack.a(stm32wlxx_hal_rcc_ex.o)
HAL_RCC_CSSCallback                               out/external/libexternal_fuota_stack.a(stm32wlxx_hal_rcc.o)
HAL_RCC_ClockConfig                               out/external/libexternal_fuota_stack.a(stm32wlxx_hal_rcc.o)
HAL_RCC_DeInit                                    out/external/libexternal_fuota_stack.a(stm32wlxx_hal_rcc.o)
HAL_RCC_EnableCSS                                 out/external/libexternal_fuota_stack.a(stm32wlxx_hal_rcc.o)
HAL_RCC_GetClockConfig                            out/external/libexternal_fuota_stack.a(stm32wlxx_hal_rcc.o)
HAL_RCC_GetHCLK3Freq                              out/external/libexternal_fuota_stack.a(stm32wlxx_hal_rcc.o)
HAL_RCC_GetHCLKFreq                               out/external/libexternal_fuota_stack.a(stm32wlxx_hal_rcc.o)
                                                  out/external/libexternal_fuota_stack.a(stm32wlxx_hal.o)
HAL_RCC_GetOscConfig                              out/external/libexternal_fuota_stack.a(stm32wlxx_hal_rcc.o)
HAL_RCC_GetPCLK1Freq                              out/external/libexternal_fuota_stack.a(stm32wlxx_hal_rcc.o)
HAL_RCC_GetPCLK2Freq                              out/external/libexternal_fuota_stack.a(stm32wlxx_hal_rcc.o)
HAL_RCC_GetResetSource                            out/external/libexternal_fuota_stack.a(stm32wlxx_hal_rcc.o)
HAL_RCC_GetSysClockFreq                           out/external/libexternal_fuota_stack.a(stm32wlxx_hal_rcc.o)
                                                  out/external/libexternal_fuota_stack.a(stm32wlxx_hal_rcc_ex.o)
HAL_RCC_MCOConfig                                 out/external/libexternal_fuota_stack.a(stm32wlxx_hal_rcc.o)
HAL_RCC_NMI_IRQHandler                            out/external/libexternal_fuota_stack.a(stm32wlxx_hal_rcc.o)
HAL_RCC_OscConfig                                 out/external/libexternal_fuota_stack.a(stm32wlxx_hal_rcc.o)
HAL_RTCEx_AlarmBEventCallback                     out/external/libexternal_fuota_stack.a(stm32wlxx_hal_rtc_ex.o)
                                                  out/external/libexternal_fuota_stack.a(stm32wlxx_hal_rtc.o)
HAL_RTCEx_BKUPRead                                out/external/libexternal_fuota_stack.a(stm32wlxx_hal_rtc_ex.o)
                                                  out/external/libexternal_fuota_stack.a(timer_if.o)
HAL_RTCEx_BKUPWrite                               out/external/libexternal_fuota_stack.a(stm32wlxx_hal_rtc_ex.o)
                                                  out/external/libexternal_fuota_stack.a(timer_if.o)
HAL_RTCEx_DeactivateCalibrationOutPut             out/external/libexternal_fuota_stack.a(stm32wlxx_hal_rtc_ex.o)
HAL_RTCEx_DeactivateInternalTamper                out/external/libexternal_fuota_stack.a(stm32wlxx_hal_rtc_ex.o)
HAL_RTCEx_DeactivateInternalTimeStamp             out/external/libexternal_fuota_stack.a(stm32wlxx_hal_rtc_ex.o)
HAL_RTCEx_DeactivateRefClock                      out/external/libexternal_fuota_stack.a(stm32wlxx_hal_rtc_ex.o)
HAL_RTCEx_DeactivateSSRU                          out/external/libexternal_fuota_stack.a(stm32wlxx_hal_rtc_ex.o)
HAL_RTCEx_DeactivateTamper                        out/external/libexternal_fuota_stack.a(stm32wlxx_hal_rtc_ex.o)
HAL_RTCEx_DeactivateTimeStamp                     out/external/libexternal_fuota_stack.a(stm32wlxx_hal_rtc_ex.o)
HAL_RTCEx_DeactivateWakeUpTimer                   out/external/libexternal_fuota_stack.a(stm32wlxx_hal_rtc_ex.o)
HAL_RTCEx_DisableBypassShadow                     out/external/libexternal_fuota_stack.a(stm32wlxx_hal_rtc_ex.o)
HAL_RTCEx_EnableBypassShadow                      out/external/libexternal_fuota_stack.a(stm32wlxx_hal_rtc_ex.o)
                                                  out/external/libexternal_fuota_stack.a(timer_if.o)
HAL_RTCEx_GetTimeStamp                            out/external/libexternal_fuota_stack.a(stm32wlxx_hal_rtc_ex.o)
HAL_RTCEx_GetWakeUpTimer                          out/external/libexternal_fuota_stack.a(stm32wlxx_hal_rtc_ex.o)
HAL_RTCEx_InternalTamper3EventCallback            out/external/libexternal_fuota_stack.a(stm32wlxx_hal_rtc_ex.o)
HAL_RTCEx_InternalTamper5EventCallback            out/external/libexternal_fuota_stack.a(stm32wlxx_hal_rtc_ex.o)
HAL_RTCEx_InternalTamper6EventCallback            out/external/libexternal_fuota_stack.a(stm32wlxx_hal_rtc_ex.o)
HAL_RTCEx_InternalTamper8EventCallback            out/external/libexternal_fuota_stack.a(stm32wlxx_hal_rtc_ex.o)
HAL_RTCEx_MonotonicCounterGet                     out/external/libexternal_fuota_stack.a(stm32wlxx_hal_rtc_ex.o)
HAL_RTCEx_MonotonicCounterIncrement               out/external/libexternal_fuota_stack.a(stm32wlxx_hal_rtc_ex.o)
HAL_RTCEx_PollForAlarmBEvent                      out/external/libexternal_fuota_stack.a(stm32wlxx_hal_rtc_ex.o)
HAL_RTCEx_PollForInternalTamperEvent              out/external/libexternal_fuota_stack.a(stm32wlxx_hal_rtc_ex.o)
HAL_RTCEx_PollForTamperEvent                      out/external/libexternal_fuota_stack.a(stm32wlxx_hal_rtc_ex.o)
HAL_RTCEx_PollForTimeStampEvent                   out/external/libexternal_fuota_stack.a(stm32wlxx_hal_rtc_ex.o)
HAL_RTCEx_PollForWakeUpTimerEvent                 out/external/libexternal_fuota_stack.a(stm32wlxx_hal_rtc_ex.o)
HAL_RTCEx_SSRUEventCallback                       out/external/libexternal_fuota_stack.a(timer_if.o)
HAL_RTCEx_SSRUIRQHandler                          out/external/libexternal_fuota_stack.a(stm32wlxx_hal_rtc_ex.o)
HAL_RTCEx_SetCalibrationOutPut                    out/external/libexternal_fuota_stack.a(stm32wlxx_hal_rtc_ex.o)
HAL_RTCEx_SetInternalTamper                       out/external/libexternal_fuota_stack.a(stm32wlxx_hal_rtc_ex.o)
HAL_RTCEx_SetInternalTamper_IT                    out/external/libexternal_fuota_stack.a(stm32wlxx_hal_rtc_ex.o)
HAL_RTCEx_SetInternalTimeStamp                    out/external/libexternal_fuota_stack.a(stm32wlxx_hal_rtc_ex.o)
HAL_RTCEx_SetLowPowerCalib                        out/external/libexternal_fuota_stack.a(stm32wlxx_hal_rtc_ex.o)
HAL_RTCEx_SetRefClock                             out/external/libexternal_fuota_stack.a(stm32wlxx_hal_rtc_ex.o)
HAL_RTCEx_SetSSRU_IT                              out/external/libexternal_fuota_stack.a(stm32wlxx_hal_rtc_ex.o)
                                                  out/external/libexternal_fuota_stack.a(uhal_rtc.o)
HAL_RTCEx_SetSmoothCalib                          out/external/libexternal_fuota_stack.a(stm32wlxx_hal_rtc_ex.o)
HAL_RTCEx_SetSynchroShift                         out/external/libexternal_fuota_stack.a(stm32wlxx_hal_rtc_ex.o)
HAL_RTCEx_SetTamper                               out/external/libexternal_fuota_stack.a(stm32wlxx_hal_rtc_ex.o)
HAL_RTCEx_SetTamper_IT                            out/external/libexternal_fuota_stack.a(stm32wlxx_hal_rtc_ex.o)
HAL_RTCEx_SetTimeStamp                            out/external/libexternal_fuota_stack.a(stm32wlxx_hal_rtc_ex.o)
HAL_RTCEx_SetTimeStamp_IT                         out/external/libexternal_fuota_stack.a(stm32wlxx_hal_rtc_ex.o)
HAL_RTCEx_SetWakeUpTimer                          out/external/libexternal_fuota_stack.a(stm32wlxx_hal_rtc_ex.o)
HAL_RTCEx_SetWakeUpTimer_IT                       out/external/libexternal_fuota_stack.a(stm32wlxx_hal_rtc_ex.o)
HAL_RTCEx_Tamper1EventCallback                    out/external/libexternal_fuota_stack.a(stm32wlxx_hal_rtc_ex.o)
HAL_RTCEx_Tamper2EventCallback                    out/external/libexternal_fuota_stack.a(stm32wlxx_hal_rtc_ex.o)
HAL_RTCEx_Tamper3EventCallback                    out/external/libexternal_fuota_stack.a(stm32wlxx_hal_rtc_ex.o)
HAL_RTCEx_TamperIRQHandler                        out/external/libexternal_fuota_stack.a(stm32wlxx_hal_rtc_ex.o)
HAL_RTCEx_TimeStampEventCallback                  out/external/libexternal_fuota_stack.a(stm32wlxx_hal_rtc_ex.o)
HAL_RTCEx_TimeStampIRQHandler                     out/external/libexternal_fuota_stack.a(stm32wlxx_hal_rtc_ex.o)
HAL_RTCEx_WakeUpTimerEventCallback                out/external/libexternal_fuota_stack.a(stm32wlxx_hal_rtc_ex.o)
HAL_RTCEx_WakeUpTimerIRQHandler                   out/external/libexternal_fuota_stack.a(stm32wlxx_hal_rtc_ex.o)
HAL_RTC_AlarmAEventCallback                       out/external/libexternal_fuota_stack.a(timer_if.o)
HAL_RTC_AlarmIRQHandler                           out/external/libexternal_fuota_stack.a(stm32wlxx_hal_rtc.o)
HAL_RTC_DST_Add1Hour                              out/external/libexternal_fuota_stack.a(stm32wlxx_hal_rtc.o)
HAL_RTC_DST_ClearStoreOperation                   out/external/libexternal_fuota_stack.a(stm32wlxx_hal_rtc.o)
HAL_RTC_DST_ReadStoreOperation                    out/external/libexternal_fuota_stack.a(stm32wlxx_hal_rtc.o)
HAL_RTC_DST_SetStoreOperation                     out/external/libexternal_fuota_stack.a(stm32wlxx_hal_rtc.o)
HAL_RTC_DST_Sub1Hour                              out/external/libexternal_fuota_stack.a(stm32wlxx_hal_rtc.o)
HAL_RTC_DeInit                                    out/external/libexternal_fuota_stack.a(stm32wlxx_hal_rtc.o)
HAL_RTC_DeactivateAlarm                           out/external/libexternal_fuota_stack.a(stm32wlxx_hal_rtc.o)
                                                  out/external/libexternal_fuota_stack.a(timer_if.o)
HAL_RTC_GetAlarm                                  out/external/libexternal_fuota_stack.a(stm32wlxx_hal_rtc.o)
HAL_RTC_GetDate                                   out/external/libexternal_fuota_stack.a(stm32wlxx_hal_rtc.o)
HAL_RTC_GetState                                  out/external/libexternal_fuota_stack.a(stm32wlxx_hal_rtc.o)
HAL_RTC_GetTime                                   out/external/libexternal_fuota_stack.a(stm32wlxx_hal_rtc.o)
HAL_RTC_Init                                      out/external/libexternal_fuota_stack.a(stm32wlxx_hal_rtc.o)
                                                  out/external/libexternal_fuota_stack.a(uhal_rtc.o)
HAL_RTC_MspDeInit                                 out/external/libexternal_fuota_stack.a(stm32wlxx_hal_msp.o)
HAL_RTC_MspInit                                   out/external/libexternal_fuota_stack.a(stm32wlxx_hal_msp.o)
HAL_RTC_PollForAlarmAEvent                        out/external/libexternal_fuota_stack.a(stm32wlxx_hal_rtc.o)
HAL_RTC_SetAlarm                                  out/external/libexternal_fuota_stack.a(stm32wlxx_hal_rtc.o)
HAL_RTC_SetAlarm_IT                               out/external/libexternal_fuota_stack.a(stm32wlxx_hal_rtc.o)
                                                  out/external/libexternal_fuota_stack.a(uhal_rtc.o)
                                                  out/external/libexternal_fuota_stack.a(timer_if.o)
HAL_RTC_SetDate                                   out/external/libexternal_fuota_stack.a(stm32wlxx_hal_rtc.o)
HAL_RTC_SetTime                                   out/external/libexternal_fuota_stack.a(stm32wlxx_hal_rtc.o)
HAL_RTC_WaitForSynchro                            out/external/libexternal_fuota_stack.a(stm32wlxx_hal_rtc.o)
                                                  out/external/libexternal_fuota_stack.a(stm32wlxx_hal_rtc_ex.o)
HAL_ResumeTick                                    out/external/libexternal_fuota_stack.a(stm32wlxx_hal.o)
HAL_SUBGHZ_CADStatusCallback                      out/external/libexternal_fuota_stack.a(radio_driver.o)
HAL_SUBGHZ_CRCErrorCallback                       out/external/libexternal_fuota_stack.a(radio_driver.o)
HAL_SUBGHZ_DeInit                                 out/external/libexternal_fuota_stack.a(stm32wlxx_hal_subghz.o)
HAL_SUBGHZ_ExecGetCmd                             out/external/libexternal_fuota_stack.a(stm32wlxx_hal_subghz.o)
                                                  out/external/libexternal_fuota_stack.a(radio_driver.o)
HAL_SUBGHZ_ExecSetCmd                             out/external/libexternal_fuota_stack.a(stm32wlxx_hal_subghz.o)
                                                  out/external/libexternal_fuota_stack.a(radio_driver.o)
HAL_SUBGHZ_GetError                               out/external/libexternal_fuota_stack.a(stm32wlxx_hal_subghz.o)
HAL_SUBGHZ_GetState                               out/external/libexternal_fuota_stack.a(stm32wlxx_hal_subghz.o)
HAL_SUBGHZ_HeaderErrorCallback                    out/external/libexternal_fuota_stack.a(radio_driver.o)
HAL_SUBGHZ_HeaderValidCallback                    out/external/libexternal_fuota_stack.a(radio_driver.o)
HAL_SUBGHZ_IRQHandler                             out/external/libexternal_fuota_stack.a(stm32wlxx_hal_subghz.o)
HAL_SUBGHZ_Init                                   out/external/libexternal_fuota_stack.a(stm32wlxx_hal_subghz.o)
                                                  out/external/libexternal_fuota_stack.a(subghz.o)
HAL_SUBGHZ_MspDeInit                              out/external/libexternal_fuota_stack.a(subghz.o)
HAL_SUBGHZ_MspInit                                out/external/libexternal_fuota_stack.a(subghz.o)
HAL_SUBGHZ_PreambleDetectedCallback               out/external/libexternal_fuota_stack.a(radio_driver.o)
HAL_SUBGHZ_ReadBuffer                             out/external/libexternal_fuota_stack.a(stm32wlxx_hal_subghz.o)
                                                  out/external/libexternal_fuota_stack.a(radio_driver.o)
HAL_SUBGHZ_ReadRegister                           out/external/libexternal_fuota_stack.a(stm32wlxx_hal_subghz.o)
HAL_SUBGHZ_ReadRegisters                          out/external/libexternal_fuota_stack.a(stm32wlxx_hal_subghz.o)
                                                  out/external/libexternal_fuota_stack.a(radio_driver.o)
HAL_SUBGHZ_RxCpltCallback                         out/external/libexternal_fuota_stack.a(radio_driver.o)
HAL_SUBGHZ_RxTxTimeoutCallback                    out/external/libexternal_fuota_stack.a(radio_driver.o)
HAL_SUBGHZ_SyncWordValidCallback                  out/external/libexternal_fuota_stack.a(radio_driver.o)
HAL_SUBGHZ_TxCpltCallback                         out/external/libexternal_fuota_stack.a(radio_driver.o)
HAL_SUBGHZ_WriteBuffer                            out/external/libexternal_fuota_stack.a(stm32wlxx_hal_subghz.o)
                                                  out/external/libexternal_fuota_stack.a(radio_driver.o)
HAL_SUBGHZ_WriteRegister                          out/external/libexternal_fuota_stack.a(stm32wlxx_hal_subghz.o)
HAL_SUBGHZ_WriteRegisters                         out/external/libexternal_fuota_stack.a(stm32wlxx_hal_subghz.o)
                                                  out/external/libexternal_fuota_stack.a(radio_driver.o)
HAL_SYSCFG_DisableIOAnalogSwitchBooster           out/external/libexternal_fuota_stack.a(stm32wlxx_hal.o)
HAL_SYSCFG_DisableVREFBUF                         out/external/libexternal_fuota_stack.a(stm32wlxx_hal.o)
HAL_SYSCFG_EnableIOAnalogSwitchBooster            out/external/libexternal_fuota_stack.a(stm32wlxx_hal.o)
HAL_SYSCFG_EnableVREFBUF                          out/external/libexternal_fuota_stack.a(stm32wlxx_hal.o)
HAL_SYSCFG_SRAM2Erase                             out/external/libexternal_fuota_stack.a(stm32wlxx_hal.o)
HAL_SYSCFG_VREFBUF_HighImpedanceConfig            out/external/libexternal_fuota_stack.a(stm32wlxx_hal.o)
HAL_SYSCFG_VREFBUF_TrimmingConfig                 out/external/libexternal_fuota_stack.a(stm32wlxx_hal.o)
HAL_SYSCFG_VREFBUF_VoltageScalingConfig           out/external/libexternal_fuota_stack.a(stm32wlxx_hal.o)
HAL_SYSTICK_CLKSourceConfig                       out/external/libexternal_fuota_stack.a(stm32wlxx_hal_cortex.o)
HAL_SYSTICK_Callback                              out/external/libexternal_fuota_stack.a(stm32wlxx_hal_cortex.o)
HAL_SYSTICK_Config                                out/external/libexternal_fuota_stack.a(stm32wlxx_hal_cortex.o)
                                                  out/external/libexternal_fuota_stack.a(stm32wlxx_hal.o)
HAL_SYSTICK_IRQHandler                            out/external/libexternal_fuota_stack.a(stm32wlxx_hal_cortex.o)
HAL_SetTickFreq                                   out/external/libexternal_fuota_stack.a(stm32wlxx_hal.o)
HAL_SuspendTick                                   out/external/libexternal_fuota_stack.a(stm32wlxx_hal.o)
HAL_TIM_PWM_MspDeInit                             out/external/libexternal_fuota_stack.a(stm32wlxx_hal_msp.o)
HAL_TIM_PWM_MspInit                               out/external/libexternal_fuota_stack.a(stm32wlxx_hal_msp.o)
IsClockSynched                                    out/external/libexternal_fuota_stack.a(service_lora_config.o)
LmHandlerDeviceTimeReq                            out/external/libexternal_fuota_stack.a(LmHandler.o)
                                                  out/external/libexternal_fuota_stack.a(LmhpClockSync.o)
LmHandlerFuotaPackagesProcess                     out/external/libexternal_fuota_stack.a(service_lora_config.o)
LmHandlerFuotaStackPackageRegister                out/external/libexternal_fuota_stack.a(LmHandler.o)
LmHandlerGetActiveRegion                          out/external/libexternal_fuota_stack.a(LmHandler.o)
LmHandlerGetCurrentClass                          out/external/libexternal_fuota_stack.a(LmHandler.o)
LmHandlerGetCurrentDatarate                       out/external/libexternal_fuota_stack.a(LmHandler.o)
LmHandlerInit                                     out/external/libexternal_fuota_stack.a(LmHandler.o)
LmHandlerIsBusy                                   out/external/libexternal_fuota_stack.a(LmHandler.o)
                                                  out/external/libexternal_fuota_stack.a(LmhpClockSync.o)
LmHandlerJoin                                     out/external/libexternal_fuota_stack.a(LmHandler.o)
LmHandlerJoinStatus                               out/external/libexternal_fuota_stack.a(LmHandler.o)
LmHandlerPackageIsInitialized                     out/external/libexternal_fuota_stack.a(LmHandler.o)
LmHandlerPackages                                 out/external/libexternal_fuota_stack.a(LmHandler.o)
LmHandlerPackagesNotify                           out/external/libexternal_fuota_stack.a(LmHandler.o)
LmHandlerPackagesProcess                          out/external/libexternal_fuota_stack.a(LmHandler.o)
LmHandlerPackages_fuota                           out/external/libexternal_fuota_stack.a(service_lora_config.o)
LmHandlerParams                                   out/external/libexternal_fuota_stack.a(LmHandler.o)
LmHandlerPingSlotReq                              out/external/libexternal_fuota_stack.a(LmHandler.o)
LmHandlerProcess                                  out/external/libexternal_fuota_stack.a(LmHandler.o)
LmHandlerRequestClass                             out/external/libexternal_fuota_stack.a(LmHandler.o)
                                                  out/external/libexternal_fuota_stack.a(LmhpRemoteMcastSetup.o)
LmHandlerSend                                     out/external/libexternal_fuota_stack.a(service_lora_config.o)
                                                  out/external/libexternal_fuota_stack.a(LmhpFragmentation.o)
                                                  out/external/libexternal_fuota_stack.a(LmhpRemoteMcastSetup.o)
                                                  out/external/libexternal_fuota_stack.a(LmhpClockSync.o)
                                                  out/external/libexternal_fuota_stack.a(LmHandler.o)
LmHandlerSetSystemMaxRxError                      out/external/libexternal_fuota_stack.a(LmHandler.o)
LmhpClockSyncAppTimeReq                           out/external/libexternal_fuota_stack.a(LmhpClockSync.o)
LmhpFragmentationPackageFactory                   out/external/libexternal_fuota_stack.a(LmhpFragmentation.o)
                                                  out/external/libexternal_fuota_stack.a(LmHandler.o)
LmhpFragmentationParams                           out/external/libexternal_fuota_stack.a(LmhpFragmentation.o)
LmhpRemoteMcastSetupPackageFactory                out/external/libexternal_fuota_stack.a(LmhpRemoteMcastSetup.o)
                                                  out/external/libexternal_fuota_stack.a(LmHandler.o)
LmhpRemoteMcastSetupRegisterPowersaveHandler      out/external/libexternal_fuota_stack.a(LmhpRemoteMcastSetup.o)
LmphClockSyncPackageFactory                       out/external/libexternal_fuota_stack.a(LmhpClockSync.o)
                                                  out/external/libexternal_fuota_stack.a(LmHandler.o)
LoRaMacAdrCalcNext                                out/external/libexternal_fuota_stack.a(LoRaMacAdr.o)
                                                  out/external/libexternal_fuota_stack.a(LoRaMac.o)
LoRaMacChannelAdd                                 out/external/libexternal_fuota_stack.a(LoRaMac.o)
LoRaMacChannelRemove                              out/external/libexternal_fuota_stack.a(LoRaMac.o)
LoRaMacClassBBeaconFreqReq                        out/external/libexternal_fuota_stack.a(LoRaMacClassB.o)
                                                  out/external/libexternal_fuota_stack.a(LoRaMac.o)
LoRaMacClassBBeaconTimerEvent                     out/external/libexternal_fuota_stack.a(LoRaMacClassB.o)
                                                  out/external/libexternal_fuota_stack.a(LoRaMac.o)
LoRaMacClassBBeaconTimingAns                      out/external/libexternal_fuota_stack.a(LoRaMacClassB.o)
                                                  out/external/libexternal_fuota_stack.a(LoRaMac.o)
LoRaMacClassBDeviceTimeAns                        out/external/libexternal_fuota_stack.a(LoRaMacClassB.o)
                                                  out/external/libexternal_fuota_stack.a(LoRaMac.o)
LoRaMacClassBEvents                               out/external/libexternal_fuota_stack.a(LoRaMacClassB.o)
LoRaMacClassBHaltBeaconing                        out/external/libexternal_fuota_stack.a(LoRaMacClassB.o)
                                                  out/external/libexternal_fuota_stack.a(LoRaMac.o)
LoRaMacClassBInit                                 out/external/libexternal_fuota_stack.a(LoRaMacClassB.o)
                                                  out/external/libexternal_fuota_stack.a(LoRaMac.o)
LoRaMacClassBIsAcquisitionInProgress              out/external/libexternal_fuota_stack.a(LoRaMacClassB.o)
                                                  out/external/libexternal_fuota_stack.a(LoRaMac.o)
LoRaMacClassBIsAcquisitionPending                 out/external/libexternal_fuota_stack.a(LoRaMacClassB.o)
LoRaMacClassBIsBeaconExpected                     out/external/libexternal_fuota_stack.a(LoRaMacClassB.o)
                                                  out/external/libexternal_fuota_stack.a(LoRaMac.o)
LoRaMacClassBIsBeaconModeActive                   out/external/libexternal_fuota_stack.a(LoRaMacClassB.o)
                                                  out/external/libexternal_fuota_stack.a(LoRaMac.o)
LoRaMacClassBIsMulticastExpected                  out/external/libexternal_fuota_stack.a(LoRaMacClassB.o)
                                                  out/external/libexternal_fuota_stack.a(LoRaMac.o)
LoRaMacClassBIsPingExpected                       out/external/libexternal_fuota_stack.a(LoRaMacClassB.o)
                                                  out/external/libexternal_fuota_stack.a(LoRaMac.o)
LoRaMacClassBIsUplinkCollision                    out/external/libexternal_fuota_stack.a(LoRaMacClassB.o)
                                                  out/external/libexternal_fuota_stack.a(LoRaMac.o)
LoRaMacClassBMibGetRequestConfirm                 out/external/libexternal_fuota_stack.a(LoRaMacClassB.o)
                                                  out/external/libexternal_fuota_stack.a(LoRaMac.o)
LoRaMacClassBMulticastSlotTimerEvent              out/external/libexternal_fuota_stack.a(LoRaMacClassB.o)
                                                  out/external/libexternal_fuota_stack.a(LoRaMac.o)
LoRaMacClassBPingSlotChannelReq                   out/external/libexternal_fuota_stack.a(LoRaMacClassB.o)
                                                  out/external/libexternal_fuota_stack.a(LoRaMac.o)
LoRaMacClassBPingSlotInfoAns                      out/external/libexternal_fuota_stack.a(LoRaMacClassB.o)
                                                  out/external/libexternal_fuota_stack.a(LoRaMac.o)
LoRaMacClassBPingSlotTimerEvent                   out/external/libexternal_fuota_stack.a(LoRaMacClassB.o)
                                                  out/external/libexternal_fuota_stack.a(LoRaMac.o)
LoRaMacClassBProcess                              out/external/libexternal_fuota_stack.a(LoRaMacClassB.o)
                                                  out/external/libexternal_fuota_stack.a(LoRaMac.o)
LoRaMacClassBResumeBeaconing                      out/external/libexternal_fuota_stack.a(LoRaMacClassB.o)
                                                  out/external/libexternal_fuota_stack.a(LoRaMac.o)
LoRaMacClassBRxBeacon                             out/external/libexternal_fuota_stack.a(LoRaMacClassB.o)
                                                  out/external/libexternal_fuota_stack.a(LoRaMac.o)
LoRaMacClassBSetBeaconState                       out/external/libexternal_fuota_stack.a(LoRaMacClassB.o)
                                                  out/external/libexternal_fuota_stack.a(LoRaMac.o)
LoRaMacClassBSetFPendingBit                       out/external/libexternal_fuota_stack.a(LoRaMacClassB.o)
                                                  out/external/libexternal_fuota_stack.a(LoRaMac.o)
LoRaMacClassBSetMulticastPeriodicity              out/external/libexternal_fuota_stack.a(LoRaMacClassB.o)
                                                  out/external/libexternal_fuota_stack.a(LoRaMac.o)
LoRaMacClassBSetMulticastSlotState                out/external/libexternal_fuota_stack.a(LoRaMacClassB.o)
                                                  out/external/libexternal_fuota_stack.a(LoRaMac.o)
LoRaMacClassBSetPingSlotInfo                      out/external/libexternal_fuota_stack.a(LoRaMacClassB.o)
                                                  out/external/libexternal_fuota_stack.a(LoRaMac.o)
LoRaMacClassBSetPingSlotState                     out/external/libexternal_fuota_stack.a(LoRaMacClassB.o)
                                                  out/external/libexternal_fuota_stack.a(LoRaMac.o)
LoRaMacClassBStartRxSlots                         out/external/libexternal_fuota_stack.a(LoRaMacClassB.o)
LoRaMacClassBStopRxSlots                          out/external/libexternal_fuota_stack.a(LoRaMacClassB.o)
                                                  out/external/libexternal_fuota_stack.a(LoRaMac.o)
LoRaMacClassBSwitchClass                          out/external/libexternal_fuota_stack.a(LoRaMacClassB.o)
                                                  out/external/libexternal_fuota_stack.a(LoRaMac.o)
LoRaMacCommandsAddCmd                             out/external/libexternal_fuota_stack.a(LoRaMacCommands.o)
                                                  out/external/libexternal_fuota_stack.a(LoRaMac.o)
LoRaMacCommandsGetCmd                             out/external/libexternal_fuota_stack.a(LoRaMacCommands.o)
                                                  out/external/libexternal_fuota_stack.a(LoRaMac.o)
LoRaMacCommandsGetCmdSize                         out/external/libexternal_fuota_stack.a(LoRaMacCommands.o)
                                                  out/external/libexternal_fuota_stack.a(LoRaMac.o)
LoRaMacCommandsGetSizeSerializedCmds              out/external/libexternal_fuota_stack.a(LoRaMacCommands.o)
                                                  out/external/libexternal_fuota_stack.a(LoRaMac.o)
LoRaMacCommandsInit                               out/external/libexternal_fuota_stack.a(LoRaMacCommands.o)
                                                  out/external/libexternal_fuota_stack.a(LoRaMac.o)
LoRaMacCommandsRemoveCmd                          out/external/libexternal_fuota_stack.a(LoRaMacCommands.o)
                                                  out/external/libexternal_fuota_stack.a(LoRaMac.o)
LoRaMacCommandsRemoveNoneStickyCmds               out/external/libexternal_fuota_stack.a(LoRaMacCommands.o)
                                                  out/external/libexternal_fuota_stack.a(LoRaMac.o)
LoRaMacCommandsRemoveStickyAnsCmds                out/external/libexternal_fuota_stack.a(LoRaMacCommands.o)
                                                  out/external/libexternal_fuota_stack.a(LoRaMac.o)
LoRaMacCommandsSerializeCmds                      out/external/libexternal_fuota_stack.a(LoRaMacCommands.o)
                                                  out/external/libexternal_fuota_stack.a(LoRaMac.o)
LoRaMacConfirmQueueAdd                            out/external/libexternal_fuota_stack.a(LoRaMacConfirmQueue.o)
                                                  out/external/libexternal_fuota_stack.a(LoRaMac.o)
LoRaMacConfirmQueueGetCnt                         out/external/libexternal_fuota_stack.a(LoRaMacConfirmQueue.o)
                                                  out/external/libexternal_fuota_stack.a(LoRaMac.o)
LoRaMacConfirmQueueGetStatus                      out/external/libexternal_fuota_stack.a(LoRaMacConfirmQueue.o)
LoRaMacConfirmQueueGetStatusCmn                   out/external/libexternal_fuota_stack.a(LoRaMacConfirmQueue.o)
LoRaMacConfirmQueueHandleCb                       out/external/libexternal_fuota_stack.a(LoRaMacConfirmQueue.o)
                                                  out/external/libexternal_fuota_stack.a(LoRaMac.o)
LoRaMacConfirmQueueInit                           out/external/libexternal_fuota_stack.a(LoRaMacConfirmQueue.o)
                                                  out/external/libexternal_fuota_stack.a(LoRaMac.o)
LoRaMacConfirmQueueIsCmdActive                    out/external/libexternal_fuota_stack.a(LoRaMacConfirmQueue.o)
                                                  out/external/libexternal_fuota_stack.a(LoRaMacClassB.o)
                                                  out/external/libexternal_fuota_stack.a(LoRaMac.o)
LoRaMacConfirmQueueIsFull                         out/external/libexternal_fuota_stack.a(LoRaMacConfirmQueue.o)
                                                  out/external/libexternal_fuota_stack.a(LoRaMac.o)
LoRaMacConfirmQueueRemoveFirst                    out/external/libexternal_fuota_stack.a(LoRaMacConfirmQueue.o)
LoRaMacConfirmQueueRemoveLast                     out/external/libexternal_fuota_stack.a(LoRaMacConfirmQueue.o)
LoRaMacConfirmQueueSetStatus                      out/external/libexternal_fuota_stack.a(LoRaMacConfirmQueue.o)
                                                  out/external/libexternal_fuota_stack.a(LoRaMacClassB.o)
                                                  out/external/libexternal_fuota_stack.a(LoRaMac.o)
LoRaMacConfirmQueueSetStatusCmn                   out/external/libexternal_fuota_stack.a(LoRaMacConfirmQueue.o)
                                                  out/external/libexternal_fuota_stack.a(LoRaMac.o)
LoRaMacCryptoDeriveMcKEKey                        out/external/libexternal_fuota_stack.a(LoRaMacCrypto.o)
LoRaMacCryptoDeriveMcRootKey                      out/external/libexternal_fuota_stack.a(LoRaMacCrypto.o)
LoRaMacCryptoDeriveMcSessionKeyPair               out/external/libexternal_fuota_stack.a(LoRaMacCrypto.o)
                                                  out/external/libexternal_fuota_stack.a(LoRaMac.o)
LoRaMacCryptoGetFCntDown                          out/external/libexternal_fuota_stack.a(LoRaMacCrypto.o)
                                                  out/external/libexternal_fuota_stack.a(LoRaMac.o)
LoRaMacCryptoGetFCntUp                            out/external/libexternal_fuota_stack.a(LoRaMacCrypto.o)
                                                  out/external/libexternal_fuota_stack.a(LoRaMac.o)
LoRaMacCryptoGetRJcount                           out/external/libexternal_fuota_stack.a(LoRaMacCrypto.o)
                                                  out/external/libexternal_fuota_stack.a(LoRaMac.o)
LoRaMacCryptoHandleJoinAccept                     out/external/libexternal_fuota_stack.a(LoRaMacCrypto.o)
                                                  out/external/libexternal_fuota_stack.a(LoRaMac.o)
LoRaMacCryptoInit                                 out/external/libexternal_fuota_stack.a(LoRaMacCrypto.o)
                                                  out/external/libexternal_fuota_stack.a(LoRaMac.o)
LoRaMacCryptoPrepareJoinRequest                   out/external/libexternal_fuota_stack.a(LoRaMacCrypto.o)
                                                  out/external/libexternal_fuota_stack.a(LoRaMac.o)
LoRaMacCryptoPrepareReJoinType0or2                out/external/libexternal_fuota_stack.a(LoRaMacCrypto.o)
                                                  out/external/libexternal_fuota_stack.a(LoRaMac.o)
LoRaMacCryptoPrepareReJoinType1                   out/external/libexternal_fuota_stack.a(LoRaMacCrypto.o)
                                                  out/external/libexternal_fuota_stack.a(LoRaMac.o)
LoRaMacCryptoSecureMessage                        out/external/libexternal_fuota_stack.a(LoRaMacCrypto.o)
                                                  out/external/libexternal_fuota_stack.a(LoRaMac.o)
LoRaMacCryptoSetKey                               out/external/libexternal_fuota_stack.a(LoRaMacCrypto.o)
                                                  out/external/libexternal_fuota_stack.a(LoRaMac.o)
LoRaMacCryptoSetLrWanVersion                      out/external/libexternal_fuota_stack.a(LoRaMacCrypto.o)
                                                  out/external/libexternal_fuota_stack.a(LoRaMac.o)
LoRaMacCryptoSetMulticastReference                out/external/libexternal_fuota_stack.a(LoRaMacCrypto.o)
                                                  out/external/libexternal_fuota_stack.a(LoRaMac.o)
LoRaMacCryptoUnsecureMessage                      out/external/libexternal_fuota_stack.a(LoRaMacCrypto.o)
                                                  out/external/libexternal_fuota_stack.a(LoRaMac.o)
LoRaMacDeInitialization                           out/external/libexternal_fuota_stack.a(LoRaMac.o)
LoRaMacInitialization                             out/external/libexternal_fuota_stack.a(LoRaMac.o)
LoRaMacIsBusy                                     out/external/libexternal_fuota_stack.a(LoRaMac.o)
                                                  out/external/libexternal_fuota_stack.a(LmHandler.o)
LoRaMacMcChannelDelete                            out/external/libexternal_fuota_stack.a(LoRaMac.o)
                                                  out/external/libexternal_fuota_stack.a(LmhpRemoteMcastSetup.o)
                                                  out/external/libexternal_fuota_stack.a(service_lora_multicast.o)
LoRaMacMcChannelGetGroupId                        out/external/libexternal_fuota_stack.a(LoRaMac.o)
LoRaMacMcChannelSetup                             out/external/libexternal_fuota_stack.a(LoRaMac.o)
                                                  out/external/libexternal_fuota_stack.a(LmhpRemoteMcastSetup.o)
                                                  out/external/libexternal_fuota_stack.a(service_lora_multicast.o)
LoRaMacMcChannelSetupRxParams                     out/external/libexternal_fuota_stack.a(LoRaMac.o)
                                                  out/external/libexternal_fuota_stack.a(LmhpRemoteMcastSetup.o)
                                                  out/external/libexternal_fuota_stack.a(service_lora_multicast.o)
LoRaMacMcpsRequest                                out/external/libexternal_fuota_stack.a(LoRaMac.o)
                                                  out/external/libexternal_fuota_stack.a(service_lora_config.o)
LoRaMacMibClassBSetRequestConfirm                 out/external/libexternal_fuota_stack.a(LoRaMacClassB.o)
                                                  out/external/libexternal_fuota_stack.a(LoRaMac.o)
LoRaMacMibGetRequestConfirm                       out/external/libexternal_fuota_stack.a(LoRaMac.o)
                                                  out/external/libexternal_fuota_stack.a(LmhpClockSync.o)
                                                  out/external/libexternal_fuota_stack.a(LmHandler.o)
                                                  out/external/libexternal_fuota_stack.a(service_lora_config.o)
LoRaMacMibSetRequestConfirm                       out/external/libexternal_fuota_stack.a(LoRaMac.o)
                                                  out/external/libexternal_fuota_stack.a(LmhpClockSync.o)
                                                  out/external/libexternal_fuota_stack.a(LmHandler.o)
                                                  out/external/libexternal_fuota_stack.a(service_lora_config.o)
LoRaMacMlmeRequest                                out/external/libexternal_fuota_stack.a(LoRaMac.o)
                                                  out/external/libexternal_fuota_stack.a(LmhpRemoteMcastSetup.o)
                                                  out/external/libexternal_fuota_stack.a(LmHandler.o)
                                                  out/external/libexternal_fuota_stack.a(service_lora_config.o)
LoRaMacParserData                                 out/external/libexternal_fuota_stack.a(LoRaMacParser.o)
                                                  out/external/libexternal_fuota_stack.a(LoRaMacCrypto.o)
                                                  out/external/libexternal_fuota_stack.a(LoRaMac.o)
LoRaMacParserJoinAccept                           out/external/libexternal_fuota_stack.a(LoRaMacParser.o)
                                                  out/external/libexternal_fuota_stack.a(LoRaMacCrypto.o)
LoRaMacProcess                                    out/external/libexternal_fuota_stack.a(LoRaMac.o)
                                                  out/external/libexternal_fuota_stack.a(LmHandler.o)
LoRaMacQueryTxPossible                            out/external/libexternal_fuota_stack.a(LoRaMac.o)
                                                  out/external/libexternal_fuota_stack.a(service_lora_config.o)
LoRaMacRadioEvents                                out/external/libexternal_fuota_stack.a(LoRaMac.o)
LoRaMacReset                                      out/external/libexternal_fuota_stack.a(LoRaMac.o)
LoRaMacSerializerData                             out/external/libexternal_fuota_stack.a(LoRaMacSerializer.o)
                                                  out/external/libexternal_fuota_stack.a(LoRaMacCrypto.o)
                                                  out/external/libexternal_fuota_stack.a(LoRaMac.o)
LoRaMacSerializerJoinRequest                      out/external/libexternal_fuota_stack.a(LoRaMacSerializer.o)
                                                  out/external/libexternal_fuota_stack.a(LoRaMacCrypto.o)
                                                  out/external/libexternal_fuota_stack.a(LoRaMac.o)
LoRaMacSerializerReJoinType0or2                   out/external/libexternal_fuota_stack.a(LoRaMacSerializer.o)
                                                  out/external/libexternal_fuota_stack.a(LoRaMacCrypto.o)
                                                  out/external/libexternal_fuota_stack.a(LoRaMac.o)
LoRaMacSerializerReJoinType1                      out/external/libexternal_fuota_stack.a(LoRaMacSerializer.o)
                                                  out/external/libexternal_fuota_stack.a(LoRaMacCrypto.o)
                                                  out/external/libexternal_fuota_stack.a(LoRaMac.o)
LoRaMacStart                                      out/external/libexternal_fuota_stack.a(LoRaMac.o)
LoRaMacStop                                       out/external/libexternal_fuota_stack.a(LoRaMac.o)
LoRaMacTestSetDutyCycleOn                         out/external/libexternal_fuota_stack.a(LoRaMac.o)
                                                  out/external/libexternal_fuota_stack.a(service_lora_config.o)
LoRaMacUpdateCallbacks                            out/external/libexternal_fuota_stack.a(LoRaMac.o)
MSIRangeTable                                     out/external/libexternal_fuota_stack.a(system_stm32wlxx.o)
                                                  out/external/libexternal_fuota_stack.a(stm32wlxx_hal_rcc_ex.o)
                                                  out/external/libexternal_fuota_stack.a(stm32wlxx_hal_rcc.o)
MX_SUBGHZ_Init                                    out/external/libexternal_fuota_stack.a(subghz.o)
                                                  out/external/libexternal_fuota_stack.a(radio_driver.o)
McSessionData                                     out/external/libexternal_fuota_stack.a(LmhpRemoteMcastSetup.o)
McSession_group                                   out/external/libexternal_fuota_stack.a(service_lora_multicast.o)
MulticastMcpsIndication                           out/external/libexternal_fuota_stack.a(service_lora_multicast.o)
Nibble2HexChar                                    out/external/libexternal_fuota_stack.a(utilities.o)
PrepareFrame                                      out/external/libexternal_fuota_stack.a(LoRaMac.o)
RBI_ConfigRFSwitch                                out/external/libexternal_fuota_stack.a(radio_board_if.o)
                                                  out/external/libexternal_fuota_stack.a(radio_driver.o)
RBI_DeInit                                        out/external/libexternal_fuota_stack.a(radio_board_if.o)
RBI_GetTxConfig                                   out/external/libexternal_fuota_stack.a(radio_board_if.o)
                                                  out/external/libexternal_fuota_stack.a(radio_driver.o)
RBI_Init                                          out/external/libexternal_fuota_stack.a(radio_board_if.o)
                                                  out/external/libexternal_fuota_stack.a(radio_driver.o)
RBI_IsDCDC                                        out/external/libexternal_fuota_stack.a(radio_board_if.o)
                                                  out/external/libexternal_fuota_stack.a(radio_driver.o)
RBI_IsTCXO                                        out/external/libexternal_fuota_stack.a(radio_board_if.o)
                                                  out/external/libexternal_fuota_stack.a(radio_driver.o)
RFW_DeInit                                        out/external/libexternal_fuota_stack.a(radio_fw.o)
                                                  out/external/libexternal_fuota_stack.a(radio.o)
RFW_DeInit_TxLongPacket                           out/external/libexternal_fuota_stack.a(radio_fw.o)
                                                  out/external/libexternal_fuota_stack.a(radio.o)
RFW_Init                                          out/external/libexternal_fuota_stack.a(radio_fw.o)
                                                  out/external/libexternal_fuota_stack.a(radio.o)
RFW_Is_Init                                       out/external/libexternal_fuota_stack.a(radio_fw.o)
                                                  out/external/libexternal_fuota_stack.a(radio.o)
RFW_Is_LongPacketModeEnabled                      out/external/libexternal_fuota_stack.a(radio_fw.o)
                                                  out/external/libexternal_fuota_stack.a(radio.o)
RFW_ReceiveInit                                   out/external/libexternal_fuota_stack.a(radio_fw.o)
                                                  out/external/libexternal_fuota_stack.a(radio.o)
RFW_ReceiveLongPacket                             out/external/libexternal_fuota_stack.a(radio_fw.o)
                                                  out/external/libexternal_fuota_stack.a(radio.o)
RFW_ReceivePayload                                out/external/libexternal_fuota_stack.a(radio_fw.o)
                                                  out/external/libexternal_fuota_stack.a(radio.o)
RFW_SetAntSwitch                                  out/external/libexternal_fuota_stack.a(radio_fw.o)
                                                  out/external/libexternal_fuota_stack.a(radio.o)
RFW_SetRadioModem                                 out/external/libexternal_fuota_stack.a(radio_fw.o)
                                                  out/external/libexternal_fuota_stack.a(radio.o)
RFW_TransmitInit                                  out/external/libexternal_fuota_stack.a(radio_fw.o)
                                                  out/external/libexternal_fuota_stack.a(radio.o)
RFW_TransmitLongPacket                            out/external/libexternal_fuota_stack.a(radio_fw.o)
                                                  out/external/libexternal_fuota_stack.a(radio.o)
RTC_Bcd2ToByte                                    out/external/libexternal_fuota_stack.a(stm32wlxx_hal_rtc.o)
                                                  out/external/libexternal_fuota_stack.a(stm32wlxx_hal_rtc_ex.o)
RTC_ByteToBcd2                                    out/external/libexternal_fuota_stack.a(stm32wlxx_hal_rtc.o)
RTC_EnterInitMode                                 out/external/libexternal_fuota_stack.a(stm32wlxx_hal_rtc.o)
                                                  out/external/libexternal_fuota_stack.a(stm32wlxx_hal_rtc_ex.o)
RTC_ExitInitMode                                  out/external/libexternal_fuota_stack.a(stm32wlxx_hal_rtc.o)
                                                  out/external/libexternal_fuota_stack.a(stm32wlxx_hal_rtc_ex.o)
Radio                                             out/external/libexternal_fuota_stack.a(radio.o)
                                                  out/external/libexternal_fuota_stack.a(RegionUS915.o)
                                                  out/external/libexternal_fuota_stack.a(RegionRU864.o)
                                                  out/external/libexternal_fuota_stack.a(RegionLA915.o)
                                                  out/external/libexternal_fuota_stack.a(RegionKR920.o)
                                                  out/external/libexternal_fuota_stack.a(RegionIN865.o)
                                                  out/external/libexternal_fuota_stack.a(RegionEU868.o)
                                                  out/external/libexternal_fuota_stack.a(RegionEU433.o)
                                                  out/external/libexternal_fuota_stack.a(RegionCommon.o)
                                                  out/external/libexternal_fuota_stack.a(RegionCN779.o)
                                                  out/external/libexternal_fuota_stack.a(RegionCN470.o)
                                                  out/external/libexternal_fuota_stack.a(RegionAU915.o)
                                                  out/external/libexternal_fuota_stack.a(RegionAS923.o)
                                                  out/external/libexternal_fuota_stack.a(LoRaMacClassB.o)
                                                  out/external/libexternal_fuota_stack.a(LoRaMac.o)
                                                  out/external/libexternal_fuota_stack.a(LmHandler.o)
RegionAS923AlternateDr                            out/external/libexternal_fuota_stack.a(RegionAS923.o)
                                                  out/external/libexternal_fuota_stack.a(Region.o)
RegionAS923ApplyCFList                            out/external/libexternal_fuota_stack.a(RegionAS923.o)
                                                  out/external/libexternal_fuota_stack.a(Region.o)
RegionAS923ApplyDrOffset                          out/external/libexternal_fuota_stack.a(RegionAS923.o)
                                                  out/external/libexternal_fuota_stack.a(Region.o)
RegionAS923ChanMaskSet                            out/external/libexternal_fuota_stack.a(RegionAS923.o)
                                                  out/external/libexternal_fuota_stack.a(Region.o)
RegionAS923ChannelAdd                             out/external/libexternal_fuota_stack.a(RegionAS923.o)
                                                  out/external/libexternal_fuota_stack.a(Region.o)
RegionAS923ChannelsRemove                         out/external/libexternal_fuota_stack.a(RegionAS923.o)
                                                  out/external/libexternal_fuota_stack.a(Region.o)
RegionAS923ComputeRxWindowParameters              out/external/libexternal_fuota_stack.a(RegionAS923.o)
                                                  out/external/libexternal_fuota_stack.a(Region.o)
RegionAS923DlChannelReq                           out/external/libexternal_fuota_stack.a(RegionAS923.o)
                                                  out/external/libexternal_fuota_stack.a(Region.o)
RegionAS923GetPhyParam                            out/external/libexternal_fuota_stack.a(RegionAS923.o)
                                                  out/external/libexternal_fuota_stack.a(Region.o)
RegionAS923InitDefaults                           out/external/libexternal_fuota_stack.a(RegionAS923.o)
                                                  out/external/libexternal_fuota_stack.a(Region.o)
RegionAS923LinkAdrReq                             out/external/libexternal_fuota_stack.a(RegionAS923.o)
                                                  out/external/libexternal_fuota_stack.a(Region.o)
RegionAS923NewChannelReq                          out/external/libexternal_fuota_stack.a(RegionAS923.o)
                                                  out/external/libexternal_fuota_stack.a(Region.o)
RegionAS923NextChannel                            out/external/libexternal_fuota_stack.a(RegionAS923.o)
                                                  out/external/libexternal_fuota_stack.a(Region.o)
RegionAS923RxBeaconSetup                          out/external/libexternal_fuota_stack.a(RegionAS923.o)
                                                  out/external/libexternal_fuota_stack.a(Region.o)
RegionAS923RxConfig                               out/external/libexternal_fuota_stack.a(RegionAS923.o)
                                                  out/external/libexternal_fuota_stack.a(Region.o)
RegionAS923RxParamSetupReq                        out/external/libexternal_fuota_stack.a(RegionAS923.o)
                                                  out/external/libexternal_fuota_stack.a(Region.o)
RegionAS923SetBandTxDone                          out/external/libexternal_fuota_stack.a(RegionAS923.o)
                                                  out/external/libexternal_fuota_stack.a(Region.o)
RegionAS923SubBandGet                             out/external/libexternal_fuota_stack.a(RegionAS923.o)
RegionAS923SubBandSet                             out/external/libexternal_fuota_stack.a(RegionAS923.o)
RegionAS923TxConfig                               out/external/libexternal_fuota_stack.a(RegionAS923.o)
                                                  out/external/libexternal_fuota_stack.a(Region.o)
RegionAS923TxParamSetupReq                        out/external/libexternal_fuota_stack.a(RegionAS923.o)
                                                  out/external/libexternal_fuota_stack.a(Region.o)
RegionAS923Verify                                 out/external/libexternal_fuota_stack.a(RegionAS923.o)
                                                  out/external/libexternal_fuota_stack.a(Region.o)
RegionAU915AlternateDr                            out/external/libexternal_fuota_stack.a(RegionAU915.o)
                                                  out/external/libexternal_fuota_stack.a(Region.o)
RegionAU915ApplyCFList                            out/external/libexternal_fuota_stack.a(RegionAU915.o)
                                                  out/external/libexternal_fuota_stack.a(Region.o)
RegionAU915ApplyDrOffset                          out/external/libexternal_fuota_stack.a(RegionAU915.o)
                                                  out/external/libexternal_fuota_stack.a(Region.o)
RegionAU915ChanMaskSet                            out/external/libexternal_fuota_stack.a(RegionAU915.o)
                                                  out/external/libexternal_fuota_stack.a(Region.o)
RegionAU915ChannelAdd                             out/external/libexternal_fuota_stack.a(RegionAU915.o)
                                                  out/external/libexternal_fuota_stack.a(Region.o)
RegionAU915ChannelsRemove                         out/external/libexternal_fuota_stack.a(RegionAU915.o)
                                                  out/external/libexternal_fuota_stack.a(Region.o)
RegionAU915ComputeRxWindowParameters              out/external/libexternal_fuota_stack.a(RegionAU915.o)
                                                  out/external/libexternal_fuota_stack.a(Region.o)
RegionAU915DlChannelReq                           out/external/libexternal_fuota_stack.a(RegionAU915.o)
                                                  out/external/libexternal_fuota_stack.a(Region.o)
RegionAU915GetPhyParam                            out/external/libexternal_fuota_stack.a(RegionAU915.o)
                                                  out/external/libexternal_fuota_stack.a(Region.o)
RegionAU915InitDefaults                           out/external/libexternal_fuota_stack.a(RegionAU915.o)
                                                  out/external/libexternal_fuota_stack.a(Region.o)
RegionAU915LinkAdrReq                             out/external/libexternal_fuota_stack.a(RegionAU915.o)
                                                  out/external/libexternal_fuota_stack.a(Region.o)
RegionAU915NewChannelReq                          out/external/libexternal_fuota_stack.a(RegionAU915.o)
                                                  out/external/libexternal_fuota_stack.a(Region.o)
RegionAU915NextChannel                            out/external/libexternal_fuota_stack.a(RegionAU915.o)
                                                  out/external/libexternal_fuota_stack.a(Region.o)
RegionAU915RxBeaconSetup                          out/external/libexternal_fuota_stack.a(RegionAU915.o)
                                                  out/external/libexternal_fuota_stack.a(Region.o)
RegionAU915RxConfig                               out/external/libexternal_fuota_stack.a(RegionAU915.o)
                                                  out/external/libexternal_fuota_stack.a(Region.o)
RegionAU915RxParamSetupReq                        out/external/libexternal_fuota_stack.a(RegionAU915.o)
                                                  out/external/libexternal_fuota_stack.a(Region.o)
RegionAU915SetBandTxDone                          out/external/libexternal_fuota_stack.a(RegionAU915.o)
                                                  out/external/libexternal_fuota_stack.a(Region.o)
RegionAU915TxConfig                               out/external/libexternal_fuota_stack.a(RegionAU915.o)
                                                  out/external/libexternal_fuota_stack.a(Region.o)
RegionAU915TxParamSetupReq                        out/external/libexternal_fuota_stack.a(RegionAU915.o)
                                                  out/external/libexternal_fuota_stack.a(Region.o)
RegionAU915Verify                                 out/external/libexternal_fuota_stack.a(RegionAU915.o)
                                                  out/external/libexternal_fuota_stack.a(Region.o)
RegionAlternateDr                                 out/external/libexternal_fuota_stack.a(Region.o)
                                                  out/external/libexternal_fuota_stack.a(LoRaMac.o)
RegionApplyCFList                                 out/external/libexternal_fuota_stack.a(Region.o)
                                                  out/external/libexternal_fuota_stack.a(LoRaMac.o)
RegionApplyDrOffset                               out/external/libexternal_fuota_stack.a(Region.o)
                                                  out/external/libexternal_fuota_stack.a(LoRaMac.o)
RegionBaseUSCalcDownlinkFrequency                 out/external/libexternal_fuota_stack.a(RegionBaseUS.o)
                                                  out/external/libexternal_fuota_stack.a(RegionUS915.o)
                                                  out/external/libexternal_fuota_stack.a(RegionAU915.o)
RegionBaseUSComputeNext125kHzJoinChannel          out/external/libexternal_fuota_stack.a(RegionBaseUS.o)
                                                  out/external/libexternal_fuota_stack.a(RegionUS915.o)
                                                  out/external/libexternal_fuota_stack.a(RegionAU915.o)
RegionBaseUSVerifyFrequencyGroup                  out/external/libexternal_fuota_stack.a(RegionBaseUS.o)
                                                  out/external/libexternal_fuota_stack.a(RegionCN470B26.o)
                                                  out/external/libexternal_fuota_stack.a(RegionCN470B20.o)
                                                  out/external/libexternal_fuota_stack.a(RegionCN470A26.o)
                                                  out/external/libexternal_fuota_stack.a(RegionCN470A20.o)
RegionCN470A20GetBeaconChannelOffset              out/external/libexternal_fuota_stack.a(RegionCN470A20.o)
                                                  out/external/libexternal_fuota_stack.a(RegionCN470.o)
RegionCN470A20GetDownlinkFrequency                out/external/libexternal_fuota_stack.a(RegionCN470A20.o)
                                                  out/external/libexternal_fuota_stack.a(RegionCN470.o)
RegionCN470A20GetRx1Frequency                     out/external/libexternal_fuota_stack.a(RegionCN470A20.o)
                                                  out/external/libexternal_fuota_stack.a(RegionCN470.o)
RegionCN470A20GetRx2Frequency                     out/external/libexternal_fuota_stack.a(RegionCN470A20.o)
                                                  out/external/libexternal_fuota_stack.a(RegionCN470.o)
RegionCN470A20InitializeChannels                  out/external/libexternal_fuota_stack.a(RegionCN470A20.o)
                                                  out/external/libexternal_fuota_stack.a(RegionCN470.o)
RegionCN470A20InitializeChannelsMask              out/external/libexternal_fuota_stack.a(RegionCN470A20.o)
                                                  out/external/libexternal_fuota_stack.a(RegionCN470.o)
                                                  out/external/libexternal_fuota_stack.a(RegionCN470B20.o)
RegionCN470A20LinkAdrChMaskUpdate                 out/external/libexternal_fuota_stack.a(RegionCN470A20.o)
                                                  out/external/libexternal_fuota_stack.a(RegionCN470.o)
                                                  out/external/libexternal_fuota_stack.a(RegionCN470B20.o)
RegionCN470A20VerifyRfFreq                        out/external/libexternal_fuota_stack.a(RegionCN470A20.o)
                                                  out/external/libexternal_fuota_stack.a(RegionCN470.o)
RegionCN470A26GetBeaconChannelOffset              out/external/libexternal_fuota_stack.a(RegionCN470A26.o)
                                                  out/external/libexternal_fuota_stack.a(RegionCN470.o)
RegionCN470A26GetDownlinkFrequency                out/external/libexternal_fuota_stack.a(RegionCN470A26.o)
                                                  out/external/libexternal_fuota_stack.a(RegionCN470.o)
RegionCN470A26GetRx1Frequency                     out/external/libexternal_fuota_stack.a(RegionCN470A26.o)
                                                  out/external/libexternal_fuota_stack.a(RegionCN470.o)
RegionCN470A26GetRx2Frequency                     out/external/libexternal_fuota_stack.a(RegionCN470A26.o)
                                                  out/external/libexternal_fuota_stack.a(RegionCN470.o)
RegionCN470A26InitializeChannels                  out/external/libexternal_fuota_stack.a(RegionCN470A26.o)
                                                  out/external/libexternal_fuota_stack.a(RegionCN470.o)
RegionCN470A26InitializeChannelsMask              out/external/libexternal_fuota_stack.a(RegionCN470A26.o)
                                                  out/external/libexternal_fuota_stack.a(RegionCN470.o)
                                                  out/external/libexternal_fuota_stack.a(RegionCN470B26.o)
RegionCN470A26LinkAdrChMaskUpdate                 out/external/libexternal_fuota_stack.a(RegionCN470A26.o)
                                                  out/external/libexternal_fuota_stack.a(RegionCN470.o)
                                                  out/external/libexternal_fuota_stack.a(RegionCN470B26.o)
RegionCN470A26VerifyRfFreq                        out/external/libexternal_fuota_stack.a(RegionCN470A26.o)
                                                  out/external/libexternal_fuota_stack.a(RegionCN470.o)
RegionCN470AlternateDr                            out/external/libexternal_fuota_stack.a(RegionCN470.o)
                                                  out/external/libexternal_fuota_stack.a(Region.o)
RegionCN470ApplyCFList                            out/external/libexternal_fuota_stack.a(RegionCN470.o)
                                                  out/external/libexternal_fuota_stack.a(Region.o)
RegionCN470ApplyDrOffset                          out/external/libexternal_fuota_stack.a(RegionCN470.o)
                                                  out/external/libexternal_fuota_stack.a(Region.o)
RegionCN470B20GetBeaconChannelOffset              out/external/libexternal_fuota_stack.a(RegionCN470B20.o)
                                                  out/external/libexternal_fuota_stack.a(RegionCN470.o)
RegionCN470B20GetDownlinkFrequency                out/external/libexternal_fuota_stack.a(RegionCN470B20.o)
                                                  out/external/libexternal_fuota_stack.a(RegionCN470.o)
RegionCN470B20GetRx1Frequency                     out/external/libexternal_fuota_stack.a(RegionCN470B20.o)
                                                  out/external/libexternal_fuota_stack.a(RegionCN470.o)
RegionCN470B20GetRx2Frequency                     out/external/libexternal_fuota_stack.a(RegionCN470B20.o)
                                                  out/external/libexternal_fuota_stack.a(RegionCN470.o)
RegionCN470B20InitializeChannels                  out/external/libexternal_fuota_stack.a(RegionCN470B20.o)
                                                  out/external/libexternal_fuota_stack.a(RegionCN470.o)
RegionCN470B20InitializeChannelsMask              out/external/libexternal_fuota_stack.a(RegionCN470B20.o)
                                                  out/external/libexternal_fuota_stack.a(RegionCN470.o)
RegionCN470B20LinkAdrChMaskUpdate                 out/external/libexternal_fuota_stack.a(RegionCN470B20.o)
                                                  out/external/libexternal_fuota_stack.a(RegionCN470.o)
RegionCN470B20VerifyRfFreq                        out/external/libexternal_fuota_stack.a(RegionCN470B20.o)
                                                  out/external/libexternal_fuota_stack.a(RegionCN470.o)
RegionCN470B26GetBeaconChannelOffset              out/external/libexternal_fuota_stack.a(RegionCN470B26.o)
                                                  out/external/libexternal_fuota_stack.a(RegionCN470.o)
RegionCN470B26GetDownlinkFrequency                out/external/libexternal_fuota_stack.a(RegionCN470B26.o)
                                                  out/external/libexternal_fuota_stack.a(RegionCN470.o)
RegionCN470B26GetRx1Frequency                     out/external/libexternal_fuota_stack.a(RegionCN470B26.o)
                                                  out/external/libexternal_fuota_stack.a(RegionCN470.o)
RegionCN470B26GetRx2Frequency                     out/external/libexternal_fuota_stack.a(RegionCN470B26.o)
                                                  out/external/libexternal_fuota_stack.a(RegionCN470.o)
RegionCN470B26InitializeChannels                  out/external/libexternal_fuota_stack.a(RegionCN470B26.o)
                                                  out/external/libexternal_fuota_stack.a(RegionCN470.o)
RegionCN470B26InitializeChannelsMask              out/external/libexternal_fuota_stack.a(RegionCN470B26.o)
                                                  out/external/libexternal_fuota_stack.a(RegionCN470.o)
RegionCN470B26LinkAdrChMaskUpdate                 out/external/libexternal_fuota_stack.a(RegionCN470B26.o)
                                                  out/external/libexternal_fuota_stack.a(RegionCN470.o)
RegionCN470B26VerifyRfFreq                        out/external/libexternal_fuota_stack.a(RegionCN470B26.o)
                                                  out/external/libexternal_fuota_stack.a(RegionCN470.o)
RegionCN470ChanMaskSet                            out/external/libexternal_fuota_stack.a(RegionCN470.o)
                                                  out/external/libexternal_fuota_stack.a(Region.o)
RegionCN470ChannelAdd                             out/external/libexternal_fuota_stack.a(RegionCN470.o)
                                                  out/external/libexternal_fuota_stack.a(Region.o)
RegionCN470ChannelsRemove                         out/external/libexternal_fuota_stack.a(RegionCN470.o)
                                                  out/external/libexternal_fuota_stack.a(Region.o)
RegionCN470ComputeRxWindowParameters              out/external/libexternal_fuota_stack.a(RegionCN470.o)
                                                  out/external/libexternal_fuota_stack.a(Region.o)
RegionCN470DlChannelReq                           out/external/libexternal_fuota_stack.a(RegionCN470.o)
                                                  out/external/libexternal_fuota_stack.a(Region.o)
RegionCN470GetPhyParam                            out/external/libexternal_fuota_stack.a(RegionCN470.o)
                                                  out/external/libexternal_fuota_stack.a(Region.o)
RegionCN470InitDefaults                           out/external/libexternal_fuota_stack.a(RegionCN470.o)
                                                  out/external/libexternal_fuota_stack.a(Region.o)
RegionCN470LinkAdrReq                             out/external/libexternal_fuota_stack.a(RegionCN470.o)
                                                  out/external/libexternal_fuota_stack.a(Region.o)
RegionCN470NewChannelReq                          out/external/libexternal_fuota_stack.a(RegionCN470.o)
                                                  out/external/libexternal_fuota_stack.a(Region.o)
RegionCN470NextChannel                            out/external/libexternal_fuota_stack.a(RegionCN470.o)
                                                  out/external/libexternal_fuota_stack.a(Region.o)
RegionCN470RxBeaconSetup                          out/external/libexternal_fuota_stack.a(RegionCN470.o)
                                                  out/external/libexternal_fuota_stack.a(Region.o)
RegionCN470RxConfig                               out/external/libexternal_fuota_stack.a(RegionCN470.o)
                                                  out/external/libexternal_fuota_stack.a(Region.o)
RegionCN470RxParamSetupReq                        out/external/libexternal_fuota_stack.a(RegionCN470.o)
                                                  out/external/libexternal_fuota_stack.a(Region.o)
RegionCN470SetBandTxDone                          out/external/libexternal_fuota_stack.a(RegionCN470.o)
                                                  out/external/libexternal_fuota_stack.a(Region.o)
RegionCN470TxConfig                               out/external/libexternal_fuota_stack.a(RegionCN470.o)
                                                  out/external/libexternal_fuota_stack.a(Region.o)
RegionCN470TxParamSetupReq                        out/external/libexternal_fuota_stack.a(RegionCN470.o)
                                                  out/external/libexternal_fuota_stack.a(Region.o)
RegionCN470Verify                                 out/external/libexternal_fuota_stack.a(RegionCN470.o)
                                                  out/external/libexternal_fuota_stack.a(Region.o)
RegionCN779AlternateDr                            out/external/libexternal_fuota_stack.a(RegionCN779.o)
                                                  out/external/libexternal_fuota_stack.a(Region.o)
RegionCN779ApplyCFList                            out/external/libexternal_fuota_stack.a(RegionCN779.o)
                                                  out/external/libexternal_fuota_stack.a(Region.o)
RegionCN779ApplyDrOffset                          out/external/libexternal_fuota_stack.a(RegionCN779.o)
                                                  out/external/libexternal_fuota_stack.a(Region.o)
RegionCN779ChanMaskSet                            out/external/libexternal_fuota_stack.a(RegionCN779.o)
                                                  out/external/libexternal_fuota_stack.a(Region.o)
RegionCN779ChannelAdd                             out/external/libexternal_fuota_stack.a(RegionCN779.o)
                                                  out/external/libexternal_fuota_stack.a(Region.o)
RegionCN779ChannelsRemove                         out/external/libexternal_fuota_stack.a(RegionCN779.o)
                                                  out/external/libexternal_fuota_stack.a(Region.o)
RegionCN779ComputeRxWindowParameters              out/external/libexternal_fuota_stack.a(RegionCN779.o)
                                                  out/external/libexternal_fuota_stack.a(Region.o)
RegionCN779DlChannelReq                           out/external/libexternal_fuota_stack.a(RegionCN779.o)
                                                  out/external/libexternal_fuota_stack.a(Region.o)
RegionCN779GetPhyParam                            out/external/libexternal_fuota_stack.a(RegionCN779.o)
                                                  out/external/libexternal_fuota_stack.a(Region.o)
RegionCN779InitDefaults                           out/external/libexternal_fuota_stack.a(RegionCN779.o)
                                                  out/external/libexternal_fuota_stack.a(Region.o)
RegionCN779LinkAdrReq                             out/external/libexternal_fuota_stack.a(RegionCN779.o)
                                                  out/external/libexternal_fuota_stack.a(Region.o)
RegionCN779NewChannelReq                          out/external/libexternal_fuota_stack.a(RegionCN779.o)
                                                  out/external/libexternal_fuota_stack.a(Region.o)
RegionCN779NextChannel                            out/external/libexternal_fuota_stack.a(RegionCN779.o)
                                                  out/external/libexternal_fuota_stack.a(Region.o)
RegionCN779RxBeaconSetup                          out/external/libexternal_fuota_stack.a(RegionCN779.o)
                                                  out/external/libexternal_fuota_stack.a(Region.o)
RegionCN779RxConfig                               out/external/libexternal_fuota_stack.a(RegionCN779.o)
                                                  out/external/libexternal_fuota_stack.a(Region.o)
RegionCN779RxParamSetupReq                        out/external/libexternal_fuota_stack.a(RegionCN779.o)
                                                  out/external/libexternal_fuota_stack.a(Region.o)
RegionCN779SetBandTxDone                          out/external/libexternal_fuota_stack.a(RegionCN779.o)
                                                  out/external/libexternal_fuota_stack.a(Region.o)
RegionCN779TxConfig                               out/external/libexternal_fuota_stack.a(RegionCN779.o)
                                                  out/external/libexternal_fuota_stack.a(Region.o)
RegionCN779TxParamSetupReq                        out/external/libexternal_fuota_stack.a(RegionCN779.o)
                                                  out/external/libexternal_fuota_stack.a(Region.o)
RegionCN779Verify                                 out/external/libexternal_fuota_stack.a(RegionCN779.o)
                                                  out/external/libexternal_fuota_stack.a(Region.o)
RegionChanMaskSet                                 out/external/libexternal_fuota_stack.a(Region.o)
                                                  out/external/libexternal_fuota_stack.a(LoRaMac.o)
RegionChannelAdd                                  out/external/libexternal_fuota_stack.a(Region.o)
                                                  out/external/libexternal_fuota_stack.a(LoRaMac.o)
RegionChannelsRemove                              out/external/libexternal_fuota_stack.a(Region.o)
                                                  out/external/libexternal_fuota_stack.a(LoRaMac.o)
RegionCommonChanDisable                           out/external/libexternal_fuota_stack.a(RegionCommon.o)
                                                  out/external/libexternal_fuota_stack.a(RegionUS915.o)
                                                  out/external/libexternal_fuota_stack.a(RegionRU864.o)
                                                  out/external/libexternal_fuota_stack.a(RegionLA915.o)
                                                  out/external/libexternal_fuota_stack.a(RegionKR920.o)
                                                  out/external/libexternal_fuota_stack.a(RegionIN865.o)
                                                  out/external/libexternal_fuota_stack.a(RegionEU868.o)
                                                  out/external/libexternal_fuota_stack.a(RegionEU433.o)
                                                  out/external/libexternal_fuota_stack.a(RegionCN779.o)
                                                  out/external/libexternal_fuota_stack.a(RegionCN470.o)
                                                  out/external/libexternal_fuota_stack.a(RegionAU915.o)
                                                  out/external/libexternal_fuota_stack.a(RegionAS923.o)
RegionCommonChanMaskCopy                          out/external/libexternal_fuota_stack.a(RegionCommon.o)
                                                  out/external/libexternal_fuota_stack.a(RegionUS915.o)
                                                  out/external/libexternal_fuota_stack.a(RegionRU864.o)
                                                  out/external/libexternal_fuota_stack.a(RegionLA915.o)
                                                  out/external/libexternal_fuota_stack.a(RegionKR920.o)
                                                  out/external/libexternal_fuota_stack.a(RegionIN865.o)
                                                  out/external/libexternal_fuota_stack.a(RegionEU868.o)
                                                  out/external/libexternal_fuota_stack.a(RegionEU433.o)
                                                  out/external/libexternal_fuota_stack.a(RegionCN779.o)
                                                  out/external/libexternal_fuota_stack.a(RegionCN470.o)
                                                  out/external/libexternal_fuota_stack.a(RegionAU915.o)
                                                  out/external/libexternal_fuota_stack.a(RegionAS923.o)
RegionCommonChanVerifyDr                          out/external/libexternal_fuota_stack.a(RegionCommon.o)
RegionCommonComputeRxWindowParameters             out/external/libexternal_fuota_stack.a(RegionCommon.o)
                                                  out/external/libexternal_fuota_stack.a(RegionUS915.o)
                                                  out/external/libexternal_fuota_stack.a(RegionRU864.o)
                                                  out/external/libexternal_fuota_stack.a(RegionLA915.o)
                                                  out/external/libexternal_fuota_stack.a(RegionKR920.o)
                                                  out/external/libexternal_fuota_stack.a(RegionIN865.o)
                                                  out/external/libexternal_fuota_stack.a(RegionEU868.o)
                                                  out/external/libexternal_fuota_stack.a(RegionEU433.o)
                                                  out/external/libexternal_fuota_stack.a(RegionCN779.o)
                                                  out/external/libexternal_fuota_stack.a(RegionCN470.o)
                                                  out/external/libexternal_fuota_stack.a(RegionAU915.o)
                                                  out/external/libexternal_fuota_stack.a(RegionAS923.o)
RegionCommonComputeSymbolTimeFsk                  out/external/libexternal_fuota_stack.a(RegionCommon.o)
                                                  out/external/libexternal_fuota_stack.a(RegionRU864.o)
                                                  out/external/libexternal_fuota_stack.a(RegionIN865.o)
                                                  out/external/libexternal_fuota_stack.a(RegionEU868.o)
                                                  out/external/libexternal_fuota_stack.a(RegionEU433.o)
                                                  out/external/libexternal_fuota_stack.a(RegionCN779.o)
                                                  out/external/libexternal_fuota_stack.a(RegionAS923.o)
RegionCommonComputeSymbolTimeLoRa                 out/external/libexternal_fuota_stack.a(RegionCommon.o)
                                                  out/external/libexternal_fuota_stack.a(RegionUS915.o)
                                                  out/external/libexternal_fuota_stack.a(RegionRU864.o)
                                                  out/external/libexternal_fuota_stack.a(RegionLA915.o)
                                                  out/external/libexternal_fuota_stack.a(RegionKR920.o)
                                                  out/external/libexternal_fuota_stack.a(RegionIN865.o)
                                                  out/external/libexternal_fuota_stack.a(RegionEU868.o)
                                                  out/external/libexternal_fuota_stack.a(RegionEU433.o)
                                                  out/external/libexternal_fuota_stack.a(RegionCN779.o)
                                                  out/external/libexternal_fuota_stack.a(RegionCN470.o)
                                                  out/external/libexternal_fuota_stack.a(RegionAU915.o)
                                                  out/external/libexternal_fuota_stack.a(RegionAS923.o)
RegionCommonComputeTxPower                        out/external/libexternal_fuota_stack.a(RegionCommon.o)
                                                  out/external/libexternal_fuota_stack.a(RegionUS915.o)
                                                  out/external/libexternal_fuota_stack.a(RegionRU864.o)
                                                  out/external/libexternal_fuota_stack.a(RegionLA915.o)
                                                  out/external/libexternal_fuota_stack.a(RegionKR920.o)
                                                  out/external/libexternal_fuota_stack.a(RegionIN865.o)
                                                  out/external/libexternal_fuota_stack.a(RegionEU868.o)
                                                  out/external/libexternal_fuota_stack.a(RegionEU433.o)
                                                  out/external/libexternal_fuota_stack.a(RegionCN779.o)
                                                  out/external/libexternal_fuota_stack.a(RegionCN470.o)
                                                  out/external/libexternal_fuota_stack.a(RegionAU915.o)
                                                  out/external/libexternal_fuota_stack.a(RegionAS923.o)
RegionCommonCountChannels                         out/external/libexternal_fuota_stack.a(RegionCommon.o)
                                                  out/external/libexternal_fuota_stack.a(RegionUS915.o)
                                                  out/external/libexternal_fuota_stack.a(RegionRU864.o)
                                                  out/external/libexternal_fuota_stack.a(RegionLA915.o)
                                                  out/external/libexternal_fuota_stack.a(RegionKR920.o)
                                                  out/external/libexternal_fuota_stack.a(RegionIN865.o)
                                                  out/external/libexternal_fuota_stack.a(RegionEU868.o)
                                                  out/external/libexternal_fuota_stack.a(RegionEU433.o)
                                                  out/external/libexternal_fuota_stack.a(RegionCN779.o)
                                                  out/external/libexternal_fuota_stack.a(RegionCN470.o)
                                                  out/external/libexternal_fuota_stack.a(RegionAU915.o)
                                                  out/external/libexternal_fuota_stack.a(RegionAS923.o)
RegionCommonCountNbOfEnabledChannels              out/external/libexternal_fuota_stack.a(RegionCommon.o)
RegionCommonGetBandwidth                          out/external/libexternal_fuota_stack.a(RegionCommon.o)
                                                  out/external/libexternal_fuota_stack.a(RegionUS915.o)
                                                  out/external/libexternal_fuota_stack.a(RegionRU864.o)
                                                  out/external/libexternal_fuota_stack.a(RegionLA915.o)
                                                  out/external/libexternal_fuota_stack.a(RegionKR920.o)
                                                  out/external/libexternal_fuota_stack.a(RegionIN865.o)
                                                  out/external/libexternal_fuota_stack.a(RegionEU868.o)
                                                  out/external/libexternal_fuota_stack.a(RegionEU433.o)
                                                  out/external/libexternal_fuota_stack.a(RegionCN779.o)
                                                  out/external/libexternal_fuota_stack.a(RegionCN470.o)
                                                  out/external/libexternal_fuota_stack.a(RegionAU915.o)
                                                  out/external/libexternal_fuota_stack.a(RegionAS923.o)
RegionCommonGetNextLowerTxDr                      out/external/libexternal_fuota_stack.a(RegionCommon.o)
                                                  out/external/libexternal_fuota_stack.a(RegionUS915.o)
                                                  out/external/libexternal_fuota_stack.a(RegionRU864.o)
                                                  out/external/libexternal_fuota_stack.a(RegionKR920.o)
                                                  out/external/libexternal_fuota_stack.a(RegionIN865.o)
                                                  out/external/libexternal_fuota_stack.a(RegionEU868.o)
                                                  out/external/libexternal_fuota_stack.a(RegionEU433.o)
                                                  out/external/libexternal_fuota_stack.a(RegionCN779.o)
                                                  out/external/libexternal_fuota_stack.a(RegionCN470.o)
                                                  out/external/libexternal_fuota_stack.a(RegionAU915.o)
                                                  out/external/libexternal_fuota_stack.a(RegionAS923.o)
RegionCommonIdentifyChannels                      out/external/libexternal_fuota_stack.a(RegionCommon.o)
                                                  out/external/libexternal_fuota_stack.a(RegionUS915.o)
                                                  out/external/libexternal_fuota_stack.a(RegionRU864.o)
                                                  out/external/libexternal_fuota_stack.a(RegionKR920.o)
                                                  out/external/libexternal_fuota_stack.a(RegionIN865.o)
                                                  out/external/libexternal_fuota_stack.a(RegionEU868.o)
                                                  out/external/libexternal_fuota_stack.a(RegionEU433.o)
                                                  out/external/libexternal_fuota_stack.a(RegionCN779.o)
                                                  out/external/libexternal_fuota_stack.a(RegionCN470.o)
                                                  out/external/libexternal_fuota_stack.a(RegionAU915.o)
                                                  out/external/libexternal_fuota_stack.a(RegionAS923.o)
RegionCommonLimitTxPower                          out/external/libexternal_fuota_stack.a(RegionCommon.o)
                                                  out/external/libexternal_fuota_stack.a(RegionUS915.o)
                                                  out/external/libexternal_fuota_stack.a(RegionRU864.o)
                                                  out/external/libexternal_fuota_stack.a(RegionKR920.o)
                                                  out/external/libexternal_fuota_stack.a(RegionIN865.o)
                                                  out/external/libexternal_fuota_stack.a(RegionEU868.o)
                                                  out/external/libexternal_fuota_stack.a(RegionEU433.o)
                                                  out/external/libexternal_fuota_stack.a(RegionCN779.o)
                                                  out/external/libexternal_fuota_stack.a(RegionCN470.o)
                                                  out/external/libexternal_fuota_stack.a(RegionAU915.o)
                                                  out/external/libexternal_fuota_stack.a(RegionAS923.o)
RegionCommonLinkAdrReqVerifyParams                out/external/libexternal_fuota_stack.a(RegionCommon.o)
                                                  out/external/libexternal_fuota_stack.a(RegionUS915.o)
                                                  out/external/libexternal_fuota_stack.a(RegionRU864.o)
                                                  out/external/libexternal_fuota_stack.a(RegionLA915.o)
                                                  out/external/libexternal_fuota_stack.a(RegionKR920.o)
                                                  out/external/libexternal_fuota_stack.a(RegionIN865.o)
                                                  out/external/libexternal_fuota_stack.a(RegionEU868.o)
                                                  out/external/libexternal_fuota_stack.a(RegionEU433.o)
                                                  out/external/libexternal_fuota_stack.a(RegionCN779.o)
                                                  out/external/libexternal_fuota_stack.a(RegionCN470.o)
                                                  out/external/libexternal_fuota_stack.a(RegionAU915.o)
                                                  out/external/libexternal_fuota_stack.a(RegionAS923.o)
RegionCommonParseLinkAdrReq                       out/external/libexternal_fuota_stack.a(RegionCommon.o)
                                                  out/external/libexternal_fuota_stack.a(RegionUS915.o)
                                                  out/external/libexternal_fuota_stack.a(RegionRU864.o)
                                                  out/external/libexternal_fuota_stack.a(RegionLA915.o)
                                                  out/external/libexternal_fuota_stack.a(RegionKR920.o)
                                                  out/external/libexternal_fuota_stack.a(RegionIN865.o)
                                                  out/external/libexternal_fuota_stack.a(RegionEU868.o)
                                                  out/external/libexternal_fuota_stack.a(RegionEU433.o)
                                                  out/external/libexternal_fuota_stack.a(RegionCN779.o)
                                                  out/external/libexternal_fuota_stack.a(RegionCN470.o)
                                                  out/external/libexternal_fuota_stack.a(RegionAU915.o)
                                                  out/external/libexternal_fuota_stack.a(RegionAS923.o)
RegionCommonRxBeaconSetup                         out/external/libexternal_fuota_stack.a(RegionCommon.o)
                                                  out/external/libexternal_fuota_stack.a(RegionUS915.o)
                                                  out/external/libexternal_fuota_stack.a(RegionRU864.o)
                                                  out/external/libexternal_fuota_stack.a(RegionLA915.o)
                                                  out/external/libexternal_fuota_stack.a(RegionKR920.o)
                                                  out/external/libexternal_fuota_stack.a(RegionIN865.o)
                                                  out/external/libexternal_fuota_stack.a(RegionEU868.o)
                                                  out/external/libexternal_fuota_stack.a(RegionEU433.o)
                                                  out/external/libexternal_fuota_stack.a(RegionCN779.o)
                                                  out/external/libexternal_fuota_stack.a(RegionCN470.o)
                                                  out/external/libexternal_fuota_stack.a(RegionAU915.o)
                                                  out/external/libexternal_fuota_stack.a(RegionAS923.o)
RegionCommonSetBandTxDone                         out/external/libexternal_fuota_stack.a(RegionCommon.o)
                                                  out/external/libexternal_fuota_stack.a(RegionUS915.o)
                                                  out/external/libexternal_fuota_stack.a(RegionRU864.o)
                                                  out/external/libexternal_fuota_stack.a(RegionLA915.o)
                                                  out/external/libexternal_fuota_stack.a(RegionKR920.o)
                                                  out/external/libexternal_fuota_stack.a(RegionIN865.o)
                                                  out/external/libexternal_fuota_stack.a(RegionEU868.o)
                                                  out/external/libexternal_fuota_stack.a(RegionEU433.o)
                                                  out/external/libexternal_fuota_stack.a(RegionCN779.o)
                                                  out/external/libexternal_fuota_stack.a(RegionCN470.o)
                                                  out/external/libexternal_fuota_stack.a(RegionAU915.o)
                                                  out/external/libexternal_fuota_stack.a(RegionAS923.o)
RegionCommonUpdateBandTimeOff                     out/external/libexternal_fuota_stack.a(RegionCommon.o)
                                                  out/external/libexternal_fuota_stack.a(RegionLA915.o)
RegionCommonValueInRange                          out/external/libexternal_fuota_stack.a(RegionCommon.o)
                                                  out/external/libexternal_fuota_stack.a(RegionUS915.o)
                                                  out/external/libexternal_fuota_stack.a(RegionRU864.o)
                                                  out/external/libexternal_fuota_stack.a(RegionLA915.o)
                                                  out/external/libexternal_fuota_stack.a(RegionKR920.o)
                                                  out/external/libexternal_fuota_stack.a(RegionIN865.o)
                                                  out/external/libexternal_fuota_stack.a(RegionEU868.o)
                                                  out/external/libexternal_fuota_stack.a(RegionEU433.o)
                                                  out/external/libexternal_fuota_stack.a(RegionCN779.o)
                                                  out/external/libexternal_fuota_stack.a(RegionCN470.o)
                                                  out/external/libexternal_fuota_stack.a(RegionAU915.o)
                                                  out/external/libexternal_fuota_stack.a(RegionAS923.o)
RegionComputeRxWindowParameters                   out/external/libexternal_fuota_stack.a(Region.o)
                                                  out/external/libexternal_fuota_stack.a(LoRaMacClassB.o)
                                                  out/external/libexternal_fuota_stack.a(LoRaMac.o)
RegionDlChannelReq                                out/external/libexternal_fuota_stack.a(Region.o)
                                                  out/external/libexternal_fuota_stack.a(LoRaMac.o)
RegionEU433AlternateDr                            out/external/libexternal_fuota_stack.a(RegionEU433.o)
                                                  out/external/libexternal_fuota_stack.a(Region.o)
RegionEU433ApplyCFList                            out/external/libexternal_fuota_stack.a(RegionEU433.o)
                                                  out/external/libexternal_fuota_stack.a(Region.o)
RegionEU433ApplyDrOffset                          out/external/libexternal_fuota_stack.a(RegionEU433.o)
                                                  out/external/libexternal_fuota_stack.a(Region.o)
RegionEU433ChanMaskSet                            out/external/libexternal_fuota_stack.a(RegionEU433.o)
                                                  out/external/libexternal_fuota_stack.a(Region.o)
RegionEU433ChannelAdd                             out/external/libexternal_fuota_stack.a(RegionEU433.o)
                                                  out/external/libexternal_fuota_stack.a(Region.o)
RegionEU433ChannelsRemove                         out/external/libexternal_fuota_stack.a(RegionEU433.o)
                                                  out/external/libexternal_fuota_stack.a(Region.o)
RegionEU433ComputeRxWindowParameters              out/external/libexternal_fuota_stack.a(RegionEU433.o)
                                                  out/external/libexternal_fuota_stack.a(Region.o)
RegionEU433DlChannelReq                           out/external/libexternal_fuota_stack.a(RegionEU433.o)
                                                  out/external/libexternal_fuota_stack.a(Region.o)
RegionEU433GetPhyParam                            out/external/libexternal_fuota_stack.a(RegionEU433.o)
                                                  out/external/libexternal_fuota_stack.a(Region.o)
RegionEU433InitDefaults                           out/external/libexternal_fuota_stack.a(RegionEU433.o)
                                                  out/external/libexternal_fuota_stack.a(Region.o)
RegionEU433LinkAdrReq                             out/external/libexternal_fuota_stack.a(RegionEU433.o)
                                                  out/external/libexternal_fuota_stack.a(Region.o)
RegionEU433NewChannelReq                          out/external/libexternal_fuota_stack.a(RegionEU433.o)
                                                  out/external/libexternal_fuota_stack.a(Region.o)
RegionEU433NextChannel                            out/external/libexternal_fuota_stack.a(RegionEU433.o)
                                                  out/external/libexternal_fuota_stack.a(Region.o)
RegionEU433RxBeaconSetup                          out/external/libexternal_fuota_stack.a(RegionEU433.o)
                                                  out/external/libexternal_fuota_stack.a(Region.o)
RegionEU433RxConfig                               out/external/libexternal_fuota_stack.a(RegionEU433.o)
                                                  out/external/libexternal_fuota_stack.a(Region.o)
RegionEU433RxParamSetupReq                        out/external/libexternal_fuota_stack.a(RegionEU433.o)
                                                  out/external/libexternal_fuota_stack.a(Region.o)
RegionEU433SetBandTxDone                          out/external/libexternal_fuota_stack.a(RegionEU433.o)
                                                  out/external/libexternal_fuota_stack.a(Region.o)
RegionEU433TxConfig                               out/external/libexternal_fuota_stack.a(RegionEU433.o)
                                                  out/external/libexternal_fuota_stack.a(Region.o)
RegionEU433TxParamSetupReq                        out/external/libexternal_fuota_stack.a(RegionEU433.o)
                                                  out/external/libexternal_fuota_stack.a(Region.o)
RegionEU433Verify                                 out/external/libexternal_fuota_stack.a(RegionEU433.o)
                                                  out/external/libexternal_fuota_stack.a(Region.o)
RegionEU868AlternateDr                            out/external/libexternal_fuota_stack.a(RegionEU868.o)
                                                  out/external/libexternal_fuota_stack.a(Region.o)
RegionEU868ApplyCFList                            out/external/libexternal_fuota_stack.a(RegionEU868.o)
                                                  out/external/libexternal_fuota_stack.a(Region.o)
RegionEU868ApplyDrOffset                          out/external/libexternal_fuota_stack.a(RegionEU868.o)
                                                  out/external/libexternal_fuota_stack.a(Region.o)
RegionEU868ChanMaskSet                            out/external/libexternal_fuota_stack.a(RegionEU868.o)
                                                  out/external/libexternal_fuota_stack.a(Region.o)
RegionEU868ChannelAdd                             out/external/libexternal_fuota_stack.a(RegionEU868.o)
                                                  out/external/libexternal_fuota_stack.a(Region.o)
RegionEU868ChannelsRemove                         out/external/libexternal_fuota_stack.a(RegionEU868.o)
                                                  out/external/libexternal_fuota_stack.a(Region.o)
RegionEU868ComputeRxWindowParameters              out/external/libexternal_fuota_stack.a(RegionEU868.o)
                                                  out/external/libexternal_fuota_stack.a(Region.o)
RegionEU868DlChannelReq                           out/external/libexternal_fuota_stack.a(RegionEU868.o)
                                                  out/external/libexternal_fuota_stack.a(Region.o)
RegionEU868GetPhyParam                            out/external/libexternal_fuota_stack.a(RegionEU868.o)
                                                  out/external/libexternal_fuota_stack.a(Region.o)
RegionEU868InitDefaults                           out/external/libexternal_fuota_stack.a(RegionEU868.o)
                                                  out/external/libexternal_fuota_stack.a(Region.o)
RegionEU868LinkAdrReq                             out/external/libexternal_fuota_stack.a(RegionEU868.o)
                                                  out/external/libexternal_fuota_stack.a(Region.o)
RegionEU868NewChannelReq                          out/external/libexternal_fuota_stack.a(RegionEU868.o)
                                                  out/external/libexternal_fuota_stack.a(Region.o)
RegionEU868NextChannel                            out/external/libexternal_fuota_stack.a(RegionEU868.o)
                                                  out/external/libexternal_fuota_stack.a(Region.o)
RegionEU868RxBeaconSetup                          out/external/libexternal_fuota_stack.a(RegionEU868.o)
                                                  out/external/libexternal_fuota_stack.a(Region.o)
RegionEU868RxConfig                               out/external/libexternal_fuota_stack.a(RegionEU868.o)
                                                  out/external/libexternal_fuota_stack.a(Region.o)
RegionEU868RxParamSetupReq                        out/external/libexternal_fuota_stack.a(RegionEU868.o)
                                                  out/external/libexternal_fuota_stack.a(Region.o)
RegionEU868SetBandTxDone                          out/external/libexternal_fuota_stack.a(RegionEU868.o)
                                                  out/external/libexternal_fuota_stack.a(Region.o)
RegionEU868TxConfig                               out/external/libexternal_fuota_stack.a(RegionEU868.o)
                                                  out/external/libexternal_fuota_stack.a(Region.o)
RegionEU868TxParamSetupReq                        out/external/libexternal_fuota_stack.a(RegionEU868.o)
                                                  out/external/libexternal_fuota_stack.a(Region.o)
RegionEU868Verify                                 out/external/libexternal_fuota_stack.a(RegionEU868.o)
                                                  out/external/libexternal_fuota_stack.a(Region.o)
RegionGetPhyParam                                 out/external/libexternal_fuota_stack.a(Region.o)
                                                  out/external/libexternal_fuota_stack.a(LoRaMacClassB.o)
                                                  out/external/libexternal_fuota_stack.a(LoRaMac.o)
                                                  out/external/libexternal_fuota_stack.a(LoRaMacAdr.o)
                                                  out/external/libexternal_fuota_stack.a(service_lora_config.o)
RegionGetVersion                                  out/external/libexternal_fuota_stack.a(Region.o)
                                                  out/external/libexternal_fuota_stack.a(LoRaMac.o)
RegionIN865AlternateDr                            out/external/libexternal_fuota_stack.a(RegionIN865.o)
                                                  out/external/libexternal_fuota_stack.a(Region.o)
RegionIN865ApplyCFList                            out/external/libexternal_fuota_stack.a(RegionIN865.o)
                                                  out/external/libexternal_fuota_stack.a(Region.o)
RegionIN865ApplyDrOffset                          out/external/libexternal_fuota_stack.a(RegionIN865.o)
                                                  out/external/libexternal_fuota_stack.a(Region.o)
RegionIN865ChanMaskSet                            out/external/libexternal_fuota_stack.a(RegionIN865.o)
                                                  out/external/libexternal_fuota_stack.a(Region.o)
RegionIN865ChannelAdd                             out/external/libexternal_fuota_stack.a(RegionIN865.o)
                                                  out/external/libexternal_fuota_stack.a(Region.o)
RegionIN865ChannelsRemove                         out/external/libexternal_fuota_stack.a(RegionIN865.o)
                                                  out/external/libexternal_fuota_stack.a(Region.o)
RegionIN865ComputeRxWindowParameters              out/external/libexternal_fuota_stack.a(RegionIN865.o)
                                                  out/external/libexternal_fuota_stack.a(Region.o)
RegionIN865DlChannelReq                           out/external/libexternal_fuota_stack.a(RegionIN865.o)
                                                  out/external/libexternal_fuota_stack.a(Region.o)
RegionIN865GetPhyParam                            out/external/libexternal_fuota_stack.a(RegionIN865.o)
                                                  out/external/libexternal_fuota_stack.a(Region.o)
RegionIN865InitDefaults                           out/external/libexternal_fuota_stack.a(RegionIN865.o)
                                                  out/external/libexternal_fuota_stack.a(Region.o)
RegionIN865LinkAdrReq                             out/external/libexternal_fuota_stack.a(RegionIN865.o)
                                                  out/external/libexternal_fuota_stack.a(Region.o)
RegionIN865NewChannelReq                          out/external/libexternal_fuota_stack.a(RegionIN865.o)
                                                  out/external/libexternal_fuota_stack.a(Region.o)
RegionIN865NextChannel                            out/external/libexternal_fuota_stack.a(RegionIN865.o)
                                                  out/external/libexternal_fuota_stack.a(Region.o)
RegionIN865RxBeaconSetup                          out/external/libexternal_fuota_stack.a(RegionIN865.o)
                                                  out/external/libexternal_fuota_stack.a(Region.o)
RegionIN865RxConfig                               out/external/libexternal_fuota_stack.a(RegionIN865.o)
                                                  out/external/libexternal_fuota_stack.a(Region.o)
RegionIN865RxParamSetupReq                        out/external/libexternal_fuota_stack.a(RegionIN865.o)
                                                  out/external/libexternal_fuota_stack.a(Region.o)
RegionIN865SetBandTxDone                          out/external/libexternal_fuota_stack.a(RegionIN865.o)
                                                  out/external/libexternal_fuota_stack.a(Region.o)
RegionIN865TxConfig                               out/external/libexternal_fuota_stack.a(RegionIN865.o)
                                                  out/external/libexternal_fuota_stack.a(Region.o)
RegionIN865TxParamSetupReq                        out/external/libexternal_fuota_stack.a(RegionIN865.o)
                                                  out/external/libexternal_fuota_stack.a(Region.o)
RegionIN865Verify                                 out/external/libexternal_fuota_stack.a(RegionIN865.o)
                                                  out/external/libexternal_fuota_stack.a(Region.o)
RegionInitDefaults                                out/external/libexternal_fuota_stack.a(Region.o)
                                                  out/external/libexternal_fuota_stack.a(LoRaMac.o)
                                                  out/external/libexternal_fuota_stack.a(LoRaMacAdr.o)
RegionIsActive                                    out/external/libexternal_fuota_stack.a(Region.o)
                                                  out/external/libexternal_fuota_stack.a(LoRaMac.o)
                                                  out/external/libexternal_fuota_stack.a(service_lora_config.o)
RegionKR920AlternateDr                            out/external/libexternal_fuota_stack.a(RegionKR920.o)
                                                  out/external/libexternal_fuota_stack.a(Region.o)
RegionKR920ApplyCFList                            out/external/libexternal_fuota_stack.a(RegionKR920.o)
                                                  out/external/libexternal_fuota_stack.a(Region.o)
RegionKR920ApplyDrOffset                          out/external/libexternal_fuota_stack.a(RegionKR920.o)
                                                  out/external/libexternal_fuota_stack.a(Region.o)
RegionKR920ChanMaskSet                            out/external/libexternal_fuota_stack.a(RegionKR920.o)
                                                  out/external/libexternal_fuota_stack.a(Region.o)
RegionKR920ChannelAdd                             out/external/libexternal_fuota_stack.a(RegionKR920.o)
                                                  out/external/libexternal_fuota_stack.a(Region.o)
RegionKR920ChannelsRemove                         out/external/libexternal_fuota_stack.a(RegionKR920.o)
                                                  out/external/libexternal_fuota_stack.a(Region.o)
RegionKR920ComputeRxWindowParameters              out/external/libexternal_fuota_stack.a(RegionKR920.o)
                                                  out/external/libexternal_fuota_stack.a(Region.o)
RegionKR920DlChannelReq                           out/external/libexternal_fuota_stack.a(RegionKR920.o)
                                                  out/external/libexternal_fuota_stack.a(Region.o)
RegionKR920GetPhyParam                            out/external/libexternal_fuota_stack.a(RegionKR920.o)
                                                  out/external/libexternal_fuota_stack.a(Region.o)
RegionKR920InitDefaults                           out/external/libexternal_fuota_stack.a(RegionKR920.o)
                                                  out/external/libexternal_fuota_stack.a(Region.o)
RegionKR920LinkAdrReq                             out/external/libexternal_fuota_stack.a(RegionKR920.o)
                                                  out/external/libexternal_fuota_stack.a(Region.o)
RegionKR920NewChannelReq                          out/external/libexternal_fuota_stack.a(RegionKR920.o)
                                                  out/external/libexternal_fuota_stack.a(Region.o)
RegionKR920NextChannel                            out/external/libexternal_fuota_stack.a(RegionKR920.o)
                                                  out/external/libexternal_fuota_stack.a(Region.o)
RegionKR920RxBeaconSetup                          out/external/libexternal_fuota_stack.a(RegionKR920.o)
                                                  out/external/libexternal_fuota_stack.a(Region.o)
RegionKR920RxConfig                               out/external/libexternal_fuota_stack.a(RegionKR920.o)
                                                  out/external/libexternal_fuota_stack.a(Region.o)
RegionKR920RxParamSetupReq                        out/external/libexternal_fuota_stack.a(RegionKR920.o)
                                                  out/external/libexternal_fuota_stack.a(Region.o)
RegionKR920SetBandTxDone                          out/external/libexternal_fuota_stack.a(RegionKR920.o)
                                                  out/external/libexternal_fuota_stack.a(Region.o)
RegionKR920TxConfig                               out/external/libexternal_fuota_stack.a(RegionKR920.o)
                                                  out/external/libexternal_fuota_stack.a(Region.o)
RegionKR920TxParamSetupReq                        out/external/libexternal_fuota_stack.a(RegionKR920.o)
                                                  out/external/libexternal_fuota_stack.a(Region.o)
RegionKR920Verify                                 out/external/libexternal_fuota_stack.a(RegionKR920.o)
                                                  out/external/libexternal_fuota_stack.a(Region.o)
RegionLA915AlternateDr                            out/external/libexternal_fuota_stack.a(RegionLA915.o)
                                                  out/external/libexternal_fuota_stack.a(Region.o)
RegionLA915ApplyCFList                            out/external/libexternal_fuota_stack.a(RegionLA915.o)
                                                  out/external/libexternal_fuota_stack.a(Region.o)
RegionLA915ApplyDrOffset                          out/external/libexternal_fuota_stack.a(RegionLA915.o)
                                                  out/external/libexternal_fuota_stack.a(Region.o)
RegionLA915ChanMaskSet                            out/external/libexternal_fuota_stack.a(RegionLA915.o)
                                                  out/external/libexternal_fuota_stack.a(Region.o)
RegionLA915ChannelAdd                             out/external/libexternal_fuota_stack.a(RegionLA915.o)
                                                  out/external/libexternal_fuota_stack.a(Region.o)
RegionLA915ChannelsRemove                         out/external/libexternal_fuota_stack.a(RegionLA915.o)
                                                  out/external/libexternal_fuota_stack.a(Region.o)
RegionLA915ComputeRxWindowParameters              out/external/libexternal_fuota_stack.a(RegionLA915.o)
                                                  out/external/libexternal_fuota_stack.a(Region.o)
RegionLA915DlChannelReq                           out/external/libexternal_fuota_stack.a(RegionLA915.o)
                                                  out/external/libexternal_fuota_stack.a(Region.o)
RegionLA915GetPhyParam                            out/external/libexternal_fuota_stack.a(RegionLA915.o)
                                                  out/external/libexternal_fuota_stack.a(Region.o)
RegionLA915InitDefaults                           out/external/libexternal_fuota_stack.a(RegionLA915.o)
                                                  out/external/libexternal_fuota_stack.a(Region.o)
RegionLA915LinkAdrReq                             out/external/libexternal_fuota_stack.a(RegionLA915.o)
                                                  out/external/libexternal_fuota_stack.a(Region.o)
RegionLA915NewChannelReq                          out/external/libexternal_fuota_stack.a(RegionLA915.o)
                                                  out/external/libexternal_fuota_stack.a(Region.o)
RegionLA915NextChannel                            out/external/libexternal_fuota_stack.a(RegionLA915.o)
                                                  out/external/libexternal_fuota_stack.a(Region.o)
RegionLA915RxBeaconSetup                          out/external/libexternal_fuota_stack.a(RegionLA915.o)
                                                  out/external/libexternal_fuota_stack.a(Region.o)
RegionLA915RxConfig                               out/external/libexternal_fuota_stack.a(RegionLA915.o)
                                                  out/external/libexternal_fuota_stack.a(Region.o)
RegionLA915RxParamSetupReq                        out/external/libexternal_fuota_stack.a(RegionLA915.o)
                                                  out/external/libexternal_fuota_stack.a(Region.o)
RegionLA915SetBandTxDone                          out/external/libexternal_fuota_stack.a(RegionLA915.o)
                                                  out/external/libexternal_fuota_stack.a(Region.o)
RegionLA915TxConfig                               out/external/libexternal_fuota_stack.a(RegionLA915.o)
                                                  out/external/libexternal_fuota_stack.a(Region.o)
RegionLA915TxParamSetupReq                        out/external/libexternal_fuota_stack.a(RegionLA915.o)
                                                  out/external/libexternal_fuota_stack.a(Region.o)
RegionLA915Verify                                 out/external/libexternal_fuota_stack.a(RegionLA915.o)
                                                  out/external/libexternal_fuota_stack.a(Region.o)
RegionLinkAdrReq                                  out/external/libexternal_fuota_stack.a(Region.o)
                                                  out/external/libexternal_fuota_stack.a(LoRaMac.o)
RegionNewChannelReq                               out/external/libexternal_fuota_stack.a(Region.o)
                                                  out/external/libexternal_fuota_stack.a(LoRaMac.o)
RegionNextChannel                                 out/external/libexternal_fuota_stack.a(Region.o)
                                                  out/external/libexternal_fuota_stack.a(LoRaMac.o)
RegionRU864AlternateDr                            out/external/libexternal_fuota_stack.a(RegionRU864.o)
                                                  out/external/libexternal_fuota_stack.a(Region.o)
RegionRU864ApplyCFList                            out/external/libexternal_fuota_stack.a(RegionRU864.o)
                                                  out/external/libexternal_fuota_stack.a(Region.o)
RegionRU864ApplyDrOffset                          out/external/libexternal_fuota_stack.a(RegionRU864.o)
                                                  out/external/libexternal_fuota_stack.a(Region.o)
RegionRU864ChanMaskSet                            out/external/libexternal_fuota_stack.a(RegionRU864.o)
                                                  out/external/libexternal_fuota_stack.a(Region.o)
RegionRU864ChannelAdd                             out/external/libexternal_fuota_stack.a(RegionRU864.o)
                                                  out/external/libexternal_fuota_stack.a(Region.o)
RegionRU864ChannelsRemove                         out/external/libexternal_fuota_stack.a(RegionRU864.o)
                                                  out/external/libexternal_fuota_stack.a(Region.o)
RegionRU864ComputeRxWindowParameters              out/external/libexternal_fuota_stack.a(RegionRU864.o)
                                                  out/external/libexternal_fuota_stack.a(Region.o)
RegionRU864DlChannelReq                           out/external/libexternal_fuota_stack.a(RegionRU864.o)
                                                  out/external/libexternal_fuota_stack.a(Region.o)
RegionRU864GetPhyParam                            out/external/libexternal_fuota_stack.a(RegionRU864.o)
                                                  out/external/libexternal_fuota_stack.a(Region.o)
RegionRU864InitDefaults                           out/external/libexternal_fuota_stack.a(RegionRU864.o)
                                                  out/external/libexternal_fuota_stack.a(Region.o)
RegionRU864LinkAdrReq                             out/external/libexternal_fuota_stack.a(RegionRU864.o)
                                                  out/external/libexternal_fuota_stack.a(Region.o)
RegionRU864NewChannelReq                          out/external/libexternal_fuota_stack.a(RegionRU864.o)
                                                  out/external/libexternal_fuota_stack.a(Region.o)
RegionRU864NextChannel                            out/external/libexternal_fuota_stack.a(RegionRU864.o)
                                                  out/external/libexternal_fuota_stack.a(Region.o)
RegionRU864RxBeaconSetup                          out/external/libexternal_fuota_stack.a(RegionRU864.o)
                                                  out/external/libexternal_fuota_stack.a(Region.o)
RegionRU864RxConfig                               out/external/libexternal_fuota_stack.a(RegionRU864.o)
                                                  out/external/libexternal_fuota_stack.a(Region.o)
RegionRU864RxParamSetupReq                        out/external/libexternal_fuota_stack.a(RegionRU864.o)
                                                  out/external/libexternal_fuota_stack.a(Region.o)
RegionRU864SetBandTxDone                          out/external/libexternal_fuota_stack.a(RegionRU864.o)
                                                  out/external/libexternal_fuota_stack.a(Region.o)
RegionRU864TxConfig                               out/external/libexternal_fuota_stack.a(RegionRU864.o)
                                                  out/external/libexternal_fuota_stack.a(Region.o)
RegionRU864TxParamSetupReq                        out/external/libexternal_fuota_stack.a(RegionRU864.o)
                                                  out/external/libexternal_fuota_stack.a(Region.o)
RegionRU864Verify                                 out/external/libexternal_fuota_stack.a(RegionRU864.o)
                                                  out/external/libexternal_fuota_stack.a(Region.o)
RegionRxBeaconSetup                               out/external/libexternal_fuota_stack.a(Region.o)
                                                  out/external/libexternal_fuota_stack.a(LoRaMacClassB.o)
RegionRxConfig                                    out/external/libexternal_fuota_stack.a(Region.o)
                                                  out/external/libexternal_fuota_stack.a(LoRaMacClassB.o)
                                                  out/external/libexternal_fuota_stack.a(LoRaMac.o)
RegionRxParamSetupReq                             out/external/libexternal_fuota_stack.a(Region.o)
                                                  out/external/libexternal_fuota_stack.a(LoRaMac.o)
RegionSetBandTxDone                               out/external/libexternal_fuota_stack.a(Region.o)
                                                  out/external/libexternal_fuota_stack.a(LoRaMac.o)
RegionTxConfig                                    out/external/libexternal_fuota_stack.a(Region.o)
                                                  out/external/libexternal_fuota_stack.a(LoRaMac.o)
RegionTxParamSetupReq                             out/external/libexternal_fuota_stack.a(Region.o)
                                                  out/external/libexternal_fuota_stack.a(LoRaMac.o)
RegionUS915AlternateDr                            out/external/libexternal_fuota_stack.a(RegionUS915.o)
                                                  out/external/libexternal_fuota_stack.a(Region.o)
RegionUS915ApplyCFList                            out/external/libexternal_fuota_stack.a(RegionUS915.o)
                                                  out/external/libexternal_fuota_stack.a(Region.o)
RegionUS915ApplyDrOffset                          out/external/libexternal_fuota_stack.a(RegionUS915.o)
                                                  out/external/libexternal_fuota_stack.a(Region.o)
RegionUS915ChanMaskSet                            out/external/libexternal_fuota_stack.a(RegionUS915.o)
                                                  out/external/libexternal_fuota_stack.a(Region.o)
RegionUS915ChannelAdd                             out/external/libexternal_fuota_stack.a(RegionUS915.o)
                                                  out/external/libexternal_fuota_stack.a(Region.o)
RegionUS915ChannelsRemove                         out/external/libexternal_fuota_stack.a(RegionUS915.o)
                                                  out/external/libexternal_fuota_stack.a(Region.o)
RegionUS915ComputeRxWindowParameters              out/external/libexternal_fuota_stack.a(RegionUS915.o)
                                                  out/external/libexternal_fuota_stack.a(Region.o)
RegionUS915DlChannelReq                           out/external/libexternal_fuota_stack.a(RegionUS915.o)
                                                  out/external/libexternal_fuota_stack.a(Region.o)
RegionUS915GetPhyParam                            out/external/libexternal_fuota_stack.a(RegionUS915.o)
                                                  out/external/libexternal_fuota_stack.a(Region.o)
RegionUS915InitDefaults                           out/external/libexternal_fuota_stack.a(RegionUS915.o)
                                                  out/external/libexternal_fuota_stack.a(Region.o)
RegionUS915LinkAdrReq                             out/external/libexternal_fuota_stack.a(RegionUS915.o)
                                                  out/external/libexternal_fuota_stack.a(Region.o)
RegionUS915NewChannelReq                          out/external/libexternal_fuota_stack.a(RegionUS915.o)
                                                  out/external/libexternal_fuota_stack.a(Region.o)
RegionUS915NextChannel                            out/external/libexternal_fuota_stack.a(RegionUS915.o)
                                                  out/external/libexternal_fuota_stack.a(Region.o)
RegionUS915RxBeaconSetup                          out/external/libexternal_fuota_stack.a(RegionUS915.o)
                                                  out/external/libexternal_fuota_stack.a(Region.o)
RegionUS915RxConfig                               out/external/libexternal_fuota_stack.a(RegionUS915.o)
                                                  out/external/libexternal_fuota_stack.a(Region.o)
RegionUS915RxParamSetupReq                        out/external/libexternal_fuota_stack.a(RegionUS915.o)
                                                  out/external/libexternal_fuota_stack.a(Region.o)
RegionUS915SetBandTxDone                          out/external/libexternal_fuota_stack.a(RegionUS915.o)
                                                  out/external/libexternal_fuota_stack.a(Region.o)
RegionUS915TxConfig                               out/external/libexternal_fuota_stack.a(RegionUS915.o)
                                                  out/external/libexternal_fuota_stack.a(Region.o)
RegionUS915TxParamSetupReq                        out/external/libexternal_fuota_stack.a(RegionUS915.o)
                                                  out/external/libexternal_fuota_stack.a(Region.o)
RegionUS915Verify                                 out/external/libexternal_fuota_stack.a(RegionUS915.o)
                                                  out/external/libexternal_fuota_stack.a(Region.o)
RegionVerify                                      out/external/libexternal_fuota_stack.a(Region.o)
                                                  out/external/libexternal_fuota_stack.a(LoRaMacClassB.o)
                                                  out/external/libexternal_fuota_stack.a(LoRaMac.o)
RxDoneParams                                      out/external/libexternal_fuota_stack.a(LoRaMac.o)
RxTimeoutTimer                                    out/external/libexternal_fuota_stack.a(radio.o)
SUBGHZSPI_DeInit                                  out/external/libexternal_fuota_stack.a(stm32wlxx_hal_subghz.o)
SUBGHZSPI_Init                                    out/external/libexternal_fuota_stack.a(stm32wlxx_hal_subghz.o)
SUBGHZSPI_Receive                                 out/external/libexternal_fuota_stack.a(stm32wlxx_hal_subghz.o)
SUBGHZSPI_Transmit                                out/external/libexternal_fuota_stack.a(stm32wlxx_hal_subghz.o)
SUBGHZ_CheckDeviceReady                           out/external/libexternal_fuota_stack.a(stm32wlxx_hal_subghz.o)
SUBGHZ_WaitOnBusy                                 out/external/libexternal_fuota_stack.a(stm32wlxx_hal_subghz.o)
SUBGRF_Calibrate                                  out/external/libexternal_fuota_stack.a(radio_driver.o)
SUBGRF_CalibrateImage                             out/external/libexternal_fuota_stack.a(radio_driver.o)
SUBGRF_ClearDeviceErrors                          out/external/libexternal_fuota_stack.a(radio_driver.o)
SUBGRF_ClearIrqStatus                             out/external/libexternal_fuota_stack.a(radio_driver.o)
SUBGRF_GetCFO                                     out/external/libexternal_fuota_stack.a(radio_driver.o)
                                                  out/external/libexternal_fuota_stack.a(radio.o)
SUBGRF_GetDeviceErrors                            out/external/libexternal_fuota_stack.a(radio_driver.o)
SUBGRF_GetFskBandwidthRegValue                    out/external/libexternal_fuota_stack.a(radio_driver.o)
                                                  out/external/libexternal_fuota_stack.a(radio.o)
SUBGRF_GetIrqStatus                               out/external/libexternal_fuota_stack.a(radio_driver.o)
SUBGRF_GetOperatingMode                           out/external/libexternal_fuota_stack.a(radio_driver.o)
                                                  out/external/libexternal_fuota_stack.a(radio.o)
SUBGRF_GetPacketStatus                            out/external/libexternal_fuota_stack.a(radio_driver.o)
                                                  out/external/libexternal_fuota_stack.a(radio.o)
SUBGRF_GetPacketType                              out/external/libexternal_fuota_stack.a(radio_driver.o)
SUBGRF_GetPayload                                 out/external/libexternal_fuota_stack.a(radio_driver.o)
                                                  out/external/libexternal_fuota_stack.a(radio.o)
SUBGRF_GetRadioWakeUpTime                         out/external/libexternal_fuota_stack.a(radio_driver.o)
                                                  out/external/libexternal_fuota_stack.a(radio.o)
SUBGRF_GetRandom                                  out/external/libexternal_fuota_stack.a(radio_driver.o)
                                                  out/external/libexternal_fuota_stack.a(radio.o)
SUBGRF_GetRssiInst                                out/external/libexternal_fuota_stack.a(radio_driver.o)
                                                  out/external/libexternal_fuota_stack.a(radio.o)
SUBGRF_GetRxBufferStatus                          out/external/libexternal_fuota_stack.a(radio_driver.o)
SUBGRF_GetStatus                                  out/external/libexternal_fuota_stack.a(radio_driver.o)
SUBGRF_Init                                       out/external/libexternal_fuota_stack.a(radio_driver.o)
                                                  out/external/libexternal_fuota_stack.a(radio.o)
SUBGRF_ReadBuffer                                 out/external/libexternal_fuota_stack.a(radio_driver.o)
SUBGRF_ReadRegister                               out/external/libexternal_fuota_stack.a(radio_driver.o)
                                                  out/external/libexternal_fuota_stack.a(radio.o)
SUBGRF_ReadRegisters                              out/external/libexternal_fuota_stack.a(radio_driver.o)
                                                  out/external/libexternal_fuota_stack.a(radio.o)
SUBGRF_SendPayload                                out/external/libexternal_fuota_stack.a(radio_driver.o)
                                                  out/external/libexternal_fuota_stack.a(radio.o)
SUBGRF_SetBufferBaseAddress                       out/external/libexternal_fuota_stack.a(radio_driver.o)
                                                  out/external/libexternal_fuota_stack.a(radio.o)
SUBGRF_SetCad                                     out/external/libexternal_fuota_stack.a(radio_driver.o)
                                                  out/external/libexternal_fuota_stack.a(radio.o)
SUBGRF_SetCadParams                               out/external/libexternal_fuota_stack.a(radio_driver.o)
SUBGRF_SetCrcPolynomial                           out/external/libexternal_fuota_stack.a(radio_driver.o)
                                                  out/external/libexternal_fuota_stack.a(radio.o)
SUBGRF_SetCrcSeed                                 out/external/libexternal_fuota_stack.a(radio_driver.o)
SUBGRF_SetDioIrqParams                            out/external/libexternal_fuota_stack.a(radio_driver.o)
                                                  out/external/libexternal_fuota_stack.a(radio.o)
SUBGRF_SetFs                                      out/external/libexternal_fuota_stack.a(radio_driver.o)
SUBGRF_SetLoRaSymbNumTimeout                      out/external/libexternal_fuota_stack.a(radio_driver.o)
                                                  out/external/libexternal_fuota_stack.a(radio.o)
SUBGRF_SetModulationParams                        out/external/libexternal_fuota_stack.a(radio_driver.o)
                                                  out/external/libexternal_fuota_stack.a(radio.o)
SUBGRF_SetPaConfig                                out/external/libexternal_fuota_stack.a(radio_driver.o)
SUBGRF_SetPacketParams                            out/external/libexternal_fuota_stack.a(radio_driver.o)
                                                  out/external/libexternal_fuota_stack.a(radio.o)
SUBGRF_SetPacketType                              out/external/libexternal_fuota_stack.a(radio_driver.o)
                                                  out/external/libexternal_fuota_stack.a(radio.o)
SUBGRF_SetPayload                                 out/external/libexternal_fuota_stack.a(radio_driver.o)
SUBGRF_SetRegulatorMode                           out/external/libexternal_fuota_stack.a(radio_driver.o)
                                                  out/external/libexternal_fuota_stack.a(radio.o)
SUBGRF_SetRfFrequency                             out/external/libexternal_fuota_stack.a(radio_driver.o)
                                                  out/external/libexternal_fuota_stack.a(radio.o)
SUBGRF_SetRfTxPower                               out/external/libexternal_fuota_stack.a(radio_driver.o)
                                                  out/external/libexternal_fuota_stack.a(radio.o)
SUBGRF_SetRx                                      out/external/libexternal_fuota_stack.a(radio_driver.o)
                                                  out/external/libexternal_fuota_stack.a(radio.o)
SUBGRF_SetRxBoosted                               out/external/libexternal_fuota_stack.a(radio_driver.o)
                                                  out/external/libexternal_fuota_stack.a(radio.o)
SUBGRF_SetRxDutyCycle                             out/external/libexternal_fuota_stack.a(radio_driver.o)
                                                  out/external/libexternal_fuota_stack.a(radio.o)
SUBGRF_SetRxTxFallbackMode                        out/external/libexternal_fuota_stack.a(radio_driver.o)
SUBGRF_SetSleep                                   out/external/libexternal_fuota_stack.a(radio_driver.o)
                                                  out/external/libexternal_fuota_stack.a(radio.o)
SUBGRF_SetStandby                                 out/external/libexternal_fuota_stack.a(radio_driver.o)
                                                  out/external/libexternal_fuota_stack.a(radio.o)
SUBGRF_SetStopRxTimerOnPreambleDetect             out/external/libexternal_fuota_stack.a(radio_driver.o)
                                                  out/external/libexternal_fuota_stack.a(radio.o)
SUBGRF_SetSwitch                                  out/external/libexternal_fuota_stack.a(radio_driver.o)
                                                  out/external/libexternal_fuota_stack.a(radio.o)
SUBGRF_SetSyncWord                                out/external/libexternal_fuota_stack.a(radio_driver.o)
                                                  out/external/libexternal_fuota_stack.a(radio.o)
SUBGRF_SetTcxoMode                                out/external/libexternal_fuota_stack.a(radio_driver.o)
SUBGRF_SetTx                                      out/external/libexternal_fuota_stack.a(radio_driver.o)
                                                  out/external/libexternal_fuota_stack.a(radio.o)
SUBGRF_SetTxContinuousWave                        out/external/libexternal_fuota_stack.a(radio_driver.o)
                                                  out/external/libexternal_fuota_stack.a(radio.o)
SUBGRF_SetTxInfinitePreamble                      out/external/libexternal_fuota_stack.a(radio_driver.o)
                                                  out/external/libexternal_fuota_stack.a(radio.o)
SUBGRF_SetTxParams                                out/external/libexternal_fuota_stack.a(radio_driver.o)
                                                  out/external/libexternal_fuota_stack.a(radio.o)
SUBGRF_SetWhiteningSeed                           out/external/libexternal_fuota_stack.a(radio_driver.o)
                                                  out/external/libexternal_fuota_stack.a(radio.o)
SUBGRF_WriteBuffer                                out/external/libexternal_fuota_stack.a(radio_driver.o)
SUBGRF_WriteRegister                              out/external/libexternal_fuota_stack.a(radio_driver.o)
                                                  out/external/libexternal_fuota_stack.a(radio.o)
SUBGRF_WriteRegisters                             out/external/libexternal_fuota_stack.a(radio_driver.o)
                                                  out/external/libexternal_fuota_stack.a(radio.o)
SecureElementAesEncrypt                           out/external/libexternal_fuota_stack.a(soft-se.o)
                                                  out/external/libexternal_fuota_stack.a(LoRaMacCrypto.o)
                                                  out/external/libexternal_fuota_stack.a(LoRaMacClassB.o)
SecureElementComputeAesCmac                       out/external/libexternal_fuota_stack.a(soft-se.o)
                                                  out/external/libexternal_fuota_stack.a(LoRaMacCrypto.o)
SecureElementDeriveAndStoreKey                    out/external/libexternal_fuota_stack.a(soft-se.o)
                                                  out/external/libexternal_fuota_stack.a(LoRaMacCrypto.o)
SecureElementGetDevEui                            out/external/libexternal_fuota_stack.a(soft-se.o)
                                                  out/external/libexternal_fuota_stack.a(LoRaMac.o)
SecureElementGetJoinEui                           out/external/libexternal_fuota_stack.a(soft-se.o)
                                                  out/external/libexternal_fuota_stack.a(LoRaMac.o)
SecureElementGetPin                               out/external/libexternal_fuota_stack.a(soft-se.o)
                                                  out/external/libexternal_fuota_stack.a(LoRaMac.o)
SecureElementInit                                 out/external/libexternal_fuota_stack.a(soft-se.o)
                                                  out/external/libexternal_fuota_stack.a(LoRaMac.o)
SecureElementProcessJoinAccept                    out/external/libexternal_fuota_stack.a(soft-se.o)
                                                  out/external/libexternal_fuota_stack.a(LoRaMacCrypto.o)
SecureElementSetDevEui                            out/external/libexternal_fuota_stack.a(soft-se.o)
                                                  out/external/libexternal_fuota_stack.a(LoRaMac.o)
SecureElementSetJoinEui                           out/external/libexternal_fuota_stack.a(soft-se.o)
                                                  out/external/libexternal_fuota_stack.a(LoRaMac.o)
SecureElementSetKey                               out/external/libexternal_fuota_stack.a(soft-se.o)
                                                  out/external/libexternal_fuota_stack.a(LoRaMacCrypto.o)
SecureElementSetPin                               out/external/libexternal_fuota_stack.a(soft-se.o)
                                                  out/external/libexternal_fuota_stack.a(LoRaMac.o)
SecureElementVerifyAesCmac                        out/external/libexternal_fuota_stack.a(soft-se.o)
                                                  out/external/libexternal_fuota_stack.a(LoRaMacCrypto.o)
Send                                              out/external/libexternal_fuota_stack.a(LoRaMac.o)
SendFrameOnChannel                                out/external/libexternal_fuota_stack.a(LoRaMac.o)
SendReJoinReq                                     out/external/libexternal_fuota_stack.a(LoRaMac.o)
SessionStopTimer                                  out/external/libexternal_fuota_stack.a(LmhpRemoteMcastSetup.o)
SetTxContinuousWave                               out/external/libexternal_fuota_stack.a(LoRaMac.o)
SoftSeHalGetUniqueId                              out/external/libexternal_fuota_stack.a(soft-se-hal.o)
SubgRf                                            out/external/libexternal_fuota_stack.a(radio.o)
SysTimeAdd                                        out/external/libexternal_fuota_stack.a(stm32_systime.o)
                                                  out/external/libexternal_fuota_stack.a(LoRaMacClassB.o)
                                                  out/external/libexternal_fuota_stack.a(LoRaMac.o)
SysTimeFromMs                                     out/external/libexternal_fuota_stack.a(stm32_systime.o)
                                                  out/external/libexternal_fuota_stack.a(LoRaMacClassB.o)
SysTimeGet                                        out/external/libexternal_fuota_stack.a(stm32_systime.o)
                                                  out/external/libexternal_fuota_stack.a(LoRaMacClassB.o)
                                                  out/external/libexternal_fuota_stack.a(LoRaMac.o)
                                                  out/external/libexternal_fuota_stack.a(LmhpRemoteMcastSetup.o)
                                                  out/external/libexternal_fuota_stack.a(LmhpClockSync.o)
                                                  out/external/libexternal_fuota_stack.a(service_lora_config.o)
SysTimeGetMcuTime                                 out/external/libexternal_fuota_stack.a(stm32_systime.o)
                                                  out/external/libexternal_fuota_stack.a(LoRaMac.o)
SysTimeLocalTime                                  out/external/libexternal_fuota_stack.a(stm32_systime.o)
                                                  out/external/libexternal_fuota_stack.a(service_lora_config.o)
SysTimeMkTime                                     out/external/libexternal_fuota_stack.a(stm32_systime.o)
SysTimeSet                                        out/external/libexternal_fuota_stack.a(stm32_systime.o)
                                                  out/external/libexternal_fuota_stack.a(LoRaMacClassB.o)
                                                  out/external/libexternal_fuota_stack.a(LoRaMac.o)
                                                  out/external/libexternal_fuota_stack.a(LmhpClockSync.o)
SysTimeSub                                        out/external/libexternal_fuota_stack.a(stm32_systime.o)
                                                  out/external/libexternal_fuota_stack.a(LoRaMacClassB.o)
                                                  out/external/libexternal_fuota_stack.a(LoRaMac.o)
SysTimeToMs                                       out/external/libexternal_fuota_stack.a(stm32_systime.o)
                                                  out/external/libexternal_fuota_stack.a(LoRaMacClassB.o)
SystemCoreClock                                   out/external/libexternal_fuota_stack.a(system_stm32wlxx.o)
                                                  out/external/libexternal_fuota_stack.a(stm32wlxx_hal_subghz.o)
                                                  out/external/libexternal_fuota_stack.a(stm32wlxx_hal_pwr_ex.o)
                                                  out/external/libexternal_fuota_stack.a(stm32wlxx_hal_rcc.o)
                                                  out/external/libexternal_fuota_stack.a(stm32wlxx_hal.o)
SystemCoreClockUpdate                             out/external/libexternal_fuota_stack.a(system_stm32wlxx.o)
SystemInit                                        out/external/libexternal_fuota_stack.a(system_stm32wlxx.o)
TIMER_IF_BkUp_Read_Seconds                        out/external/libexternal_fuota_stack.a(timer_if.o)
TIMER_IF_BkUp_Read_SubSeconds                     out/external/libexternal_fuota_stack.a(timer_if.o)
TIMER_IF_BkUp_Write_Seconds                       out/external/libexternal_fuota_stack.a(timer_if.o)
TIMER_IF_BkUp_Write_SubSeconds                    out/external/libexternal_fuota_stack.a(timer_if.o)
TIMER_IF_Convert_Tick2ms                          out/external/libexternal_fuota_stack.a(timer_if.o)
TIMER_IF_Convert_ms2Tick                          out/external/libexternal_fuota_stack.a(timer_if.o)
TIMER_IF_DelayMs                                  out/external/libexternal_fuota_stack.a(timer_if.o)
TIMER_IF_GetMinimumTimeout                        out/external/libexternal_fuota_stack.a(timer_if.o)
TIMER_IF_GetTime                                  out/external/libexternal_fuota_stack.a(timer_if.o)
TIMER_IF_GetTimerContext                          out/external/libexternal_fuota_stack.a(timer_if.o)
TIMER_IF_GetTimerElapsedTime                      out/external/libexternal_fuota_stack.a(timer_if.o)
TIMER_IF_GetTimerValue                            out/external/libexternal_fuota_stack.a(timer_if.o)
TIMER_IF_Init                                     out/external/libexternal_fuota_stack.a(timer_if.o)
TIMER_IF_SetTimerContext                          out/external/libexternal_fuota_stack.a(timer_if.o)
TIMER_IF_StartTimer                               out/external/libexternal_fuota_stack.a(timer_if.o)
TIMER_IF_StopTimer                                out/external/libexternal_fuota_stack.a(timer_if.o)
TimerExists                                       out/external/libexternal_fuota_stack.a(stm32_timer.o)
TimerInsertNewHeadTimer                           out/external/libexternal_fuota_stack.a(stm32_timer.o)
TimerInsertTimer                                  out/external/libexternal_fuota_stack.a(stm32_timer.o)
TimerSetTimeout                                   out/external/libexternal_fuota_stack.a(stm32_timer.o)
TxDoneParams                                      out/external/libexternal_fuota_stack.a(LoRaMac.o)
TxTimeoutTimer                                    out/external/libexternal_fuota_stack.a(radio.o)
US915_SingleChannelRegisterCallback               out/external/libexternal_fuota_stack.a(RegionUS915.o)
UTIL_MEM_cpy_8                                    out/external/libexternal_fuota_stack.a(stm32_mem.o)
UTIL_MEM_cpyr_8                                   out/external/libexternal_fuota_stack.a(stm32_mem.o)
UTIL_MEM_set_8                                    out/external/libexternal_fuota_stack.a(stm32_mem.o)
                                                  out/external/libexternal_fuota_stack.a(radio_driver.o)
UTIL_SYSTIMDriver                                 out/external/libexternal_fuota_stack.a(timer_if.o)
                                                  out/external/libexternal_fuota_stack.a(stm32_systime.o)
                                                  out/external/libexternal_fuota_stack.a(uhal_rtc.o)
UTIL_TIMER_Create                                 out/external/libexternal_fuota_stack.a(stm32_timer.o)
                                                  out/external/libexternal_fuota_stack.a(LoRaMacClassB.o)
                                                  out/external/libexternal_fuota_stack.a(LoRaMac.o)
                                                  out/external/libexternal_fuota_stack.a(radio.o)
                                                  out/external/libexternal_fuota_stack.a(uhal_system.o)
                                                  out/external/libexternal_fuota_stack.a(LmhpFragmentation.o)
                                                  out/external/libexternal_fuota_stack.a(LmhpRemoteMcastSetup.o)
UTIL_TIMER_DeInit                                 out/external/libexternal_fuota_stack.a(stm32_timer.o)
UTIL_TIMER_GetCurrentTime                         out/external/libexternal_fuota_stack.a(stm32_timer.o)
                                                  out/external/libexternal_fuota_stack.a(RegionCommon.o)
                                                  out/external/libexternal_fuota_stack.a(LoRaMacClassB.o)
                                                  out/external/libexternal_fuota_stack.a(LoRaMac.o)
                                                  out/external/libexternal_fuota_stack.a(radio.o)
UTIL_TIMER_GetElapsedTime                         out/external/libexternal_fuota_stack.a(stm32_timer.o)
                                                  out/external/libexternal_fuota_stack.a(RegionLA915.o)
                                                  out/external/libexternal_fuota_stack.a(RegionCommon.o)
                                                  out/external/libexternal_fuota_stack.a(LoRaMac.o)
                                                  out/external/libexternal_fuota_stack.a(radio.o)
UTIL_TIMER_GetFirstRemainingTime                  out/external/libexternal_fuota_stack.a(stm32_timer.o)
UTIL_TIMER_GetRemainingTime                       out/external/libexternal_fuota_stack.a(stm32_timer.o)
                                                  out/external/libexternal_fuota_stack.a(LmhpRemoteMcastSetup.o)
UTIL_TIMER_IRQ_Handler                            out/external/libexternal_fuota_stack.a(stm32_timer.o)
                                                  out/external/libexternal_fuota_stack.a(timer_if.o)
UTIL_TIMER_Init                                   out/external/libexternal_fuota_stack.a(stm32_timer.o)
UTIL_TIMER_IsRunning                              out/external/libexternal_fuota_stack.a(stm32_timer.o)
                                                  out/external/libexternal_fuota_stack.a(LoRaMacClassB.o)
                                                  out/external/libexternal_fuota_stack.a(LoRaMac.o)
                                                  out/external/libexternal_fuota_stack.a(radio.o)
                                                  out/external/libexternal_fuota_stack.a(LmhpFragmentation.o)
                                                  out/external/libexternal_fuota_stack.a(LmhpRemoteMcastSetup.o)
UTIL_TIMER_SetPeriod                              out/external/libexternal_fuota_stack.a(stm32_timer.o)
                                                  out/external/libexternal_fuota_stack.a(LoRaMacClassB.o)
                                                  out/external/libexternal_fuota_stack.a(LoRaMac.o)
                                                  out/external/libexternal_fuota_stack.a(radio.o)
                                                  out/external/libexternal_fuota_stack.a(uhal_system.o)
                                                  out/external/libexternal_fuota_stack.a(LmhpFragmentation.o)
                                                  out/external/libexternal_fuota_stack.a(LmhpRemoteMcastSetup.o)
UTIL_TIMER_SetReloadMode                          out/external/libexternal_fuota_stack.a(stm32_timer.o)
UTIL_TIMER_Start                                  out/external/libexternal_fuota_stack.a(stm32_timer.o)
                                                  out/external/libexternal_fuota_stack.a(LoRaMacClassB.o)
                                                  out/external/libexternal_fuota_stack.a(LoRaMac.o)
                                                  out/external/libexternal_fuota_stack.a(radio.o)
                                                  out/external/libexternal_fuota_stack.a(uhal_system.o)
                                                  out/external/libexternal_fuota_stack.a(LmhpFragmentation.o)
                                                  out/external/libexternal_fuota_stack.a(LmhpRemoteMcastSetup.o)
UTIL_TIMER_StartWithPeriod                        out/external/libexternal_fuota_stack.a(stm32_timer.o)
UTIL_TIMER_Stop                                   out/external/libexternal_fuota_stack.a(stm32_timer.o)
                                                  out/external/libexternal_fuota_stack.a(LoRaMacClassB.o)
                                                  out/external/libexternal_fuota_stack.a(LoRaMac.o)
                                                  out/external/libexternal_fuota_stack.a(radio.o)
                                                  out/external/libexternal_fuota_stack.a(uhal_system.o)
                                                  out/external/libexternal_fuota_stack.a(LmhpFragmentation.o)
                                                  out/external/libexternal_fuota_stack.a(LmhpRemoteMcastSetup.o)
UTIL_TimerDriver                                  out/external/libexternal_fuota_stack.a(timer_if.o)
                                                  out/external/libexternal_fuota_stack.a(stm32_timer.o)
                                                  out/external/libexternal_fuota_stack.a(uhal_rtc.o)
                                                  out/external/libexternal_fuota_stack.a(LmhpRemoteMcastSetup.o)
WeekDayString                                     out/external/libexternal_fuota_stack.a(stm32_systime.o)
__adddf3                                          /opt/gcc-arm-none-eabi-10-2020-q4-major/bin/../lib/gcc/arm-none-eabi/10.2.1/thumb/v7e-m/nofp/libgcc.a(_arm_addsubdf3.o)
__addsf3                                          /opt/gcc-arm-none-eabi-10-2020-q4-major/bin/../lib/gcc/arm-none-eabi/10.2.1/thumb/v7e-m/nofp/libgcc.a(_arm_addsubsf3.o)
__aeabi_cdcmpeq                                   /opt/gcc-arm-none-eabi-10-2020-q4-major/bin/../lib/gcc/arm-none-eabi/10.2.1/thumb/v7e-m/nofp/libgcc.a(_arm_cmpdf2.o)
__aeabi_cdcmple                                   /opt/gcc-arm-none-eabi-10-2020-q4-major/bin/../lib/gcc/arm-none-eabi/10.2.1/thumb/v7e-m/nofp/libgcc.a(_arm_cmpdf2.o)
__aeabi_cdrcmple                                  /opt/gcc-arm-none-eabi-10-2020-q4-major/bin/../lib/gcc/arm-none-eabi/10.2.1/thumb/v7e-m/nofp/libgcc.a(_arm_cmpdf2.o)
__aeabi_cfcmpeq                                   /opt/gcc-arm-none-eabi-10-2020-q4-major/bin/../lib/gcc/arm-none-eabi/10.2.1/thumb/v7e-m/nofp/libgcc.a(_arm_cmpsf2.o)
__aeabi_cfcmple                                   /opt/gcc-arm-none-eabi-10-2020-q4-major/bin/../lib/gcc/arm-none-eabi/10.2.1/thumb/v7e-m/nofp/libgcc.a(_arm_cmpsf2.o)
__aeabi_cfrcmple                                  /opt/gcc-arm-none-eabi-10-2020-q4-major/bin/../lib/gcc/arm-none-eabi/10.2.1/thumb/v7e-m/nofp/libgcc.a(_arm_cmpsf2.o)
__aeabi_d2iz                                      /opt/gcc-arm-none-eabi-10-2020-q4-major/bin/../lib/gcc/arm-none-eabi/10.2.1/thumb/v7e-m/nofp/libgcc.a(_arm_fixdfsi.o)
                                                  out/external/libexternal_fuota_stack.a(RegionCommon.o)
__aeabi_dadd                                      /opt/gcc-arm-none-eabi-10-2020-q4-major/bin/../lib/gcc/arm-none-eabi/10.2.1/thumb/v7e-m/nofp/libgcc.a(_arm_addsubdf3.o)
                                                  /opt/gcc-arm-none-eabi-10-2020-q4-major/bin/../lib/gcc/arm-none-eabi/10.2.1/../../../../arm-none-eabi/lib/thumb/v7e-m/nofp/libm.a(lib_a-s_floor.o)
__aeabi_dcmpeq                                    /opt/gcc-arm-none-eabi-10-2020-q4-major/bin/../lib/gcc/arm-none-eabi/10.2.1/thumb/v7e-m/nofp/libgcc.a(_arm_cmpdf2.o)
__aeabi_dcmpge                                    /opt/gcc-arm-none-eabi-10-2020-q4-major/bin/../lib/gcc/arm-none-eabi/10.2.1/thumb/v7e-m/nofp/libgcc.a(_arm_cmpdf2.o)
__aeabi_dcmpgt                                    /opt/gcc-arm-none-eabi-10-2020-q4-major/bin/../lib/gcc/arm-none-eabi/10.2.1/thumb/v7e-m/nofp/libgcc.a(_arm_cmpdf2.o)
                                                  /opt/gcc-arm-none-eabi-10-2020-q4-major/bin/../lib/gcc/arm-none-eabi/10.2.1/../../../../arm-none-eabi/lib/thumb/v7e-m/nofp/libm.a(lib_a-s_floor.o)
__aeabi_dcmple                                    /opt/gcc-arm-none-eabi-10-2020-q4-major/bin/../lib/gcc/arm-none-eabi/10.2.1/thumb/v7e-m/nofp/libgcc.a(_arm_cmpdf2.o)
__aeabi_dcmplt                                    /opt/gcc-arm-none-eabi-10-2020-q4-major/bin/../lib/gcc/arm-none-eabi/10.2.1/thumb/v7e-m/nofp/libgcc.a(_arm_cmpdf2.o)
__aeabi_drsub                                     /opt/gcc-arm-none-eabi-10-2020-q4-major/bin/../lib/gcc/arm-none-eabi/10.2.1/thumb/v7e-m/nofp/libgcc.a(_arm_addsubdf3.o)
__aeabi_dsub                                      /opt/gcc-arm-none-eabi-10-2020-q4-major/bin/../lib/gcc/arm-none-eabi/10.2.1/thumb/v7e-m/nofp/libgcc.a(_arm_addsubdf3.o)
__aeabi_f2d                                       /opt/gcc-arm-none-eabi-10-2020-q4-major/bin/../lib/gcc/arm-none-eabi/10.2.1/thumb/v7e-m/nofp/libgcc.a(_arm_addsubdf3.o)
                                                  out/external/libexternal_fuota_stack.a(RegionCommon.o)
__aeabi_fadd                                      /opt/gcc-arm-none-eabi-10-2020-q4-major/bin/../lib/gcc/arm-none-eabi/10.2.1/thumb/v7e-m/nofp/libgcc.a(_arm_addsubsf3.o)
__aeabi_fcmpeq                                    /opt/gcc-arm-none-eabi-10-2020-q4-major/bin/../lib/gcc/arm-none-eabi/10.2.1/thumb/v7e-m/nofp/libgcc.a(_arm_cmpsf2.o)
__aeabi_fcmpge                                    /opt/gcc-arm-none-eabi-10-2020-q4-major/bin/../lib/gcc/arm-none-eabi/10.2.1/thumb/v7e-m/nofp/libgcc.a(_arm_cmpsf2.o)
__aeabi_fcmpgt                                    /opt/gcc-arm-none-eabi-10-2020-q4-major/bin/../lib/gcc/arm-none-eabi/10.2.1/thumb/v7e-m/nofp/libgcc.a(_arm_cmpsf2.o)
__aeabi_fcmple                                    /opt/gcc-arm-none-eabi-10-2020-q4-major/bin/../lib/gcc/arm-none-eabi/10.2.1/thumb/v7e-m/nofp/libgcc.a(_arm_cmpsf2.o)
__aeabi_fcmplt                                    /opt/gcc-arm-none-eabi-10-2020-q4-major/bin/../lib/gcc/arm-none-eabi/10.2.1/thumb/v7e-m/nofp/libgcc.a(_arm_cmpsf2.o)
                                                  out/external/libexternal_fuota_stack.a(RegionKR920.o)
__aeabi_frsub                                     /opt/gcc-arm-none-eabi-10-2020-q4-major/bin/../lib/gcc/arm-none-eabi/10.2.1/thumb/v7e-m/nofp/libgcc.a(_arm_addsubsf3.o)
__aeabi_fsub                                      /opt/gcc-arm-none-eabi-10-2020-q4-major/bin/../lib/gcc/arm-none-eabi/10.2.1/thumb/v7e-m/nofp/libgcc.a(_arm_addsubsf3.o)
                                                  out/external/libexternal_fuota_stack.a(RegionCommon.o)
__aeabi_i2d                                       /opt/gcc-arm-none-eabi-10-2020-q4-major/bin/../lib/gcc/arm-none-eabi/10.2.1/thumb/v7e-m/nofp/libgcc.a(_arm_addsubdf3.o)
__aeabi_i2f                                       /opt/gcc-arm-none-eabi-10-2020-q4-major/bin/../lib/gcc/arm-none-eabi/10.2.1/thumb/v7e-m/nofp/libgcc.a(_arm_addsubsf3.o)
                                                  out/external/libexternal_fuota_stack.a(RegionKR920.o)
__aeabi_idiv0                                     /opt/gcc-arm-none-eabi-10-2020-q4-major/bin/../lib/gcc/arm-none-eabi/10.2.1/thumb/v7e-m/nofp/libgcc.a(_dvmd_tls.o)
__aeabi_l2d                                       /opt/gcc-arm-none-eabi-10-2020-q4-major/bin/../lib/gcc/arm-none-eabi/10.2.1/thumb/v7e-m/nofp/libgcc.a(_arm_addsubdf3.o)
__aeabi_l2f                                       /opt/gcc-arm-none-eabi-10-2020-q4-major/bin/../lib/gcc/arm-none-eabi/10.2.1/thumb/v7e-m/nofp/libgcc.a(_arm_addsubsf3.o)
__aeabi_ldiv0                                     /opt/gcc-arm-none-eabi-10-2020-q4-major/bin/../lib/gcc/arm-none-eabi/10.2.1/thumb/v7e-m/nofp/libgcc.a(_dvmd_tls.o)
                                                  /opt/gcc-arm-none-eabi-10-2020-q4-major/bin/../lib/gcc/arm-none-eabi/10.2.1/thumb/v7e-m/nofp/libgcc.a(_aeabi_uldivmod.o)
                                                  /opt/gcc-arm-none-eabi-10-2020-q4-major/bin/../lib/gcc/arm-none-eabi/10.2.1/thumb/v7e-m/nofp/libgcc.a(_aeabi_ldivmod.o)
__aeabi_ldivmod                                   /opt/gcc-arm-none-eabi-10-2020-q4-major/bin/../lib/gcc/arm-none-eabi/10.2.1/thumb/v7e-m/nofp/libgcc.a(_aeabi_ldivmod.o)
                                                  out/external/libexternal_fuota_stack.a(radio_driver.o)
                                                  out/external/libexternal_fuota_stack.a(timer_if.o)
__aeabi_ui2d                                      /opt/gcc-arm-none-eabi-10-2020-q4-major/bin/../lib/gcc/arm-none-eabi/10.2.1/thumb/v7e-m/nofp/libgcc.a(_arm_addsubdf3.o)
__aeabi_ui2f                                      /opt/gcc-arm-none-eabi-10-2020-q4-major/bin/../lib/gcc/arm-none-eabi/10.2.1/thumb/v7e-m/nofp/libgcc.a(_arm_addsubsf3.o)
                                                  out/external/libexternal_fuota_stack.a(RegionCommon.o)
                                                  out/external/libexternal_fuota_stack.a(LoRaMac.o)
__aeabi_ul2d                                      /opt/gcc-arm-none-eabi-10-2020-q4-major/bin/../lib/gcc/arm-none-eabi/10.2.1/thumb/v7e-m/nofp/libgcc.a(_arm_addsubdf3.o)
__aeabi_ul2f                                      /opt/gcc-arm-none-eabi-10-2020-q4-major/bin/../lib/gcc/arm-none-eabi/10.2.1/thumb/v7e-m/nofp/libgcc.a(_arm_addsubsf3.o)
__aeabi_uldivmod                                  /opt/gcc-arm-none-eabi-10-2020-q4-major/bin/../lib/gcc/arm-none-eabi/10.2.1/thumb/v7e-m/nofp/libgcc.a(_aeabi_uldivmod.o)
                                                  out/external/libexternal_fuota_stack.a(radio_driver.o)
                                                  out/external/libexternal_fuota_stack.a(timer_if.o)
__cmpdf2                                          /opt/gcc-arm-none-eabi-10-2020-q4-major/bin/../lib/gcc/arm-none-eabi/10.2.1/thumb/v7e-m/nofp/libgcc.a(_arm_cmpdf2.o)
__cmpsf2                                          /opt/gcc-arm-none-eabi-10-2020-q4-major/bin/../lib/gcc/arm-none-eabi/10.2.1/thumb/v7e-m/nofp/libgcc.a(_arm_cmpsf2.o)
__eqdf2                                           /opt/gcc-arm-none-eabi-10-2020-q4-major/bin/../lib/gcc/arm-none-eabi/10.2.1/thumb/v7e-m/nofp/libgcc.a(_arm_cmpdf2.o)
__eqsf2                                           /opt/gcc-arm-none-eabi-10-2020-q4-major/bin/../lib/gcc/arm-none-eabi/10.2.1/thumb/v7e-m/nofp/libgcc.a(_arm_cmpsf2.o)
__extendsfdf2                                     /opt/gcc-arm-none-eabi-10-2020-q4-major/bin/../lib/gcc/arm-none-eabi/10.2.1/thumb/v7e-m/nofp/libgcc.a(_arm_addsubdf3.o)
__fixdfsi                                         /opt/gcc-arm-none-eabi-10-2020-q4-major/bin/../lib/gcc/arm-none-eabi/10.2.1/thumb/v7e-m/nofp/libgcc.a(_arm_fixdfsi.o)
__floatdidf                                       /opt/gcc-arm-none-eabi-10-2020-q4-major/bin/../lib/gcc/arm-none-eabi/10.2.1/thumb/v7e-m/nofp/libgcc.a(_arm_addsubdf3.o)
__floatdisf                                       /opt/gcc-arm-none-eabi-10-2020-q4-major/bin/../lib/gcc/arm-none-eabi/10.2.1/thumb/v7e-m/nofp/libgcc.a(_arm_addsubsf3.o)
__floatsidf                                       /opt/gcc-arm-none-eabi-10-2020-q4-major/bin/../lib/gcc/arm-none-eabi/10.2.1/thumb/v7e-m/nofp/libgcc.a(_arm_addsubdf3.o)
__floatsisf                                       /opt/gcc-arm-none-eabi-10-2020-q4-major/bin/../lib/gcc/arm-none-eabi/10.2.1/thumb/v7e-m/nofp/libgcc.a(_arm_addsubsf3.o)
__floatundidf                                     /opt/gcc-arm-none-eabi-10-2020-q4-major/bin/../lib/gcc/arm-none-eabi/10.2.1/thumb/v7e-m/nofp/libgcc.a(_arm_addsubdf3.o)
__floatundisf                                     /opt/gcc-arm-none-eabi-10-2020-q4-major/bin/../lib/gcc/arm-none-eabi/10.2.1/thumb/v7e-m/nofp/libgcc.a(_arm_addsubsf3.o)
__floatunsidf                                     /opt/gcc-arm-none-eabi-10-2020-q4-major/bin/../lib/gcc/arm-none-eabi/10.2.1/thumb/v7e-m/nofp/libgcc.a(_arm_addsubdf3.o)
__floatunsisf                                     /opt/gcc-arm-none-eabi-10-2020-q4-major/bin/../lib/gcc/arm-none-eabi/10.2.1/thumb/v7e-m/nofp/libgcc.a(_arm_addsubsf3.o)
__gedf2                                           /opt/gcc-arm-none-eabi-10-2020-q4-major/bin/../lib/gcc/arm-none-eabi/10.2.1/thumb/v7e-m/nofp/libgcc.a(_arm_cmpdf2.o)
__gesf2                                           /opt/gcc-arm-none-eabi-10-2020-q4-major/bin/../lib/gcc/arm-none-eabi/10.2.1/thumb/v7e-m/nofp/libgcc.a(_arm_cmpsf2.o)
__gtdf2                                           /opt/gcc-arm-none-eabi-10-2020-q4-major/bin/../lib/gcc/arm-none-eabi/10.2.1/thumb/v7e-m/nofp/libgcc.a(_arm_cmpdf2.o)
__gtsf2                                           /opt/gcc-arm-none-eabi-10-2020-q4-major/bin/../lib/gcc/arm-none-eabi/10.2.1/thumb/v7e-m/nofp/libgcc.a(_arm_cmpsf2.o)
__ledf2                                           /opt/gcc-arm-none-eabi-10-2020-q4-major/bin/../lib/gcc/arm-none-eabi/10.2.1/thumb/v7e-m/nofp/libgcc.a(_arm_cmpdf2.o)
__lesf2                                           /opt/gcc-arm-none-eabi-10-2020-q4-major/bin/../lib/gcc/arm-none-eabi/10.2.1/thumb/v7e-m/nofp/libgcc.a(_arm_cmpsf2.o)
__ltdf2                                           /opt/gcc-arm-none-eabi-10-2020-q4-major/bin/../lib/gcc/arm-none-eabi/10.2.1/thumb/v7e-m/nofp/libgcc.a(_arm_cmpdf2.o)
__ltsf2                                           /opt/gcc-arm-none-eabi-10-2020-q4-major/bin/../lib/gcc/arm-none-eabi/10.2.1/thumb/v7e-m/nofp/libgcc.a(_arm_cmpsf2.o)
__nedf2                                           /opt/gcc-arm-none-eabi-10-2020-q4-major/bin/../lib/gcc/arm-none-eabi/10.2.1/thumb/v7e-m/nofp/libgcc.a(_arm_cmpdf2.o)
__nesf2                                           /opt/gcc-arm-none-eabi-10-2020-q4-major/bin/../lib/gcc/arm-none-eabi/10.2.1/thumb/v7e-m/nofp/libgcc.a(_arm_cmpsf2.o)
__subdf3                                          /opt/gcc-arm-none-eabi-10-2020-q4-major/bin/../lib/gcc/arm-none-eabi/10.2.1/thumb/v7e-m/nofp/libgcc.a(_arm_addsubdf3.o)
__subsf3                                          /opt/gcc-arm-none-eabi-10-2020-q4-major/bin/../lib/gcc/arm-none-eabi/10.2.1/thumb/v7e-m/nofp/libgcc.a(_arm_addsubsf3.o)
__udivmoddi4                                      /opt/gcc-arm-none-eabi-10-2020-q4-major/bin/../lib/gcc/arm-none-eabi/10.2.1/thumb/v7e-m/nofp/libgcc.a(_udivmoddi4.o)
                                                  /opt/gcc-arm-none-eabi-10-2020-q4-major/bin/../lib/gcc/arm-none-eabi/10.2.1/thumb/v7e-m/nofp/libgcc.a(_aeabi_uldivmod.o)
                                                  /opt/gcc-arm-none-eabi-10-2020-q4-major/bin/../lib/gcc/arm-none-eabi/10.2.1/thumb/v7e-m/nofp/libgcc.a(_aeabi_ldivmod.o)
aes_cbc_decrypt                                   out/external/libexternal_fuota_stack.a(uhal_crypto.o)
aes_cbc_encrypt                                   out/external/libexternal_fuota_stack.a(uhal_crypto.o)
aes_decrypt                                       out/external/libexternal_fuota_stack.a(uhal_crypto.o)
aes_encrypt                                       out/external/libexternal_fuota_stack.a(uhal_crypto.o)
                                                  out/external/libexternal_fuota_stack.a(soft-se.o)
                                                  out/external/libexternal_fuota_stack.a(cmac.o)
aes_set_key                                       out/external/libexternal_fuota_stack.a(uhal_crypto.o)
                                                  out/external/libexternal_fuota_stack.a(soft-se.o)
                                                  out/external/libexternal_fuota_stack.a(cmac.o)
api_version                                       /home/jenkins/workspace/RUI_Release/rui-v3/version.o
build_date                                        /home/jenkins/workspace/RUI_Release/rui-v3/version.o
build_time                                        /home/jenkins/workspace/RUI_Release/rui-v3/version.o
chip_id                                           /home/jenkins/workspace/RUI_Release/rui-v3/version.o
cli_version                                       /home/jenkins/workspace/RUI_Release/rui-v3/version.o
compare_page_buff                                 out/external/libexternal_fuota_stack.a(udrv_flash.o)
floor                                             /opt/gcc-arm-none-eabi-10-2020-q4-major/bin/../lib/gcc/arm-none-eabi/10.2.1/../../../../arm-none-eabi/lib/thumb/v7e-m/nofp/libm.a(lib_a-s_floor.o)
                                                  out/external/libexternal_fuota_stack.a(RegionCommon.o)
g_lora_mac_nvm_data                               out/external/libexternal_fuota_stack.a(service_nvm_common.o)
g_rui_cfg_t                                       out/external/libexternal_fuota_stack.a(service_nvm_common.o)
                                                  out/external/libexternal_fuota_stack.a(service_lora_config.o)
hcryp                                             out/external/libexternal_fuota_stack.a(uhal_crypto.o)
hdma_aes_in                                       out/external/libexternal_fuota_stack.a(uhal_crypto.o)
hdma_aes_out                                      out/external/libexternal_fuota_stack.a(uhal_crypto.o)
hrtc                                              out/external/libexternal_fuota_stack.a(uhal_rtc.o)
                                                  out/external/libexternal_fuota_stack.a(timer_if.o)
hsubghz                                           out/external/libexternal_fuota_stack.a(subghz.o)
                                                  out/external/libexternal_fuota_stack.a(radio_driver.o)
memcmp                                            /opt/gcc-arm-none-eabi-10-2020-q4-major/bin/../lib/gcc/arm-none-eabi/10.2.1/../../../../arm-none-eabi/lib/thumb/v7e-m/nofp/libc_nano.a(lib_a-memcmp.o)
                                                  out/external/libexternal_fuota_stack.a(udrv_flash.o)
                                                  out/external/libexternal_fuota_stack.a(service_lora_multicast.o)
memcpy                                            /opt/gcc-arm-none-eabi-10-2020-q4-major/bin/../lib/gcc/arm-none-eabi/10.2.1/../../../../arm-none-eabi/lib/thumb/v7e-m/nofp/libc_nano.a(lib_a-memcpy-stub.o)
                                                  out/external/libexternal_fuota_stack.a(uhal_crypto.o)
                                                  out/external/libexternal_fuota_stack.a(uhal_flash.o)
                                                  out/external/libexternal_fuota_stack.a(service_nvm_common.o)
                                                  out/external/libexternal_fuota_stack.a(udrv_flash.o)
                                                  out/external/libexternal_fuota_stack.a(service_lora_multicast.o)
                                                  out/external/libexternal_fuota_stack.a(service_lora_config.o)
memcpy1                                           out/external/libexternal_fuota_stack.a(utilities.o)
                                                  out/external/libexternal_fuota_stack.a(RegionUS915.o)
                                                  out/external/libexternal_fuota_stack.a(RegionRU864.o)
                                                  out/external/libexternal_fuota_stack.a(RegionLA915.o)
                                                  out/external/libexternal_fuota_stack.a(RegionKR920.o)
                                                  out/external/libexternal_fuota_stack.a(RegionIN865.o)
                                                  out/external/libexternal_fuota_stack.a(RegionEU868.o)
                                                  out/external/libexternal_fuota_stack.a(RegionEU433.o)
                                                  out/external/libexternal_fuota_stack.a(RegionCN779.o)
                                                  out/external/libexternal_fuota_stack.a(RegionCN470.o)
                                                  out/external/libexternal_fuota_stack.a(RegionAU915.o)
                                                  out/external/libexternal_fuota_stack.a(RegionAS923.o)
                                                  out/external/libexternal_fuota_stack.a(LoRaMacSerializer.o)
                                                  out/external/libexternal_fuota_stack.a(LoRaMacParser.o)
                                                  out/external/libexternal_fuota_stack.a(LoRaMacCrypto.o)
                                                  out/external/libexternal_fuota_stack.a(LoRaMacCommands.o)
                                                  out/external/libexternal_fuota_stack.a(LoRaMacClassB.o)
                                                  out/external/libexternal_fuota_stack.a(LoRaMac.o)
                                                  out/external/libexternal_fuota_stack.a(soft-se.o)
                                                  out/external/libexternal_fuota_stack.a(cmac.o)
memcpyr                                           out/external/libexternal_fuota_stack.a(utilities.o)
                                                  out/external/libexternal_fuota_stack.a(LoRaMacSerializer.o)
                                                  out/external/libexternal_fuota_stack.a(LoRaMacCrypto.o)
                                                  out/external/libexternal_fuota_stack.a(soft-se.o)
memset                                            /opt/gcc-arm-none-eabi-10-2020-q4-major/bin/../lib/gcc/arm-none-eabi/10.2.1/../../../../arm-none-eabi/lib/thumb/v7e-m/nofp/libc_nano.a(lib_a-memset.o)
                                                  out/external/libexternal_fuota_stack.a(RegionUS915.o)
                                                  out/external/libexternal_fuota_stack.a(RegionLA915.o)
                                                  out/external/libexternal_fuota_stack.a(RegionEU868.o)
                                                  out/external/libexternal_fuota_stack.a(RegionCN470.o)
                                                  out/external/libexternal_fuota_stack.a(RegionAU915.o)
                                                  out/external/libexternal_fuota_stack.a(LoRaMacCrypto.o)
                                                  out/external/libexternal_fuota_stack.a(soft-se.o)
                                                  out/external/libexternal_fuota_stack.a(uhal_crypto.o)
                                                  out/external/libexternal_fuota_stack.a(uhal_rtc.o)
                                                  out/external/libexternal_fuota_stack.a(service_nvm_common.o)
                                                  out/external/libexternal_fuota_stack.a(stm32wlxx_hal_msp.o)
                                                  out/external/libexternal_fuota_stack.a(LmhpRemoteMcastSetup.o)
                                                  out/external/libexternal_fuota_stack.a(service_lora_multicast.o)
                                                  out/external/libexternal_fuota_stack.a(service_lora_config.o)
                                                  out/external/libexternal_fuota_stack.a(board.o)
                                                  out/external/libexternal_fuota_stack.a(timer_if.o)
                                                  out/external/libexternal_fuota_stack.a(radio_board_if.o)
memset1                                           out/external/libexternal_fuota_stack.a(utilities.o)
                                                  out/external/libexternal_fuota_stack.a(RegionRU864.o)
                                                  out/external/libexternal_fuota_stack.a(RegionKR920.o)
                                                  out/external/libexternal_fuota_stack.a(RegionIN865.o)
                                                  out/external/libexternal_fuota_stack.a(RegionEU868.o)
                                                  out/external/libexternal_fuota_stack.a(RegionEU433.o)
                                                  out/external/libexternal_fuota_stack.a(RegionCN779.o)
                                                  out/external/libexternal_fuota_stack.a(RegionAS923.o)
                                                  out/external/libexternal_fuota_stack.a(LoRaMacCrypto.o)
                                                  out/external/libexternal_fuota_stack.a(LoRaMacConfirmQueue.o)
                                                  out/external/libexternal_fuota_stack.a(LoRaMacCommands.o)
                                                  out/external/libexternal_fuota_stack.a(LoRaMacClassB.o)
                                                  out/external/libexternal_fuota_stack.a(LoRaMac.o)
                                                  out/external/libexternal_fuota_stack.a(soft-se.o)
                                                  out/external/libexternal_fuota_stack.a(cmac.o)
                                                  out/external/libexternal_fuota_stack.a(FragDecoder.o)
model_id                                          /home/jenkins/workspace/RUI_Release/rui-v3/version.o
pFlash                                            out/external/libexternal_fuota_stack.a(stm32wlxx_hal_flash.o)
                                                  out/external/libexternal_fuota_stack.a(stm32wlxx_hal_flash_ex.o)
rand1                                             out/external/libexternal_fuota_stack.a(utilities.o)
randr                                             out/external/libexternal_fuota_stack.a(utilities.o)
                                                  out/external/libexternal_fuota_stack.a(RegionUS915.o)
                                                  out/external/libexternal_fuota_stack.a(RegionRU864.o)
                                                  out/external/libexternal_fuota_stack.a(RegionLA915.o)
                                                  out/external/libexternal_fuota_stack.a(RegionKR920.o)
                                                  out/external/libexternal_fuota_stack.a(RegionIN865.o)
                                                  out/external/libexternal_fuota_stack.a(RegionEU868.o)
                                                  out/external/libexternal_fuota_stack.a(RegionEU433.o)
                                                  out/external/libexternal_fuota_stack.a(RegionCN779.o)
                                                  out/external/libexternal_fuota_stack.a(RegionCN470.o)
                                                  out/external/libexternal_fuota_stack.a(RegionBaseUS.o)
                                                  out/external/libexternal_fuota_stack.a(RegionAU915.o)
                                                  out/external/libexternal_fuota_stack.a(RegionAS923.o)
                                                  out/external/libexternal_fuota_stack.a(LoRaMac.o)
                                                  out/external/libexternal_fuota_stack.a(LmhpFragmentation.o)
repo_info                                         /home/jenkins/workspace/RUI_Release/rui-v3/version.o
restore_abp_config                                out/external/libexternal_fuota_stack.a(service_lora_config.o)
service_fuota_lora_config                         out/external/libexternal_fuota_stack.a(service_lora_config.o)
service_fuota_nvm_init                            out/external/libexternal_fuota_stack.a(service_lora_config.o)
service_lora_addmulc                              out/external/libexternal_fuota_stack.a(service_lora_multicast.o)
service_lora_clear_multicast                      out/external/libexternal_fuota_stack.a(service_lora_multicast.o)
service_lora_fuota_get_band                       out/external/libexternal_fuota_stack.a(service_lora_config.o)
service_lora_fuota_join                           out/external/libexternal_fuota_stack.a(service_lora_config.o)
service_lora_get_DevNonce                         out/external/libexternal_fuota_stack.a(service_lora_config.o)
service_lora_get_IsCertPortOn                     out/external/libexternal_fuota_stack.a(service_lora_config.o)
service_lora_get_McRoot_key                       out/external/libexternal_fuota_stack.a(service_lora_config.o)
service_lora_get_adr                              out/external/libexternal_fuota_stack.a(service_lora_config.o)
service_lora_get_app_eui                          out/external/libexternal_fuota_stack.a(service_lora_config.o)
service_lora_get_app_key                          out/external/libexternal_fuota_stack.a(service_lora_config.o)
service_lora_get_app_skey                         out/external/libexternal_fuota_stack.a(service_lora_config.o)
service_lora_get_auto_join                        out/external/libexternal_fuota_stack.a(service_lora_config.o)
service_lora_get_auto_join_max_cnt                out/external/libexternal_fuota_stack.a(service_lora_config.o)
service_lora_get_auto_join_period                 out/external/libexternal_fuota_stack.a(service_lora_config.o)
service_lora_get_band                             out/external/libexternal_fuota_stack.a(service_lora_config.o)
                                                  out/external/libexternal_fuota_stack.a(service_lora_multicast.o)
service_lora_get_beacon_dr                        out/external/libexternal_fuota_stack.a(service_lora_config.o)
service_lora_get_beacon_freq                      out/external/libexternal_fuota_stack.a(service_lora_config.o)
service_lora_get_cfm                              out/external/libexternal_fuota_stack.a(service_lora_config.o)
service_lora_get_chs                              out/external/libexternal_fuota_stack.a(service_lora_config.o)
service_lora_get_class                            out/external/libexternal_fuota_stack.a(service_lora_config.o)
service_lora_get_dcs                              out/external/libexternal_fuota_stack.a(service_lora_config.o)
service_lora_get_dev_addr                         out/external/libexternal_fuota_stack.a(service_lora_config.o)
service_lora_get_dev_eui                          out/external/libexternal_fuota_stack.a(service_lora_config.o)
service_lora_get_dr                               out/external/libexternal_fuota_stack.a(service_lora_config.o)
service_lora_get_jn1dl                            out/external/libexternal_fuota_stack.a(service_lora_config.o)
service_lora_get_jn2dl                            out/external/libexternal_fuota_stack.a(service_lora_config.o)
service_lora_get_join_start                       out/external/libexternal_fuota_stack.a(service_lora_config.o)
service_lora_get_lbt                              out/external/libexternal_fuota_stack.a(service_lora_config.o)
                                                  out/external/libexternal_fuota_stack.a(RegionKR920.o)
                                                  out/external/libexternal_fuota_stack.a(RegionAS923.o)
service_lora_get_lbt_rssi                         out/external/libexternal_fuota_stack.a(service_lora_config.o)
                                                  out/external/libexternal_fuota_stack.a(RegionKR920.o)
                                                  out/external/libexternal_fuota_stack.a(RegionAS923.o)
service_lora_get_lbt_scantime                     out/external/libexternal_fuota_stack.a(service_lora_config.o)
                                                  out/external/libexternal_fuota_stack.a(RegionKR920.o)
                                                  out/external/libexternal_fuota_stack.a(RegionAS923.o)
service_lora_get_linkcheck                        out/external/libexternal_fuota_stack.a(service_lora_config.o)
service_lora_get_local_time                       out/external/libexternal_fuota_stack.a(service_lora_config.o)
service_lora_get_net_id                           out/external/libexternal_fuota_stack.a(service_lora_config.o)
service_lora_get_njm                              out/external/libexternal_fuota_stack.a(service_lora_config.o)
service_lora_get_njs                              out/external/libexternal_fuota_stack.a(service_lora_config.o)
service_lora_get_nwk_skey                         out/external/libexternal_fuota_stack.a(service_lora_config.o)
service_lora_get_nwm                              out/external/libexternal_fuota_stack.a(service_lora_config.o)
service_lora_get_ping_slot_periodicity            out/external/libexternal_fuota_stack.a(service_lora_config.o)
service_lora_get_pub_nwk_mode                     out/external/libexternal_fuota_stack.a(service_lora_config.o)
service_lora_get_retry                            out/external/libexternal_fuota_stack.a(service_lora_config.o)
service_lora_get_rx1dl                            out/external/libexternal_fuota_stack.a(service_lora_config.o)
service_lora_get_rx2dl                            out/external/libexternal_fuota_stack.a(service_lora_config.o)
service_lora_get_rx2dr                            out/external/libexternal_fuota_stack.a(service_lora_config.o)
service_lora_get_rx2freq                          out/external/libexternal_fuota_stack.a(service_lora_config.o)
service_lora_get_txpower                          out/external/libexternal_fuota_stack.a(service_lora_config.o)
service_lora_lstmulc                              out/external/libexternal_fuota_stack.a(service_lora_multicast.o)
service_lora_mac_nvm_data_init                    out/external/libexternal_fuota_stack.a(service_nvm_common.o)
service_lora_mac_nvm_data_reset                   out/external/libexternal_fuota_stack.a(service_nvm_common.o)
                                                  out/external/libexternal_fuota_stack.a(service_lora_config.o)
service_lora_region_isActive                      out/external/libexternal_fuota_stack.a(service_lora_config.o)
service_lora_rmvmulc                              out/external/libexternal_fuota_stack.a(service_lora_multicast.o)
service_lora_set_DevNonce                         out/external/libexternal_fuota_stack.a(service_lora_config.o)
service_lora_set_IsCertPortOn                     out/external/libexternal_fuota_stack.a(service_lora_config.o)
service_lora_set_adr                              out/external/libexternal_fuota_stack.a(service_lora_config.o)
service_lora_set_app_eui                          out/external/libexternal_fuota_stack.a(service_lora_config.o)
service_lora_set_app_key                          out/external/libexternal_fuota_stack.a(service_lora_config.o)
service_lora_set_app_skey                         out/external/libexternal_fuota_stack.a(service_lora_config.o)
service_lora_set_auto_join                        out/external/libexternal_fuota_stack.a(service_lora_config.o)
service_lora_set_auto_join_max_cnt                out/external/libexternal_fuota_stack.a(service_lora_config.o)
service_lora_set_auto_join_period                 out/external/libexternal_fuota_stack.a(service_lora_config.o)
service_lora_set_cfm                              out/external/libexternal_fuota_stack.a(service_lora_config.o)
service_lora_set_dcs                              out/external/libexternal_fuota_stack.a(service_lora_config.o)
service_lora_set_dev_addr                         out/external/libexternal_fuota_stack.a(service_lora_config.o)
service_lora_set_dev_eui                          out/external/libexternal_fuota_stack.a(service_lora_config.o)
service_lora_set_jn1dl                            out/external/libexternal_fuota_stack.a(service_lora_config.o)
service_lora_set_jn2dl                            out/external/libexternal_fuota_stack.a(service_lora_config.o)
service_lora_set_join_start                       out/external/libexternal_fuota_stack.a(service_lora_config.o)
service_lora_set_lbt                              out/external/libexternal_fuota_stack.a(service_lora_config.o)
service_lora_set_lbt_rssi                         out/external/libexternal_fuota_stack.a(service_lora_config.o)
service_lora_set_lbt_scantime                     out/external/libexternal_fuota_stack.a(service_lora_config.o)
service_lora_set_linkcheck                        out/external/libexternal_fuota_stack.a(service_lora_config.o)
service_lora_set_nwk_skey                         out/external/libexternal_fuota_stack.a(service_lora_config.o)
service_lora_set_nwm                              out/external/libexternal_fuota_stack.a(service_lora_config.o)
service_lora_set_ping_slot_periodicity            out/external/libexternal_fuota_stack.a(service_lora_config.o)
service_lora_set_pub_nwk_mode                     out/external/libexternal_fuota_stack.a(service_lora_config.o)
service_lora_set_retry                            out/external/libexternal_fuota_stack.a(service_lora_config.o)
service_lora_set_rx1dl                            out/external/libexternal_fuota_stack.a(service_lora_config.o)
service_lora_set_rx2dl                            out/external/libexternal_fuota_stack.a(service_lora_config.o)
service_lora_set_rx2dr                            out/external/libexternal_fuota_stack.a(service_lora_config.o)
service_lora_set_rx2freq                          out/external/libexternal_fuota_stack.a(service_lora_config.o)
service_lora_setup_multicast                      out/external/libexternal_fuota_stack.a(service_lora_multicast.o)
                                                  out/external/libexternal_fuota_stack.a(service_lora_config.o)
service_nvm_get_CAD_from_nvm                      out/external/libexternal_fuota_stack.a(service_nvm_common.o)
service_nvm_get_DevNonce_from_nvm                 out/external/libexternal_fuota_stack.a(service_nvm_common.o)
                                                  out/external/libexternal_fuota_stack.a(service_lora_config.o)
service_nvm_get_IsCertPortOn_from_nvm             out/external/libexternal_fuota_stack.a(service_nvm_common.o)
                                                  out/external/libexternal_fuota_stack.a(service_lora_config.o)
service_nvm_get_adr_from_nvm                      out/external/libexternal_fuota_stack.a(service_nvm_common.o)
                                                  out/external/libexternal_fuota_stack.a(service_lora_config.o)
service_nvm_get_app_eui_from_nvm                  out/external/libexternal_fuota_stack.a(service_nvm_common.o)
                                                  out/external/libexternal_fuota_stack.a(service_lora_config.o)
service_nvm_get_app_key_from_nvm                  out/external/libexternal_fuota_stack.a(service_nvm_common.o)
                                                  out/external/libexternal_fuota_stack.a(service_lora_config.o)
service_nvm_get_app_skey_from_nvm                 out/external/libexternal_fuota_stack.a(service_nvm_common.o)
                                                  out/external/libexternal_fuota_stack.a(service_lora_config.o)
service_nvm_get_atcmd_alias_from_nvm              out/external/libexternal_fuota_stack.a(service_nvm_common.o)
service_nvm_get_atcmd_echo_from_nvm               out/external/libexternal_fuota_stack.a(service_nvm_common.o)
service_nvm_get_auto_join_from_nvm                out/external/libexternal_fuota_stack.a(service_nvm_common.o)
                                                  out/external/libexternal_fuota_stack.a(service_lora_config.o)
service_nvm_get_auto_join_max_cnt_from_nvm        out/external/libexternal_fuota_stack.a(service_nvm_common.o)
                                                  out/external/libexternal_fuota_stack.a(service_lora_config.o)
service_nvm_get_auto_join_period_from_nvm         out/external/libexternal_fuota_stack.a(service_nvm_common.o)
                                                  out/external/libexternal_fuota_stack.a(service_lora_config.o)
service_nvm_get_auto_sleep_level_from_nvm         out/external/libexternal_fuota_stack.a(service_nvm_common.o)
service_nvm_get_auto_sleep_time_from_nvm          out/external/libexternal_fuota_stack.a(service_nvm_common.o)
service_nvm_get_band_from_nvm                     out/external/libexternal_fuota_stack.a(service_nvm_common.o)
                                                  out/external/libexternal_fuota_stack.a(service_lora_config.o)
service_nvm_get_bandwidth_from_nvm                out/external/libexternal_fuota_stack.a(service_nvm_common.o)
service_nvm_get_baudrate_from_nvm                 out/external/libexternal_fuota_stack.a(service_nvm_common.o)
service_nvm_get_bitrate_from_nvm                  out/external/libexternal_fuota_stack.a(service_nvm_common.o)
service_nvm_get_certi_from_nvm                    out/external/libexternal_fuota_stack.a(service_nvm_common.o)
service_nvm_get_cfm_from_nvm                      out/external/libexternal_fuota_stack.a(service_nvm_common.o)
                                                  out/external/libexternal_fuota_stack.a(service_lora_config.o)
service_nvm_get_chs_from_nvm                      out/external/libexternal_fuota_stack.a(service_nvm_common.o)
                                                  out/external/libexternal_fuota_stack.a(service_lora_config.o)
service_nvm_get_class_from_nvm                    out/external/libexternal_fuota_stack.a(service_nvm_common.o)
                                                  out/external/libexternal_fuota_stack.a(service_lora_config.o)
service_nvm_get_cli_ver_from_nvm                  out/external/libexternal_fuota_stack.a(service_nvm_common.o)
service_nvm_get_codingrate_from_nvm               out/external/libexternal_fuota_stack.a(service_nvm_common.o)
service_nvm_get_crypt_IV_from_nvm                 out/external/libexternal_fuota_stack.a(service_nvm_common.o)
service_nvm_get_crypt_enable_from_nvm             out/external/libexternal_fuota_stack.a(service_nvm_common.o)
service_nvm_get_crypt_key_from_nvm                out/external/libexternal_fuota_stack.a(service_nvm_common.o)
service_nvm_get_crypto_from_nvm                   out/external/libexternal_fuota_stack.a(service_nvm_common.o)
                                                  out/external/libexternal_fuota_stack.a(service_lora_config.o)
service_nvm_get_dcs_from_nvm                      out/external/libexternal_fuota_stack.a(service_nvm_common.o)
                                                  out/external/libexternal_fuota_stack.a(service_lora_config.o)
service_nvm_get_debug_level_from_nvm              out/external/libexternal_fuota_stack.a(service_nvm_common.o)
service_nvm_get_delta_sec_from_nvm                out/external/libexternal_fuota_stack.a(service_nvm_common.o)
service_nvm_get_delta_subsec_from_nvm             out/external/libexternal_fuota_stack.a(service_nvm_common.o)
service_nvm_get_dev_addr_from_nvm                 out/external/libexternal_fuota_stack.a(service_nvm_common.o)
                                                  out/external/libexternal_fuota_stack.a(service_lora_config.o)
service_nvm_get_dev_eui_from_nvm                  out/external/libexternal_fuota_stack.a(service_nvm_common.o)
                                                  out/external/libexternal_fuota_stack.a(service_lora_config.o)
service_nvm_get_dr_from_nvm                       out/external/libexternal_fuota_stack.a(service_nvm_common.o)
                                                  out/external/libexternal_fuota_stack.a(service_lora_config.o)
service_nvm_get_fdev_from_nvm                     out/external/libexternal_fuota_stack.a(service_nvm_common.o)
service_nvm_get_firmware_ver_from_nvm             out/external/libexternal_fuota_stack.a(service_nvm_common.o)
service_nvm_get_fix_length_payload_from_nvm       out/external/libexternal_fuota_stack.a(service_nvm_common.o)
service_nvm_get_freq_from_nvm                     out/external/libexternal_fuota_stack.a(service_nvm_common.o)
service_nvm_get_hwmodel_from_nvm                  out/external/libexternal_fuota_stack.a(service_nvm_common.o)
service_nvm_get_iqinverted_from_nvm               out/external/libexternal_fuota_stack.a(service_nvm_common.o)
service_nvm_get_jn1dl_from_nvm                    out/external/libexternal_fuota_stack.a(service_nvm_common.o)
                                                  out/external/libexternal_fuota_stack.a(service_lora_config.o)
service_nvm_get_jn2dl_from_nvm                    out/external/libexternal_fuota_stack.a(service_nvm_common.o)
                                                  out/external/libexternal_fuota_stack.a(service_lora_config.o)
service_nvm_get_join_start_from_nvm               out/external/libexternal_fuota_stack.a(service_nvm_common.o)
                                                  out/external/libexternal_fuota_stack.a(service_lora_config.o)
service_nvm_get_lbt_from_nvm                      out/external/libexternal_fuota_stack.a(service_nvm_common.o)
                                                  out/external/libexternal_fuota_stack.a(service_lora_config.o)
service_nvm_get_lbt_rssi_from_nvm                 out/external/libexternal_fuota_stack.a(service_nvm_common.o)
                                                  out/external/libexternal_fuota_stack.a(service_lora_config.o)
service_nvm_get_lbt_scantime_from_nvm             out/external/libexternal_fuota_stack.a(service_nvm_common.o)
                                                  out/external/libexternal_fuota_stack.a(service_lora_config.o)
service_nvm_get_linkcheck_from_nvm                out/external/libexternal_fuota_stack.a(service_nvm_common.o)
                                                  out/external/libexternal_fuota_stack.a(service_lora_config.o)
service_nvm_get_lock_status_from_nvm              out/external/libexternal_fuota_stack.a(service_nvm_common.o)
service_nvm_get_macgroup1_from_nvm                out/external/libexternal_fuota_stack.a(service_nvm_common.o)
                                                  out/external/libexternal_fuota_stack.a(service_lora_config.o)
service_nvm_get_macgroup2_from_nvm                out/external/libexternal_fuota_stack.a(service_nvm_common.o)
                                                  out/external/libexternal_fuota_stack.a(service_lora_config.o)
service_nvm_get_mask_from_nvm                     out/external/libexternal_fuota_stack.a(service_nvm_common.o)
service_nvm_get_mode_type_from_nvm                out/external/libexternal_fuota_stack.a(service_nvm_common.o)
service_nvm_get_multicast_from_nvm                out/external/libexternal_fuota_stack.a(service_nvm_common.o)
                                                  out/external/libexternal_fuota_stack.a(service_lora_multicast.o)
service_nvm_get_net_id_from_nvm                   out/external/libexternal_fuota_stack.a(service_nvm_common.o)
                                                  out/external/libexternal_fuota_stack.a(service_lora_config.o)
service_nvm_get_njm_from_nvm                      out/external/libexternal_fuota_stack.a(service_nvm_common.o)
                                                  out/external/libexternal_fuota_stack.a(service_lora_config.o)
service_nvm_get_nwk_skey_from_nvm                 out/external/libexternal_fuota_stack.a(service_nvm_common.o)
                                                  out/external/libexternal_fuota_stack.a(service_lora_config.o)
service_nvm_get_nwm_from_nvm                      out/external/libexternal_fuota_stack.a(service_nvm_common.o)
                                                  out/external/libexternal_fuota_stack.a(service_lora_config.o)
service_nvm_get_ping_slot_periodicity_from_nvm    out/external/libexternal_fuota_stack.a(service_nvm_common.o)
                                                  out/external/libexternal_fuota_stack.a(service_lora_config.o)
service_nvm_get_powerdbm_from_nvm                 out/external/libexternal_fuota_stack.a(service_nvm_common.o)
service_nvm_get_preamlen_from_nvm                 out/external/libexternal_fuota_stack.a(service_nvm_common.o)
service_nvm_get_pub_nwk_mode_from_nvm             out/external/libexternal_fuota_stack.a(service_nvm_common.o)
                                                  out/external/libexternal_fuota_stack.a(service_lora_config.o)
service_nvm_get_regionchannels_from_nvm           out/external/libexternal_fuota_stack.a(service_nvm_common.o)
                                                  out/external/libexternal_fuota_stack.a(service_lora_config.o)
service_nvm_get_retry_from_nvm                    out/external/libexternal_fuota_stack.a(service_nvm_common.o)
                                                  out/external/libexternal_fuota_stack.a(service_lora_config.o)
service_nvm_get_rx1dl_from_nvm                    out/external/libexternal_fuota_stack.a(service_nvm_common.o)
                                                  out/external/libexternal_fuota_stack.a(service_lora_config.o)
service_nvm_get_rx2dl_from_nvm                    out/external/libexternal_fuota_stack.a(service_nvm_common.o)
                                                  out/external/libexternal_fuota_stack.a(service_lora_config.o)
service_nvm_get_rx2dr_from_nvm                    out/external/libexternal_fuota_stack.a(service_nvm_common.o)
                                                  out/external/libexternal_fuota_stack.a(service_lora_config.o)
service_nvm_get_rx2fq_from_nvm                    out/external/libexternal_fuota_stack.a(service_nvm_common.o)
                                                  out/external/libexternal_fuota_stack.a(service_lora_config.o)
service_nvm_get_sec_element_from_nvm              out/external/libexternal_fuota_stack.a(service_nvm_common.o)
                                                  out/external/libexternal_fuota_stack.a(service_lora_config.o)
service_nvm_get_serial_passwd_from_nvm            out/external/libexternal_fuota_stack.a(service_nvm_common.o)
service_nvm_get_sf_from_nvm                       out/external/libexternal_fuota_stack.a(service_nvm_common.o)
service_nvm_get_sn_from_nvm                       out/external/libexternal_fuota_stack.a(service_nvm_common.o)
service_nvm_get_symbol_timeout_from_nvm           out/external/libexternal_fuota_stack.a(service_nvm_common.o)
service_nvm_get_syncword_from_nvm                 out/external/libexternal_fuota_stack.a(service_nvm_common.o)
service_nvm_get_tp_port_from_nvm                  out/external/libexternal_fuota_stack.a(service_nvm_common.o)
service_nvm_get_txpower_from_nvm                  out/external/libexternal_fuota_stack.a(service_nvm_common.o)
                                                  out/external/libexternal_fuota_stack.a(service_lora_config.o)
service_nvm_read_user_data                        out/external/libexternal_fuota_stack.a(service_nvm_common.o)
service_nvm_set_CAD_to_nvm                        out/external/libexternal_fuota_stack.a(service_nvm_common.o)
service_nvm_set_DevNonce_to_nvm                   out/external/libexternal_fuota_stack.a(service_nvm_common.o)
                                                  out/external/libexternal_fuota_stack.a(service_lora_config.o)
service_nvm_set_IsCertPortOn_to_nvm               out/external/libexternal_fuota_stack.a(service_nvm_common.o)
                                                  out/external/libexternal_fuota_stack.a(service_lora_config.o)
service_nvm_set_adr_to_nvm                        out/external/libexternal_fuota_stack.a(service_nvm_common.o)
                                                  out/external/libexternal_fuota_stack.a(service_lora_config.o)
service_nvm_set_app_eui_to_nvm                    out/external/libexternal_fuota_stack.a(service_nvm_common.o)
                                                  out/external/libexternal_fuota_stack.a(service_lora_config.o)
service_nvm_set_app_key_to_nvm                    out/external/libexternal_fuota_stack.a(service_nvm_common.o)
                                                  out/external/libexternal_fuota_stack.a(service_lora_config.o)
service_nvm_set_app_skey_to_nvm                   out/external/libexternal_fuota_stack.a(service_nvm_common.o)
                                                  out/external/libexternal_fuota_stack.a(service_lora_config.o)
service_nvm_set_atcmd_alias_to_nvm                out/external/libexternal_fuota_stack.a(service_nvm_common.o)
service_nvm_set_atcmd_echo_to_nvm                 out/external/libexternal_fuota_stack.a(service_nvm_common.o)
service_nvm_set_auto_join_max_cnt_to_nvm          out/external/libexternal_fuota_stack.a(service_nvm_common.o)
                                                  out/external/libexternal_fuota_stack.a(service_lora_config.o)
service_nvm_set_auto_join_period_to_nvm           out/external/libexternal_fuota_stack.a(service_nvm_common.o)
                                                  out/external/libexternal_fuota_stack.a(service_lora_config.o)
service_nvm_set_auto_join_to_nvm                  out/external/libexternal_fuota_stack.a(service_nvm_common.o)
                                                  out/external/libexternal_fuota_stack.a(service_lora_config.o)
service_nvm_set_auto_sleep_level_to_nvm           out/external/libexternal_fuota_stack.a(service_nvm_common.o)
service_nvm_set_auto_sleep_time_to_nvm            out/external/libexternal_fuota_stack.a(service_nvm_common.o)
service_nvm_set_band_to_nvm                       out/external/libexternal_fuota_stack.a(service_nvm_common.o)
service_nvm_set_bandwidth_to_nvm                  out/external/libexternal_fuota_stack.a(service_nvm_common.o)
service_nvm_set_baudrate_to_nvm                   out/external/libexternal_fuota_stack.a(service_nvm_common.o)
service_nvm_set_bitrate_to_nvm                    out/external/libexternal_fuota_stack.a(service_nvm_common.o)
service_nvm_set_certi_to_nvm                      out/external/libexternal_fuota_stack.a(service_nvm_common.o)
service_nvm_set_cfg_to_nvm                        out/external/libexternal_fuota_stack.a(service_nvm_common.o)
service_nvm_set_cfm_to_nvm                        out/external/libexternal_fuota_stack.a(service_nvm_common.o)
                                                  out/external/libexternal_fuota_stack.a(service_lora_config.o)
service_nvm_set_chs_to_nvm                        out/external/libexternal_fuota_stack.a(service_nvm_common.o)
service_nvm_set_class_to_nvm                      out/external/libexternal_fuota_stack.a(service_nvm_common.o)
service_nvm_set_cli_ver_to_nvm                    out/external/libexternal_fuota_stack.a(service_nvm_common.o)
service_nvm_set_codingrate_to_nvm                 out/external/libexternal_fuota_stack.a(service_nvm_common.o)
service_nvm_set_crypt_IV_to_nvm                   out/external/libexternal_fuota_stack.a(service_nvm_common.o)
service_nvm_set_crypt_enable_to_nvm               out/external/libexternal_fuota_stack.a(service_nvm_common.o)
service_nvm_set_crypt_key_to_nvm                  out/external/libexternal_fuota_stack.a(service_nvm_common.o)
service_nvm_set_crypto_to_nvm                     out/external/libexternal_fuota_stack.a(service_nvm_common.o)
service_nvm_set_dcs_to_nvm                        out/external/libexternal_fuota_stack.a(service_nvm_common.o)
                                                  out/external/libexternal_fuota_stack.a(service_lora_config.o)
service_nvm_set_debug_level_to_nvm                out/external/libexternal_fuota_stack.a(service_nvm_common.o)
service_nvm_set_delta_sec_to_nvm                  out/external/libexternal_fuota_stack.a(service_nvm_common.o)
service_nvm_set_delta_subsec_to_nvm               out/external/libexternal_fuota_stack.a(service_nvm_common.o)
service_nvm_set_dev_addr_to_nvm                   out/external/libexternal_fuota_stack.a(service_nvm_common.o)
                                                  out/external/libexternal_fuota_stack.a(service_lora_config.o)
service_nvm_set_dev_eui_to_nvm                    out/external/libexternal_fuota_stack.a(service_nvm_common.o)
                                                  out/external/libexternal_fuota_stack.a(service_lora_config.o)
service_nvm_set_dr_to_nvm                         out/external/libexternal_fuota_stack.a(service_nvm_common.o)
service_nvm_set_fdev_to_nvm                       out/external/libexternal_fuota_stack.a(service_nvm_common.o)
service_nvm_set_firmware_ver_to_nvm               out/external/libexternal_fuota_stack.a(service_nvm_common.o)
service_nvm_set_fix_length_payload_to_nvm         out/external/libexternal_fuota_stack.a(service_nvm_common.o)
service_nvm_set_freq_to_nvm                       out/external/libexternal_fuota_stack.a(service_nvm_common.o)
service_nvm_set_hwmodel_to_nvm                    out/external/libexternal_fuota_stack.a(service_nvm_common.o)
service_nvm_set_iqinverted_to_nvm                 out/external/libexternal_fuota_stack.a(service_nvm_common.o)
service_nvm_set_jn1dl_to_nvm                      out/external/libexternal_fuota_stack.a(service_nvm_common.o)
                                                  out/external/libexternal_fuota_stack.a(service_lora_config.o)
service_nvm_set_jn2dl_to_nvm                      out/external/libexternal_fuota_stack.a(service_nvm_common.o)
                                                  out/external/libexternal_fuota_stack.a(service_lora_config.o)
service_nvm_set_join_start_to_nvm                 out/external/libexternal_fuota_stack.a(service_nvm_common.o)
                                                  out/external/libexternal_fuota_stack.a(service_lora_config.o)
service_nvm_set_lbt_rssi_to_nvm                   out/external/libexternal_fuota_stack.a(service_nvm_common.o)
                                                  out/external/libexternal_fuota_stack.a(service_lora_config.o)
service_nvm_set_lbt_scantime_to_nvm               out/external/libexternal_fuota_stack.a(service_nvm_common.o)
                                                  out/external/libexternal_fuota_stack.a(service_lora_config.o)
service_nvm_set_lbt_to_nvm                        out/external/libexternal_fuota_stack.a(service_nvm_common.o)
                                                  out/external/libexternal_fuota_stack.a(service_lora_config.o)
service_nvm_set_linkcheck_to_nvm                  out/external/libexternal_fuota_stack.a(service_nvm_common.o)
                                                  out/external/libexternal_fuota_stack.a(service_lora_config.o)
service_nvm_set_lock_status_to_nvm                out/external/libexternal_fuota_stack.a(service_nvm_common.o)
service_nvm_set_lora_nvm_data_to_nvm              out/external/libexternal_fuota_stack.a(service_nvm_common.o)
                                                  out/external/libexternal_fuota_stack.a(service_lora_config.o)
service_nvm_set_macgroup1_to_nvm                  out/external/libexternal_fuota_stack.a(service_nvm_common.o)
service_nvm_set_macgroup2_to_nvm                  out/external/libexternal_fuota_stack.a(service_nvm_common.o)
service_nvm_set_mask_to_nvm                       out/external/libexternal_fuota_stack.a(service_nvm_common.o)
service_nvm_set_mode_type_to_nvm                  out/external/libexternal_fuota_stack.a(service_nvm_common.o)
service_nvm_set_multicast_to_nvm                  out/external/libexternal_fuota_stack.a(service_nvm_common.o)
                                                  out/external/libexternal_fuota_stack.a(service_lora_multicast.o)
service_nvm_set_net_id_to_nvm                     out/external/libexternal_fuota_stack.a(service_nvm_common.o)
service_nvm_set_njm_to_nvm                        out/external/libexternal_fuota_stack.a(service_nvm_common.o)
service_nvm_set_nwk_skey_to_nvm                   out/external/libexternal_fuota_stack.a(service_nvm_common.o)
                                                  out/external/libexternal_fuota_stack.a(service_lora_config.o)
service_nvm_set_nwm_to_nvm                        out/external/libexternal_fuota_stack.a(service_nvm_common.o)
                                                  out/external/libexternal_fuota_stack.a(service_lora_config.o)
service_nvm_set_ping_slot_periodicity_to_nvm      out/external/libexternal_fuota_stack.a(service_nvm_common.o)
                                                  out/external/libexternal_fuota_stack.a(service_lora_config.o)
service_nvm_set_powerdbm_to_nvm                   out/external/libexternal_fuota_stack.a(service_nvm_common.o)
service_nvm_set_preamlen_to_nvm                   out/external/libexternal_fuota_stack.a(service_nvm_common.o)
service_nvm_set_pub_nwk_mode_to_nvm               out/external/libexternal_fuota_stack.a(service_nvm_common.o)
                                                  out/external/libexternal_fuota_stack.a(service_lora_config.o)
service_nvm_set_regionchannels_to_nvm             out/external/libexternal_fuota_stack.a(service_nvm_common.o)
service_nvm_set_retry_to_nvm                      out/external/libexternal_fuota_stack.a(service_nvm_common.o)
                                                  out/external/libexternal_fuota_stack.a(service_lora_config.o)
service_nvm_set_rx1dl_to_nvm                      out/external/libexternal_fuota_stack.a(service_nvm_common.o)
                                                  out/external/libexternal_fuota_stack.a(service_lora_config.o)
service_nvm_set_rx2dl_to_nvm                      out/external/libexternal_fuota_stack.a(service_nvm_common.o)
                                                  out/external/libexternal_fuota_stack.a(service_lora_config.o)
service_nvm_set_rx2dr_to_nvm                      out/external/libexternal_fuota_stack.a(service_nvm_common.o)
                                                  out/external/libexternal_fuota_stack.a(service_lora_config.o)
service_nvm_set_rx2fq_to_nvm                      out/external/libexternal_fuota_stack.a(service_nvm_common.o)
                                                  out/external/libexternal_fuota_stack.a(service_lora_config.o)
service_nvm_set_sec_element_to_nvm                out/external/libexternal_fuota_stack.a(service_nvm_common.o)
service_nvm_set_serial_passwd_to_nvm              out/external/libexternal_fuota_stack.a(service_nvm_common.o)
service_nvm_set_sf_to_nvm                         out/external/libexternal_fuota_stack.a(service_nvm_common.o)
service_nvm_set_sn_to_nvm                         out/external/libexternal_fuota_stack.a(service_nvm_common.o)
service_nvm_set_symbol_timeout_to_nvm             out/external/libexternal_fuota_stack.a(service_nvm_common.o)
service_nvm_set_syncword_to_nvm                   out/external/libexternal_fuota_stack.a(service_nvm_common.o)
service_nvm_set_tp_port_to_nvm                    out/external/libexternal_fuota_stack.a(service_nvm_common.o)
service_nvm_set_txpower_to_nvm                    out/external/libexternal_fuota_stack.a(service_nvm_common.o)
service_nvm_write_user_data                       out/external/libexternal_fuota_stack.a(service_nvm_common.o)
srand1                                            out/external/libexternal_fuota_stack.a(utilities.o)
                                                  out/external/libexternal_fuota_stack.a(LoRaMac.o)
strlen                                            /opt/gcc-arm-none-eabi-10-2020-q4-major/bin/../lib/gcc/arm-none-eabi/10.2.1/../../../../arm-none-eabi/lib/thumb/v7e-m/nofp/libc_nano.a(lib_a-strlen.o)
                                                  out/external/libexternal_fuota_stack.a(stm32_tiny_vsnprintf.o)
                                                  out/external/libexternal_fuota_stack.a(service_nvm_common.o)
sw_version                                        /home/jenkins/workspace/RUI_Release/rui-v3/version.o
tiny_vsnprintf_like                               out/external/libexternal_fuota_stack.a(stm32_tiny_vsnprintf.o)
                                                  out/external/libexternal_fuota_stack.a(service_lora_config.o)
udrv_flash_check_addr_valid                       out/external/libexternal_fuota_stack.a(udrv_flash.o)
udrv_flash_deinit                                 out/external/libexternal_fuota_stack.a(udrv_flash.o)
udrv_flash_erase                                  out/external/libexternal_fuota_stack.a(udrv_flash.o)
udrv_flash_get_page_size                          out/external/libexternal_fuota_stack.a(udrv_flash.o)
udrv_flash_init                                   out/external/libexternal_fuota_stack.a(udrv_flash.o)
udrv_flash_initialized                            out/external/libexternal_fuota_stack.a(udrv_flash.o)
udrv_flash_read                                   out/external/libexternal_fuota_stack.a(udrv_flash.o)
                                                  out/external/libexternal_fuota_stack.a(service_nvm_common.o)
                                                  out/external/libexternal_fuota_stack.a(service_lora_config.o)
udrv_flash_resume                                 out/external/libexternal_fuota_stack.a(udrv_flash.o)
udrv_flash_suspend                                out/external/libexternal_fuota_stack.a(udrv_flash.o)
udrv_flash_write                                  out/external/libexternal_fuota_stack.a(udrv_flash.o)
                                                  out/external/libexternal_fuota_stack.a(service_nvm_common.o)
uhal_crypto_aes_cbc_decrypt                       out/external/libexternal_fuota_stack.a(uhal_crypto.o)
uhal_crypto_aes_cbc_encrypt                       out/external/libexternal_fuota_stack.a(uhal_crypto.o)
uhal_crypto_aes_ctr_decrypt                       out/external/libexternal_fuota_stack.a(uhal_crypto.o)
uhal_crypto_aes_ctr_encrypt                       out/external/libexternal_fuota_stack.a(uhal_crypto.o)
uhal_crypto_aes_ecb_decrypt                       out/external/libexternal_fuota_stack.a(uhal_crypto.o)
uhal_crypto_aes_ecb_encrypt                       out/external/libexternal_fuota_stack.a(uhal_crypto.o)
uhal_cyrpto_set_iv                                out/external/libexternal_fuota_stack.a(uhal_crypto.o)
uhal_cyrpto_set_key                               out/external/libexternal_fuota_stack.a(uhal_crypto.o)
uhal_flash_check_addr_valid                       out/external/libexternal_fuota_stack.a(uhal_flash.o)
                                                  out/external/libexternal_fuota_stack.a(udrv_flash.o)
uhal_flash_deinit                                 out/external/libexternal_fuota_stack.a(uhal_flash.o)
                                                  out/external/libexternal_fuota_stack.a(udrv_flash.o)
uhal_flash_erase                                  out/external/libexternal_fuota_stack.a(uhal_flash.o)
                                                  out/external/libexternal_fuota_stack.a(udrv_flash.o)
uhal_flash_get_page_size                          out/external/libexternal_fuota_stack.a(uhal_flash.o)
                                                  out/external/libexternal_fuota_stack.a(udrv_flash.o)
uhal_flash_init                                   out/external/libexternal_fuota_stack.a(uhal_flash.o)
                                                  out/external/libexternal_fuota_stack.a(udrv_flash.o)
uhal_flash_read                                   out/external/libexternal_fuota_stack.a(uhal_flash.o)
                                                  out/external/libexternal_fuota_stack.a(udrv_flash.o)
uhal_flash_resume                                 out/external/libexternal_fuota_stack.a(uhal_flash.o)
uhal_flash_suspend                                out/external/libexternal_fuota_stack.a(uhal_flash.o)
uhal_flash_write                                  out/external/libexternal_fuota_stack.a(uhal_flash.o)
                                                  out/external/libexternal_fuota_stack.a(udrv_flash.o)
uhal_rtc_cancel_alarm                             out/external/libexternal_fuota_stack.a(uhal_rtc.o)
uhal_rtc_get_counter                              out/external/libexternal_fuota_stack.a(uhal_rtc.o)
uhal_rtc_get_elapsed_time                         out/external/libexternal_fuota_stack.a(uhal_rtc.o)
uhal_rtc_get_timestamp                            out/external/libexternal_fuota_stack.a(uhal_rtc.o)
uhal_rtc_get_us_timestamp                         out/external/libexternal_fuota_stack.a(uhal_rtc.o)
uhal_rtc_init                                     out/external/libexternal_fuota_stack.a(uhal_rtc.o)
                                                  out/external/libexternal_fuota_stack.a(timer_if.o)
uhal_rtc_ms2tick                                  out/external/libexternal_fuota_stack.a(uhal_rtc.o)
uhal_rtc_resume                                   out/external/libexternal_fuota_stack.a(uhal_rtc.o)
uhal_rtc_set_alarm                                out/external/libexternal_fuota_stack.a(uhal_rtc.o)
uhal_rtc_sleep_mode_ms2tick                       out/external/libexternal_fuota_stack.a(uhal_rtc.o)
uhal_rtc_sleep_mode_tick2ms                       out/external/libexternal_fuota_stack.a(uhal_rtc.o)
uhal_rtc_suspend                                  out/external/libexternal_fuota_stack.a(uhal_rtc.o)
uhal_rtc_tick2ms                                  out/external/libexternal_fuota_stack.a(uhal_rtc.o)
uhal_sys_board_critical_section_begin             out/external/libexternal_fuota_stack.a(uhal_system.o)
                                                  out/external/libexternal_fuota_stack.a(board.o)
uhal_sys_board_critical_section_end               out/external/libexternal_fuota_stack.a(uhal_system.o)
                                                  out/external/libexternal_fuota_stack.a(board.o)
uhal_sys_get_uid                                  out/external/libexternal_fuota_stack.a(uhal_system.o)
uhal_sys_random                                   out/external/libexternal_fuota_stack.a(uhal_system.o)
uhal_sys_randomseed                               out/external/libexternal_fuota_stack.a(uhal_system.o)
uhal_sys_reboot                                   out/external/libexternal_fuota_stack.a(uhal_system.o)
uhal_sys_user_app_timer_create                    out/external/libexternal_fuota_stack.a(uhal_system.o)
uhal_sys_user_app_timer_start                     out/external/libexternal_fuota_stack.a(uhal_system.o)
uhal_sys_user_app_timer_stop                      out/external/libexternal_fuota_stack.a(uhal_system.o)
uwTick                                            out/external/libexternal_fuota_stack.a(stm32wlxx_hal.o)
uwTickFreq                                        out/external/libexternal_fuota_stack.a(stm32wlxx_hal.o)
uwTickPrio                                        out/external/libexternal_fuota_stack.a(stm32wlxx_hal.o)
                                                  out/external/libexternal_fuota_stack.a(stm32wlxx_hal_rcc.o)
